
fdlibm:     file format elf64-x86-64


Disassembly of section .init:

0000000000001000 <_init>:
    1000:	endbr64 
    1004:	sub    rsp,0x8
    1008:	mov    rax,QWORD PTR [rip+0x15fd9]        # 16fe8 <__gmon_start__>
    100f:	test   rax,rax
    1012:	je     1016 <_init+0x16>
    1014:	call   rax
    1016:	add    rsp,0x8
    101a:	ret    

Disassembly of section .plt:

0000000000001020 <.plt>:
    1020:	push   QWORD PTR [rip+0x15f42]        # 16f68 <_GLOBAL_OFFSET_TABLE_+0x8>
    1026:	bnd jmp QWORD PTR [rip+0x15f43]        # 16f70 <_GLOBAL_OFFSET_TABLE_+0x10>
    102d:	nop    DWORD PTR [rax]
    1030:	endbr64 
    1034:	push   0x0
    1039:	bnd jmp 1020 <.plt>
    103f:	nop
    1040:	endbr64 
    1044:	push   0x1
    1049:	bnd jmp 1020 <.plt>
    104f:	nop
    1050:	endbr64 
    1054:	push   0x2
    1059:	bnd jmp 1020 <.plt>
    105f:	nop
    1060:	endbr64 
    1064:	push   0x3
    1069:	bnd jmp 1020 <.plt>
    106f:	nop
    1070:	endbr64 
    1074:	push   0x4
    1079:	bnd jmp 1020 <.plt>
    107f:	nop
    1080:	endbr64 
    1084:	push   0x5
    1089:	bnd jmp 1020 <.plt>
    108f:	nop
    1090:	endbr64 
    1094:	push   0x6
    1099:	bnd jmp 1020 <.plt>
    109f:	nop
    10a0:	endbr64 
    10a4:	push   0x7
    10a9:	bnd jmp 1020 <.plt>
    10af:	nop
    10b0:	endbr64 
    10b4:	push   0x8
    10b9:	bnd jmp 1020 <.plt>
    10bf:	nop
    10c0:	endbr64 
    10c4:	push   0x9
    10c9:	bnd jmp 1020 <.plt>
    10cf:	nop
    10d0:	endbr64 
    10d4:	push   0xa
    10d9:	bnd jmp 1020 <.plt>
    10df:	nop
    10e0:	endbr64 
    10e4:	push   0xb
    10e9:	bnd jmp 1020 <.plt>
    10ef:	nop

Disassembly of section .plt.got:

00000000000010f0 <__cxa_finalize@plt>:
    10f0:	endbr64 
    10f4:	bnd jmp QWORD PTR [rip+0x15efd]        # 16ff8 <__cxa_finalize@GLIBC_2.2.5>
    10fb:	nop    DWORD PTR [rax+rax*1+0x0]

Disassembly of section .plt.sec:

0000000000001100 <__errno_location@plt>:
    1100:	endbr64 
    1104:	bnd jmp QWORD PTR [rip+0x15e6d]        # 16f78 <__errno_location@GLIBC_2.2.5>
    110b:	nop    DWORD PTR [rax+rax*1+0x0]

0000000000001110 <puts@plt>:
    1110:	endbr64 
    1114:	bnd jmp QWORD PTR [rip+0x15e65]        # 16f80 <puts@GLIBC_2.2.5>
    111b:	nop    DWORD PTR [rax+rax*1+0x0]

0000000000001120 <fclose@plt>:
    1120:	endbr64 
    1124:	bnd jmp QWORD PTR [rip+0x15e5d]        # 16f88 <fclose@GLIBC_2.2.5>
    112b:	nop    DWORD PTR [rax+rax*1+0x0]

0000000000001130 <__stack_chk_fail@plt>:
    1130:	endbr64 
    1134:	bnd jmp QWORD PTR [rip+0x15e55]        # 16f90 <__stack_chk_fail@GLIBC_2.4>
    113b:	nop    DWORD PTR [rax+rax*1+0x0]

0000000000001140 <printf@plt>:
    1140:	endbr64 
    1144:	bnd jmp QWORD PTR [rip+0x15e4d]        # 16f98 <printf@GLIBC_2.2.5>
    114b:	nop    DWORD PTR [rax+rax*1+0x0]

0000000000001150 <fputs@plt>:
    1150:	endbr64 
    1154:	bnd jmp QWORD PTR [rip+0x15e45]        # 16fa0 <fputs@GLIBC_2.2.5>
    115b:	nop    DWORD PTR [rax+rax*1+0x0]

0000000000001160 <fgets@plt>:
    1160:	endbr64 
    1164:	bnd jmp QWORD PTR [rip+0x15e3d]        # 16fa8 <fgets@GLIBC_2.2.5>
    116b:	nop    DWORD PTR [rax+rax*1+0x0]

0000000000001170 <__isoc99_sscanf@plt>:
    1170:	endbr64 
    1174:	bnd jmp QWORD PTR [rip+0x15e35]        # 16fb0 <__isoc99_sscanf@GLIBC_2.7>
    117b:	nop    DWORD PTR [rax+rax*1+0x0]

0000000000001180 <fopen@plt>:
    1180:	endbr64 
    1184:	bnd jmp QWORD PTR [rip+0x15e2d]        # 16fb8 <fopen@GLIBC_2.2.5>
    118b:	nop    DWORD PTR [rax+rax*1+0x0]

0000000000001190 <strtok@plt>:
    1190:	endbr64 
    1194:	bnd jmp QWORD PTR [rip+0x15e25]        # 16fc0 <strtok@GLIBC_2.2.5>
    119b:	nop    DWORD PTR [rax+rax*1+0x0]

00000000000011a0 <exit@plt>:
    11a0:	endbr64 
    11a4:	bnd jmp QWORD PTR [rip+0x15e1d]        # 16fc8 <exit@GLIBC_2.2.5>
    11ab:	nop    DWORD PTR [rax+rax*1+0x0]

00000000000011b0 <fwrite@plt>:
    11b0:	endbr64 
    11b4:	bnd jmp QWORD PTR [rip+0x15e15]        # 16fd0 <fwrite@GLIBC_2.2.5>
    11bb:	nop    DWORD PTR [rax+rax*1+0x0]

Disassembly of section .text:

00000000000011c0 <_start>:
    11c0:	endbr64 
    11c4:	xor    ebp,ebp
    11c6:	mov    r9,rdx
    11c9:	pop    rsi
    11ca:	mov    rdx,rsp
    11cd:	and    rsp,0xfffffffffffffff0
    11d1:	push   rax
    11d2:	push   rsp
    11d3:	lea    r8,[rip+0xf646]        # 10820 <__libc_csu_fini>
    11da:	lea    rcx,[rip+0xf5cf]        # 107b0 <__libc_csu_init>
    11e1:	lea    rdi,[rip+0xf3b9]        # 105a1 <main>
    11e8:	call   QWORD PTR [rip+0x15df2]        # 16fe0 <__libc_start_main@GLIBC_2.2.5>
    11ee:	hlt    
    11ef:	nop

00000000000011f0 <deregister_tm_clones>:
    11f0:	lea    rdi,[rip+0x15e41]        # 17038 <__TMC_END__>
    11f7:	lea    rax,[rip+0x15e3a]        # 17038 <__TMC_END__>
    11fe:	cmp    rax,rdi
    1201:	je     1218 <deregister_tm_clones+0x28>
    1203:	mov    rax,QWORD PTR [rip+0x15dce]        # 16fd8 <_ITM_deregisterTMCloneTable>
    120a:	test   rax,rax
    120d:	je     1218 <deregister_tm_clones+0x28>
    120f:	jmp    rax
    1211:	nop    DWORD PTR [rax+0x0]
    1218:	ret    
    1219:	nop    DWORD PTR [rax+0x0]

0000000000001220 <register_tm_clones>:
    1220:	lea    rdi,[rip+0x15e11]        # 17038 <__TMC_END__>
    1227:	lea    rsi,[rip+0x15e0a]        # 17038 <__TMC_END__>
    122e:	sub    rsi,rdi
    1231:	mov    rax,rsi
    1234:	shr    rsi,0x3f
    1238:	sar    rax,0x3
    123c:	add    rsi,rax
    123f:	sar    rsi,1
    1242:	je     1258 <register_tm_clones+0x38>
    1244:	mov    rax,QWORD PTR [rip+0x15da5]        # 16ff0 <_ITM_registerTMCloneTable>
    124b:	test   rax,rax
    124e:	je     1258 <register_tm_clones+0x38>
    1250:	jmp    rax
    1252:	nop    WORD PTR [rax+rax*1+0x0]
    1258:	ret    
    1259:	nop    DWORD PTR [rax+0x0]

0000000000001260 <__do_global_dtors_aux>:
    1260:	endbr64 
    1264:	cmp    BYTE PTR [rip+0x15ddd],0x0        # 17048 <completed.8061>
    126b:	jne    1298 <__do_global_dtors_aux+0x38>
    126d:	push   rbp
    126e:	cmp    QWORD PTR [rip+0x15d82],0x0        # 16ff8 <__cxa_finalize@GLIBC_2.2.5>
    1276:	mov    rbp,rsp
    1279:	je     1287 <__do_global_dtors_aux+0x27>
    127b:	mov    rdi,QWORD PTR [rip+0x15d86]        # 17008 <__dso_handle>
    1282:	call   10f0 <__cxa_finalize@plt>
    1287:	call   11f0 <deregister_tm_clones>
    128c:	mov    BYTE PTR [rip+0x15db5],0x1        # 17048 <completed.8061>
    1293:	pop    rbp
    1294:	ret    
    1295:	nop    DWORD PTR [rax]
    1298:	ret    
    1299:	nop    DWORD PTR [rax+0x0]

00000000000012a0 <frame_dummy>:
    12a0:	endbr64 
    12a4:	jmp    1220 <register_tm_clones>

00000000000012a9 <__ieee754_acos>:
    12a9:	endbr64 
    12ad:	push   rbp
    12ae:	mov    rbp,rsp
    12b1:	sub    rsp,0x60
    12b5:	movsd  QWORD PTR [rbp-0x58],xmm0
    12ba:	mov    rax,QWORD PTR fs:0x28
    12c3:	mov    QWORD PTR [rbp-0x8],rax
    12c7:	xor    eax,eax
    12c9:	mov    eax,DWORD PTR [rbp-0x54]
    12cc:	mov    DWORD PTR [rbp-0x50],eax
    12cf:	mov    eax,DWORD PTR [rbp-0x50]
    12d2:	and    eax,0x7fffffff
    12d7:	mov    DWORD PTR [rbp-0x4c],eax
    12da:	cmp    DWORD PTR [rbp-0x4c],0x3fefffff
    12e1:	jle    134d <__ieee754_acos+0xa4>
    12e3:	mov    eax,DWORD PTR [rbp-0x4c]
    12e6:	lea    edx,[rax-0x3ff00000]
    12ec:	lea    rax,[rbp-0x58]
    12f0:	mov    eax,DWORD PTR [rax]
    12f2:	or     eax,edx
    12f4:	test   eax,eax
    12f6:	jne    1328 <__ieee754_acos+0x7f>
    12f8:	cmp    DWORD PTR [rbp-0x50],0x0
    12fc:	jle    1307 <__ieee754_acos+0x5e>
    12fe:	pxor   xmm0,xmm0
    1302:	jmp    17ae <__ieee754_acos+0x505>
    1307:	movsd  xmm0,QWORD PTR [rip+0xfd69]        # 11078 <qS4+0x8>
    130f:	movapd xmm1,xmm0
    1313:	addsd  xmm1,xmm0
    1317:	movsd  xmm0,QWORD PTR [rip+0xfd61]        # 11080 <qS4+0x10>
    131f:	addsd  xmm0,xmm1
    1323:	jmp    17ae <__ieee754_acos+0x505>
    1328:	movsd  xmm0,QWORD PTR [rbp-0x58]
    132d:	movsd  xmm1,QWORD PTR [rbp-0x58]
    1332:	subsd  xmm0,xmm1
    1336:	movsd  xmm1,QWORD PTR [rbp-0x58]
    133b:	movsd  xmm2,QWORD PTR [rbp-0x58]
    1340:	subsd  xmm1,xmm2
    1344:	divsd  xmm0,xmm1
    1348:	jmp    17ae <__ieee754_acos+0x505>
    134d:	cmp    DWORD PTR [rbp-0x4c],0x3fdfffff
    1354:	jg     14ae <__ieee754_acos+0x205>
    135a:	cmp    DWORD PTR [rbp-0x4c],0x3c600000
    1361:	jg     137c <__ieee754_acos+0xd3>
    1363:	movsd  xmm1,QWORD PTR [rip+0xfd1d]        # 11088 <qS4+0x18>
    136b:	movsd  xmm0,QWORD PTR [rip+0xfd05]        # 11078 <qS4+0x8>
    1373:	addsd  xmm0,xmm1
    1377:	jmp    17ae <__ieee754_acos+0x505>
    137c:	movsd  xmm1,QWORD PTR [rbp-0x58]
    1381:	movsd  xmm0,QWORD PTR [rbp-0x58]
    1386:	mulsd  xmm0,xmm1
    138a:	movsd  QWORD PTR [rbp-0x40],xmm0
    138f:	movsd  xmm0,QWORD PTR [rip+0xfcf9]        # 11090 <qS4+0x20>
    1397:	movapd xmm1,xmm0
    139b:	mulsd  xmm1,QWORD PTR [rbp-0x40]
    13a0:	movsd  xmm0,QWORD PTR [rip+0xfcf0]        # 11098 <qS4+0x28>
    13a8:	addsd  xmm0,xmm1
    13ac:	movapd xmm1,xmm0
    13b0:	mulsd  xmm1,QWORD PTR [rbp-0x40]
    13b5:	movsd  xmm0,QWORD PTR [rip+0xfce3]        # 110a0 <qS4+0x30>
    13bd:	addsd  xmm0,xmm1
    13c1:	movapd xmm1,xmm0
    13c5:	mulsd  xmm1,QWORD PTR [rbp-0x40]
    13ca:	movsd  xmm0,QWORD PTR [rip+0xfcd6]        # 110a8 <qS4+0x38>
    13d2:	addsd  xmm0,xmm1
    13d6:	movapd xmm1,xmm0
    13da:	mulsd  xmm1,QWORD PTR [rbp-0x40]
    13df:	movsd  xmm0,QWORD PTR [rip+0xfcc9]        # 110b0 <qS4+0x40>
    13e7:	addsd  xmm0,xmm1
    13eb:	movapd xmm1,xmm0
    13ef:	mulsd  xmm1,QWORD PTR [rbp-0x40]
    13f4:	movsd  xmm0,QWORD PTR [rip+0xfcbc]        # 110b8 <qS4+0x48>
    13fc:	addsd  xmm0,xmm1
    1400:	movsd  xmm1,QWORD PTR [rbp-0x40]
    1405:	mulsd  xmm0,xmm1
    1409:	movsd  QWORD PTR [rbp-0x28],xmm0
    140e:	movsd  xmm0,QWORD PTR [rip+0xfcaa]        # 110c0 <qS4+0x50>
    1416:	movapd xmm1,xmm0
    141a:	mulsd  xmm1,QWORD PTR [rbp-0x40]
    141f:	movsd  xmm0,QWORD PTR [rip+0xfca1]        # 110c8 <qS4+0x58>
    1427:	addsd  xmm0,xmm1
    142b:	movapd xmm1,xmm0
    142f:	mulsd  xmm1,QWORD PTR [rbp-0x40]
    1434:	movsd  xmm0,QWORD PTR [rip+0xfc94]        # 110d0 <qS4+0x60>
    143c:	addsd  xmm0,xmm1
    1440:	movapd xmm1,xmm0
    1444:	mulsd  xmm1,QWORD PTR [rbp-0x40]
    1449:	movsd  xmm0,QWORD PTR [rip+0xfc87]        # 110d8 <qS4+0x68>
    1451:	addsd  xmm0,xmm1
    1455:	movapd xmm1,xmm0
    1459:	mulsd  xmm1,QWORD PTR [rbp-0x40]
    145e:	movsd  xmm0,QWORD PTR [rip+0xfc7a]        # 110e0 <qS4+0x70>
    1466:	addsd  xmm0,xmm1
    146a:	movsd  QWORD PTR [rbp-0x20],xmm0
    146f:	movsd  xmm0,QWORD PTR [rbp-0x28]
    1474:	divsd  xmm0,QWORD PTR [rbp-0x20]
    1479:	movsd  QWORD PTR [rbp-0x18],xmm0
    147e:	movsd  xmm0,QWORD PTR [rip+0xfc02]        # 11088 <qS4+0x18>
    1486:	movsd  xmm1,QWORD PTR [rbp-0x58]
    148b:	movsd  xmm2,QWORD PTR [rip+0xfbe5]        # 11078 <qS4+0x8>
    1493:	movsd  xmm3,QWORD PTR [rbp-0x58]
    1498:	mulsd  xmm3,QWORD PTR [rbp-0x18]
    149d:	subsd  xmm2,xmm3
    14a1:	subsd  xmm1,xmm2
    14a5:	subsd  xmm0,xmm1
    14a9:	jmp    17ae <__ieee754_acos+0x505>
    14ae:	cmp    DWORD PTR [rbp-0x50],0x0
    14b2:	jns    161e <__ieee754_acos+0x375>
    14b8:	movsd  xmm1,QWORD PTR [rip+0xfc20]        # 110e0 <qS4+0x70>
    14c0:	movsd  xmm0,QWORD PTR [rbp-0x58]
    14c5:	addsd  xmm1,xmm0
    14c9:	movsd  xmm0,QWORD PTR [rip+0xfc17]        # 110e8 <qS4+0x78>
    14d1:	mulsd  xmm0,xmm1
    14d5:	movsd  QWORD PTR [rbp-0x40],xmm0
    14da:	movsd  xmm0,QWORD PTR [rip+0xfbae]        # 11090 <qS4+0x20>
    14e2:	movapd xmm1,xmm0
    14e6:	mulsd  xmm1,QWORD PTR [rbp-0x40]
    14eb:	movsd  xmm0,QWORD PTR [rip+0xfba5]        # 11098 <qS4+0x28>
    14f3:	addsd  xmm0,xmm1
    14f7:	movapd xmm1,xmm0
    14fb:	mulsd  xmm1,QWORD PTR [rbp-0x40]
    1500:	movsd  xmm0,QWORD PTR [rip+0xfb98]        # 110a0 <qS4+0x30>
    1508:	addsd  xmm0,xmm1
    150c:	movapd xmm1,xmm0
    1510:	mulsd  xmm1,QWORD PTR [rbp-0x40]
    1515:	movsd  xmm0,QWORD PTR [rip+0xfb8b]        # 110a8 <qS4+0x38>
    151d:	addsd  xmm0,xmm1
    1521:	movapd xmm1,xmm0
    1525:	mulsd  xmm1,QWORD PTR [rbp-0x40]
    152a:	movsd  xmm0,QWORD PTR [rip+0xfb7e]        # 110b0 <qS4+0x40>
    1532:	addsd  xmm0,xmm1
    1536:	movapd xmm1,xmm0
    153a:	mulsd  xmm1,QWORD PTR [rbp-0x40]
    153f:	movsd  xmm0,QWORD PTR [rip+0xfb71]        # 110b8 <qS4+0x48>
    1547:	addsd  xmm0,xmm1
    154b:	movsd  xmm1,QWORD PTR [rbp-0x40]
    1550:	mulsd  xmm0,xmm1
    1554:	movsd  QWORD PTR [rbp-0x28],xmm0
    1559:	movsd  xmm0,QWORD PTR [rip+0xfb5f]        # 110c0 <qS4+0x50>
    1561:	movapd xmm1,xmm0
    1565:	mulsd  xmm1,QWORD PTR [rbp-0x40]
    156a:	movsd  xmm0,QWORD PTR [rip+0xfb56]        # 110c8 <qS4+0x58>
    1572:	addsd  xmm0,xmm1
    1576:	movapd xmm1,xmm0
    157a:	mulsd  xmm1,QWORD PTR [rbp-0x40]
    157f:	movsd  xmm0,QWORD PTR [rip+0xfb49]        # 110d0 <qS4+0x60>
    1587:	addsd  xmm0,xmm1
    158b:	movapd xmm1,xmm0
    158f:	mulsd  xmm1,QWORD PTR [rbp-0x40]
    1594:	movsd  xmm0,QWORD PTR [rip+0xfb3c]        # 110d8 <qS4+0x68>
    159c:	addsd  xmm0,xmm1
    15a0:	movapd xmm1,xmm0
    15a4:	mulsd  xmm1,QWORD PTR [rbp-0x40]
    15a9:	movsd  xmm0,QWORD PTR [rip+0xfb2f]        # 110e0 <qS4+0x70>
    15b1:	addsd  xmm0,xmm1
    15b5:	movsd  QWORD PTR [rbp-0x20],xmm0
    15ba:	mov    rax,QWORD PTR [rbp-0x40]
    15be:	movq   xmm0,rax
    15c3:	call   10038 <sqrt>
    15c8:	movq   rax,xmm0
    15cd:	mov    QWORD PTR [rbp-0x38],rax
    15d1:	movsd  xmm0,QWORD PTR [rbp-0x28]
    15d6:	divsd  xmm0,QWORD PTR [rbp-0x20]
    15db:	movsd  QWORD PTR [rbp-0x18],xmm0
    15e0:	movsd  xmm0,QWORD PTR [rbp-0x18]
    15e5:	mulsd  xmm0,QWORD PTR [rbp-0x38]
    15ea:	movsd  xmm1,QWORD PTR [rip+0xfa86]        # 11078 <qS4+0x8>
    15f2:	subsd  xmm0,xmm1
    15f6:	movsd  QWORD PTR [rbp-0x10],xmm0
    15fb:	movsd  xmm1,QWORD PTR [rip+0xfa7d]        # 11080 <qS4+0x10>
    1603:	movsd  xmm0,QWORD PTR [rbp-0x38]
    1608:	addsd  xmm0,QWORD PTR [rbp-0x10]
    160d:	addsd  xmm0,xmm0
    1611:	subsd  xmm1,xmm0
    1615:	movapd xmm0,xmm1
    1619:	jmp    17ae <__ieee754_acos+0x505>
    161e:	movsd  xmm0,QWORD PTR [rip+0xfaba]        # 110e0 <qS4+0x70>
    1626:	movsd  xmm1,QWORD PTR [rbp-0x58]
    162b:	subsd  xmm0,xmm1
    162f:	movapd xmm1,xmm0
    1633:	movsd  xmm0,QWORD PTR [rip+0xfaad]        # 110e8 <qS4+0x78>
    163b:	mulsd  xmm0,xmm1
    163f:	movsd  QWORD PTR [rbp-0x40],xmm0
    1644:	mov    rax,QWORD PTR [rbp-0x40]
    1648:	movq   xmm0,rax
    164d:	call   10038 <sqrt>
    1652:	movq   rax,xmm0
    1657:	mov    QWORD PTR [rbp-0x38],rax
    165b:	movsd  xmm0,QWORD PTR [rbp-0x38]
    1660:	movsd  QWORD PTR [rbp-0x48],xmm0
    1665:	lea    rax,[rbp-0x48]
    1669:	mov    DWORD PTR [rax],0x0
    166f:	movsd  xmm1,QWORD PTR [rbp-0x48]
    1674:	movsd  xmm0,QWORD PTR [rbp-0x48]
    1679:	mulsd  xmm1,xmm0
    167d:	movsd  xmm0,QWORD PTR [rbp-0x40]
    1682:	subsd  xmm0,xmm1
    1686:	movsd  xmm1,QWORD PTR [rbp-0x48]
    168b:	addsd  xmm1,QWORD PTR [rbp-0x38]
    1690:	divsd  xmm0,xmm1
    1694:	movsd  QWORD PTR [rbp-0x30],xmm0
    1699:	movsd  xmm0,QWORD PTR [rip+0xf9ef]        # 11090 <qS4+0x20>
    16a1:	movapd xmm1,xmm0
    16a5:	mulsd  xmm1,QWORD PTR [rbp-0x40]
    16aa:	movsd  xmm0,QWORD PTR [rip+0xf9e6]        # 11098 <qS4+0x28>
    16b2:	addsd  xmm0,xmm1
    16b6:	movapd xmm1,xmm0
    16ba:	mulsd  xmm1,QWORD PTR [rbp-0x40]
    16bf:	movsd  xmm0,QWORD PTR [rip+0xf9d9]        # 110a0 <qS4+0x30>
    16c7:	addsd  xmm0,xmm1
    16cb:	movapd xmm1,xmm0
    16cf:	mulsd  xmm1,QWORD PTR [rbp-0x40]
    16d4:	movsd  xmm0,QWORD PTR [rip+0xf9cc]        # 110a8 <qS4+0x38>
    16dc:	addsd  xmm0,xmm1
    16e0:	movapd xmm1,xmm0
    16e4:	mulsd  xmm1,QWORD PTR [rbp-0x40]
    16e9:	movsd  xmm0,QWORD PTR [rip+0xf9bf]        # 110b0 <qS4+0x40>
    16f1:	addsd  xmm0,xmm1
    16f5:	movapd xmm1,xmm0
    16f9:	mulsd  xmm1,QWORD PTR [rbp-0x40]
    16fe:	movsd  xmm0,QWORD PTR [rip+0xf9b2]        # 110b8 <qS4+0x48>
    1706:	addsd  xmm0,xmm1
    170a:	movsd  xmm1,QWORD PTR [rbp-0x40]
    170f:	mulsd  xmm0,xmm1
    1713:	movsd  QWORD PTR [rbp-0x28],xmm0
    1718:	movsd  xmm0,QWORD PTR [rip+0xf9a0]        # 110c0 <qS4+0x50>
    1720:	movapd xmm1,xmm0
    1724:	mulsd  xmm1,QWORD PTR [rbp-0x40]
    1729:	movsd  xmm0,QWORD PTR [rip+0xf997]        # 110c8 <qS4+0x58>
    1731:	addsd  xmm0,xmm1
    1735:	movapd xmm1,xmm0
    1739:	mulsd  xmm1,QWORD PTR [rbp-0x40]
    173e:	movsd  xmm0,QWORD PTR [rip+0xf98a]        # 110d0 <qS4+0x60>
    1746:	addsd  xmm0,xmm1
    174a:	movapd xmm1,xmm0
    174e:	mulsd  xmm1,QWORD PTR [rbp-0x40]
    1753:	movsd  xmm0,QWORD PTR [rip+0xf97d]        # 110d8 <qS4+0x68>
    175b:	addsd  xmm0,xmm1
    175f:	movapd xmm1,xmm0
    1763:	mulsd  xmm1,QWORD PTR [rbp-0x40]
    1768:	movsd  xmm0,QWORD PTR [rip+0xf970]        # 110e0 <qS4+0x70>
    1770:	addsd  xmm0,xmm1
    1774:	movsd  QWORD PTR [rbp-0x20],xmm0
    1779:	movsd  xmm0,QWORD PTR [rbp-0x28]
    177e:	divsd  xmm0,QWORD PTR [rbp-0x20]
    1783:	movsd  QWORD PTR [rbp-0x18],xmm0
    1788:	movsd  xmm0,QWORD PTR [rbp-0x18]
    178d:	mulsd  xmm0,QWORD PTR [rbp-0x38]
    1792:	movsd  xmm1,QWORD PTR [rbp-0x30]
    1797:	addsd  xmm0,xmm1
    179b:	movsd  QWORD PTR [rbp-0x10],xmm0
    17a0:	movsd  xmm0,QWORD PTR [rbp-0x48]
    17a5:	addsd  xmm0,QWORD PTR [rbp-0x10]
    17aa:	addsd  xmm0,xmm0
    17ae:	mov    rax,QWORD PTR [rbp-0x8]
    17b2:	xor    rax,QWORD PTR fs:0x28
    17bb:	je     17c2 <__ieee754_acos+0x519>
    17bd:	call   1130 <__stack_chk_fail@plt>
    17c2:	leave  
    17c3:	ret    

00000000000017c4 <__ieee754_acosh>:
    17c4:	endbr64 
    17c8:	push   rbp
    17c9:	mov    rbp,rsp
    17cc:	sub    rsp,0x30
    17d0:	movsd  QWORD PTR [rbp-0x18],xmm0
    17d5:	mov    eax,DWORD PTR [rbp-0x14]
    17d8:	mov    DWORD PTR [rbp-0xc],eax
    17db:	cmp    DWORD PTR [rbp-0xc],0x3fefffff
    17e2:	jg     1809 <__ieee754_acosh+0x45>
    17e4:	movsd  xmm0,QWORD PTR [rbp-0x18]
    17e9:	movsd  xmm1,QWORD PTR [rbp-0x18]
    17ee:	subsd  xmm0,xmm1
    17f2:	movsd  xmm1,QWORD PTR [rbp-0x18]
    17f7:	movsd  xmm2,QWORD PTR [rbp-0x18]
    17fc:	subsd  xmm1,xmm2
    1800:	divsd  xmm0,xmm1
    1804:	jmp    191c <__ieee754_acosh+0x158>
    1809:	cmp    DWORD PTR [rbp-0xc],0x41afffff
    1810:	jle    1848 <__ieee754_acosh+0x84>
    1812:	cmp    DWORD PTR [rbp-0xc],0x7fefffff
    1819:	jle    1829 <__ieee754_acosh+0x65>
    181b:	movsd  xmm0,QWORD PTR [rbp-0x18]
    1820:	addsd  xmm0,xmm0
    1824:	jmp    191c <__ieee754_acosh+0x158>
    1829:	mov    rax,QWORD PTR [rbp-0x18]
    182d:	movq   xmm0,rax
    1832:	call   5f42 <__ieee754_log>
    1837:	movsd  xmm1,QWORD PTR [rip+0xf8c1]        # 11100 <ln2+0x8>
    183f:	addsd  xmm0,xmm1
    1843:	jmp    191c <__ieee754_acosh+0x158>
    1848:	mov    eax,DWORD PTR [rbp-0xc]
    184b:	lea    edx,[rax-0x3ff00000]
    1851:	lea    rax,[rbp-0x18]
    1855:	mov    eax,DWORD PTR [rax]
    1857:	or     eax,edx
    1859:	test   eax,eax
    185b:	jne    1866 <__ieee754_acosh+0xa2>
    185d:	pxor   xmm0,xmm0
    1861:	jmp    191c <__ieee754_acosh+0x158>
    1866:	cmp    DWORD PTR [rbp-0xc],0x40000000
    186d:	jle    18dd <__ieee754_acosh+0x119>
    186f:	movsd  xmm1,QWORD PTR [rbp-0x18]
    1874:	movsd  xmm0,QWORD PTR [rbp-0x18]
    1879:	mulsd  xmm0,xmm1
    187d:	movsd  QWORD PTR [rbp-0x8],xmm0
    1882:	movsd  xmm0,QWORD PTR [rbp-0x18]
    1887:	addsd  xmm0,xmm0
    188b:	movsd  QWORD PTR [rbp-0x20],xmm0
    1890:	movsd  xmm4,QWORD PTR [rip+0xf870]        # 11108 <ln2+0x10>
    1898:	movsd  QWORD PTR [rbp-0x28],xmm4
    189d:	movsd  xmm1,QWORD PTR [rip+0xf863]        # 11108 <ln2+0x10>
    18a5:	movsd  xmm0,QWORD PTR [rbp-0x8]
    18aa:	subsd  xmm0,xmm1
    18ae:	call   10038 <sqrt>
    18b3:	movsd  xmm1,QWORD PTR [rbp-0x18]
    18b8:	addsd  xmm0,xmm1
    18bc:	movsd  xmm4,QWORD PTR [rbp-0x28]
    18c1:	divsd  xmm4,xmm0
    18c5:	movapd xmm0,xmm4
    18c9:	movsd  xmm3,QWORD PTR [rbp-0x20]
    18ce:	subsd  xmm3,xmm0
    18d2:	movapd xmm0,xmm3
    18d6:	call   5f42 <__ieee754_log>
    18db:	jmp    191c <__ieee754_acosh+0x158>
    18dd:	movsd  xmm0,QWORD PTR [rbp-0x18]
    18e2:	movsd  xmm1,QWORD PTR [rip+0xf81e]        # 11108 <ln2+0x10>
    18ea:	subsd  xmm0,xmm1
    18ee:	movsd  QWORD PTR [rbp-0x8],xmm0
    18f3:	movsd  xmm0,QWORD PTR [rbp-0x8]
    18f8:	movapd xmm1,xmm0
    18fc:	addsd  xmm1,xmm0
    1900:	movsd  xmm0,QWORD PTR [rbp-0x8]
    1905:	mulsd  xmm0,xmm0
    1909:	addsd  xmm0,xmm1
    190d:	call   10038 <sqrt>
    1912:	addsd  xmm0,QWORD PTR [rbp-0x8]
    1917:	call   d8ca <log1p>
    191c:	leave  
    191d:	ret    

000000000000191e <__ieee754_asin>:
    191e:	endbr64 
    1922:	push   rbp
    1923:	mov    rbp,rsp
    1926:	sub    rsp,0x60
    192a:	movsd  QWORD PTR [rbp-0x58],xmm0
    192f:	mov    rax,QWORD PTR fs:0x28
    1938:	mov    QWORD PTR [rbp-0x8],rax
    193c:	xor    eax,eax
    193e:	mov    eax,DWORD PTR [rbp-0x54]
    1941:	mov    DWORD PTR [rbp-0x48],eax
    1944:	mov    eax,DWORD PTR [rbp-0x48]
    1947:	and    eax,0x7fffffff
    194c:	mov    DWORD PTR [rbp-0x44],eax
    194f:	cmp    DWORD PTR [rbp-0x44],0x3fefffff
    1956:	jle    19bd <__ieee754_asin+0x9f>
    1958:	mov    eax,DWORD PTR [rbp-0x44]
    195b:	lea    edx,[rax-0x3ff00000]
    1961:	lea    rax,[rbp-0x58]
    1965:	mov    eax,DWORD PTR [rax]
    1967:	or     eax,edx
    1969:	test   eax,eax
    196b:	jne    1998 <__ieee754_asin+0x7a>
    196d:	movsd  xmm1,QWORD PTR [rbp-0x58]
    1972:	movsd  xmm0,QWORD PTR [rip+0xf80e]        # 11188 <qS4+0x8>
    197a:	mulsd  xmm1,xmm0
    197e:	movsd  xmm2,QWORD PTR [rbp-0x58]
    1983:	movsd  xmm0,QWORD PTR [rip+0xf805]        # 11190 <qS4+0x10>
    198b:	mulsd  xmm0,xmm2
    198f:	addsd  xmm0,xmm1
    1993:	jmp    1d76 <__ieee754_asin+0x458>
    1998:	movsd  xmm0,QWORD PTR [rbp-0x58]
    199d:	movsd  xmm1,QWORD PTR [rbp-0x58]
    19a2:	subsd  xmm0,xmm1
    19a6:	movsd  xmm1,QWORD PTR [rbp-0x58]
    19ab:	movsd  xmm2,QWORD PTR [rbp-0x58]
    19b0:	subsd  xmm1,xmm2
    19b4:	divsd  xmm0,xmm1
    19b8:	jmp    1d76 <__ieee754_asin+0x458>
    19bd:	cmp    DWORD PTR [rbp-0x44],0x3fdfffff
    19c4:	jg     1b1a <__ieee754_asin+0x1fc>
    19ca:	cmp    DWORD PTR [rbp-0x44],0x3e3fffff
    19d1:	jg     19fc <__ieee754_asin+0xde>
    19d3:	movsd  xmm1,QWORD PTR [rip+0xf7bd]        # 11198 <qS4+0x18>
    19db:	movsd  xmm0,QWORD PTR [rbp-0x58]
    19e0:	addsd  xmm0,xmm1
    19e4:	movsd  xmm1,QWORD PTR [rip+0xf7b4]        # 111a0 <qS4+0x20>
    19ec:	comisd xmm0,xmm1
    19f0:	jbe    1a0f <__ieee754_asin+0xf1>
    19f2:	movsd  xmm0,QWORD PTR [rbp-0x58]
    19f7:	jmp    1d76 <__ieee754_asin+0x458>
    19fc:	movsd  xmm1,QWORD PTR [rbp-0x58]
    1a01:	movsd  xmm0,QWORD PTR [rbp-0x58]
    1a06:	mulsd  xmm0,xmm1
    1a0a:	movsd  QWORD PTR [rbp-0x38],xmm0
    1a0f:	movsd  xmm0,QWORD PTR [rip+0xf791]        # 111a8 <qS4+0x28>
    1a17:	movapd xmm1,xmm0
    1a1b:	mulsd  xmm1,QWORD PTR [rbp-0x38]
    1a20:	movsd  xmm0,QWORD PTR [rip+0xf788]        # 111b0 <qS4+0x30>
    1a28:	addsd  xmm0,xmm1
    1a2c:	movapd xmm1,xmm0
    1a30:	mulsd  xmm1,QWORD PTR [rbp-0x38]
    1a35:	movsd  xmm0,QWORD PTR [rip+0xf77b]        # 111b8 <qS4+0x38>
    1a3d:	addsd  xmm0,xmm1
    1a41:	movapd xmm1,xmm0
    1a45:	mulsd  xmm1,QWORD PTR [rbp-0x38]
    1a4a:	movsd  xmm0,QWORD PTR [rip+0xf76e]        # 111c0 <qS4+0x40>
    1a52:	addsd  xmm0,xmm1
    1a56:	movapd xmm1,xmm0
    1a5a:	mulsd  xmm1,QWORD PTR [rbp-0x38]
    1a5f:	movsd  xmm0,QWORD PTR [rip+0xf761]        # 111c8 <qS4+0x48>
    1a67:	addsd  xmm0,xmm1
    1a6b:	movapd xmm1,xmm0
    1a6f:	mulsd  xmm1,QWORD PTR [rbp-0x38]
    1a74:	movsd  xmm0,QWORD PTR [rip+0xf754]        # 111d0 <qS4+0x50>
    1a7c:	addsd  xmm0,xmm1
    1a80:	movsd  xmm1,QWORD PTR [rbp-0x38]
    1a85:	mulsd  xmm0,xmm1
    1a89:	movsd  QWORD PTR [rbp-0x30],xmm0
    1a8e:	movsd  xmm0,QWORD PTR [rip+0xf742]        # 111d8 <qS4+0x58>
    1a96:	movapd xmm1,xmm0
    1a9a:	mulsd  xmm1,QWORD PTR [rbp-0x38]
    1a9f:	movsd  xmm0,QWORD PTR [rip+0xf739]        # 111e0 <qS4+0x60>
    1aa7:	addsd  xmm0,xmm1
    1aab:	movapd xmm1,xmm0
    1aaf:	mulsd  xmm1,QWORD PTR [rbp-0x38]
    1ab4:	movsd  xmm0,QWORD PTR [rip+0xf72c]        # 111e8 <qS4+0x68>
    1abc:	addsd  xmm0,xmm1
    1ac0:	movapd xmm1,xmm0
    1ac4:	mulsd  xmm1,QWORD PTR [rbp-0x38]
    1ac9:	movsd  xmm0,QWORD PTR [rip+0xf71f]        # 111f0 <qS4+0x70>
    1ad1:	addsd  xmm0,xmm1
    1ad5:	movapd xmm1,xmm0
    1ad9:	mulsd  xmm1,QWORD PTR [rbp-0x38]
    1ade:	movsd  xmm0,QWORD PTR [rip+0xf6ba]        # 111a0 <qS4+0x20>
    1ae6:	addsd  xmm0,xmm1
    1aea:	movsd  QWORD PTR [rbp-0x28],xmm0
    1aef:	movsd  xmm0,QWORD PTR [rbp-0x30]
    1af4:	divsd  xmm0,QWORD PTR [rbp-0x28]
    1af9:	movsd  QWORD PTR [rbp-0x40],xmm0
    1afe:	movsd  xmm1,QWORD PTR [rbp-0x58]
    1b03:	movsd  xmm0,QWORD PTR [rbp-0x40]
    1b08:	mulsd  xmm1,xmm0
    1b0c:	movsd  xmm0,QWORD PTR [rbp-0x58]
    1b11:	addsd  xmm0,xmm1
    1b15:	jmp    1d76 <__ieee754_asin+0x458>
    1b1a:	movsd  xmm0,QWORD PTR [rip+0xf67e]        # 111a0 <qS4+0x20>
    1b22:	movsd  xmm1,QWORD PTR [rbp-0x58]
    1b27:	movq   xmm2,QWORD PTR [rip+0xf6d1]        # 11200 <qS4+0x80>
    1b2f:	andpd  xmm1,xmm2
    1b33:	subsd  xmm0,xmm1
    1b37:	movsd  QWORD PTR [rbp-0x40],xmm0
    1b3c:	movsd  xmm1,QWORD PTR [rbp-0x40]
    1b41:	movsd  xmm0,QWORD PTR [rip+0xf6c7]        # 11210 <qS4+0x90>
    1b49:	mulsd  xmm0,xmm1
    1b4d:	movsd  QWORD PTR [rbp-0x38],xmm0
    1b52:	movsd  xmm0,QWORD PTR [rip+0xf64e]        # 111a8 <qS4+0x28>
    1b5a:	movapd xmm1,xmm0
    1b5e:	mulsd  xmm1,QWORD PTR [rbp-0x38]
    1b63:	movsd  xmm0,QWORD PTR [rip+0xf645]        # 111b0 <qS4+0x30>
    1b6b:	addsd  xmm0,xmm1
    1b6f:	movapd xmm1,xmm0
    1b73:	mulsd  xmm1,QWORD PTR [rbp-0x38]
    1b78:	movsd  xmm0,QWORD PTR [rip+0xf638]        # 111b8 <qS4+0x38>
    1b80:	addsd  xmm0,xmm1
    1b84:	movapd xmm1,xmm0
    1b88:	mulsd  xmm1,QWORD PTR [rbp-0x38]
    1b8d:	movsd  xmm0,QWORD PTR [rip+0xf62b]        # 111c0 <qS4+0x40>
    1b95:	addsd  xmm0,xmm1
    1b99:	movapd xmm1,xmm0
    1b9d:	mulsd  xmm1,QWORD PTR [rbp-0x38]
    1ba2:	movsd  xmm0,QWORD PTR [rip+0xf61e]        # 111c8 <qS4+0x48>
    1baa:	addsd  xmm0,xmm1
    1bae:	movapd xmm1,xmm0
    1bb2:	mulsd  xmm1,QWORD PTR [rbp-0x38]
    1bb7:	movsd  xmm0,QWORD PTR [rip+0xf611]        # 111d0 <qS4+0x50>
    1bbf:	addsd  xmm0,xmm1
    1bc3:	movsd  xmm1,QWORD PTR [rbp-0x38]
    1bc8:	mulsd  xmm0,xmm1
    1bcc:	movsd  QWORD PTR [rbp-0x30],xmm0
    1bd1:	movsd  xmm0,QWORD PTR [rip+0xf5ff]        # 111d8 <qS4+0x58>
    1bd9:	movapd xmm1,xmm0
    1bdd:	mulsd  xmm1,QWORD PTR [rbp-0x38]
    1be2:	movsd  xmm0,QWORD PTR [rip+0xf5f6]        # 111e0 <qS4+0x60>
    1bea:	addsd  xmm0,xmm1
    1bee:	movapd xmm1,xmm0
    1bf2:	mulsd  xmm1,QWORD PTR [rbp-0x38]
    1bf7:	movsd  xmm0,QWORD PTR [rip+0xf5e9]        # 111e8 <qS4+0x68>
    1bff:	addsd  xmm0,xmm1
    1c03:	movapd xmm1,xmm0
    1c07:	mulsd  xmm1,QWORD PTR [rbp-0x38]
    1c0c:	movsd  xmm0,QWORD PTR [rip+0xf5dc]        # 111f0 <qS4+0x70>
    1c14:	addsd  xmm0,xmm1
    1c18:	movapd xmm1,xmm0
    1c1c:	mulsd  xmm1,QWORD PTR [rbp-0x38]
    1c21:	movsd  xmm0,QWORD PTR [rip+0xf577]        # 111a0 <qS4+0x20>
    1c29:	addsd  xmm0,xmm1
    1c2d:	movsd  QWORD PTR [rbp-0x28],xmm0
    1c32:	mov    rax,QWORD PTR [rbp-0x38]
    1c36:	movq   xmm0,rax
    1c3b:	call   10038 <sqrt>
    1c40:	movq   rax,xmm0
    1c45:	mov    QWORD PTR [rbp-0x20],rax
    1c49:	cmp    DWORD PTR [rbp-0x44],0x3fef3332
    1c50:	jle    1c9a <__ieee754_asin+0x37c>
    1c52:	movsd  xmm0,QWORD PTR [rbp-0x30]
    1c57:	divsd  xmm0,QWORD PTR [rbp-0x28]
    1c5c:	movsd  QWORD PTR [rbp-0x40],xmm0
    1c61:	movsd  xmm1,QWORD PTR [rip+0xf51f]        # 11188 <qS4+0x8>
    1c69:	movsd  xmm0,QWORD PTR [rbp-0x40]
    1c6e:	mulsd  xmm0,QWORD PTR [rbp-0x20]
    1c73:	addsd  xmm0,QWORD PTR [rbp-0x20]
    1c78:	addsd  xmm0,xmm0
    1c7c:	movsd  xmm2,QWORD PTR [rip+0xf50c]        # 11190 <qS4+0x10>
    1c84:	subsd  xmm0,xmm2
    1c88:	subsd  xmm1,xmm0
    1c8c:	movapd xmm0,xmm1
    1c90:	movsd  QWORD PTR [rbp-0x38],xmm0
    1c95:	jmp    1d58 <__ieee754_asin+0x43a>
    1c9a:	movsd  xmm0,QWORD PTR [rbp-0x20]
    1c9f:	movsd  QWORD PTR [rbp-0x40],xmm0
    1ca4:	lea    rax,[rbp-0x40]
    1ca8:	mov    DWORD PTR [rax],0x0
    1cae:	movsd  xmm1,QWORD PTR [rbp-0x40]
    1cb3:	movsd  xmm0,QWORD PTR [rbp-0x40]
    1cb8:	mulsd  xmm1,xmm0
    1cbc:	movsd  xmm0,QWORD PTR [rbp-0x38]
    1cc1:	subsd  xmm0,xmm1
    1cc5:	movsd  xmm1,QWORD PTR [rbp-0x40]
    1cca:	addsd  xmm1,QWORD PTR [rbp-0x20]
    1ccf:	divsd  xmm0,xmm1
    1cd3:	movsd  QWORD PTR [rbp-0x18],xmm0
    1cd8:	movsd  xmm0,QWORD PTR [rbp-0x30]
    1cdd:	divsd  xmm0,QWORD PTR [rbp-0x28]
    1ce2:	movsd  QWORD PTR [rbp-0x10],xmm0
    1ce7:	movsd  xmm0,QWORD PTR [rbp-0x20]
    1cec:	addsd  xmm0,xmm0
    1cf0:	movapd xmm1,xmm0
    1cf4:	mulsd  xmm1,QWORD PTR [rbp-0x10]
    1cf9:	movsd  xmm2,QWORD PTR [rip+0xf48f]        # 11190 <qS4+0x10>
    1d01:	movsd  xmm0,QWORD PTR [rbp-0x18]
    1d06:	addsd  xmm0,xmm0
    1d0a:	subsd  xmm2,xmm0
    1d0e:	movapd xmm0,xmm2
    1d12:	subsd  xmm1,xmm0
    1d16:	movapd xmm0,xmm1
    1d1a:	movsd  QWORD PTR [rbp-0x30],xmm0
    1d1f:	movsd  xmm1,QWORD PTR [rip+0xf4f1]        # 11218 <qS4+0x98>
    1d27:	movsd  xmm0,QWORD PTR [rbp-0x40]
    1d2c:	addsd  xmm0,xmm0
    1d30:	subsd  xmm1,xmm0
    1d34:	movapd xmm0,xmm1
    1d38:	movsd  QWORD PTR [rbp-0x28],xmm0
    1d3d:	movsd  xmm0,QWORD PTR [rip+0xf4d3]        # 11218 <qS4+0x98>
    1d45:	movsd  xmm1,QWORD PTR [rbp-0x30]
    1d4a:	subsd  xmm1,QWORD PTR [rbp-0x28]
    1d4f:	subsd  xmm0,xmm1
    1d53:	movsd  QWORD PTR [rbp-0x38],xmm0
    1d58:	cmp    DWORD PTR [rbp-0x48],0x0
    1d5c:	jle    1d65 <__ieee754_asin+0x447>
    1d5e:	movsd  xmm0,QWORD PTR [rbp-0x38]
    1d63:	jmp    1d76 <__ieee754_asin+0x458>
    1d65:	movsd  xmm0,QWORD PTR [rbp-0x38]
    1d6a:	movq   xmm1,QWORD PTR [rip+0xf4ae]        # 11220 <qS4+0xa0>
    1d72:	xorpd  xmm0,xmm1
    1d76:	mov    rax,QWORD PTR [rbp-0x8]
    1d7a:	xor    rax,QWORD PTR fs:0x28
    1d83:	je     1d8a <__ieee754_asin+0x46c>
    1d85:	call   1130 <__stack_chk_fail@plt>
    1d8a:	leave  
    1d8b:	ret    

0000000000001d8c <__ieee754_atan2>:
    1d8c:	endbr64 
    1d90:	push   rbp
    1d91:	mov    rbp,rsp
    1d94:	sub    rsp,0x40
    1d98:	movsd  QWORD PTR [rbp-0x38],xmm0
    1d9d:	movsd  QWORD PTR [rbp-0x40],xmm1
    1da2:	mov    rax,QWORD PTR fs:0x28
    1dab:	mov    QWORD PTR [rbp-0x8],rax
    1daf:	xor    eax,eax
    1db1:	mov    eax,DWORD PTR [rbp-0x3c]
    1db4:	mov    DWORD PTR [rbp-0x30],eax
    1db7:	mov    eax,DWORD PTR [rbp-0x30]
    1dba:	and    eax,0x7fffffff
    1dbf:	mov    DWORD PTR [rbp-0x2c],eax
    1dc2:	lea    rax,[rbp-0x40]
    1dc6:	mov    eax,DWORD PTR [rax]
    1dc8:	mov    DWORD PTR [rbp-0x28],eax
    1dcb:	mov    eax,DWORD PTR [rbp-0x34]
    1dce:	mov    DWORD PTR [rbp-0x24],eax
    1dd1:	mov    eax,DWORD PTR [rbp-0x24]
    1dd4:	and    eax,0x7fffffff
    1dd9:	mov    DWORD PTR [rbp-0x20],eax
    1ddc:	lea    rax,[rbp-0x38]
    1de0:	mov    eax,DWORD PTR [rax]
    1de2:	mov    DWORD PTR [rbp-0x1c],eax
    1de5:	mov    eax,DWORD PTR [rbp-0x28]
    1de8:	neg    eax
    1dea:	or     eax,DWORD PTR [rbp-0x28]
    1ded:	shr    eax,0x1f
    1df0:	mov    edx,eax
    1df2:	mov    eax,DWORD PTR [rbp-0x2c]
    1df5:	or     eax,edx
    1df7:	cmp    eax,0x7ff00000
    1dfc:	ja     1e17 <__ieee754_atan2+0x8b>
    1dfe:	mov    eax,DWORD PTR [rbp-0x1c]
    1e01:	neg    eax
    1e03:	or     eax,DWORD PTR [rbp-0x1c]
    1e06:	shr    eax,0x1f
    1e09:	mov    edx,eax
    1e0b:	mov    eax,DWORD PTR [rbp-0x20]
    1e0e:	or     eax,edx
    1e10:	cmp    eax,0x7ff00000
    1e15:	jbe    1e2a <__ieee754_atan2+0x9e>
    1e17:	movsd  xmm1,QWORD PTR [rbp-0x40]
    1e1c:	movsd  xmm0,QWORD PTR [rbp-0x38]
    1e21:	addsd  xmm0,xmm1
    1e25:	jmp    21c1 <__ieee754_atan2+0x435>
    1e2a:	mov    eax,DWORD PTR [rbp-0x30]
    1e2d:	sub    eax,0x3ff00000
    1e32:	or     eax,DWORD PTR [rbp-0x28]
    1e35:	test   eax,eax
    1e37:	jne    1e4c <__ieee754_atan2+0xc0>
    1e39:	mov    rax,QWORD PTR [rbp-0x38]
    1e3d:	movq   xmm0,rax
    1e42:	call   b5e8 <atan>
    1e47:	jmp    21c1 <__ieee754_atan2+0x435>
    1e4c:	mov    eax,DWORD PTR [rbp-0x24]
    1e4f:	shr    eax,0x1f
    1e52:	mov    edx,eax
    1e54:	mov    eax,DWORD PTR [rbp-0x30]
    1e57:	sar    eax,0x1e
    1e5a:	and    eax,0x2
    1e5d:	or     eax,edx
    1e5f:	mov    DWORD PTR [rbp-0x18],eax
    1e62:	mov    eax,DWORD PTR [rbp-0x20]
    1e65:	or     eax,DWORD PTR [rbp-0x1c]
    1e68:	test   eax,eax
    1e6a:	jne    1ed6 <__ieee754_atan2+0x14a>
    1e6c:	cmp    DWORD PTR [rbp-0x18],0x3
    1e70:	je     1eb1 <__ieee754_atan2+0x125>
    1e72:	cmp    DWORD PTR [rbp-0x18],0x3
    1e76:	jg     1ed6 <__ieee754_atan2+0x14a>
    1e78:	cmp    DWORD PTR [rbp-0x18],0x1
    1e7c:	jg     1e86 <__ieee754_atan2+0xfa>
    1e7e:	cmp    DWORD PTR [rbp-0x18],0x0
    1e82:	jns    1e8e <__ieee754_atan2+0x102>
    1e84:	jmp    1ed6 <__ieee754_atan2+0x14a>
    1e86:	cmp    DWORD PTR [rbp-0x18],0x2
    1e8a:	je     1e98 <__ieee754_atan2+0x10c>
    1e8c:	jmp    1ed6 <__ieee754_atan2+0x14a>
    1e8e:	movsd  xmm0,QWORD PTR [rbp-0x38]
    1e93:	jmp    21c1 <__ieee754_atan2+0x435>
    1e98:	movsd  xmm1,QWORD PTR [rip+0xf3c0]        # 11260 <pi_lo+0x8>
    1ea0:	movsd  xmm0,QWORD PTR [rip+0xf3c0]        # 11268 <pi_lo+0x10>
    1ea8:	addsd  xmm0,xmm1
    1eac:	jmp    21c1 <__ieee754_atan2+0x435>
    1eb1:	movsd  xmm0,QWORD PTR [rip+0xf3a7]        # 11260 <pi_lo+0x8>
    1eb9:	movq   xmm1,QWORD PTR [rip+0xf3af]        # 11270 <pi_lo+0x18>
    1ec1:	xorpd  xmm0,xmm1
    1ec5:	movsd  xmm1,QWORD PTR [rip+0xf39b]        # 11268 <pi_lo+0x10>
    1ecd:	subsd  xmm0,xmm1
    1ed1:	jmp    21c1 <__ieee754_atan2+0x435>
    1ed6:	mov    eax,DWORD PTR [rbp-0x2c]
    1ed9:	or     eax,DWORD PTR [rbp-0x28]
    1edc:	test   eax,eax
    1ede:	jne    1f24 <__ieee754_atan2+0x198>
    1ee0:	cmp    DWORD PTR [rbp-0x24],0x0
    1ee4:	jns    1f0b <__ieee754_atan2+0x17f>
    1ee6:	movsd  xmm0,QWORD PTR [rip+0xf392]        # 11280 <pi_lo+0x28>
    1eee:	movq   xmm1,QWORD PTR [rip+0xf37a]        # 11270 <pi_lo+0x18>
    1ef6:	xorpd  xmm0,xmm1
    1efa:	movsd  xmm1,QWORD PTR [rip+0xf366]        # 11268 <pi_lo+0x10>
    1f02:	subsd  xmm0,xmm1
    1f06:	jmp    21c1 <__ieee754_atan2+0x435>
    1f0b:	movsd  xmm1,QWORD PTR [rip+0xf36d]        # 11280 <pi_lo+0x28>
    1f13:	movsd  xmm0,QWORD PTR [rip+0xf34d]        # 11268 <pi_lo+0x10>
    1f1b:	addsd  xmm0,xmm1
    1f1f:	jmp    21c1 <__ieee754_atan2+0x435>
    1f24:	cmp    DWORD PTR [rbp-0x2c],0x7ff00000
    1f2b:	jne    207d <__ieee754_atan2+0x2f1>
    1f31:	cmp    DWORD PTR [rbp-0x20],0x7ff00000
    1f38:	jne    1ffb <__ieee754_atan2+0x26f>
    1f3e:	cmp    DWORD PTR [rbp-0x18],0x3
    1f42:	je     1fd6 <__ieee754_atan2+0x24a>
    1f48:	cmp    DWORD PTR [rbp-0x18],0x3
    1f4c:	jg     207d <__ieee754_atan2+0x2f1>
    1f52:	cmp    DWORD PTR [rbp-0x18],0x2
    1f56:	je     1fb1 <__ieee754_atan2+0x225>
    1f58:	cmp    DWORD PTR [rbp-0x18],0x2
    1f5c:	jg     207d <__ieee754_atan2+0x2f1>
    1f62:	cmp    DWORD PTR [rbp-0x18],0x0
    1f66:	je     1f73 <__ieee754_atan2+0x1e7>
    1f68:	cmp    DWORD PTR [rbp-0x18],0x1
    1f6c:	je     1f8c <__ieee754_atan2+0x200>
    1f6e:	jmp    207d <__ieee754_atan2+0x2f1>
    1f73:	movsd  xmm1,QWORD PTR [rip+0xf30d]        # 11288 <pi_lo+0x30>
    1f7b:	movsd  xmm0,QWORD PTR [rip+0xf2e5]        # 11268 <pi_lo+0x10>
    1f83:	addsd  xmm0,xmm1
    1f87:	jmp    21c1 <__ieee754_atan2+0x435>
    1f8c:	movsd  xmm0,QWORD PTR [rip+0xf2f4]        # 11288 <pi_lo+0x30>
    1f94:	movq   xmm1,QWORD PTR [rip+0xf2d4]        # 11270 <pi_lo+0x18>
    1f9c:	xorpd  xmm0,xmm1
    1fa0:	movsd  xmm1,QWORD PTR [rip+0xf2c0]        # 11268 <pi_lo+0x10>
    1fa8:	subsd  xmm0,xmm1
    1fac:	jmp    21c1 <__ieee754_atan2+0x435>
    1fb1:	movsd  xmm1,QWORD PTR [rip+0xf2cf]        # 11288 <pi_lo+0x30>
    1fb9:	movsd  xmm0,QWORD PTR [rip+0xf2cf]        # 11290 <pi_lo+0x38>
    1fc1:	mulsd  xmm1,xmm0
    1fc5:	movsd  xmm0,QWORD PTR [rip+0xf29b]        # 11268 <pi_lo+0x10>
    1fcd:	addsd  xmm0,xmm1
    1fd1:	jmp    21c1 <__ieee754_atan2+0x435>
    1fd6:	movsd  xmm1,QWORD PTR [rip+0xf2aa]        # 11288 <pi_lo+0x30>
    1fde:	movsd  xmm0,QWORD PTR [rip+0xf2b2]        # 11298 <pi_lo+0x40>
    1fe6:	mulsd  xmm0,xmm1
    1fea:	movsd  xmm1,QWORD PTR [rip+0xf276]        # 11268 <pi_lo+0x10>
    1ff2:	subsd  xmm0,xmm1
    1ff6:	jmp    21c1 <__ieee754_atan2+0x435>
    1ffb:	cmp    DWORD PTR [rbp-0x18],0x3
    1fff:	je     2058 <__ieee754_atan2+0x2cc>
    2001:	cmp    DWORD PTR [rbp-0x18],0x3
    2005:	jg     207d <__ieee754_atan2+0x2f1>
    2007:	cmp    DWORD PTR [rbp-0x18],0x2
    200b:	je     203f <__ieee754_atan2+0x2b3>
    200d:	cmp    DWORD PTR [rbp-0x18],0x2
    2011:	jg     207d <__ieee754_atan2+0x2f1>
    2013:	cmp    DWORD PTR [rbp-0x18],0x0
    2017:	je     2021 <__ieee754_atan2+0x295>
    2019:	cmp    DWORD PTR [rbp-0x18],0x1
    201d:	je     202a <__ieee754_atan2+0x29e>
    201f:	jmp    207d <__ieee754_atan2+0x2f1>
    2021:	pxor   xmm0,xmm0
    2025:	jmp    21c1 <__ieee754_atan2+0x435>
    202a:	pxor   xmm0,xmm0
    202e:	movq   xmm1,QWORD PTR [rip+0xf23a]        # 11270 <pi_lo+0x18>
    2036:	xorpd  xmm0,xmm1
    203a:	jmp    21c1 <__ieee754_atan2+0x435>
    203f:	movsd  xmm1,QWORD PTR [rip+0xf219]        # 11260 <pi_lo+0x8>
    2047:	movsd  xmm0,QWORD PTR [rip+0xf219]        # 11268 <pi_lo+0x10>
    204f:	addsd  xmm0,xmm1
    2053:	jmp    21c1 <__ieee754_atan2+0x435>
    2058:	movsd  xmm0,QWORD PTR [rip+0xf200]        # 11260 <pi_lo+0x8>
    2060:	movq   xmm1,QWORD PTR [rip+0xf208]        # 11270 <pi_lo+0x18>
    2068:	xorpd  xmm0,xmm1
    206c:	movsd  xmm1,QWORD PTR [rip+0xf1f4]        # 11268 <pi_lo+0x10>
    2074:	subsd  xmm0,xmm1
    2078:	jmp    21c1 <__ieee754_atan2+0x435>
    207d:	cmp    DWORD PTR [rbp-0x20],0x7ff00000
    2084:	jne    20ca <__ieee754_atan2+0x33e>
    2086:	cmp    DWORD PTR [rbp-0x24],0x0
    208a:	jns    20b1 <__ieee754_atan2+0x325>
    208c:	movsd  xmm0,QWORD PTR [rip+0xf1ec]        # 11280 <pi_lo+0x28>
    2094:	movq   xmm1,QWORD PTR [rip+0xf1d4]        # 11270 <pi_lo+0x18>
    209c:	xorpd  xmm0,xmm1
    20a0:	movsd  xmm1,QWORD PTR [rip+0xf1c0]        # 11268 <pi_lo+0x10>
    20a8:	subsd  xmm0,xmm1
    20ac:	jmp    21c1 <__ieee754_atan2+0x435>
    20b1:	movsd  xmm1,QWORD PTR [rip+0xf1c7]        # 11280 <pi_lo+0x28>
    20b9:	movsd  xmm0,QWORD PTR [rip+0xf1a7]        # 11268 <pi_lo+0x10>
    20c1:	addsd  xmm0,xmm1
    20c5:	jmp    21c1 <__ieee754_atan2+0x435>
    20ca:	mov    eax,DWORD PTR [rbp-0x20]
    20cd:	sub    eax,DWORD PTR [rbp-0x2c]
    20d0:	sar    eax,0x14
    20d3:	mov    DWORD PTR [rbp-0x14],eax
    20d6:	cmp    DWORD PTR [rbp-0x14],0x3c
    20da:	jle    2103 <__ieee754_atan2+0x377>
    20dc:	movsd  xmm1,QWORD PTR [rip+0xf1bc]        # 112a0 <pi_lo+0x48>
    20e4:	movsd  xmm0,QWORD PTR [rip+0xf1bc]        # 112a8 <pi_lo+0x50>
    20ec:	mulsd  xmm1,xmm0
    20f0:	movsd  xmm0,QWORD PTR [rip+0xf188]        # 11280 <pi_lo+0x28>
    20f8:	addsd  xmm0,xmm1
    20fc:	movsd  QWORD PTR [rbp-0x10],xmm0
    2101:	jmp    2142 <__ieee754_atan2+0x3b6>
    2103:	cmp    DWORD PTR [rbp-0x30],0x0
    2107:	jns    211a <__ieee754_atan2+0x38e>
    2109:	cmp    DWORD PTR [rbp-0x14],0xffffffc4
    210d:	jge    211a <__ieee754_atan2+0x38e>
    210f:	pxor   xmm0,xmm0
    2113:	movsd  QWORD PTR [rbp-0x10],xmm0
    2118:	jmp    2142 <__ieee754_atan2+0x3b6>
    211a:	movsd  xmm0,QWORD PTR [rbp-0x38]
    211f:	movsd  xmm1,QWORD PTR [rbp-0x40]
    2124:	divsd  xmm0,xmm1
    2128:	movq   xmm1,QWORD PTR [rip+0xf180]        # 112b0 <pi_lo+0x58>
    2130:	andpd  xmm0,xmm1
    2134:	call   b5e8 <atan>
    2139:	movq   rax,xmm0
    213e:	mov    QWORD PTR [rbp-0x10],rax
    2142:	cmp    DWORD PTR [rbp-0x18],0x2
    2146:	je     2185 <__ieee754_atan2+0x3f9>
    2148:	cmp    DWORD PTR [rbp-0x18],0x2
    214c:	jg     21a4 <__ieee754_atan2+0x418>
    214e:	cmp    DWORD PTR [rbp-0x18],0x0
    2152:	je     215c <__ieee754_atan2+0x3d0>
    2154:	cmp    DWORD PTR [rbp-0x18],0x1
    2158:	je     2163 <__ieee754_atan2+0x3d7>
    215a:	jmp    21a4 <__ieee754_atan2+0x418>
    215c:	movsd  xmm0,QWORD PTR [rbp-0x10]
    2161:	jmp    21c1 <__ieee754_atan2+0x435>
    2163:	lea    rax,[rbp-0x10]
    2167:	add    rax,0x4
    216b:	mov    eax,DWORD PTR [rax]
    216d:	xor    eax,0x80000000
    2172:	mov    edx,eax
    2174:	lea    rax,[rbp-0x10]
    2178:	add    rax,0x4
    217c:	mov    DWORD PTR [rax],edx
    217e:	movsd  xmm0,QWORD PTR [rbp-0x10]
    2183:	jmp    21c1 <__ieee754_atan2+0x435>
    2185:	movsd  xmm0,QWORD PTR [rip+0xf0d3]        # 11260 <pi_lo+0x8>
    218d:	movsd  xmm1,QWORD PTR [rbp-0x10]
    2192:	movsd  xmm2,QWORD PTR [rip+0xf106]        # 112a0 <pi_lo+0x48>
    219a:	subsd  xmm1,xmm2
    219e:	subsd  xmm0,xmm1
    21a2:	jmp    21c1 <__ieee754_atan2+0x435>
    21a4:	movsd  xmm0,QWORD PTR [rbp-0x10]
    21a9:	movsd  xmm1,QWORD PTR [rip+0xf0ef]        # 112a0 <pi_lo+0x48>
    21b1:	subsd  xmm0,xmm1
    21b5:	movsd  xmm1,QWORD PTR [rip+0xf0a3]        # 11260 <pi_lo+0x8>
    21bd:	subsd  xmm0,xmm1
    21c1:	mov    rax,QWORD PTR [rbp-0x8]
    21c5:	xor    rax,QWORD PTR fs:0x28
    21ce:	je     21d5 <__ieee754_atan2+0x449>
    21d0:	call   1130 <__stack_chk_fail@plt>
    21d5:	leave  
    21d6:	ret    

00000000000021d7 <__ieee754_atanh>:
    21d7:	endbr64 
    21db:	push   rbp
    21dc:	mov    rbp,rsp
    21df:	sub    rsp,0x30
    21e3:	movsd  QWORD PTR [rbp-0x28],xmm0
    21e8:	mov    eax,DWORD PTR [rbp-0x24]
    21eb:	mov    DWORD PTR [rbp-0x14],eax
    21ee:	lea    rax,[rbp-0x28]
    21f2:	mov    eax,DWORD PTR [rax]
    21f4:	mov    DWORD PTR [rbp-0x10],eax
    21f7:	mov    eax,DWORD PTR [rbp-0x14]
    21fa:	and    eax,0x7fffffff
    21ff:	mov    DWORD PTR [rbp-0xc],eax
    2202:	mov    eax,DWORD PTR [rbp-0x10]
    2205:	neg    eax
    2207:	or     eax,DWORD PTR [rbp-0x10]
    220a:	shr    eax,0x1f
    220d:	mov    edx,eax
    220f:	mov    eax,DWORD PTR [rbp-0xc]
    2212:	or     eax,edx
    2214:	cmp    eax,0x3ff00000
    2219:	jbe    2240 <__ieee754_atanh+0x69>
    221b:	movsd  xmm0,QWORD PTR [rbp-0x28]
    2220:	movsd  xmm1,QWORD PTR [rbp-0x28]
    2225:	subsd  xmm0,xmm1
    2229:	movsd  xmm1,QWORD PTR [rbp-0x28]
    222e:	movsd  xmm2,QWORD PTR [rbp-0x28]
    2233:	subsd  xmm1,xmm2
    2237:	divsd  xmm0,xmm1
    223b:	jmp    2343 <__ieee754_atanh+0x16c>
    2240:	cmp    DWORD PTR [rbp-0xc],0x3ff00000
    2247:	jne    225f <__ieee754_atanh+0x88>
    2249:	movsd  xmm0,QWORD PTR [rbp-0x28]
    224e:	movsd  xmm1,QWORD PTR [rip+0x14dfa]        # 17050 <zero>
    2256:	divsd  xmm0,xmm1
    225a:	jmp    2343 <__ieee754_atanh+0x16c>
    225f:	cmp    DWORD PTR [rbp-0xc],0x3e2fffff
    2266:	jg     2291 <__ieee754_atanh+0xba>
    2268:	movsd  xmm1,QWORD PTR [rip+0xf060]        # 112d0 <huge+0x8>
    2270:	movsd  xmm0,QWORD PTR [rbp-0x28]
    2275:	addsd  xmm0,xmm1
    2279:	movsd  xmm1,QWORD PTR [rip+0x14dcf]        # 17050 <zero>
    2281:	comisd xmm0,xmm1
    2285:	jbe    2291 <__ieee754_atanh+0xba>
    2287:	movsd  xmm0,QWORD PTR [rbp-0x28]
    228c:	jmp    2343 <__ieee754_atanh+0x16c>
    2291:	lea    rax,[rbp-0x28]
    2295:	add    rax,0x4
    2299:	mov    edx,DWORD PTR [rbp-0xc]
    229c:	mov    DWORD PTR [rax],edx
    229e:	cmp    DWORD PTR [rbp-0xc],0x3fdfffff
    22a5:	jg     22f1 <__ieee754_atanh+0x11a>
    22a7:	movsd  xmm0,QWORD PTR [rbp-0x28]
    22ac:	addsd  xmm0,xmm0
    22b0:	movsd  QWORD PTR [rbp-0x8],xmm0
    22b5:	movsd  xmm0,QWORD PTR [rbp-0x28]
    22ba:	mulsd  xmm0,QWORD PTR [rbp-0x8]
    22bf:	movsd  xmm1,QWORD PTR [rip+0xf011]        # 112d8 <huge+0x10>
    22c7:	movsd  xmm2,QWORD PTR [rbp-0x28]
    22cc:	subsd  xmm1,xmm2
    22d0:	divsd  xmm0,xmm1
    22d4:	addsd  xmm0,QWORD PTR [rbp-0x8]
    22d9:	call   d8ca <log1p>
    22de:	movsd  xmm1,QWORD PTR [rip+0xeffa]        # 112e0 <huge+0x18>
    22e6:	mulsd  xmm0,xmm1
    22ea:	movsd  QWORD PTR [rbp-0x8],xmm0
    22ef:	jmp    2325 <__ieee754_atanh+0x14e>
    22f1:	movsd  xmm0,QWORD PTR [rbp-0x28]
    22f6:	addsd  xmm0,xmm0
    22fa:	movsd  xmm1,QWORD PTR [rip+0xefd6]        # 112d8 <huge+0x10>
    2302:	movsd  xmm2,QWORD PTR [rbp-0x28]
    2307:	subsd  xmm1,xmm2
    230b:	divsd  xmm0,xmm1
    230f:	call   d8ca <log1p>
    2314:	movsd  xmm1,QWORD PTR [rip+0xefc4]        # 112e0 <huge+0x18>
    231c:	mulsd  xmm0,xmm1
    2320:	movsd  QWORD PTR [rbp-0x8],xmm0
    2325:	cmp    DWORD PTR [rbp-0x14],0x0
    2329:	js     2332 <__ieee754_atanh+0x15b>
    232b:	movsd  xmm0,QWORD PTR [rbp-0x8]
    2330:	jmp    2343 <__ieee754_atanh+0x16c>
    2332:	movsd  xmm0,QWORD PTR [rbp-0x8]
    2337:	movq   xmm1,QWORD PTR [rip+0xefb1]        # 112f0 <huge+0x28>
    233f:	xorpd  xmm0,xmm1
    2343:	leave  
    2344:	ret    

0000000000002345 <__ieee754_cosh>:
    2345:	endbr64 
    2349:	push   rbp
    234a:	mov    rbp,rsp
    234d:	sub    rsp,0x30
    2351:	movsd  QWORD PTR [rbp-0x28],xmm0
    2356:	mov    eax,DWORD PTR [rbp-0x24]
    2359:	mov    DWORD PTR [rbp-0x18],eax
    235c:	and    DWORD PTR [rbp-0x18],0x7fffffff
    2363:	cmp    DWORD PTR [rbp-0x18],0x7fefffff
    236a:	jle    237f <__ieee754_cosh+0x3a>
    236c:	movsd  xmm1,QWORD PTR [rbp-0x28]
    2371:	movsd  xmm0,QWORD PTR [rbp-0x28]
    2376:	mulsd  xmm0,xmm1
    237a:	jmp    2518 <__ieee754_cosh+0x1d3>
    237f:	cmp    DWORD PTR [rbp-0x18],0x3fd62e42
    2386:	jg     23fb <__ieee754_cosh+0xb6>
    2388:	movsd  xmm0,QWORD PTR [rbp-0x28]
    238d:	movq   xmm1,QWORD PTR [rip+0xef8b]        # 11320 <huge+0x10>
    2395:	andpd  xmm0,xmm1
    2399:	call   ce43 <expm1>
    239e:	movq   rax,xmm0
    23a3:	mov    QWORD PTR [rbp-0x8],rax
    23a7:	movsd  xmm0,QWORD PTR [rip+0xef81]        # 11330 <huge+0x20>
    23af:	movsd  xmm1,QWORD PTR [rbp-0x8]
    23b4:	addsd  xmm0,xmm1
    23b8:	movsd  QWORD PTR [rbp-0x10],xmm0
    23bd:	cmp    DWORD PTR [rbp-0x18],0x3c7fffff
    23c4:	jg     23d0 <__ieee754_cosh+0x8b>
    23c6:	movsd  xmm0,QWORD PTR [rbp-0x10]
    23cb:	jmp    2518 <__ieee754_cosh+0x1d3>
    23d0:	movsd  xmm0,QWORD PTR [rbp-0x8]
    23d5:	movapd xmm1,xmm0
    23d9:	mulsd  xmm1,xmm0
    23dd:	movsd  xmm0,QWORD PTR [rbp-0x10]
    23e2:	addsd  xmm0,xmm0
    23e6:	divsd  xmm1,xmm0
    23ea:	movsd  xmm0,QWORD PTR [rip+0xef3e]        # 11330 <huge+0x20>
    23f2:	addsd  xmm0,xmm1
    23f6:	jmp    2518 <__ieee754_cosh+0x1d3>
    23fb:	cmp    DWORD PTR [rbp-0x18],0x4035ffff
    2402:	jg     244a <__ieee754_cosh+0x105>
    2404:	movsd  xmm0,QWORD PTR [rbp-0x28]
    2409:	movq   xmm1,QWORD PTR [rip+0xef0f]        # 11320 <huge+0x10>
    2411:	andpd  xmm0,xmm1
    2415:	call   251a <__ieee754_exp>
    241a:	movq   rax,xmm0
    241f:	mov    QWORD PTR [rbp-0x8],rax
    2423:	movsd  xmm0,QWORD PTR [rip+0xef0d]        # 11338 <huge+0x28>
    242b:	movapd xmm1,xmm0
    242f:	mulsd  xmm1,QWORD PTR [rbp-0x8]
    2434:	movsd  xmm0,QWORD PTR [rip+0xeefc]        # 11338 <huge+0x28>
    243c:	divsd  xmm0,QWORD PTR [rbp-0x8]
    2441:	addsd  xmm0,xmm1
    2445:	jmp    2518 <__ieee754_cosh+0x1d3>
    244a:	cmp    DWORD PTR [rbp-0x18],0x40862e41
    2451:	jg     247a <__ieee754_cosh+0x135>
    2453:	movsd  xmm0,QWORD PTR [rbp-0x28]
    2458:	movq   xmm1,QWORD PTR [rip+0xeec0]        # 11320 <huge+0x10>
    2460:	andpd  xmm0,xmm1
    2464:	call   251a <__ieee754_exp>
    2469:	movsd  xmm1,QWORD PTR [rip+0xeec7]        # 11338 <huge+0x28>
    2471:	mulsd  xmm0,xmm1
    2475:	jmp    2518 <__ieee754_cosh+0x1d3>
    247a:	lea    rax,[rip+0xee7f]        # 11300 <one>
    2481:	mov    eax,DWORD PTR [rax]
    2483:	shr    eax,0x1d
    2486:	mov    eax,eax
    2488:	lea    rdx,[rax*4+0x0]
    2490:	lea    rax,[rbp-0x28]
    2494:	add    rax,rdx
    2497:	mov    eax,DWORD PTR [rax]
    2499:	mov    DWORD PTR [rbp-0x14],eax
    249c:	cmp    DWORD PTR [rbp-0x18],0x408633cd
    24a3:	jle    24b7 <__ieee754_cosh+0x172>
    24a5:	cmp    DWORD PTR [rbp-0x18],0x408633ce
    24ac:	jne    2504 <__ieee754_cosh+0x1bf>
    24ae:	cmp    DWORD PTR [rbp-0x14],0x8fb9f87d
    24b5:	ja     2504 <__ieee754_cosh+0x1bf>
    24b7:	movsd  xmm0,QWORD PTR [rbp-0x28]
    24bc:	movq   xmm1,QWORD PTR [rip+0xee5c]        # 11320 <huge+0x10>
    24c4:	andpd  xmm1,xmm0
    24c8:	movsd  xmm0,QWORD PTR [rip+0xee68]        # 11338 <huge+0x28>
    24d0:	mulsd  xmm0,xmm1
    24d4:	call   251a <__ieee754_exp>
    24d9:	movq   rax,xmm0
    24de:	mov    QWORD PTR [rbp-0x10],rax
    24e2:	movsd  xmm0,QWORD PTR [rip+0xee4e]        # 11338 <huge+0x28>
    24ea:	movsd  xmm1,QWORD PTR [rbp-0x10]
    24ef:	mulsd  xmm0,xmm1
    24f3:	movsd  QWORD PTR [rbp-0x8],xmm0
    24f8:	movsd  xmm0,QWORD PTR [rbp-0x8]
    24fd:	mulsd  xmm0,QWORD PTR [rbp-0x10]
    2502:	jmp    2518 <__ieee754_cosh+0x1d3>
    2504:	movsd  xmm1,QWORD PTR [rip+0xee34]        # 11340 <huge+0x30>
    250c:	movsd  xmm0,QWORD PTR [rip+0xee2c]        # 11340 <huge+0x30>
    2514:	mulsd  xmm0,xmm1
    2518:	leave  
    2519:	ret    

000000000000251a <__ieee754_exp>:
    251a:	endbr64 
    251e:	push   rbp
    251f:	mov    rbp,rsp
    2522:	sub    rsp,0x50
    2526:	movsd  QWORD PTR [rbp-0x48],xmm0
    252b:	mov    rax,QWORD PTR fs:0x28
    2534:	mov    QWORD PTR [rbp-0x8],rax
    2538:	xor    eax,eax
    253a:	lea    rax,[rbp-0x48]
    253e:	add    rax,0x4
    2542:	mov    eax,DWORD PTR [rax]
    2544:	mov    DWORD PTR [rbp-0x38],eax
    2547:	mov    eax,DWORD PTR [rbp-0x38]
    254a:	shr    eax,0x1f
    254d:	mov    DWORD PTR [rbp-0x34],eax
    2550:	and    DWORD PTR [rbp-0x38],0x7fffffff
    2557:	cmp    DWORD PTR [rbp-0x38],0x40862e41
    255e:	jbe    2602 <__ieee754_exp+0xe8>
    2564:	cmp    DWORD PTR [rbp-0x38],0x7fefffff
    256b:	jbe    25aa <__ieee754_exp+0x90>
    256d:	mov    eax,DWORD PTR [rbp-0x38]
    2570:	and    eax,0xfffff
    2575:	mov    edx,eax
    2577:	lea    rax,[rbp-0x48]
    257b:	mov    eax,DWORD PTR [rax]
    257d:	or     eax,edx
    257f:	test   eax,eax
    2581:	je     2591 <__ieee754_exp+0x77>
    2583:	movsd  xmm0,QWORD PTR [rbp-0x48]
    2588:	addsd  xmm0,xmm0
    258c:	jmp    2894 <__ieee754_exp+0x37a>
    2591:	cmp    DWORD PTR [rbp-0x34],0x0
    2595:	jne    25a1 <__ieee754_exp+0x87>
    2597:	movsd  xmm0,QWORD PTR [rbp-0x48]
    259c:	jmp    2894 <__ieee754_exp+0x37a>
    25a1:	pxor   xmm0,xmm0
    25a5:	jmp    2894 <__ieee754_exp+0x37a>
    25aa:	movsd  xmm0,QWORD PTR [rbp-0x48]
    25af:	movsd  xmm1,QWORD PTR [rip+0xee29]        # 113e0 <P5+0x8>
    25b7:	comisd xmm0,xmm1
    25bb:	jbe    25d6 <__ieee754_exp+0xbc>
    25bd:	movsd  xmm1,QWORD PTR [rip+0xee23]        # 113e8 <P5+0x10>
    25c5:	movsd  xmm0,QWORD PTR [rip+0xee1b]        # 113e8 <P5+0x10>
    25cd:	mulsd  xmm0,xmm1
    25d1:	jmp    2894 <__ieee754_exp+0x37a>
    25d6:	movsd  xmm1,QWORD PTR [rbp-0x48]
    25db:	movsd  xmm0,QWORD PTR [rip+0xee0d]        # 113f0 <P5+0x18>
    25e3:	comisd xmm0,xmm1
    25e7:	jbe    2602 <__ieee754_exp+0xe8>
    25e9:	movsd  xmm1,QWORD PTR [rip+0xee07]        # 113f8 <P5+0x20>
    25f1:	movsd  xmm0,QWORD PTR [rip+0xedff]        # 113f8 <P5+0x20>
    25f9:	mulsd  xmm0,xmm1
    25fd:	jmp    2894 <__ieee754_exp+0x37a>
    2602:	cmp    DWORD PTR [rbp-0x38],0x3fd62e42
    2609:	jbe    26ee <__ieee754_exp+0x1d4>
    260f:	cmp    DWORD PTR [rbp-0x38],0x3ff0a2b1
    2616:	ja     266d <__ieee754_exp+0x153>
    2618:	movsd  xmm0,QWORD PTR [rbp-0x48]
    261d:	mov    eax,DWORD PTR [rbp-0x34]
    2620:	cdqe   
    2622:	lea    rdx,[rax*8+0x0]
    262a:	lea    rax,[rip+0xed5f]        # 11390 <ln2HI>
    2631:	movsd  xmm1,QWORD PTR [rdx+rax*1]
    2636:	subsd  xmm0,xmm1
    263a:	movsd  QWORD PTR [rbp-0x28],xmm0
    263f:	mov    eax,DWORD PTR [rbp-0x34]
    2642:	cdqe   
    2644:	lea    rdx,[rax*8+0x0]
    264c:	lea    rax,[rip+0xed4d]        # 113a0 <ln2LO>
    2653:	movsd  xmm0,QWORD PTR [rdx+rax*1]
    2658:	movsd  QWORD PTR [rbp-0x20],xmm0
    265d:	mov    eax,0x1
    2662:	sub    eax,DWORD PTR [rbp-0x34]
    2665:	sub    eax,DWORD PTR [rbp-0x34]
    2668:	mov    DWORD PTR [rbp-0x3c],eax
    266b:	jmp    26dd <__ieee754_exp+0x1c3>
    266d:	movsd  xmm1,QWORD PTR [rip+0xed8b]        # 11400 <P5+0x28>
    2675:	movsd  xmm0,QWORD PTR [rbp-0x48]
    267a:	mulsd  xmm1,xmm0
    267e:	mov    eax,DWORD PTR [rbp-0x34]
    2681:	cdqe   
    2683:	lea    rdx,[rax*8+0x0]
    268b:	lea    rax,[rip+0xecce]        # 11360 <halF>
    2692:	movsd  xmm0,QWORD PTR [rdx+rax*1]
    2697:	addsd  xmm0,xmm1
    269b:	cvttsd2si eax,xmm0
    269f:	mov    DWORD PTR [rbp-0x3c],eax
    26a2:	cvtsi2sd xmm0,DWORD PTR [rbp-0x3c]
    26a7:	movsd  QWORD PTR [rbp-0x18],xmm0
    26ac:	movsd  xmm0,QWORD PTR [rbp-0x48]
    26b1:	movsd  xmm1,QWORD PTR [rip+0xed4f]        # 11408 <P5+0x30>
    26b9:	mulsd  xmm1,QWORD PTR [rbp-0x18]
    26be:	subsd  xmm0,xmm1
    26c2:	movsd  QWORD PTR [rbp-0x28],xmm0
    26c7:	movsd  xmm0,QWORD PTR [rip+0xed41]        # 11410 <P5+0x38>
    26cf:	movsd  xmm1,QWORD PTR [rbp-0x18]
    26d4:	mulsd  xmm0,xmm1
    26d8:	movsd  QWORD PTR [rbp-0x20],xmm0
    26dd:	movsd  xmm0,QWORD PTR [rbp-0x28]
    26e2:	subsd  xmm0,QWORD PTR [rbp-0x20]
    26e7:	movsd  QWORD PTR [rbp-0x48],xmm0
    26ec:	jmp    2733 <__ieee754_exp+0x219>
    26ee:	cmp    DWORD PTR [rbp-0x38],0x3e2fffff
    26f5:	ja     272c <__ieee754_exp+0x212>
    26f7:	movsd  xmm1,QWORD PTR [rip+0xece9]        # 113e8 <P5+0x10>
    26ff:	movsd  xmm0,QWORD PTR [rbp-0x48]
    2704:	addsd  xmm0,xmm1
    2708:	movsd  xmm1,QWORD PTR [rip+0xed08]        # 11418 <P5+0x40>
    2710:	comisd xmm0,xmm1
    2714:	jbe    2733 <__ieee754_exp+0x219>
    2716:	movsd  xmm1,QWORD PTR [rip+0xecfa]        # 11418 <P5+0x40>
    271e:	movsd  xmm0,QWORD PTR [rbp-0x48]
    2723:	addsd  xmm0,xmm1
    2727:	jmp    2894 <__ieee754_exp+0x37a>
    272c:	mov    DWORD PTR [rbp-0x3c],0x0
    2733:	movsd  xmm1,QWORD PTR [rbp-0x48]
    2738:	movsd  xmm0,QWORD PTR [rbp-0x48]
    273d:	mulsd  xmm0,xmm1
    2741:	movsd  QWORD PTR [rbp-0x18],xmm0
    2746:	movsd  xmm0,QWORD PTR [rbp-0x48]
    274b:	movsd  xmm1,QWORD PTR [rip+0xeccd]        # 11420 <P5+0x48>
    2753:	movapd xmm2,xmm1
    2757:	mulsd  xmm2,QWORD PTR [rbp-0x18]
    275c:	movsd  xmm1,QWORD PTR [rip+0xecc4]        # 11428 <P5+0x50>
    2764:	addsd  xmm1,xmm2
    2768:	movapd xmm2,xmm1
    276c:	mulsd  xmm2,QWORD PTR [rbp-0x18]
    2771:	movsd  xmm1,QWORD PTR [rip+0xecb7]        # 11430 <P5+0x58>
    2779:	addsd  xmm1,xmm2
    277d:	movapd xmm2,xmm1
    2781:	mulsd  xmm2,QWORD PTR [rbp-0x18]
    2786:	movsd  xmm1,QWORD PTR [rip+0xecaa]        # 11438 <P5+0x60>
    278e:	addsd  xmm1,xmm2
    2792:	movapd xmm2,xmm1
    2796:	mulsd  xmm2,QWORD PTR [rbp-0x18]
    279b:	movsd  xmm1,QWORD PTR [rip+0xec9d]        # 11440 <P5+0x68>
    27a3:	addsd  xmm1,xmm2
    27a7:	mulsd  xmm1,QWORD PTR [rbp-0x18]
    27ac:	subsd  xmm0,xmm1
    27b0:	movsd  QWORD PTR [rbp-0x10],xmm0
    27b5:	cmp    DWORD PTR [rbp-0x3c],0x0
    27b9:	jne    27f4 <__ieee754_exp+0x2da>
    27bb:	movsd  xmm0,QWORD PTR [rip+0xec55]        # 11418 <P5+0x40>
    27c3:	movsd  xmm1,QWORD PTR [rbp-0x48]
    27c8:	mulsd  xmm1,QWORD PTR [rbp-0x10]
    27cd:	movsd  xmm2,QWORD PTR [rbp-0x10]
    27d2:	movsd  xmm3,QWORD PTR [rip+0xec6e]        # 11448 <P5+0x70>
    27da:	subsd  xmm2,xmm3
    27de:	divsd  xmm1,xmm2
    27e2:	movsd  xmm2,QWORD PTR [rbp-0x48]
    27e7:	subsd  xmm1,xmm2
    27eb:	subsd  xmm0,xmm1
    27ef:	jmp    2894 <__ieee754_exp+0x37a>
    27f4:	movsd  xmm0,QWORD PTR [rip+0xec1c]        # 11418 <P5+0x40>
    27fc:	movsd  xmm1,QWORD PTR [rbp-0x48]
    2801:	mulsd  xmm1,QWORD PTR [rbp-0x10]
    2806:	movsd  xmm2,QWORD PTR [rip+0xec3a]        # 11448 <P5+0x70>
    280e:	subsd  xmm2,QWORD PTR [rbp-0x10]
    2813:	divsd  xmm1,xmm2
    2817:	movapd xmm2,xmm1
    281b:	movsd  xmm1,QWORD PTR [rbp-0x20]
    2820:	subsd  xmm1,xmm2
    2824:	subsd  xmm1,QWORD PTR [rbp-0x28]
    2829:	subsd  xmm0,xmm1
    282d:	movsd  QWORD PTR [rbp-0x30],xmm0
    2832:	cmp    DWORD PTR [rbp-0x3c],0xfffffc03
    2839:	jl     2860 <__ieee754_exp+0x346>
    283b:	lea    rax,[rbp-0x30]
    283f:	add    rax,0x4
    2843:	mov    edx,DWORD PTR [rax]
    2845:	mov    eax,DWORD PTR [rbp-0x3c]
    2848:	shl    eax,0x14
    284b:	mov    ecx,eax
    284d:	lea    rax,[rbp-0x30]
    2851:	add    rax,0x4
    2855:	add    edx,ecx
    2857:	mov    DWORD PTR [rax],edx
    2859:	movsd  xmm0,QWORD PTR [rbp-0x30]
    285e:	jmp    2894 <__ieee754_exp+0x37a>
    2860:	lea    rax,[rbp-0x30]
    2864:	add    rax,0x4
    2868:	mov    edx,DWORD PTR [rax]
    286a:	mov    eax,DWORD PTR [rbp-0x3c]
    286d:	add    eax,0x3e8
    2872:	shl    eax,0x14
    2875:	mov    ecx,eax
    2877:	lea    rax,[rbp-0x30]
    287b:	add    rax,0x4
    287f:	add    edx,ecx
    2881:	mov    DWORD PTR [rax],edx
    2883:	movsd  xmm1,QWORD PTR [rbp-0x30]
    2888:	movsd  xmm0,QWORD PTR [rip+0xeb68]        # 113f8 <P5+0x20>
    2890:	mulsd  xmm0,xmm1
    2894:	mov    rax,QWORD PTR [rbp-0x8]
    2898:	xor    rax,QWORD PTR fs:0x28
    28a1:	je     28a8 <__ieee754_exp+0x38e>
    28a3:	call   1130 <__stack_chk_fail@plt>
    28a8:	leave  
    28a9:	ret    

00000000000028aa <__ieee754_fmod>:
    28aa:	endbr64 
    28ae:	push   rbp
    28af:	mov    rbp,rsp
    28b2:	movsd  QWORD PTR [rbp-0x38],xmm0
    28b7:	movsd  QWORD PTR [rbp-0x40],xmm1
    28bc:	mov    eax,DWORD PTR [rbp-0x34]
    28bf:	mov    DWORD PTR [rbp-0x28],eax
    28c2:	lea    rax,[rbp-0x38]
    28c6:	mov    eax,DWORD PTR [rax]
    28c8:	mov    DWORD PTR [rbp-0x10],eax
    28cb:	mov    eax,DWORD PTR [rbp-0x3c]
    28ce:	mov    DWORD PTR [rbp-0x24],eax
    28d1:	lea    rax,[rbp-0x40]
    28d5:	mov    eax,DWORD PTR [rax]
    28d7:	mov    DWORD PTR [rbp-0xc],eax
    28da:	mov    eax,DWORD PTR [rbp-0x28]
    28dd:	and    eax,0x80000000
    28e2:	mov    DWORD PTR [rbp-0x8],eax
    28e5:	mov    eax,DWORD PTR [rbp-0x8]
    28e8:	xor    DWORD PTR [rbp-0x28],eax
    28eb:	and    DWORD PTR [rbp-0x24],0x7fffffff
    28f2:	mov    eax,DWORD PTR [rbp-0x24]
    28f5:	or     eax,DWORD PTR [rbp-0xc]
    28f8:	test   eax,eax
    28fa:	je     291e <__ieee754_fmod+0x74>
    28fc:	cmp    DWORD PTR [rbp-0x28],0x7fefffff
    2903:	jg     291e <__ieee754_fmod+0x74>
    2905:	mov    eax,DWORD PTR [rbp-0xc]
    2908:	neg    eax
    290a:	or     eax,DWORD PTR [rbp-0xc]
    290d:	shr    eax,0x1f
    2910:	mov    edx,eax
    2912:	mov    eax,DWORD PTR [rbp-0x24]
    2915:	or     eax,edx
    2917:	cmp    eax,0x7ff00000
    291c:	jbe    2943 <__ieee754_fmod+0x99>
    291e:	movsd  xmm1,QWORD PTR [rbp-0x38]
    2923:	movsd  xmm0,QWORD PTR [rbp-0x40]
    2928:	mulsd  xmm0,xmm1
    292c:	movsd  xmm2,QWORD PTR [rbp-0x38]
    2931:	movsd  xmm1,QWORD PTR [rbp-0x40]
    2936:	mulsd  xmm1,xmm2
    293a:	divsd  xmm0,xmm1
    293e:	jmp    2d43 <__ieee754_fmod+0x499>
    2943:	mov    eax,DWORD PTR [rbp-0x28]
    2946:	cmp    eax,DWORD PTR [rbp-0x24]
    2949:	jg     298e <__ieee754_fmod+0xe4>
    294b:	mov    eax,DWORD PTR [rbp-0x28]
    294e:	cmp    eax,DWORD PTR [rbp-0x24]
    2951:	jl     295b <__ieee754_fmod+0xb1>
    2953:	mov    eax,DWORD PTR [rbp-0x10]
    2956:	cmp    eax,DWORD PTR [rbp-0xc]
    2959:	jae    2965 <__ieee754_fmod+0xbb>
    295b:	movsd  xmm0,QWORD PTR [rbp-0x38]
    2960:	jmp    2d43 <__ieee754_fmod+0x499>
    2965:	mov    eax,DWORD PTR [rbp-0x10]
    2968:	cmp    eax,DWORD PTR [rbp-0xc]
    296b:	jne    298e <__ieee754_fmod+0xe4>
    296d:	mov    eax,DWORD PTR [rbp-0x8]
    2970:	shr    eax,0x1f
    2973:	mov    eax,eax
    2975:	lea    rdx,[rax*8+0x0]
    297d:	lea    rax,[rip+0xeadc]        # 11460 <Zero>
    2984:	movsd  xmm0,QWORD PTR [rdx+rax*1]
    2989:	jmp    2d43 <__ieee754_fmod+0x499>
    298e:	cmp    DWORD PTR [rbp-0x28],0xfffff
    2995:	jg     29dc <__ieee754_fmod+0x132>
    2997:	cmp    DWORD PTR [rbp-0x28],0x0
    299b:	jne    29bb <__ieee754_fmod+0x111>
    299d:	mov    DWORD PTR [rbp-0x1c],0xfffffbed
    29a4:	mov    eax,DWORD PTR [rbp-0x10]
    29a7:	mov    DWORD PTR [rbp-0x14],eax
    29aa:	jmp    29b3 <__ieee754_fmod+0x109>
    29ac:	sub    DWORD PTR [rbp-0x1c],0x1
    29b0:	shl    DWORD PTR [rbp-0x14],1
    29b3:	cmp    DWORD PTR [rbp-0x14],0x0
    29b7:	jg     29ac <__ieee754_fmod+0x102>
    29b9:	jmp    29ea <__ieee754_fmod+0x140>
    29bb:	mov    DWORD PTR [rbp-0x1c],0xfffffc02
    29c2:	mov    eax,DWORD PTR [rbp-0x28]
    29c5:	shl    eax,0xb
    29c8:	mov    DWORD PTR [rbp-0x14],eax
    29cb:	jmp    29d4 <__ieee754_fmod+0x12a>
    29cd:	sub    DWORD PTR [rbp-0x1c],0x1
    29d1:	shl    DWORD PTR [rbp-0x14],1
    29d4:	cmp    DWORD PTR [rbp-0x14],0x0
    29d8:	jg     29cd <__ieee754_fmod+0x123>
    29da:	jmp    29ea <__ieee754_fmod+0x140>
    29dc:	mov    eax,DWORD PTR [rbp-0x28]
    29df:	sar    eax,0x14
    29e2:	sub    eax,0x3ff
    29e7:	mov    DWORD PTR [rbp-0x1c],eax
    29ea:	cmp    DWORD PTR [rbp-0x24],0xfffff
    29f1:	jg     2a38 <__ieee754_fmod+0x18e>
    29f3:	cmp    DWORD PTR [rbp-0x24],0x0
    29f7:	jne    2a17 <__ieee754_fmod+0x16d>
    29f9:	mov    DWORD PTR [rbp-0x18],0xfffffbed
    2a00:	mov    eax,DWORD PTR [rbp-0xc]
    2a03:	mov    DWORD PTR [rbp-0x14],eax
    2a06:	jmp    2a0f <__ieee754_fmod+0x165>
    2a08:	sub    DWORD PTR [rbp-0x18],0x1
    2a0c:	shl    DWORD PTR [rbp-0x14],1
    2a0f:	cmp    DWORD PTR [rbp-0x14],0x0
    2a13:	jg     2a08 <__ieee754_fmod+0x15e>
    2a15:	jmp    2a46 <__ieee754_fmod+0x19c>
    2a17:	mov    DWORD PTR [rbp-0x18],0xfffffc02
    2a1e:	mov    eax,DWORD PTR [rbp-0x24]
    2a21:	shl    eax,0xb
    2a24:	mov    DWORD PTR [rbp-0x14],eax
    2a27:	jmp    2a30 <__ieee754_fmod+0x186>
    2a29:	sub    DWORD PTR [rbp-0x18],0x1
    2a2d:	shl    DWORD PTR [rbp-0x14],1
    2a30:	cmp    DWORD PTR [rbp-0x14],0x0
    2a34:	jg     2a29 <__ieee754_fmod+0x17f>
    2a36:	jmp    2a46 <__ieee754_fmod+0x19c>
    2a38:	mov    eax,DWORD PTR [rbp-0x24]
    2a3b:	sar    eax,0x14
    2a3e:	sub    eax,0x3ff
    2a43:	mov    DWORD PTR [rbp-0x18],eax
    2a46:	cmp    DWORD PTR [rbp-0x1c],0xfffffc02
    2a4d:	jl     2a61 <__ieee754_fmod+0x1b7>
    2a4f:	mov    eax,DWORD PTR [rbp-0x28]
    2a52:	and    eax,0xfffff
    2a57:	or     eax,0x100000
    2a5c:	mov    DWORD PTR [rbp-0x28],eax
    2a5f:	jmp    2ab9 <__ieee754_fmod+0x20f>
    2a61:	mov    eax,0xfffffc02
    2a66:	sub    eax,DWORD PTR [rbp-0x1c]
    2a69:	mov    DWORD PTR [rbp-0x2c],eax
    2a6c:	cmp    DWORD PTR [rbp-0x2c],0x1f
    2a70:	jg     2aa0 <__ieee754_fmod+0x1f6>
    2a72:	mov    eax,DWORD PTR [rbp-0x2c]
    2a75:	mov    edx,DWORD PTR [rbp-0x28]
    2a78:	mov    ecx,eax
    2a7a:	shl    edx,cl
    2a7c:	mov    eax,edx
    2a7e:	mov    esi,eax
    2a80:	mov    eax,0x20
    2a85:	sub    eax,DWORD PTR [rbp-0x2c]
    2a88:	mov    edx,DWORD PTR [rbp-0x10]
    2a8b:	mov    ecx,eax
    2a8d:	shr    edx,cl
    2a8f:	mov    eax,edx
    2a91:	or     eax,esi
    2a93:	mov    DWORD PTR [rbp-0x28],eax
    2a96:	mov    eax,DWORD PTR [rbp-0x2c]
    2a99:	mov    ecx,eax
    2a9b:	shl    DWORD PTR [rbp-0x10],cl
    2a9e:	jmp    2ab9 <__ieee754_fmod+0x20f>
    2aa0:	mov    eax,DWORD PTR [rbp-0x2c]
    2aa3:	sub    eax,0x20
    2aa6:	mov    edx,DWORD PTR [rbp-0x10]
    2aa9:	mov    ecx,eax
    2aab:	shl    edx,cl
    2aad:	mov    eax,edx
    2aaf:	mov    DWORD PTR [rbp-0x28],eax
    2ab2:	mov    DWORD PTR [rbp-0x10],0x0
    2ab9:	cmp    DWORD PTR [rbp-0x18],0xfffffc02
    2ac0:	jl     2ad4 <__ieee754_fmod+0x22a>
    2ac2:	mov    eax,DWORD PTR [rbp-0x24]
    2ac5:	and    eax,0xfffff
    2aca:	or     eax,0x100000
    2acf:	mov    DWORD PTR [rbp-0x24],eax
    2ad2:	jmp    2b2c <__ieee754_fmod+0x282>
    2ad4:	mov    eax,0xfffffc02
    2ad9:	sub    eax,DWORD PTR [rbp-0x18]
    2adc:	mov    DWORD PTR [rbp-0x2c],eax
    2adf:	cmp    DWORD PTR [rbp-0x2c],0x1f
    2ae3:	jg     2b13 <__ieee754_fmod+0x269>
    2ae5:	mov    eax,DWORD PTR [rbp-0x2c]
    2ae8:	mov    edx,DWORD PTR [rbp-0x24]
    2aeb:	mov    ecx,eax
    2aed:	shl    edx,cl
    2aef:	mov    eax,edx
    2af1:	mov    esi,eax
    2af3:	mov    eax,0x20
    2af8:	sub    eax,DWORD PTR [rbp-0x2c]
    2afb:	mov    edx,DWORD PTR [rbp-0xc]
    2afe:	mov    ecx,eax
    2b00:	shr    edx,cl
    2b02:	mov    eax,edx
    2b04:	or     eax,esi
    2b06:	mov    DWORD PTR [rbp-0x24],eax
    2b09:	mov    eax,DWORD PTR [rbp-0x2c]
    2b0c:	mov    ecx,eax
    2b0e:	shl    DWORD PTR [rbp-0xc],cl
    2b11:	jmp    2b2c <__ieee754_fmod+0x282>
    2b13:	mov    eax,DWORD PTR [rbp-0x2c]
    2b16:	sub    eax,0x20
    2b19:	mov    edx,DWORD PTR [rbp-0xc]
    2b1c:	mov    ecx,eax
    2b1e:	shl    edx,cl
    2b20:	mov    eax,edx
    2b22:	mov    DWORD PTR [rbp-0x24],eax
    2b25:	mov    DWORD PTR [rbp-0xc],0x0
    2b2c:	mov    eax,DWORD PTR [rbp-0x1c]
    2b2f:	sub    eax,DWORD PTR [rbp-0x18]
    2b32:	mov    DWORD PTR [rbp-0x2c],eax
    2b35:	jmp    2bba <__ieee754_fmod+0x310>
    2b3a:	mov    eax,DWORD PTR [rbp-0x28]
    2b3d:	sub    eax,DWORD PTR [rbp-0x24]
    2b40:	mov    DWORD PTR [rbp-0x20],eax
    2b43:	mov    eax,DWORD PTR [rbp-0x10]
    2b46:	sub    eax,DWORD PTR [rbp-0xc]
    2b49:	mov    DWORD PTR [rbp-0x4],eax
    2b4c:	mov    eax,DWORD PTR [rbp-0x10]
    2b4f:	cmp    eax,DWORD PTR [rbp-0xc]
    2b52:	jae    2b58 <__ieee754_fmod+0x2ae>
    2b54:	sub    DWORD PTR [rbp-0x20],0x1
    2b58:	cmp    DWORD PTR [rbp-0x20],0x0
    2b5c:	jns    2b75 <__ieee754_fmod+0x2cb>
    2b5e:	mov    eax,DWORD PTR [rbp-0x28]
    2b61:	add    eax,eax
    2b63:	mov    edx,eax
    2b65:	mov    eax,DWORD PTR [rbp-0x10]
    2b68:	shr    eax,0x1f
    2b6b:	add    eax,edx
    2b6d:	mov    DWORD PTR [rbp-0x28],eax
    2b70:	shl    DWORD PTR [rbp-0x10],1
    2b73:	jmp    2bba <__ieee754_fmod+0x310>
    2b75:	mov    eax,DWORD PTR [rbp-0x20]
    2b78:	or     eax,DWORD PTR [rbp-0x4]
    2b7b:	test   eax,eax
    2b7d:	jne    2ba0 <__ieee754_fmod+0x2f6>
    2b7f:	mov    eax,DWORD PTR [rbp-0x8]
    2b82:	shr    eax,0x1f
    2b85:	mov    eax,eax
    2b87:	lea    rdx,[rax*8+0x0]
    2b8f:	lea    rax,[rip+0xe8ca]        # 11460 <Zero>
    2b96:	movsd  xmm0,QWORD PTR [rdx+rax*1]
    2b9b:	jmp    2d43 <__ieee754_fmod+0x499>
    2ba0:	mov    eax,DWORD PTR [rbp-0x20]
    2ba3:	add    eax,eax
    2ba5:	mov    edx,eax
    2ba7:	mov    eax,DWORD PTR [rbp-0x4]
    2baa:	shr    eax,0x1f
    2bad:	add    eax,edx
    2baf:	mov    DWORD PTR [rbp-0x28],eax
    2bb2:	mov    eax,DWORD PTR [rbp-0x4]
    2bb5:	add    eax,eax
    2bb7:	mov    DWORD PTR [rbp-0x10],eax
    2bba:	mov    eax,DWORD PTR [rbp-0x2c]
    2bbd:	lea    edx,[rax-0x1]
    2bc0:	mov    DWORD PTR [rbp-0x2c],edx
    2bc3:	test   eax,eax
    2bc5:	jne    2b3a <__ieee754_fmod+0x290>
    2bcb:	mov    eax,DWORD PTR [rbp-0x28]
    2bce:	sub    eax,DWORD PTR [rbp-0x24]
    2bd1:	mov    DWORD PTR [rbp-0x20],eax
    2bd4:	mov    eax,DWORD PTR [rbp-0x10]
    2bd7:	sub    eax,DWORD PTR [rbp-0xc]
    2bda:	mov    DWORD PTR [rbp-0x4],eax
    2bdd:	mov    eax,DWORD PTR [rbp-0x10]
    2be0:	cmp    eax,DWORD PTR [rbp-0xc]
    2be3:	jae    2be9 <__ieee754_fmod+0x33f>
    2be5:	sub    DWORD PTR [rbp-0x20],0x1
    2be9:	cmp    DWORD PTR [rbp-0x20],0x0
    2bed:	js     2bfb <__ieee754_fmod+0x351>
    2bef:	mov    eax,DWORD PTR [rbp-0x20]
    2bf2:	mov    DWORD PTR [rbp-0x28],eax
    2bf5:	mov    eax,DWORD PTR [rbp-0x4]
    2bf8:	mov    DWORD PTR [rbp-0x10],eax
    2bfb:	mov    eax,DWORD PTR [rbp-0x28]
    2bfe:	or     eax,DWORD PTR [rbp-0x10]
    2c01:	test   eax,eax
    2c03:	jne    2c3f <__ieee754_fmod+0x395>
    2c05:	mov    eax,DWORD PTR [rbp-0x8]
    2c08:	shr    eax,0x1f
    2c0b:	mov    eax,eax
    2c0d:	lea    rdx,[rax*8+0x0]
    2c15:	lea    rax,[rip+0xe844]        # 11460 <Zero>
    2c1c:	movsd  xmm0,QWORD PTR [rdx+rax*1]
    2c21:	jmp    2d43 <__ieee754_fmod+0x499>
    2c26:	mov    eax,DWORD PTR [rbp-0x28]
    2c29:	add    eax,eax
    2c2b:	mov    edx,eax
    2c2d:	mov    eax,DWORD PTR [rbp-0x10]
    2c30:	shr    eax,0x1f
    2c33:	add    eax,edx
    2c35:	mov    DWORD PTR [rbp-0x28],eax
    2c38:	shl    DWORD PTR [rbp-0x10],1
    2c3b:	sub    DWORD PTR [rbp-0x18],0x1
    2c3f:	cmp    DWORD PTR [rbp-0x28],0xfffff
    2c46:	jle    2c26 <__ieee754_fmod+0x37c>
    2c48:	cmp    DWORD PTR [rbp-0x18],0xfffffc02
    2c4f:	jl     2c88 <__ieee754_fmod+0x3de>
    2c51:	mov    eax,DWORD PTR [rbp-0x28]
    2c54:	lea    edx,[rax-0x100000]
    2c5a:	mov    eax,DWORD PTR [rbp-0x18]
    2c5d:	add    eax,0x3ff
    2c62:	shl    eax,0x14
    2c65:	or     eax,edx
    2c67:	mov    DWORD PTR [rbp-0x28],eax
    2c6a:	lea    rax,[rbp-0x38]
    2c6e:	add    rax,0x4
    2c72:	mov    edx,DWORD PTR [rbp-0x28]
    2c75:	or     edx,DWORD PTR [rbp-0x8]
    2c78:	mov    DWORD PTR [rax],edx
    2c7a:	lea    rax,[rbp-0x38]
    2c7e:	mov    edx,DWORD PTR [rbp-0x10]
    2c81:	mov    DWORD PTR [rax],edx
    2c83:	jmp    2d3e <__ieee754_fmod+0x494>
    2c88:	mov    eax,0xfffffc02
    2c8d:	sub    eax,DWORD PTR [rbp-0x18]
    2c90:	mov    DWORD PTR [rbp-0x2c],eax
    2c93:	cmp    DWORD PTR [rbp-0x2c],0x14
    2c97:	jg     2cc5 <__ieee754_fmod+0x41b>
    2c99:	mov    eax,DWORD PTR [rbp-0x2c]
    2c9c:	mov    edx,DWORD PTR [rbp-0x10]
    2c9f:	mov    esi,edx
    2ca1:	mov    ecx,eax
    2ca3:	shr    esi,cl
    2ca5:	mov    edx,DWORD PTR [rbp-0x28]
    2ca8:	mov    eax,0x20
    2cad:	sub    eax,DWORD PTR [rbp-0x2c]
    2cb0:	mov    ecx,eax
    2cb2:	shl    edx,cl
    2cb4:	mov    eax,edx
    2cb6:	or     eax,esi
    2cb8:	mov    DWORD PTR [rbp-0x10],eax
    2cbb:	mov    eax,DWORD PTR [rbp-0x2c]
    2cbe:	mov    ecx,eax
    2cc0:	sar    DWORD PTR [rbp-0x28],cl
    2cc3:	jmp    2d0f <__ieee754_fmod+0x465>
    2cc5:	cmp    DWORD PTR [rbp-0x2c],0x1f
    2cc9:	jg     2cf7 <__ieee754_fmod+0x44d>
    2ccb:	mov    eax,0x20
    2cd0:	sub    eax,DWORD PTR [rbp-0x2c]
    2cd3:	mov    edx,DWORD PTR [rbp-0x28]
    2cd6:	mov    ecx,eax
    2cd8:	shl    edx,cl
    2cda:	mov    eax,edx
    2cdc:	mov    esi,eax
    2cde:	mov    eax,DWORD PTR [rbp-0x2c]
    2ce1:	mov    edx,DWORD PTR [rbp-0x10]
    2ce4:	mov    ecx,eax
    2ce6:	shr    edx,cl
    2ce8:	mov    eax,edx
    2cea:	or     eax,esi
    2cec:	mov    DWORD PTR [rbp-0x10],eax
    2cef:	mov    eax,DWORD PTR [rbp-0x8]
    2cf2:	mov    DWORD PTR [rbp-0x28],eax
    2cf5:	jmp    2d0f <__ieee754_fmod+0x465>
    2cf7:	mov    eax,DWORD PTR [rbp-0x2c]
    2cfa:	sub    eax,0x20
    2cfd:	mov    edx,DWORD PTR [rbp-0x28]
    2d00:	mov    ecx,eax
    2d02:	sar    edx,cl
    2d04:	mov    eax,edx
    2d06:	mov    DWORD PTR [rbp-0x10],eax
    2d09:	mov    eax,DWORD PTR [rbp-0x8]
    2d0c:	mov    DWORD PTR [rbp-0x28],eax
    2d0f:	lea    rax,[rbp-0x38]
    2d13:	add    rax,0x4
    2d17:	mov    edx,DWORD PTR [rbp-0x28]
    2d1a:	or     edx,DWORD PTR [rbp-0x8]
    2d1d:	mov    DWORD PTR [rax],edx
    2d1f:	lea    rax,[rbp-0x38]
    2d23:	mov    edx,DWORD PTR [rbp-0x10]
    2d26:	mov    DWORD PTR [rax],edx
    2d28:	movsd  xmm1,QWORD PTR [rbp-0x38]
    2d2d:	movsd  xmm0,QWORD PTR [rip+0xe73b]        # 11470 <Zero+0x10>
    2d35:	mulsd  xmm0,xmm1
    2d39:	movsd  QWORD PTR [rbp-0x38],xmm0
    2d3e:	movsd  xmm0,QWORD PTR [rbp-0x38]
    2d43:	pop    rbp
    2d44:	ret    

0000000000002d45 <__ieee754_gamma>:
    2d45:	endbr64 
    2d49:	push   rbp
    2d4a:	mov    rbp,rsp
    2d4d:	sub    rsp,0x10
    2d51:	movsd  QWORD PTR [rbp-0x8],xmm0
    2d56:	mov    rax,QWORD PTR [rbp-0x8]
    2d5a:	lea    rdi,[rip+0x14337]        # 17098 <signgam>
    2d61:	movq   xmm0,rax
    2d66:	call   2d6d <__ieee754_gamma_r>
    2d6b:	leave  
    2d6c:	ret    

0000000000002d6d <__ieee754_gamma_r>:
    2d6d:	endbr64 
    2d71:	push   rbp
    2d72:	mov    rbp,rsp
    2d75:	sub    rsp,0x10
    2d79:	movsd  QWORD PTR [rbp-0x8],xmm0
    2d7e:	mov    QWORD PTR [rbp-0x10],rdi
    2d82:	mov    rdx,QWORD PTR [rbp-0x10]
    2d86:	mov    rax,QWORD PTR [rbp-0x8]
    2d8a:	mov    rdi,rdx
    2d8d:	movq   xmm0,rax
    2d92:	call   544f <__ieee754_lgamma_r>
    2d97:	leave  
    2d98:	ret    

0000000000002d99 <__ieee754_hypot>:
    2d99:	endbr64 
    2d9d:	push   rbp
    2d9e:	mov    rbp,rsp
    2da1:	sub    rsp,0x60
    2da5:	movsd  QWORD PTR [rbp-0x58],xmm0
    2daa:	movsd  QWORD PTR [rbp-0x60],xmm1
    2daf:	mov    rax,QWORD PTR fs:0x28
    2db8:	mov    QWORD PTR [rbp-0x8],rax
    2dbc:	xor    eax,eax
    2dbe:	movsd  xmm0,QWORD PTR [rbp-0x58]
    2dc3:	movsd  QWORD PTR [rbp-0x40],xmm0
    2dc8:	movsd  xmm0,QWORD PTR [rbp-0x60]
    2dcd:	movsd  QWORD PTR [rbp-0x38],xmm0
    2dd2:	lea    rax,[rbp-0x58]
    2dd6:	add    rax,0x4
    2dda:	mov    eax,DWORD PTR [rax]
    2ddc:	and    eax,0x7fffffff
    2de1:	mov    DWORD PTR [rbp-0x4c],eax
    2de4:	lea    rax,[rbp-0x60]
    2de8:	add    rax,0x4
    2dec:	mov    eax,DWORD PTR [rax]
    2dee:	and    eax,0x7fffffff
    2df3:	mov    DWORD PTR [rbp-0x48],eax
    2df6:	mov    eax,DWORD PTR [rbp-0x48]
    2df9:	cmp    eax,DWORD PTR [rbp-0x4c]
    2dfc:	jle    2e26 <__ieee754_hypot+0x8d>
    2dfe:	movsd  xmm0,QWORD PTR [rbp-0x60]
    2e03:	movsd  QWORD PTR [rbp-0x40],xmm0
    2e08:	movsd  xmm0,QWORD PTR [rbp-0x58]
    2e0d:	movsd  QWORD PTR [rbp-0x38],xmm0
    2e12:	mov    eax,DWORD PTR [rbp-0x4c]
    2e15:	mov    DWORD PTR [rbp-0x44],eax
    2e18:	mov    eax,DWORD PTR [rbp-0x48]
    2e1b:	mov    DWORD PTR [rbp-0x4c],eax
    2e1e:	mov    eax,DWORD PTR [rbp-0x44]
    2e21:	mov    DWORD PTR [rbp-0x48],eax
    2e24:	jmp    2e3a <__ieee754_hypot+0xa1>
    2e26:	movsd  xmm0,QWORD PTR [rbp-0x58]
    2e2b:	movsd  QWORD PTR [rbp-0x40],xmm0
    2e30:	movsd  xmm0,QWORD PTR [rbp-0x60]
    2e35:	movsd  QWORD PTR [rbp-0x38],xmm0
    2e3a:	lea    rax,[rbp-0x40]
    2e3e:	add    rax,0x4
    2e42:	mov    edx,DWORD PTR [rbp-0x4c]
    2e45:	mov    DWORD PTR [rax],edx
    2e47:	lea    rax,[rbp-0x38]
    2e4b:	add    rax,0x4
    2e4f:	mov    edx,DWORD PTR [rbp-0x48]
    2e52:	mov    DWORD PTR [rax],edx
    2e54:	mov    eax,DWORD PTR [rbp-0x4c]
    2e57:	sub    eax,DWORD PTR [rbp-0x48]
    2e5a:	cmp    eax,0x3c00000
    2e5f:	jle    2e74 <__ieee754_hypot+0xdb>
    2e61:	movsd  xmm1,QWORD PTR [rbp-0x40]
    2e66:	movsd  xmm0,QWORD PTR [rbp-0x38]
    2e6b:	addsd  xmm0,xmm1
    2e6f:	jmp    315f <__ieee754_hypot+0x3c6>
    2e74:	mov    DWORD PTR [rbp-0x50],0x0
    2e7b:	cmp    DWORD PTR [rbp-0x4c],0x5f300000
    2e82:	jle    2f1d <__ieee754_hypot+0x184>
    2e88:	cmp    DWORD PTR [rbp-0x4c],0x7fefffff
    2e8f:	jle    2eee <__ieee754_hypot+0x155>
    2e91:	movsd  xmm1,QWORD PTR [rbp-0x40]
    2e96:	movsd  xmm0,QWORD PTR [rbp-0x38]
    2e9b:	addsd  xmm0,xmm1
    2e9f:	movsd  QWORD PTR [rbp-0x20],xmm0
    2ea4:	mov    eax,DWORD PTR [rbp-0x4c]
    2ea7:	and    eax,0xfffff
    2eac:	mov    edx,eax
    2eae:	lea    rax,[rbp-0x40]
    2eb2:	mov    eax,DWORD PTR [rax]
    2eb4:	or     eax,edx
    2eb6:	test   eax,eax
    2eb8:	jne    2ec4 <__ieee754_hypot+0x12b>
    2eba:	movsd  xmm0,QWORD PTR [rbp-0x40]
    2ebf:	movsd  QWORD PTR [rbp-0x20],xmm0
    2ec4:	mov    eax,DWORD PTR [rbp-0x48]
    2ec7:	xor    eax,0x7ff00000
    2ecc:	mov    edx,eax
    2ece:	lea    rax,[rbp-0x38]
    2ed2:	mov    eax,DWORD PTR [rax]
    2ed4:	or     eax,edx
    2ed6:	test   eax,eax
    2ed8:	jne    2ee4 <__ieee754_hypot+0x14b>
    2eda:	movsd  xmm0,QWORD PTR [rbp-0x38]
    2edf:	movsd  QWORD PTR [rbp-0x20],xmm0
    2ee4:	movsd  xmm0,QWORD PTR [rbp-0x20]
    2ee9:	jmp    315f <__ieee754_hypot+0x3c6>
    2eee:	sub    DWORD PTR [rbp-0x4c],0x25800000
    2ef5:	sub    DWORD PTR [rbp-0x48],0x25800000
    2efc:	add    DWORD PTR [rbp-0x50],0x258
    2f03:	lea    rax,[rbp-0x40]
    2f07:	add    rax,0x4
    2f0b:	mov    edx,DWORD PTR [rbp-0x4c]
    2f0e:	mov    DWORD PTR [rax],edx
    2f10:	lea    rax,[rbp-0x38]
    2f14:	add    rax,0x4
    2f18:	mov    edx,DWORD PTR [rbp-0x48]
    2f1b:	mov    DWORD PTR [rax],edx
    2f1d:	cmp    DWORD PTR [rbp-0x48],0x20afffff
    2f24:	jg     2fbf <__ieee754_hypot+0x226>
    2f2a:	cmp    DWORD PTR [rbp-0x48],0xfffff
    2f31:	jg     2f90 <__ieee754_hypot+0x1f7>
    2f33:	lea    rax,[rbp-0x38]
    2f37:	mov    eax,DWORD PTR [rax]
    2f39:	or     eax,DWORD PTR [rbp-0x48]
    2f3c:	test   eax,eax
    2f3e:	jne    2f4a <__ieee754_hypot+0x1b1>
    2f40:	movsd  xmm0,QWORD PTR [rbp-0x40]
    2f45:	jmp    315f <__ieee754_hypot+0x3c6>
    2f4a:	pxor   xmm0,xmm0
    2f4e:	movsd  QWORD PTR [rbp-0x30],xmm0
    2f53:	lea    rax,[rbp-0x30]
    2f57:	add    rax,0x4
    2f5b:	mov    DWORD PTR [rax],0x7fd00000
    2f61:	movsd  xmm1,QWORD PTR [rbp-0x38]
    2f66:	movsd  xmm0,QWORD PTR [rbp-0x30]
    2f6b:	mulsd  xmm0,xmm1
    2f6f:	movsd  QWORD PTR [rbp-0x38],xmm0
    2f74:	movsd  xmm1,QWORD PTR [rbp-0x40]
    2f79:	movsd  xmm0,QWORD PTR [rbp-0x30]
    2f7e:	mulsd  xmm0,xmm1
    2f82:	movsd  QWORD PTR [rbp-0x40],xmm0
    2f87:	sub    DWORD PTR [rbp-0x50],0x3fe
    2f8e:	jmp    2fbf <__ieee754_hypot+0x226>
    2f90:	add    DWORD PTR [rbp-0x4c],0x25800000
    2f97:	add    DWORD PTR [rbp-0x48],0x25800000
    2f9e:	sub    DWORD PTR [rbp-0x50],0x258
    2fa5:	lea    rax,[rbp-0x40]
    2fa9:	add    rax,0x4
    2fad:	mov    edx,DWORD PTR [rbp-0x4c]
    2fb0:	mov    DWORD PTR [rax],edx
    2fb2:	lea    rax,[rbp-0x38]
    2fb6:	add    rax,0x4
    2fba:	mov    edx,DWORD PTR [rbp-0x48]
    2fbd:	mov    DWORD PTR [rax],edx
    2fbf:	movsd  xmm0,QWORD PTR [rbp-0x40]
    2fc4:	movsd  xmm1,QWORD PTR [rbp-0x38]
    2fc9:	subsd  xmm0,xmm1
    2fcd:	movsd  QWORD PTR [rbp-0x20],xmm0
    2fd2:	movsd  xmm1,QWORD PTR [rbp-0x38]
    2fd7:	movsd  xmm0,QWORD PTR [rbp-0x20]
    2fdc:	comisd xmm0,xmm1
    2fe0:	jbe    3061 <__ieee754_hypot+0x2c8>
    2fe2:	pxor   xmm0,xmm0
    2fe6:	movsd  QWORD PTR [rbp-0x30],xmm0
    2feb:	lea    rax,[rbp-0x30]
    2fef:	add    rax,0x4
    2ff3:	mov    edx,DWORD PTR [rbp-0x4c]
    2ff6:	mov    DWORD PTR [rax],edx
    2ff8:	movsd  xmm0,QWORD PTR [rbp-0x40]
    2ffd:	movsd  xmm1,QWORD PTR [rbp-0x30]
    3002:	subsd  xmm0,xmm1
    3006:	movsd  QWORD PTR [rbp-0x10],xmm0
    300b:	movsd  xmm1,QWORD PTR [rbp-0x30]
    3010:	movsd  xmm0,QWORD PTR [rbp-0x30]
    3015:	mulsd  xmm0,xmm1
    3019:	movsd  xmm1,QWORD PTR [rbp-0x38]
    301e:	movq   xmm2,QWORD PTR [rip+0xe45a]        # 11480 <Zero+0x20>
    3026:	xorpd  xmm2,xmm1
    302a:	movsd  xmm1,QWORD PTR [rbp-0x38]
    302f:	mulsd  xmm1,xmm2
    3033:	movsd  xmm3,QWORD PTR [rbp-0x40]
    3038:	movsd  xmm2,QWORD PTR [rbp-0x30]
    303d:	addsd  xmm2,xmm3
    3041:	mulsd  xmm2,QWORD PTR [rbp-0x10]
    3046:	subsd  xmm1,xmm2
    304a:	subsd  xmm0,xmm1
    304e:	call   10038 <sqrt>
    3053:	movq   rax,xmm0
    3058:	mov    QWORD PTR [rbp-0x20],rax
    305c:	jmp    311d <__ieee754_hypot+0x384>
    3061:	movsd  xmm0,QWORD PTR [rbp-0x40]
    3066:	addsd  xmm0,xmm0
    306a:	movsd  QWORD PTR [rbp-0x40],xmm0
    306f:	pxor   xmm0,xmm0
    3073:	movsd  QWORD PTR [rbp-0x28],xmm0
    3078:	lea    rax,[rbp-0x28]
    307c:	add    rax,0x4
    3080:	mov    edx,DWORD PTR [rbp-0x48]
    3083:	mov    DWORD PTR [rax],edx
    3085:	movsd  xmm0,QWORD PTR [rbp-0x38]
    308a:	movsd  xmm1,QWORD PTR [rbp-0x28]
    308f:	subsd  xmm0,xmm1
    3093:	movsd  QWORD PTR [rbp-0x18],xmm0
    3098:	pxor   xmm0,xmm0
    309c:	movsd  QWORD PTR [rbp-0x30],xmm0
    30a1:	lea    rax,[rbp-0x30]
    30a5:	add    rax,0x4
    30a9:	mov    edx,DWORD PTR [rbp-0x4c]
    30ac:	add    edx,0x100000
    30b2:	mov    DWORD PTR [rax],edx
    30b4:	movsd  xmm0,QWORD PTR [rbp-0x40]
    30b9:	movsd  xmm1,QWORD PTR [rbp-0x30]
    30be:	subsd  xmm0,xmm1
    30c2:	movsd  QWORD PTR [rbp-0x10],xmm0
    30c7:	movsd  xmm1,QWORD PTR [rbp-0x30]
    30cc:	movsd  xmm0,QWORD PTR [rbp-0x28]
    30d1:	mulsd  xmm0,xmm1
    30d5:	movsd  xmm1,QWORD PTR [rbp-0x20]
    30da:	movq   xmm2,QWORD PTR [rip+0xe39e]        # 11480 <Zero+0x20>
    30e2:	xorpd  xmm1,xmm2
    30e6:	mulsd  xmm1,QWORD PTR [rbp-0x20]
    30eb:	movsd  xmm2,QWORD PTR [rbp-0x30]
    30f0:	movapd xmm3,xmm2
    30f4:	mulsd  xmm3,QWORD PTR [rbp-0x18]
    30f9:	movsd  xmm2,QWORD PTR [rbp-0x38]
    30fe:	mulsd  xmm2,QWORD PTR [rbp-0x10]
    3103:	addsd  xmm2,xmm3
    3107:	subsd  xmm1,xmm2
    310b:	subsd  xmm0,xmm1
    310f:	call   10038 <sqrt>
    3114:	movq   rax,xmm0
    3119:	mov    QWORD PTR [rbp-0x20],rax
    311d:	cmp    DWORD PTR [rbp-0x50],0x0
    3121:	je     315a <__ieee754_hypot+0x3c1>
    3123:	movsd  xmm0,QWORD PTR [rip+0xe365]        # 11490 <Zero+0x30>
    312b:	movsd  QWORD PTR [rbp-0x30],xmm0
    3130:	lea    rax,[rbp-0x30]
    3134:	add    rax,0x4
    3138:	mov    edx,DWORD PTR [rax]
    313a:	mov    eax,DWORD PTR [rbp-0x50]
    313d:	shl    eax,0x14
    3140:	mov    ecx,eax
    3142:	lea    rax,[rbp-0x30]
    3146:	add    rax,0x4
    314a:	add    edx,ecx
    314c:	mov    DWORD PTR [rax],edx
    314e:	movsd  xmm0,QWORD PTR [rbp-0x30]
    3153:	mulsd  xmm0,QWORD PTR [rbp-0x20]
    3158:	jmp    315f <__ieee754_hypot+0x3c6>
    315a:	movsd  xmm0,QWORD PTR [rbp-0x20]
    315f:	mov    rax,QWORD PTR [rbp-0x8]
    3163:	xor    rax,QWORD PTR fs:0x28
    316c:	je     3173 <__ieee754_hypot+0x3da>
    316e:	call   1130 <__stack_chk_fail@plt>
    3173:	leave  
    3174:	ret    

0000000000003175 <__ieee754_j0>:
    3175:	endbr64 
    3179:	push   rbp
    317a:	mov    rbp,rsp
    317d:	sub    rsp,0x60
    3181:	movsd  QWORD PTR [rbp-0x58],xmm0
    3186:	mov    eax,DWORD PTR [rbp-0x54]
    3189:	mov    DWORD PTR [rbp-0x48],eax
    318c:	mov    eax,DWORD PTR [rbp-0x48]
    318f:	and    eax,0x7fffffff
    3194:	mov    DWORD PTR [rbp-0x44],eax
    3197:	cmp    DWORD PTR [rbp-0x44],0x7fefffff
    319e:	jle    31bf <__ieee754_j0+0x4a>
    31a0:	movsd  xmm0,QWORD PTR [rip+0xe7a8]        # 11950 <qS2+0x30>
    31a8:	movsd  xmm2,QWORD PTR [rbp-0x58]
    31ad:	movsd  xmm1,QWORD PTR [rbp-0x58]
    31b2:	mulsd  xmm1,xmm2
    31b6:	divsd  xmm0,xmm1
    31ba:	jmp    3507 <__ieee754_j0+0x392>
    31bf:	movsd  xmm0,QWORD PTR [rbp-0x58]
    31c4:	movq   xmm1,QWORD PTR [rip+0xe794]        # 11960 <qS2+0x40>
    31cc:	andpd  xmm0,xmm1
    31d0:	movsd  QWORD PTR [rbp-0x58],xmm0
    31d5:	cmp    DWORD PTR [rbp-0x44],0x3fffffff
    31dc:	jle    3354 <__ieee754_j0+0x1df>
    31e2:	mov    rax,QWORD PTR [rbp-0x58]
    31e6:	movq   xmm0,rax
    31eb:	call   e6ca <sin>
    31f0:	movq   rax,xmm0
    31f5:	mov    QWORD PTR [rbp-0x20],rax
    31f9:	mov    rax,QWORD PTR [rbp-0x58]
    31fd:	movq   xmm0,rax
    3202:	call   bdcf <cos>
    3207:	movq   rax,xmm0
    320c:	mov    QWORD PTR [rbp-0x10],rax
    3210:	movsd  xmm0,QWORD PTR [rbp-0x20]
    3215:	subsd  xmm0,QWORD PTR [rbp-0x10]
    321a:	movsd  QWORD PTR [rbp-0x38],xmm0
    321f:	movsd  xmm0,QWORD PTR [rbp-0x20]
    3224:	addsd  xmm0,QWORD PTR [rbp-0x10]
    3229:	movsd  QWORD PTR [rbp-0x30],xmm0
    322e:	cmp    DWORD PTR [rbp-0x44],0x7fdfffff
    3235:	jg     3292 <__ieee754_j0+0x11d>
    3237:	movsd  xmm0,QWORD PTR [rbp-0x58]
    323c:	addsd  xmm0,xmm0
    3240:	call   bdcf <cos>
    3245:	movq   xmm1,QWORD PTR [rip+0xe723]        # 11970 <qS2+0x50>
    324d:	xorpd  xmm0,xmm1
    3251:	movsd  QWORD PTR [rbp-0x40],xmm0
    3256:	movsd  xmm0,QWORD PTR [rbp-0x20]
    325b:	movapd xmm1,xmm0
    325f:	mulsd  xmm1,QWORD PTR [rbp-0x10]
    3264:	movsd  xmm0,QWORD PTR [rip+0x13dec]        # 17058 <zero>
    326c:	comisd xmm0,xmm1
    3270:	jbe    3283 <__ieee754_j0+0x10e>
    3272:	movsd  xmm0,QWORD PTR [rbp-0x40]
    3277:	divsd  xmm0,QWORD PTR [rbp-0x38]
    327c:	movsd  QWORD PTR [rbp-0x30],xmm0
    3281:	jmp    3292 <__ieee754_j0+0x11d>
    3283:	movsd  xmm0,QWORD PTR [rbp-0x40]
    3288:	divsd  xmm0,QWORD PTR [rbp-0x30]
    328d:	movsd  QWORD PTR [rbp-0x38],xmm0
    3292:	cmp    DWORD PTR [rbp-0x44],0x48000000
    3299:	jle    32cf <__ieee754_j0+0x15a>
    329b:	movsd  xmm0,QWORD PTR [rip+0xe6dd]        # 11980 <qS2+0x60>
    32a3:	mulsd  xmm0,QWORD PTR [rbp-0x30]
    32a8:	movsd  QWORD PTR [rbp-0x60],xmm0
    32ad:	mov    rax,QWORD PTR [rbp-0x58]
    32b1:	movq   xmm0,rax
    32b6:	call   10038 <sqrt>
    32bb:	movsd  xmm3,QWORD PTR [rbp-0x60]
    32c0:	divsd  xmm3,xmm0
    32c4:	movapd xmm0,xmm3
    32c8:	movsd  QWORD PTR [rbp-0x40],xmm0
    32cd:	jmp    334a <__ieee754_j0+0x1d5>
    32cf:	mov    rax,QWORD PTR [rbp-0x58]
    32d3:	movq   xmm0,rax
    32d8:	call   38b1 <pzero>
    32dd:	movq   rax,xmm0
    32e2:	mov    QWORD PTR [rbp-0x18],rax
    32e6:	mov    rax,QWORD PTR [rbp-0x58]
    32ea:	movq   xmm0,rax
    32ef:	call   3a79 <qzero>
    32f4:	movq   rax,xmm0
    32f9:	mov    QWORD PTR [rbp-0x8],rax
    32fd:	movsd  xmm0,QWORD PTR [rbp-0x18]
    3302:	mulsd  xmm0,QWORD PTR [rbp-0x30]
    3307:	movsd  xmm1,QWORD PTR [rbp-0x8]
    330c:	mulsd  xmm1,QWORD PTR [rbp-0x38]
    3311:	subsd  xmm0,xmm1
    3315:	movapd xmm1,xmm0
    3319:	movsd  xmm0,QWORD PTR [rip+0xe65f]        # 11980 <qS2+0x60>
    3321:	mulsd  xmm1,xmm0
    3325:	movsd  QWORD PTR [rbp-0x60],xmm1
    332a:	mov    rax,QWORD PTR [rbp-0x58]
    332e:	movq   xmm0,rax
    3333:	call   10038 <sqrt>
    3338:	movsd  xmm1,QWORD PTR [rbp-0x60]
    333d:	divsd  xmm1,xmm0
    3341:	movapd xmm0,xmm1
    3345:	movsd  QWORD PTR [rbp-0x40],xmm0
    334a:	movsd  xmm0,QWORD PTR [rbp-0x40]
    334f:	jmp    3507 <__ieee754_j0+0x392>
    3354:	cmp    DWORD PTR [rbp-0x44],0x3f1fffff
    335b:	jg     33bd <__ieee754_j0+0x248>
    335d:	movsd  xmm1,QWORD PTR [rip+0xe623]        # 11988 <qS2+0x68>
    3365:	movsd  xmm0,QWORD PTR [rbp-0x58]
    336a:	addsd  xmm0,xmm1
    336e:	movsd  xmm1,QWORD PTR [rip+0xe5da]        # 11950 <qS2+0x30>
    3376:	comisd xmm0,xmm1
    337a:	jbe    33bd <__ieee754_j0+0x248>
    337c:	cmp    DWORD PTR [rbp-0x44],0x3e3fffff
    3383:	jg     3392 <__ieee754_j0+0x21d>
    3385:	movsd  xmm0,QWORD PTR [rip+0xe5c3]        # 11950 <qS2+0x30>
    338d:	jmp    3507 <__ieee754_j0+0x392>
    3392:	movsd  xmm0,QWORD PTR [rip+0xe5b6]        # 11950 <qS2+0x30>
    339a:	movsd  xmm2,QWORD PTR [rbp-0x58]
    339f:	movsd  xmm1,QWORD PTR [rip+0xe5e9]        # 11990 <qS2+0x70>
    33a7:	mulsd  xmm2,xmm1
    33ab:	movsd  xmm1,QWORD PTR [rbp-0x58]
    33b0:	mulsd  xmm1,xmm2
    33b4:	subsd  xmm0,xmm1
    33b8:	jmp    3507 <__ieee754_j0+0x392>
    33bd:	movsd  xmm1,QWORD PTR [rbp-0x58]
    33c2:	movsd  xmm0,QWORD PTR [rbp-0x58]
    33c7:	mulsd  xmm0,xmm1
    33cb:	movsd  QWORD PTR [rbp-0x40],xmm0
    33d0:	movsd  xmm0,QWORD PTR [rip+0xe5c0]        # 11998 <qS2+0x78>
    33d8:	movapd xmm1,xmm0
    33dc:	mulsd  xmm1,QWORD PTR [rbp-0x40]
    33e1:	movsd  xmm0,QWORD PTR [rip+0xe5b7]        # 119a0 <qS2+0x80>
    33e9:	addsd  xmm0,xmm1
    33ed:	movapd xmm1,xmm0
    33f1:	mulsd  xmm1,QWORD PTR [rbp-0x40]
    33f6:	movsd  xmm0,QWORD PTR [rip+0xe5aa]        # 119a8 <qS2+0x88>
    33fe:	addsd  xmm0,xmm1
    3402:	movapd xmm1,xmm0
    3406:	mulsd  xmm1,QWORD PTR [rbp-0x40]
    340b:	movsd  xmm0,QWORD PTR [rip+0xe59d]        # 119b0 <qS2+0x90>
    3413:	addsd  xmm0,xmm1
    3417:	movsd  xmm1,QWORD PTR [rbp-0x40]
    341c:	mulsd  xmm0,xmm1
    3420:	movsd  QWORD PTR [rbp-0x28],xmm0
    3425:	movsd  xmm0,QWORD PTR [rip+0xe58b]        # 119b8 <qS2+0x98>
    342d:	movapd xmm1,xmm0
    3431:	mulsd  xmm1,QWORD PTR [rbp-0x40]
    3436:	movsd  xmm0,QWORD PTR [rip+0xe582]        # 119c0 <qS2+0xa0>
    343e:	addsd  xmm0,xmm1
    3442:	movapd xmm1,xmm0
    3446:	mulsd  xmm1,QWORD PTR [rbp-0x40]
    344b:	movsd  xmm0,QWORD PTR [rip+0xe575]        # 119c8 <qS2+0xa8>
    3453:	addsd  xmm0,xmm1
    3457:	movapd xmm1,xmm0
    345b:	mulsd  xmm1,QWORD PTR [rbp-0x40]
    3460:	movsd  xmm0,QWORD PTR [rip+0xe568]        # 119d0 <qS2+0xb0>
    3468:	addsd  xmm0,xmm1
    346c:	movapd xmm1,xmm0
    3470:	mulsd  xmm1,QWORD PTR [rbp-0x40]
    3475:	movsd  xmm0,QWORD PTR [rip+0xe4d3]        # 11950 <qS2+0x30>
    347d:	addsd  xmm0,xmm1
    3481:	movsd  QWORD PTR [rbp-0x20],xmm0
    3486:	cmp    DWORD PTR [rbp-0x44],0x3fefffff
    348d:	jg     34bc <__ieee754_j0+0x347>
    348f:	movsd  xmm0,QWORD PTR [rbp-0x28]
    3494:	divsd  xmm0,QWORD PTR [rbp-0x20]
    3499:	movsd  xmm1,QWORD PTR [rip+0xe4ef]        # 11990 <qS2+0x70>
    34a1:	subsd  xmm0,xmm1
    34a5:	movapd xmm1,xmm0
    34a9:	mulsd  xmm1,QWORD PTR [rbp-0x40]
    34ae:	movsd  xmm0,QWORD PTR [rip+0xe49a]        # 11950 <qS2+0x30>
    34b6:	addsd  xmm0,xmm1
    34ba:	jmp    3507 <__ieee754_j0+0x392>
    34bc:	movsd  xmm1,QWORD PTR [rbp-0x58]
    34c1:	movsd  xmm0,QWORD PTR [rip+0xe50f]        # 119d8 <qS2+0xb8>
    34c9:	mulsd  xmm0,xmm1
    34cd:	movsd  QWORD PTR [rbp-0x18],xmm0
    34d2:	movsd  xmm0,QWORD PTR [rip+0xe476]        # 11950 <qS2+0x30>
    34da:	movapd xmm1,xmm0
    34de:	addsd  xmm1,QWORD PTR [rbp-0x18]
    34e3:	movsd  xmm0,QWORD PTR [rip+0xe465]        # 11950 <qS2+0x30>
    34eb:	subsd  xmm0,QWORD PTR [rbp-0x18]
    34f0:	mulsd  xmm1,xmm0
    34f4:	movsd  xmm0,QWORD PTR [rbp-0x28]
    34f9:	divsd  xmm0,QWORD PTR [rbp-0x20]
    34fe:	mulsd  xmm0,QWORD PTR [rbp-0x40]
    3503:	addsd  xmm0,xmm1
    3507:	leave  
    3508:	ret    

0000000000003509 <__ieee754_y0>:
    3509:	endbr64 
    350d:	push   rbp
    350e:	mov    rbp,rsp
    3511:	sub    rsp,0x70
    3515:	movsd  QWORD PTR [rbp-0x58],xmm0
    351a:	mov    eax,DWORD PTR [rbp-0x54]
    351d:	mov    DWORD PTR [rbp-0x44],eax
    3520:	mov    eax,DWORD PTR [rbp-0x44]
    3523:	and    eax,0x7fffffff
    3528:	mov    DWORD PTR [rbp-0x40],eax
    352b:	lea    rax,[rbp-0x58]
    352f:	mov    eax,DWORD PTR [rax]
    3531:	mov    DWORD PTR [rbp-0x3c],eax
    3534:	cmp    DWORD PTR [rbp-0x40],0x7fefffff
    353b:	jle    3565 <__ieee754_y0+0x5c>
    353d:	movsd  xmm0,QWORD PTR [rip+0xe40b]        # 11950 <qS2+0x30>
    3545:	movsd  xmm2,QWORD PTR [rbp-0x58]
    354a:	movsd  xmm1,QWORD PTR [rbp-0x58]
    354f:	mulsd  xmm2,xmm1
    3553:	movsd  xmm1,QWORD PTR [rbp-0x58]
    3558:	addsd  xmm1,xmm2
    355c:	divsd  xmm0,xmm1
    3560:	jmp    38af <__ieee754_y0+0x3a6>
    3565:	mov    eax,DWORD PTR [rbp-0x40]
    3568:	or     eax,DWORD PTR [rbp-0x3c]
    356b:	test   eax,eax
    356d:	jne    3594 <__ieee754_y0+0x8b>
    356f:	movsd  xmm0,QWORD PTR [rip+0xe3d9]        # 11950 <qS2+0x30>
    3577:	movq   xmm1,QWORD PTR [rip+0xe3f1]        # 11970 <qS2+0x50>
    357f:	xorpd  xmm0,xmm1
    3583:	movsd  xmm1,QWORD PTR [rip+0x13acd]        # 17058 <zero>
    358b:	divsd  xmm0,xmm1
    358f:	jmp    38af <__ieee754_y0+0x3a6>
    3594:	cmp    DWORD PTR [rbp-0x44],0x0
    3598:	jns    35b3 <__ieee754_y0+0xaa>
    359a:	movsd  xmm0,QWORD PTR [rip+0x13ab6]        # 17058 <zero>
    35a2:	movsd  xmm1,QWORD PTR [rip+0x13aae]        # 17058 <zero>
    35aa:	divsd  xmm0,xmm1
    35ae:	jmp    38af <__ieee754_y0+0x3a6>
    35b3:	cmp    DWORD PTR [rbp-0x40],0x3fffffff
    35ba:	jle    3732 <__ieee754_y0+0x229>
    35c0:	mov    rax,QWORD PTR [rbp-0x58]
    35c4:	movq   xmm0,rax
    35c9:	call   e6ca <sin>
    35ce:	movq   rax,xmm0
    35d3:	mov    QWORD PTR [rbp-0x10],rax
    35d7:	mov    rax,QWORD PTR [rbp-0x58]
    35db:	movq   xmm0,rax
    35e0:	call   bdcf <cos>
    35e5:	movq   rax,xmm0
    35ea:	mov    QWORD PTR [rbp-0x8],rax
    35ee:	movsd  xmm0,QWORD PTR [rbp-0x10]
    35f3:	subsd  xmm0,QWORD PTR [rbp-0x8]
    35f8:	movsd  QWORD PTR [rbp-0x30],xmm0
    35fd:	movsd  xmm0,QWORD PTR [rbp-0x10]
    3602:	addsd  xmm0,QWORD PTR [rbp-0x8]
    3607:	movsd  QWORD PTR [rbp-0x28],xmm0
    360c:	cmp    DWORD PTR [rbp-0x40],0x7fdfffff
    3613:	jg     3670 <__ieee754_y0+0x167>
    3615:	movsd  xmm0,QWORD PTR [rbp-0x58]
    361a:	addsd  xmm0,xmm0
    361e:	call   bdcf <cos>
    3623:	movq   xmm1,QWORD PTR [rip+0xe345]        # 11970 <qS2+0x50>
    362b:	xorpd  xmm0,xmm1
    362f:	movsd  QWORD PTR [rbp-0x38],xmm0
    3634:	movsd  xmm0,QWORD PTR [rbp-0x10]
    3639:	movapd xmm1,xmm0
    363d:	mulsd  xmm1,QWORD PTR [rbp-0x8]
    3642:	movsd  xmm0,QWORD PTR [rip+0x13a0e]        # 17058 <zero>
    364a:	comisd xmm0,xmm1
    364e:	jbe    3661 <__ieee754_y0+0x158>
    3650:	movsd  xmm0,QWORD PTR [rbp-0x38]
    3655:	divsd  xmm0,QWORD PTR [rbp-0x30]
    365a:	movsd  QWORD PTR [rbp-0x28],xmm0
    365f:	jmp    3670 <__ieee754_y0+0x167>
    3661:	movsd  xmm0,QWORD PTR [rbp-0x38]
    3666:	divsd  xmm0,QWORD PTR [rbp-0x28]
    366b:	movsd  QWORD PTR [rbp-0x30],xmm0
    3670:	cmp    DWORD PTR [rbp-0x40],0x48000000
    3677:	jle    36ad <__ieee754_y0+0x1a4>
    3679:	movsd  xmm0,QWORD PTR [rip+0xe2ff]        # 11980 <qS2+0x60>
    3681:	mulsd  xmm0,QWORD PTR [rbp-0x30]
    3686:	movsd  QWORD PTR [rbp-0x60],xmm0
    368b:	mov    rax,QWORD PTR [rbp-0x58]
    368f:	movq   xmm0,rax
    3694:	call   10038 <sqrt>
    3699:	movsd  xmm3,QWORD PTR [rbp-0x60]
    369e:	divsd  xmm3,xmm0
    36a2:	movapd xmm0,xmm3
    36a6:	movsd  QWORD PTR [rbp-0x38],xmm0
    36ab:	jmp    3728 <__ieee754_y0+0x21f>
    36ad:	mov    rax,QWORD PTR [rbp-0x58]
    36b1:	movq   xmm0,rax
    36b6:	call   38b1 <pzero>
    36bb:	movq   rax,xmm0
    36c0:	mov    QWORD PTR [rbp-0x20],rax
    36c4:	mov    rax,QWORD PTR [rbp-0x58]
    36c8:	movq   xmm0,rax
    36cd:	call   3a79 <qzero>
    36d2:	movq   rax,xmm0
    36d7:	mov    QWORD PTR [rbp-0x18],rax
    36db:	movsd  xmm0,QWORD PTR [rbp-0x20]
    36e0:	movapd xmm1,xmm0
    36e4:	mulsd  xmm1,QWORD PTR [rbp-0x30]
    36e9:	movsd  xmm0,QWORD PTR [rbp-0x18]
    36ee:	mulsd  xmm0,QWORD PTR [rbp-0x28]
    36f3:	addsd  xmm1,xmm0
    36f7:	movsd  xmm0,QWORD PTR [rip+0xe281]        # 11980 <qS2+0x60>
    36ff:	mulsd  xmm1,xmm0
    3703:	movsd  QWORD PTR [rbp-0x60],xmm1
    3708:	mov    rax,QWORD PTR [rbp-0x58]
    370c:	movq   xmm0,rax
    3711:	call   10038 <sqrt>
    3716:	movsd  xmm1,QWORD PTR [rbp-0x60]
    371b:	divsd  xmm1,xmm0
    371f:	movapd xmm0,xmm1
    3723:	movsd  QWORD PTR [rbp-0x38],xmm0
    3728:	movsd  xmm0,QWORD PTR [rbp-0x38]
    372d:	jmp    38af <__ieee754_y0+0x3a6>
    3732:	cmp    DWORD PTR [rbp-0x40],0x3e400000
    3739:	jg     3766 <__ieee754_y0+0x25d>
    373b:	mov    rax,QWORD PTR [rbp-0x58]
    373f:	movq   xmm0,rax
    3744:	call   5f42 <__ieee754_log>
    3749:	movsd  xmm1,QWORD PTR [rip+0xe28f]        # 119e0 <qS2+0xc0>
    3751:	mulsd  xmm1,xmm0
    3755:	movsd  xmm0,QWORD PTR [rip+0xe28b]        # 119e8 <qS2+0xc8>
    375d:	addsd  xmm0,xmm1
    3761:	jmp    38af <__ieee754_y0+0x3a6>
    3766:	movsd  xmm1,QWORD PTR [rbp-0x58]
    376b:	movsd  xmm0,QWORD PTR [rbp-0x58]
    3770:	mulsd  xmm0,xmm1
    3774:	movsd  QWORD PTR [rbp-0x38],xmm0
    3779:	movsd  xmm0,QWORD PTR [rip+0xe26f]        # 119f0 <qS2+0xd0>
    3781:	movapd xmm1,xmm0
    3785:	mulsd  xmm1,QWORD PTR [rbp-0x38]
    378a:	movsd  xmm0,QWORD PTR [rip+0xe266]        # 119f8 <qS2+0xd8>
    3792:	addsd  xmm0,xmm1
    3796:	movapd xmm1,xmm0
    379a:	mulsd  xmm1,QWORD PTR [rbp-0x38]
    379f:	movsd  xmm0,QWORD PTR [rip+0xe259]        # 11a00 <qS2+0xe0>
    37a7:	addsd  xmm0,xmm1
    37ab:	movapd xmm1,xmm0
    37af:	mulsd  xmm1,QWORD PTR [rbp-0x38]
    37b4:	movsd  xmm0,QWORD PTR [rip+0xe24c]        # 11a08 <qS2+0xe8>
    37bc:	addsd  xmm0,xmm1
    37c0:	movapd xmm1,xmm0
    37c4:	mulsd  xmm1,QWORD PTR [rbp-0x38]
    37c9:	movsd  xmm0,QWORD PTR [rip+0xe23f]        # 11a10 <qS2+0xf0>
    37d1:	addsd  xmm0,xmm1
    37d5:	movapd xmm1,xmm0
    37d9:	mulsd  xmm1,QWORD PTR [rbp-0x38]
    37de:	movsd  xmm0,QWORD PTR [rip+0xe232]        # 11a18 <qS2+0xf8>
    37e6:	addsd  xmm0,xmm1
    37ea:	movapd xmm1,xmm0
    37ee:	mulsd  xmm1,QWORD PTR [rbp-0x38]
    37f3:	movsd  xmm0,QWORD PTR [rip+0xe1ed]        # 119e8 <qS2+0xc8>
    37fb:	addsd  xmm0,xmm1
    37ff:	movsd  QWORD PTR [rbp-0x20],xmm0
    3804:	movsd  xmm0,QWORD PTR [rip+0xe214]        # 11a20 <qS2+0x100>
    380c:	movapd xmm1,xmm0
    3810:	mulsd  xmm1,QWORD PTR [rbp-0x38]
    3815:	movsd  xmm0,QWORD PTR [rip+0xe20b]        # 11a28 <qS2+0x108>
    381d:	addsd  xmm0,xmm1
    3821:	movapd xmm1,xmm0
    3825:	mulsd  xmm1,QWORD PTR [rbp-0x38]
    382a:	movsd  xmm0,QWORD PTR [rip+0xe1fe]        # 11a30 <qS2+0x110>
    3832:	addsd  xmm0,xmm1
    3836:	movapd xmm1,xmm0
    383a:	mulsd  xmm1,QWORD PTR [rbp-0x38]
    383f:	movsd  xmm0,QWORD PTR [rip+0xe1f1]        # 11a38 <qS2+0x118>
    3847:	addsd  xmm0,xmm1
    384b:	movapd xmm1,xmm0
    384f:	mulsd  xmm1,QWORD PTR [rbp-0x38]
    3854:	movsd  xmm0,QWORD PTR [rip+0xe0f4]        # 11950 <qS2+0x30>
    385c:	addsd  xmm0,xmm1
    3860:	movsd  QWORD PTR [rbp-0x18],xmm0
    3865:	movsd  xmm0,QWORD PTR [rbp-0x20]
    386a:	divsd  xmm0,QWORD PTR [rbp-0x18]
    386f:	movsd  QWORD PTR [rbp-0x60],xmm0
    3874:	mov    rax,QWORD PTR [rbp-0x58]
    3878:	movq   xmm0,rax
    387d:	call   3175 <__ieee754_j0>
    3882:	movsd  QWORD PTR [rbp-0x68],xmm0
    3887:	mov    rax,QWORD PTR [rbp-0x58]
    388b:	movq   xmm0,rax
    3890:	call   5f42 <__ieee754_log>
    3895:	movsd  xmm1,QWORD PTR [rbp-0x68]
    389a:	mulsd  xmm1,xmm0
    389e:	movsd  xmm0,QWORD PTR [rip+0xe13a]        # 119e0 <qS2+0xc0>
    38a6:	mulsd  xmm0,xmm1
    38aa:	addsd  xmm0,QWORD PTR [rbp-0x60]
    38af:	leave  
    38b0:	ret    

00000000000038b1 <pzero>:
    38b1:	endbr64 
    38b5:	push   rbp
    38b6:	mov    rbp,rsp
    38b9:	movsd  QWORD PTR [rbp-0x38],xmm0
    38be:	lea    rax,[rbp-0x38]
    38c2:	add    rax,0x4
    38c6:	mov    eax,DWORD PTR [rax]
    38c8:	and    eax,0x7fffffff
    38cd:	mov    DWORD PTR [rbp-0x2c],eax
    38d0:	cmp    DWORD PTR [rbp-0x2c],0x401fffff
    38d7:	jle    38f1 <pzero+0x40>
    38d9:	lea    rax,[rip+0xdc80]        # 11560 <pR8>
    38e0:	mov    QWORD PTR [rbp-0x28],rax
    38e4:	lea    rax,[rip+0xdcb5]        # 115a0 <pS8>
    38eb:	mov    QWORD PTR [rbp-0x20],rax
    38ef:	jmp    3952 <pzero+0xa1>
    38f1:	cmp    DWORD PTR [rbp-0x2c],0x40122e8a
    38f8:	jle    3912 <pzero+0x61>
    38fa:	lea    rax,[rip+0xdcdf]        # 115e0 <pR5>
    3901:	mov    QWORD PTR [rbp-0x28],rax
    3905:	lea    rax,[rip+0xdd14]        # 11620 <pS5>
    390c:	mov    QWORD PTR [rbp-0x20],rax
    3910:	jmp    3952 <pzero+0xa1>
    3912:	cmp    DWORD PTR [rbp-0x2c],0x4006db6c
    3919:	jle    3933 <pzero+0x82>
    391b:	lea    rax,[rip+0xdd3e]        # 11660 <pR3>
    3922:	mov    QWORD PTR [rbp-0x28],rax
    3926:	lea    rax,[rip+0xdd73]        # 116a0 <pS3>
    392d:	mov    QWORD PTR [rbp-0x20],rax
    3931:	jmp    3952 <pzero+0xa1>
    3933:	cmp    DWORD PTR [rbp-0x2c],0x3fffffff
    393a:	jle    3952 <pzero+0xa1>
    393c:	lea    rax,[rip+0xdd9d]        # 116e0 <pR2>
    3943:	mov    QWORD PTR [rbp-0x28],rax
    3947:	lea    rax,[rip+0xddd2]        # 11720 <pS2>
    394e:	mov    QWORD PTR [rbp-0x20],rax
    3952:	movsd  xmm0,QWORD PTR [rip+0xdff6]        # 11950 <qS2+0x30>
    395a:	movsd  xmm2,QWORD PTR [rbp-0x38]
    395f:	movsd  xmm1,QWORD PTR [rbp-0x38]
    3964:	mulsd  xmm1,xmm2
    3968:	divsd  xmm0,xmm1
    396c:	movsd  QWORD PTR [rbp-0x18],xmm0
    3971:	mov    rax,QWORD PTR [rbp-0x28]
    3975:	movsd  xmm1,QWORD PTR [rax]
    3979:	mov    rax,QWORD PTR [rbp-0x28]
    397d:	add    rax,0x8
    3981:	movsd  xmm2,QWORD PTR [rax]
    3985:	mov    rax,QWORD PTR [rbp-0x28]
    3989:	add    rax,0x10
    398d:	movsd  xmm3,QWORD PTR [rax]
    3991:	mov    rax,QWORD PTR [rbp-0x28]
    3995:	add    rax,0x18
    3999:	movsd  xmm4,QWORD PTR [rax]
    399d:	mov    rax,QWORD PTR [rbp-0x28]
    39a1:	add    rax,0x20
    39a5:	movsd  xmm5,QWORD PTR [rax]
    39a9:	mov    rax,QWORD PTR [rbp-0x28]
    39ad:	add    rax,0x28
    39b1:	movsd  xmm0,QWORD PTR [rax]
    39b5:	mulsd  xmm0,QWORD PTR [rbp-0x18]
    39ba:	addsd  xmm0,xmm5
    39be:	mulsd  xmm0,QWORD PTR [rbp-0x18]
    39c3:	addsd  xmm0,xmm4
    39c7:	mulsd  xmm0,QWORD PTR [rbp-0x18]
    39cc:	addsd  xmm0,xmm3
    39d0:	mulsd  xmm0,QWORD PTR [rbp-0x18]
    39d5:	addsd  xmm0,xmm2
    39d9:	mulsd  xmm0,QWORD PTR [rbp-0x18]
    39de:	addsd  xmm0,xmm1
    39e2:	movsd  QWORD PTR [rbp-0x10],xmm0
    39e7:	mov    rax,QWORD PTR [rbp-0x20]
    39eb:	movsd  xmm1,QWORD PTR [rax]
    39ef:	mov    rax,QWORD PTR [rbp-0x20]
    39f3:	add    rax,0x8
    39f7:	movsd  xmm2,QWORD PTR [rax]
    39fb:	mov    rax,QWORD PTR [rbp-0x20]
    39ff:	add    rax,0x10
    3a03:	movsd  xmm3,QWORD PTR [rax]
    3a07:	mov    rax,QWORD PTR [rbp-0x20]
    3a0b:	add    rax,0x18
    3a0f:	movsd  xmm4,QWORD PTR [rax]
    3a13:	mov    rax,QWORD PTR [rbp-0x20]
    3a17:	add    rax,0x20
    3a1b:	movsd  xmm0,QWORD PTR [rax]
    3a1f:	mulsd  xmm0,QWORD PTR [rbp-0x18]
    3a24:	addsd  xmm0,xmm4
    3a28:	mulsd  xmm0,QWORD PTR [rbp-0x18]
    3a2d:	addsd  xmm0,xmm3
    3a31:	mulsd  xmm0,QWORD PTR [rbp-0x18]
    3a36:	addsd  xmm0,xmm2
    3a3a:	mulsd  xmm0,QWORD PTR [rbp-0x18]
    3a3f:	addsd  xmm0,xmm1
    3a43:	movapd xmm1,xmm0
    3a47:	mulsd  xmm1,QWORD PTR [rbp-0x18]
    3a4c:	movsd  xmm0,QWORD PTR [rip+0xdefc]        # 11950 <qS2+0x30>
    3a54:	addsd  xmm0,xmm1
    3a58:	movsd  QWORD PTR [rbp-0x8],xmm0
    3a5d:	movsd  xmm0,QWORD PTR [rbp-0x10]
    3a62:	movapd xmm1,xmm0
    3a66:	divsd  xmm1,QWORD PTR [rbp-0x8]
    3a6b:	movsd  xmm0,QWORD PTR [rip+0xdedd]        # 11950 <qS2+0x30>
    3a73:	addsd  xmm0,xmm1
    3a77:	pop    rbp
    3a78:	ret    

0000000000003a79 <qzero>:
    3a79:	endbr64 
    3a7d:	push   rbp
    3a7e:	mov    rbp,rsp
    3a81:	movsd  QWORD PTR [rbp-0x38],xmm0
    3a86:	lea    rax,[rbp-0x38]
    3a8a:	add    rax,0x4
    3a8e:	mov    eax,DWORD PTR [rax]
    3a90:	and    eax,0x7fffffff
    3a95:	mov    DWORD PTR [rbp-0x2c],eax
    3a98:	cmp    DWORD PTR [rbp-0x2c],0x401fffff
    3a9f:	jle    3ab9 <qzero+0x40>
    3aa1:	lea    rax,[rip+0xdcb8]        # 11760 <qR8>
    3aa8:	mov    QWORD PTR [rbp-0x28],rax
    3aac:	lea    rax,[rip+0xdced]        # 117a0 <qS8>
    3ab3:	mov    QWORD PTR [rbp-0x20],rax
    3ab7:	jmp    3b1a <qzero+0xa1>
    3ab9:	cmp    DWORD PTR [rbp-0x2c],0x40122e8a
    3ac0:	jle    3ada <qzero+0x61>
    3ac2:	lea    rax,[rip+0xdd17]        # 117e0 <qR5>
    3ac9:	mov    QWORD PTR [rbp-0x28],rax
    3acd:	lea    rax,[rip+0xdd4c]        # 11820 <qS5>
    3ad4:	mov    QWORD PTR [rbp-0x20],rax
    3ad8:	jmp    3b1a <qzero+0xa1>
    3ada:	cmp    DWORD PTR [rbp-0x2c],0x4006db6c
    3ae1:	jle    3afb <qzero+0x82>
    3ae3:	lea    rax,[rip+0xdd76]        # 11860 <qR3>
    3aea:	mov    QWORD PTR [rbp-0x28],rax
    3aee:	lea    rax,[rip+0xddab]        # 118a0 <qS3>
    3af5:	mov    QWORD PTR [rbp-0x20],rax
    3af9:	jmp    3b1a <qzero+0xa1>
    3afb:	cmp    DWORD PTR [rbp-0x2c],0x3fffffff
    3b02:	jle    3b1a <qzero+0xa1>
    3b04:	lea    rax,[rip+0xddd5]        # 118e0 <qR2>
    3b0b:	mov    QWORD PTR [rbp-0x28],rax
    3b0f:	lea    rax,[rip+0xde0a]        # 11920 <qS2>
    3b16:	mov    QWORD PTR [rbp-0x20],rax
    3b1a:	movsd  xmm0,QWORD PTR [rip+0xde2e]        # 11950 <qS2+0x30>
    3b22:	movsd  xmm2,QWORD PTR [rbp-0x38]
    3b27:	movsd  xmm1,QWORD PTR [rbp-0x38]
    3b2c:	mulsd  xmm1,xmm2
    3b30:	divsd  xmm0,xmm1
    3b34:	movsd  QWORD PTR [rbp-0x18],xmm0
    3b39:	mov    rax,QWORD PTR [rbp-0x28]
    3b3d:	movsd  xmm1,QWORD PTR [rax]
    3b41:	mov    rax,QWORD PTR [rbp-0x28]
    3b45:	add    rax,0x8
    3b49:	movsd  xmm2,QWORD PTR [rax]
    3b4d:	mov    rax,QWORD PTR [rbp-0x28]
    3b51:	add    rax,0x10
    3b55:	movsd  xmm3,QWORD PTR [rax]
    3b59:	mov    rax,QWORD PTR [rbp-0x28]
    3b5d:	add    rax,0x18
    3b61:	movsd  xmm4,QWORD PTR [rax]
    3b65:	mov    rax,QWORD PTR [rbp-0x28]
    3b69:	add    rax,0x20
    3b6d:	movsd  xmm5,QWORD PTR [rax]
    3b71:	mov    rax,QWORD PTR [rbp-0x28]
    3b75:	add    rax,0x28
    3b79:	movsd  xmm0,QWORD PTR [rax]
    3b7d:	mulsd  xmm0,QWORD PTR [rbp-0x18]
    3b82:	addsd  xmm0,xmm5
    3b86:	mulsd  xmm0,QWORD PTR [rbp-0x18]
    3b8b:	addsd  xmm0,xmm4
    3b8f:	mulsd  xmm0,QWORD PTR [rbp-0x18]
    3b94:	addsd  xmm0,xmm3
    3b98:	mulsd  xmm0,QWORD PTR [rbp-0x18]
    3b9d:	addsd  xmm0,xmm2
    3ba1:	mulsd  xmm0,QWORD PTR [rbp-0x18]
    3ba6:	addsd  xmm0,xmm1
    3baa:	movsd  QWORD PTR [rbp-0x10],xmm0
    3baf:	mov    rax,QWORD PTR [rbp-0x20]
    3bb3:	movsd  xmm1,QWORD PTR [rax]
    3bb7:	mov    rax,QWORD PTR [rbp-0x20]
    3bbb:	add    rax,0x8
    3bbf:	movsd  xmm2,QWORD PTR [rax]
    3bc3:	mov    rax,QWORD PTR [rbp-0x20]
    3bc7:	add    rax,0x10
    3bcb:	movsd  xmm3,QWORD PTR [rax]
    3bcf:	mov    rax,QWORD PTR [rbp-0x20]
    3bd3:	add    rax,0x18
    3bd7:	movsd  xmm4,QWORD PTR [rax]
    3bdb:	mov    rax,QWORD PTR [rbp-0x20]
    3bdf:	add    rax,0x20
    3be3:	movsd  xmm5,QWORD PTR [rax]
    3be7:	mov    rax,QWORD PTR [rbp-0x20]
    3beb:	add    rax,0x28
    3bef:	movsd  xmm0,QWORD PTR [rax]
    3bf3:	mulsd  xmm0,QWORD PTR [rbp-0x18]
    3bf8:	addsd  xmm0,xmm5
    3bfc:	mulsd  xmm0,QWORD PTR [rbp-0x18]
    3c01:	addsd  xmm0,xmm4
    3c05:	mulsd  xmm0,QWORD PTR [rbp-0x18]
    3c0a:	addsd  xmm0,xmm3
    3c0e:	mulsd  xmm0,QWORD PTR [rbp-0x18]
    3c13:	addsd  xmm0,xmm2
    3c17:	mulsd  xmm0,QWORD PTR [rbp-0x18]
    3c1c:	addsd  xmm0,xmm1
    3c20:	movapd xmm1,xmm0
    3c24:	mulsd  xmm1,QWORD PTR [rbp-0x18]
    3c29:	movsd  xmm0,QWORD PTR [rip+0xdd1f]        # 11950 <qS2+0x30>
    3c31:	addsd  xmm0,xmm1
    3c35:	movsd  QWORD PTR [rbp-0x8],xmm0
    3c3a:	movsd  xmm0,QWORD PTR [rbp-0x10]
    3c3f:	divsd  xmm0,QWORD PTR [rbp-0x8]
    3c44:	movsd  xmm1,QWORD PTR [rip+0xddf4]        # 11a40 <qS2+0x120>
    3c4c:	subsd  xmm0,xmm1
    3c50:	movsd  xmm1,QWORD PTR [rbp-0x38]
    3c55:	divsd  xmm0,xmm1
    3c59:	pop    rbp
    3c5a:	ret    

0000000000003c5b <__ieee754_j1>:
    3c5b:	endbr64 
    3c5f:	push   rbp
    3c60:	mov    rbp,rsp
    3c63:	sub    rsp,0x60
    3c67:	movsd  QWORD PTR [rbp-0x58],xmm0
    3c6c:	mov    eax,DWORD PTR [rbp-0x54]
    3c6f:	mov    DWORD PTR [rbp-0x50],eax
    3c72:	mov    eax,DWORD PTR [rbp-0x50]
    3c75:	and    eax,0x7fffffff
    3c7a:	mov    DWORD PTR [rbp-0x4c],eax
    3c7d:	cmp    DWORD PTR [rbp-0x4c],0x7fefffff
    3c84:	jle    3c9c <__ieee754_j1+0x41>
    3c86:	movsd  xmm0,QWORD PTR [rip+0xe2c2]        # 11f50 <qs2+0x30>
    3c8e:	movsd  xmm1,QWORD PTR [rbp-0x58]
    3c93:	divsd  xmm0,xmm1
    3c97:	jmp    3f9b <__ieee754_j1+0x340>
    3c9c:	movsd  xmm0,QWORD PTR [rbp-0x58]
    3ca1:	movq   xmm1,QWORD PTR [rip+0xe2b7]        # 11f60 <qs2+0x40>
    3ca9:	andpd  xmm0,xmm1
    3cad:	movsd  QWORD PTR [rbp-0x30],xmm0
    3cb2:	cmp    DWORD PTR [rbp-0x4c],0x3fffffff
    3cb9:	jle    3e4d <__ieee754_j1+0x1f2>
    3cbf:	mov    rax,QWORD PTR [rbp-0x30]
    3cc3:	movq   xmm0,rax
    3cc8:	call   e6ca <sin>
    3ccd:	movq   rax,xmm0
    3cd2:	mov    QWORD PTR [rbp-0x20],rax
    3cd6:	mov    rax,QWORD PTR [rbp-0x30]
    3cda:	movq   xmm0,rax
    3cdf:	call   bdcf <cos>
    3ce4:	movq   rax,xmm0
    3ce9:	mov    QWORD PTR [rbp-0x18],rax
    3ced:	movsd  xmm0,QWORD PTR [rbp-0x20]
    3cf2:	movq   xmm1,QWORD PTR [rip+0xe276]        # 11f70 <qs2+0x50>
    3cfa:	xorpd  xmm0,xmm1
    3cfe:	subsd  xmm0,QWORD PTR [rbp-0x18]
    3d03:	movsd  QWORD PTR [rbp-0x40],xmm0
    3d08:	movsd  xmm0,QWORD PTR [rbp-0x20]
    3d0d:	subsd  xmm0,QWORD PTR [rbp-0x18]
    3d12:	movsd  QWORD PTR [rbp-0x38],xmm0
    3d17:	cmp    DWORD PTR [rbp-0x4c],0x7fdfffff
    3d1e:	jg     3d6f <__ieee754_j1+0x114>
    3d20:	movsd  xmm0,QWORD PTR [rbp-0x30]
    3d25:	addsd  xmm0,xmm0
    3d29:	call   bdcf <cos>
    3d2e:	movq   rax,xmm0
    3d33:	mov    QWORD PTR [rbp-0x48],rax
    3d37:	movsd  xmm0,QWORD PTR [rbp-0x20]
    3d3c:	mulsd  xmm0,QWORD PTR [rbp-0x18]
    3d41:	movsd  xmm1,QWORD PTR [rip+0x13317]        # 17060 <zero>
    3d49:	comisd xmm0,xmm1
    3d4d:	jbe    3d60 <__ieee754_j1+0x105>
    3d4f:	movsd  xmm0,QWORD PTR [rbp-0x48]
    3d54:	divsd  xmm0,QWORD PTR [rbp-0x40]
    3d59:	movsd  QWORD PTR [rbp-0x38],xmm0
    3d5e:	jmp    3d6f <__ieee754_j1+0x114>
    3d60:	movsd  xmm0,QWORD PTR [rbp-0x48]
    3d65:	divsd  xmm0,QWORD PTR [rbp-0x38]
    3d6a:	movsd  QWORD PTR [rbp-0x40],xmm0
    3d6f:	cmp    DWORD PTR [rbp-0x4c],0x48000000
    3d76:	jle    3dac <__ieee754_j1+0x151>
    3d78:	movsd  xmm0,QWORD PTR [rip+0xe200]        # 11f80 <qs2+0x60>
    3d80:	mulsd  xmm0,QWORD PTR [rbp-0x38]
    3d85:	movsd  QWORD PTR [rbp-0x60],xmm0
    3d8a:	mov    rax,QWORD PTR [rbp-0x30]
    3d8e:	movq   xmm0,rax
    3d93:	call   10038 <sqrt>
    3d98:	movsd  xmm2,QWORD PTR [rbp-0x60]
    3d9d:	divsd  xmm2,xmm0
    3da1:	movapd xmm0,xmm2
    3da5:	movsd  QWORD PTR [rbp-0x48],xmm0
    3daa:	jmp    3e27 <__ieee754_j1+0x1cc>
    3dac:	mov    rax,QWORD PTR [rbp-0x30]
    3db0:	movq   xmm0,rax
    3db5:	call   4329 <pone>
    3dba:	movq   rax,xmm0
    3dbf:	mov    QWORD PTR [rbp-0x10],rax
    3dc3:	mov    rax,QWORD PTR [rbp-0x30]
    3dc7:	movq   xmm0,rax
    3dcc:	call   44f1 <qone>
    3dd1:	movq   rax,xmm0
    3dd6:	mov    QWORD PTR [rbp-0x8],rax
    3dda:	movsd  xmm0,QWORD PTR [rbp-0x10]
    3ddf:	mulsd  xmm0,QWORD PTR [rbp-0x38]
    3de4:	movsd  xmm1,QWORD PTR [rbp-0x8]
    3de9:	mulsd  xmm1,QWORD PTR [rbp-0x40]
    3dee:	subsd  xmm0,xmm1
    3df2:	movapd xmm1,xmm0
    3df6:	movsd  xmm0,QWORD PTR [rip+0xe182]        # 11f80 <qs2+0x60>
    3dfe:	mulsd  xmm1,xmm0
    3e02:	movsd  QWORD PTR [rbp-0x60],xmm1
    3e07:	mov    rax,QWORD PTR [rbp-0x30]
    3e0b:	movq   xmm0,rax
    3e10:	call   10038 <sqrt>
    3e15:	movsd  xmm1,QWORD PTR [rbp-0x60]
    3e1a:	divsd  xmm1,xmm0
    3e1e:	movapd xmm0,xmm1
    3e22:	movsd  QWORD PTR [rbp-0x48],xmm0
    3e27:	cmp    DWORD PTR [rbp-0x50],0x0
    3e2b:	jns    3e43 <__ieee754_j1+0x1e8>
    3e2d:	movsd  xmm0,QWORD PTR [rbp-0x48]
    3e32:	movq   xmm1,QWORD PTR [rip+0xe136]        # 11f70 <qs2+0x50>
    3e3a:	xorpd  xmm0,xmm1
    3e3e:	jmp    3f9b <__ieee754_j1+0x340>
    3e43:	movsd  xmm0,QWORD PTR [rbp-0x48]
    3e48:	jmp    3f9b <__ieee754_j1+0x340>
    3e4d:	cmp    DWORD PTR [rbp-0x4c],0x3e3fffff
    3e54:	jg     3e8b <__ieee754_j1+0x230>
    3e56:	movsd  xmm1,QWORD PTR [rip+0xe12a]        # 11f88 <qs2+0x68>
    3e5e:	movsd  xmm0,QWORD PTR [rbp-0x58]
    3e63:	addsd  xmm0,xmm1
    3e67:	movsd  xmm1,QWORD PTR [rip+0xe0e1]        # 11f50 <qs2+0x30>
    3e6f:	comisd xmm0,xmm1
    3e73:	jbe    3e8b <__ieee754_j1+0x230>
    3e75:	movsd  xmm1,QWORD PTR [rbp-0x58]
    3e7a:	movsd  xmm0,QWORD PTR [rip+0xe10e]        # 11f90 <qs2+0x70>
    3e82:	mulsd  xmm0,xmm1
    3e86:	jmp    3f9b <__ieee754_j1+0x340>
    3e8b:	movsd  xmm1,QWORD PTR [rbp-0x58]
    3e90:	movsd  xmm0,QWORD PTR [rbp-0x58]
    3e95:	mulsd  xmm0,xmm1
    3e99:	movsd  QWORD PTR [rbp-0x48],xmm0
    3e9e:	movsd  xmm0,QWORD PTR [rip+0xe0f2]        # 11f98 <qs2+0x78>
    3ea6:	movapd xmm1,xmm0
    3eaa:	mulsd  xmm1,QWORD PTR [rbp-0x48]
    3eaf:	movsd  xmm0,QWORD PTR [rip+0xe0e9]        # 11fa0 <qs2+0x80>
    3eb7:	addsd  xmm0,xmm1
    3ebb:	movapd xmm1,xmm0
    3ebf:	mulsd  xmm1,QWORD PTR [rbp-0x48]
    3ec4:	movsd  xmm0,QWORD PTR [rip+0xe0dc]        # 11fa8 <qs2+0x88>
    3ecc:	addsd  xmm0,xmm1
    3ed0:	movapd xmm1,xmm0
    3ed4:	mulsd  xmm1,QWORD PTR [rbp-0x48]
    3ed9:	movsd  xmm0,QWORD PTR [rip+0xe0cf]        # 11fb0 <qs2+0x90>
    3ee1:	addsd  xmm0,xmm1
    3ee5:	movsd  xmm1,QWORD PTR [rbp-0x48]
    3eea:	mulsd  xmm0,xmm1
    3eee:	movsd  QWORD PTR [rbp-0x28],xmm0
    3ef3:	movsd  xmm0,QWORD PTR [rip+0xe0bd]        # 11fb8 <qs2+0x98>
    3efb:	movapd xmm1,xmm0
    3eff:	mulsd  xmm1,QWORD PTR [rbp-0x48]
    3f04:	movsd  xmm0,QWORD PTR [rip+0xe0b4]        # 11fc0 <qs2+0xa0>
    3f0c:	addsd  xmm0,xmm1
    3f10:	movapd xmm1,xmm0
    3f14:	mulsd  xmm1,QWORD PTR [rbp-0x48]
    3f19:	movsd  xmm0,QWORD PTR [rip+0xe0a7]        # 11fc8 <qs2+0xa8>
    3f21:	addsd  xmm0,xmm1
    3f25:	movapd xmm1,xmm0
    3f29:	mulsd  xmm1,QWORD PTR [rbp-0x48]
    3f2e:	movsd  xmm0,QWORD PTR [rip+0xe09a]        # 11fd0 <qs2+0xb0>
    3f36:	addsd  xmm0,xmm1
    3f3a:	movapd xmm1,xmm0
    3f3e:	mulsd  xmm1,QWORD PTR [rbp-0x48]
    3f43:	movsd  xmm0,QWORD PTR [rip+0xe08d]        # 11fd8 <qs2+0xb8>
    3f4b:	addsd  xmm0,xmm1
    3f4f:	movapd xmm1,xmm0
    3f53:	mulsd  xmm1,QWORD PTR [rbp-0x48]
    3f58:	movsd  xmm0,QWORD PTR [rip+0xdff0]        # 11f50 <qs2+0x30>
    3f60:	addsd  xmm0,xmm1
    3f64:	movsd  QWORD PTR [rbp-0x20],xmm0
    3f69:	movsd  xmm0,QWORD PTR [rbp-0x58]
    3f6e:	movsd  xmm1,QWORD PTR [rbp-0x28]
    3f73:	mulsd  xmm0,xmm1
    3f77:	movsd  QWORD PTR [rbp-0x28],xmm0
    3f7c:	movsd  xmm1,QWORD PTR [rbp-0x58]
    3f81:	movsd  xmm0,QWORD PTR [rip+0xe007]        # 11f90 <qs2+0x70>
    3f89:	mulsd  xmm1,xmm0
    3f8d:	movsd  xmm0,QWORD PTR [rbp-0x28]
    3f92:	divsd  xmm0,QWORD PTR [rbp-0x20]
    3f97:	addsd  xmm0,xmm1
    3f9b:	leave  
    3f9c:	ret    

0000000000003f9d <__ieee754_y1>:
    3f9d:	endbr64 
    3fa1:	push   rbp
    3fa2:	mov    rbp,rsp
    3fa5:	sub    rsp,0x70
    3fa9:	movsd  QWORD PTR [rbp-0x58],xmm0
    3fae:	mov    eax,DWORD PTR [rbp-0x54]
    3fb1:	mov    DWORD PTR [rbp-0x44],eax
    3fb4:	mov    eax,DWORD PTR [rbp-0x44]
    3fb7:	and    eax,0x7fffffff
    3fbc:	mov    DWORD PTR [rbp-0x40],eax
    3fbf:	lea    rax,[rbp-0x58]
    3fc3:	mov    eax,DWORD PTR [rax]
    3fc5:	mov    DWORD PTR [rbp-0x3c],eax
    3fc8:	cmp    DWORD PTR [rbp-0x40],0x7fefffff
    3fcf:	jle    3ff9 <__ieee754_y1+0x5c>
    3fd1:	movsd  xmm0,QWORD PTR [rip+0xdf77]        # 11f50 <qs2+0x30>
    3fd9:	movsd  xmm2,QWORD PTR [rbp-0x58]
    3fde:	movsd  xmm1,QWORD PTR [rbp-0x58]
    3fe3:	mulsd  xmm2,xmm1
    3fe7:	movsd  xmm1,QWORD PTR [rbp-0x58]
    3fec:	addsd  xmm1,xmm2
    3ff0:	divsd  xmm0,xmm1
    3ff4:	jmp    4327 <__ieee754_y1+0x38a>
    3ff9:	mov    eax,DWORD PTR [rbp-0x40]
    3ffc:	or     eax,DWORD PTR [rbp-0x3c]
    3fff:	test   eax,eax
    4001:	jne    4028 <__ieee754_y1+0x8b>
    4003:	movsd  xmm0,QWORD PTR [rip+0xdf45]        # 11f50 <qs2+0x30>
    400b:	movq   xmm1,QWORD PTR [rip+0xdf5d]        # 11f70 <qs2+0x50>
    4013:	xorpd  xmm0,xmm1
    4017:	movsd  xmm1,QWORD PTR [rip+0x13041]        # 17060 <zero>
    401f:	divsd  xmm0,xmm1
    4023:	jmp    4327 <__ieee754_y1+0x38a>
    4028:	cmp    DWORD PTR [rbp-0x44],0x0
    402c:	jns    4047 <__ieee754_y1+0xaa>
    402e:	movsd  xmm0,QWORD PTR [rip+0x1302a]        # 17060 <zero>
    4036:	movsd  xmm1,QWORD PTR [rip+0x13022]        # 17060 <zero>
    403e:	divsd  xmm0,xmm1
    4042:	jmp    4327 <__ieee754_y1+0x38a>
    4047:	cmp    DWORD PTR [rbp-0x40],0x3fffffff
    404e:	jle    41c6 <__ieee754_y1+0x229>
    4054:	mov    rax,QWORD PTR [rbp-0x58]
    4058:	movq   xmm0,rax
    405d:	call   e6ca <sin>
    4062:	movq   rax,xmm0
    4067:	mov    QWORD PTR [rbp-0x10],rax
    406b:	mov    rax,QWORD PTR [rbp-0x58]
    406f:	movq   xmm0,rax
    4074:	call   bdcf <cos>
    4079:	movq   rax,xmm0
    407e:	mov    QWORD PTR [rbp-0x8],rax
    4082:	movsd  xmm0,QWORD PTR [rbp-0x10]
    4087:	movq   xmm1,QWORD PTR [rip+0xdee1]        # 11f70 <qs2+0x50>
    408f:	xorpd  xmm0,xmm1
    4093:	subsd  xmm0,QWORD PTR [rbp-0x8]
    4098:	movsd  QWORD PTR [rbp-0x30],xmm0
    409d:	movsd  xmm0,QWORD PTR [rbp-0x10]
    40a2:	subsd  xmm0,QWORD PTR [rbp-0x8]
    40a7:	movsd  QWORD PTR [rbp-0x28],xmm0
    40ac:	cmp    DWORD PTR [rbp-0x40],0x7fdfffff
    40b3:	jg     4104 <__ieee754_y1+0x167>
    40b5:	movsd  xmm0,QWORD PTR [rbp-0x58]
    40ba:	addsd  xmm0,xmm0
    40be:	call   bdcf <cos>
    40c3:	movq   rax,xmm0
    40c8:	mov    QWORD PTR [rbp-0x38],rax
    40cc:	movsd  xmm0,QWORD PTR [rbp-0x10]
    40d1:	mulsd  xmm0,QWORD PTR [rbp-0x8]
    40d6:	movsd  xmm1,QWORD PTR [rip+0x12f82]        # 17060 <zero>
    40de:	comisd xmm0,xmm1
    40e2:	jbe    40f5 <__ieee754_y1+0x158>
    40e4:	movsd  xmm0,QWORD PTR [rbp-0x38]
    40e9:	divsd  xmm0,QWORD PTR [rbp-0x30]
    40ee:	movsd  QWORD PTR [rbp-0x28],xmm0
    40f3:	jmp    4104 <__ieee754_y1+0x167>
    40f5:	movsd  xmm0,QWORD PTR [rbp-0x38]
    40fa:	divsd  xmm0,QWORD PTR [rbp-0x28]
    40ff:	movsd  QWORD PTR [rbp-0x30],xmm0
    4104:	cmp    DWORD PTR [rbp-0x40],0x48000000
    410b:	jle    4141 <__ieee754_y1+0x1a4>
    410d:	movsd  xmm0,QWORD PTR [rip+0xde6b]        # 11f80 <qs2+0x60>
    4115:	mulsd  xmm0,QWORD PTR [rbp-0x30]
    411a:	movsd  QWORD PTR [rbp-0x60],xmm0
    411f:	mov    rax,QWORD PTR [rbp-0x58]
    4123:	movq   xmm0,rax
    4128:	call   10038 <sqrt>
    412d:	movsd  xmm5,QWORD PTR [rbp-0x60]
    4132:	divsd  xmm5,xmm0
    4136:	movapd xmm0,xmm5
    413a:	movsd  QWORD PTR [rbp-0x38],xmm0
    413f:	jmp    41bc <__ieee754_y1+0x21f>
    4141:	mov    rax,QWORD PTR [rbp-0x58]
    4145:	movq   xmm0,rax
    414a:	call   4329 <pone>
    414f:	movq   rax,xmm0
    4154:	mov    QWORD PTR [rbp-0x20],rax
    4158:	mov    rax,QWORD PTR [rbp-0x58]
    415c:	movq   xmm0,rax
    4161:	call   44f1 <qone>
    4166:	movq   rax,xmm0
    416b:	mov    QWORD PTR [rbp-0x18],rax
    416f:	movsd  xmm0,QWORD PTR [rbp-0x20]
    4174:	movapd xmm1,xmm0
    4178:	mulsd  xmm1,QWORD PTR [rbp-0x30]
    417d:	movsd  xmm0,QWORD PTR [rbp-0x18]
    4182:	mulsd  xmm0,QWORD PTR [rbp-0x28]
    4187:	addsd  xmm1,xmm0
    418b:	movsd  xmm0,QWORD PTR [rip+0xdded]        # 11f80 <qs2+0x60>
    4193:	mulsd  xmm1,xmm0
    4197:	movsd  QWORD PTR [rbp-0x60],xmm1
    419c:	mov    rax,QWORD PTR [rbp-0x58]
    41a0:	movq   xmm0,rax
    41a5:	call   10038 <sqrt>
    41aa:	movsd  xmm1,QWORD PTR [rbp-0x60]
    41af:	divsd  xmm1,xmm0
    41b3:	movapd xmm0,xmm1
    41b7:	movsd  QWORD PTR [rbp-0x38],xmm0
    41bc:	movsd  xmm0,QWORD PTR [rbp-0x38]
    41c1:	jmp    4327 <__ieee754_y1+0x38a>
    41c6:	cmp    DWORD PTR [rbp-0x40],0x3c900000
    41cd:	jg     41f1 <__ieee754_y1+0x254>
    41cf:	movsd  xmm0,QWORD PTR [rip+0xde09]        # 11fe0 <qs2+0xc0>
    41d7:	movq   xmm1,QWORD PTR [rip+0xdd91]        # 11f70 <qs2+0x50>
    41df:	xorpd  xmm0,xmm1
    41e3:	movsd  xmm1,QWORD PTR [rbp-0x58]
    41e8:	divsd  xmm0,xmm1
    41ec:	jmp    4327 <__ieee754_y1+0x38a>
    41f1:	movsd  xmm1,QWORD PTR [rbp-0x58]
    41f6:	movsd  xmm0,QWORD PTR [rbp-0x58]
    41fb:	mulsd  xmm0,xmm1
    41ff:	movsd  QWORD PTR [rbp-0x38],xmm0
    4204:	movsd  xmm1,QWORD PTR [rip+0xdddc]        # 11fe8 <qs2+0xc8>
    420c:	movsd  xmm2,QWORD PTR [rip+0xdddc]        # 11ff0 <qs2+0xd0>
    4214:	movsd  xmm3,QWORD PTR [rip+0xdddc]        # 11ff8 <qs2+0xd8>
    421c:	movsd  xmm4,QWORD PTR [rip+0xdddc]        # 12000 <qs2+0xe0>
    4224:	movsd  xmm0,QWORD PTR [rip+0xdddc]        # 12008 <qs2+0xe8>
    422c:	mulsd  xmm0,QWORD PTR [rbp-0x38]
    4231:	addsd  xmm0,xmm4
    4235:	mulsd  xmm0,QWORD PTR [rbp-0x38]
    423a:	addsd  xmm0,xmm3
    423e:	mulsd  xmm0,QWORD PTR [rbp-0x38]
    4243:	addsd  xmm0,xmm2
    4247:	mulsd  xmm0,QWORD PTR [rbp-0x38]
    424c:	addsd  xmm0,xmm1
    4250:	movsd  QWORD PTR [rbp-0x20],xmm0
    4255:	movsd  xmm1,QWORD PTR [rip+0xddb3]        # 12010 <qs2+0xf0>
    425d:	movsd  xmm2,QWORD PTR [rip+0xddb3]        # 12018 <qs2+0xf8>
    4265:	movsd  xmm3,QWORD PTR [rip+0xddb3]        # 12020 <qs2+0x100>
    426d:	movsd  xmm4,QWORD PTR [rip+0xddb3]        # 12028 <qs2+0x108>
    4275:	movsd  xmm0,QWORD PTR [rip+0xddb3]        # 12030 <qs2+0x110>
    427d:	mulsd  xmm0,QWORD PTR [rbp-0x38]
    4282:	addsd  xmm0,xmm4
    4286:	mulsd  xmm0,QWORD PTR [rbp-0x38]
    428b:	addsd  xmm0,xmm3
    428f:	mulsd  xmm0,QWORD PTR [rbp-0x38]
    4294:	addsd  xmm0,xmm2
    4298:	mulsd  xmm0,QWORD PTR [rbp-0x38]
    429d:	addsd  xmm0,xmm1
    42a1:	movapd xmm1,xmm0
    42a5:	mulsd  xmm1,QWORD PTR [rbp-0x38]
    42aa:	movsd  xmm0,QWORD PTR [rip+0xdc9e]        # 11f50 <qs2+0x30>
    42b2:	addsd  xmm0,xmm1
    42b6:	movsd  QWORD PTR [rbp-0x18],xmm0
    42bb:	movsd  xmm0,QWORD PTR [rbp-0x20]
    42c0:	movapd xmm1,xmm0
    42c4:	divsd  xmm1,QWORD PTR [rbp-0x18]
    42c9:	movsd  xmm0,QWORD PTR [rbp-0x58]
    42ce:	mulsd  xmm1,xmm0
    42d2:	movsd  QWORD PTR [rbp-0x60],xmm1
    42d7:	mov    rax,QWORD PTR [rbp-0x58]
    42db:	movq   xmm0,rax
    42e0:	call   3c5b <__ieee754_j1>
    42e5:	movsd  QWORD PTR [rbp-0x68],xmm0
    42ea:	mov    rax,QWORD PTR [rbp-0x58]
    42ee:	movq   xmm0,rax
    42f3:	call   5f42 <__ieee754_log>
    42f8:	mulsd  xmm0,QWORD PTR [rbp-0x68]
    42fd:	movsd  xmm1,QWORD PTR [rip+0xdc4b]        # 11f50 <qs2+0x30>
    4305:	movsd  xmm2,QWORD PTR [rbp-0x58]
    430a:	divsd  xmm1,xmm2
    430e:	subsd  xmm0,xmm1
    4312:	movapd xmm1,xmm0
    4316:	movsd  xmm0,QWORD PTR [rip+0xdcc2]        # 11fe0 <qs2+0xc0>
    431e:	mulsd  xmm0,xmm1
    4322:	addsd  xmm0,QWORD PTR [rbp-0x60]
    4327:	leave  
    4328:	ret    

0000000000004329 <pone>:
    4329:	endbr64 
    432d:	push   rbp
    432e:	mov    rbp,rsp
    4331:	movsd  QWORD PTR [rbp-0x38],xmm0
    4336:	lea    rax,[rbp-0x38]
    433a:	add    rax,0x4
    433e:	mov    eax,DWORD PTR [rax]
    4340:	and    eax,0x7fffffff
    4345:	mov    DWORD PTR [rbp-0x2c],eax
    4348:	cmp    DWORD PTR [rbp-0x2c],0x401fffff
    434f:	jle    4369 <pone+0x40>
    4351:	lea    rax,[rip+0xd808]        # 11b60 <pr8>
    4358:	mov    QWORD PTR [rbp-0x28],rax
    435c:	lea    rax,[rip+0xd83d]        # 11ba0 <ps8>
    4363:	mov    QWORD PTR [rbp-0x20],rax
    4367:	jmp    43ca <pone+0xa1>
    4369:	cmp    DWORD PTR [rbp-0x2c],0x40122e8a
    4370:	jle    438a <pone+0x61>
    4372:	lea    rax,[rip+0xd867]        # 11be0 <pr5>
    4379:	mov    QWORD PTR [rbp-0x28],rax
    437d:	lea    rax,[rip+0xd89c]        # 11c20 <ps5>
    4384:	mov    QWORD PTR [rbp-0x20],rax
    4388:	jmp    43ca <pone+0xa1>
    438a:	cmp    DWORD PTR [rbp-0x2c],0x4006db6c
    4391:	jle    43ab <pone+0x82>
    4393:	lea    rax,[rip+0xd8c6]        # 11c60 <pr3>
    439a:	mov    QWORD PTR [rbp-0x28],rax
    439e:	lea    rax,[rip+0xd8fb]        # 11ca0 <ps3>
    43a5:	mov    QWORD PTR [rbp-0x20],rax
    43a9:	jmp    43ca <pone+0xa1>
    43ab:	cmp    DWORD PTR [rbp-0x2c],0x3fffffff
    43b2:	jle    43ca <pone+0xa1>
    43b4:	lea    rax,[rip+0xd925]        # 11ce0 <pr2>
    43bb:	mov    QWORD PTR [rbp-0x28],rax
    43bf:	lea    rax,[rip+0xd95a]        # 11d20 <ps2>
    43c6:	mov    QWORD PTR [rbp-0x20],rax
    43ca:	movsd  xmm0,QWORD PTR [rip+0xdb7e]        # 11f50 <qs2+0x30>
    43d2:	movsd  xmm2,QWORD PTR [rbp-0x38]
    43d7:	movsd  xmm1,QWORD PTR [rbp-0x38]
    43dc:	mulsd  xmm1,xmm2
    43e0:	divsd  xmm0,xmm1
    43e4:	movsd  QWORD PTR [rbp-0x18],xmm0
    43e9:	mov    rax,QWORD PTR [rbp-0x28]
    43ed:	movsd  xmm1,QWORD PTR [rax]
    43f1:	mov    rax,QWORD PTR [rbp-0x28]
    43f5:	add    rax,0x8
    43f9:	movsd  xmm2,QWORD PTR [rax]
    43fd:	mov    rax,QWORD PTR [rbp-0x28]
    4401:	add    rax,0x10
    4405:	movsd  xmm3,QWORD PTR [rax]
    4409:	mov    rax,QWORD PTR [rbp-0x28]
    440d:	add    rax,0x18
    4411:	movsd  xmm4,QWORD PTR [rax]
    4415:	mov    rax,QWORD PTR [rbp-0x28]
    4419:	add    rax,0x20
    441d:	movsd  xmm5,QWORD PTR [rax]
    4421:	mov    rax,QWORD PTR [rbp-0x28]
    4425:	add    rax,0x28
    4429:	movsd  xmm0,QWORD PTR [rax]
    442d:	mulsd  xmm0,QWORD PTR [rbp-0x18]
    4432:	addsd  xmm0,xmm5
    4436:	mulsd  xmm0,QWORD PTR [rbp-0x18]
    443b:	addsd  xmm0,xmm4
    443f:	mulsd  xmm0,QWORD PTR [rbp-0x18]
    4444:	addsd  xmm0,xmm3
    4448:	mulsd  xmm0,QWORD PTR [rbp-0x18]
    444d:	addsd  xmm0,xmm2
    4451:	mulsd  xmm0,QWORD PTR [rbp-0x18]
    4456:	addsd  xmm0,xmm1
    445a:	movsd  QWORD PTR [rbp-0x10],xmm0
    445f:	mov    rax,QWORD PTR [rbp-0x20]
    4463:	movsd  xmm1,QWORD PTR [rax]
    4467:	mov    rax,QWORD PTR [rbp-0x20]
    446b:	add    rax,0x8
    446f:	movsd  xmm2,QWORD PTR [rax]
    4473:	mov    rax,QWORD PTR [rbp-0x20]
    4477:	add    rax,0x10
    447b:	movsd  xmm3,QWORD PTR [rax]
    447f:	mov    rax,QWORD PTR [rbp-0x20]
    4483:	add    rax,0x18
    4487:	movsd  xmm4,QWORD PTR [rax]
    448b:	mov    rax,QWORD PTR [rbp-0x20]
    448f:	add    rax,0x20
    4493:	movsd  xmm0,QWORD PTR [rax]
    4497:	mulsd  xmm0,QWORD PTR [rbp-0x18]
    449c:	addsd  xmm0,xmm4
    44a0:	mulsd  xmm0,QWORD PTR [rbp-0x18]
    44a5:	addsd  xmm0,xmm3
    44a9:	mulsd  xmm0,QWORD PTR [rbp-0x18]
    44ae:	addsd  xmm0,xmm2
    44b2:	mulsd  xmm0,QWORD PTR [rbp-0x18]
    44b7:	addsd  xmm0,xmm1
    44bb:	movapd xmm1,xmm0
    44bf:	mulsd  xmm1,QWORD PTR [rbp-0x18]
    44c4:	movsd  xmm0,QWORD PTR [rip+0xda84]        # 11f50 <qs2+0x30>
    44cc:	addsd  xmm0,xmm1
    44d0:	movsd  QWORD PTR [rbp-0x8],xmm0
    44d5:	movsd  xmm0,QWORD PTR [rbp-0x10]
    44da:	movapd xmm1,xmm0
    44de:	divsd  xmm1,QWORD PTR [rbp-0x8]
    44e3:	movsd  xmm0,QWORD PTR [rip+0xda65]        # 11f50 <qs2+0x30>
    44eb:	addsd  xmm0,xmm1
    44ef:	pop    rbp
    44f0:	ret    

00000000000044f1 <qone>:
    44f1:	endbr64 
    44f5:	push   rbp
    44f6:	mov    rbp,rsp
    44f9:	movsd  QWORD PTR [rbp-0x38],xmm0
    44fe:	lea    rax,[rbp-0x38]
    4502:	add    rax,0x4
    4506:	mov    eax,DWORD PTR [rax]
    4508:	and    eax,0x7fffffff
    450d:	mov    DWORD PTR [rbp-0x2c],eax
    4510:	cmp    DWORD PTR [rbp-0x2c],0x401fffff
    4517:	jle    4531 <qone+0x40>
    4519:	lea    rax,[rip+0xd840]        # 11d60 <qr8>
    4520:	mov    QWORD PTR [rbp-0x28],rax
    4524:	lea    rax,[rip+0xd875]        # 11da0 <qs8>
    452b:	mov    QWORD PTR [rbp-0x20],rax
    452f:	jmp    4592 <qone+0xa1>
    4531:	cmp    DWORD PTR [rbp-0x2c],0x40122e8a
    4538:	jle    4552 <qone+0x61>
    453a:	lea    rax,[rip+0xd89f]        # 11de0 <qr5>
    4541:	mov    QWORD PTR [rbp-0x28],rax
    4545:	lea    rax,[rip+0xd8d4]        # 11e20 <qs5>
    454c:	mov    QWORD PTR [rbp-0x20],rax
    4550:	jmp    4592 <qone+0xa1>
    4552:	cmp    DWORD PTR [rbp-0x2c],0x4006db6c
    4559:	jle    4573 <qone+0x82>
    455b:	lea    rax,[rip+0xd8fe]        # 11e60 <qr3>
    4562:	mov    QWORD PTR [rbp-0x28],rax
    4566:	lea    rax,[rip+0xd933]        # 11ea0 <qs3>
    456d:	mov    QWORD PTR [rbp-0x20],rax
    4571:	jmp    4592 <qone+0xa1>
    4573:	cmp    DWORD PTR [rbp-0x2c],0x3fffffff
    457a:	jle    4592 <qone+0xa1>
    457c:	lea    rax,[rip+0xd95d]        # 11ee0 <qr2>
    4583:	mov    QWORD PTR [rbp-0x28],rax
    4587:	lea    rax,[rip+0xd992]        # 11f20 <qs2>
    458e:	mov    QWORD PTR [rbp-0x20],rax
    4592:	movsd  xmm0,QWORD PTR [rip+0xd9b6]        # 11f50 <qs2+0x30>
    459a:	movsd  xmm2,QWORD PTR [rbp-0x38]
    459f:	movsd  xmm1,QWORD PTR [rbp-0x38]
    45a4:	mulsd  xmm1,xmm2
    45a8:	divsd  xmm0,xmm1
    45ac:	movsd  QWORD PTR [rbp-0x18],xmm0
    45b1:	mov    rax,QWORD PTR [rbp-0x28]
    45b5:	movsd  xmm1,QWORD PTR [rax]
    45b9:	mov    rax,QWORD PTR [rbp-0x28]
    45bd:	add    rax,0x8
    45c1:	movsd  xmm2,QWORD PTR [rax]
    45c5:	mov    rax,QWORD PTR [rbp-0x28]
    45c9:	add    rax,0x10
    45cd:	movsd  xmm3,QWORD PTR [rax]
    45d1:	mov    rax,QWORD PTR [rbp-0x28]
    45d5:	add    rax,0x18
    45d9:	movsd  xmm4,QWORD PTR [rax]
    45dd:	mov    rax,QWORD PTR [rbp-0x28]
    45e1:	add    rax,0x20
    45e5:	movsd  xmm5,QWORD PTR [rax]
    45e9:	mov    rax,QWORD PTR [rbp-0x28]
    45ed:	add    rax,0x28
    45f1:	movsd  xmm0,QWORD PTR [rax]
    45f5:	mulsd  xmm0,QWORD PTR [rbp-0x18]
    45fa:	addsd  xmm0,xmm5
    45fe:	mulsd  xmm0,QWORD PTR [rbp-0x18]
    4603:	addsd  xmm0,xmm4
    4607:	mulsd  xmm0,QWORD PTR [rbp-0x18]
    460c:	addsd  xmm0,xmm3
    4610:	mulsd  xmm0,QWORD PTR [rbp-0x18]
    4615:	addsd  xmm0,xmm2
    4619:	mulsd  xmm0,QWORD PTR [rbp-0x18]
    461e:	addsd  xmm0,xmm1
    4622:	movsd  QWORD PTR [rbp-0x10],xmm0
    4627:	mov    rax,QWORD PTR [rbp-0x20]
    462b:	movsd  xmm1,QWORD PTR [rax]
    462f:	mov    rax,QWORD PTR [rbp-0x20]
    4633:	add    rax,0x8
    4637:	movsd  xmm2,QWORD PTR [rax]
    463b:	mov    rax,QWORD PTR [rbp-0x20]
    463f:	add    rax,0x10
    4643:	movsd  xmm3,QWORD PTR [rax]
    4647:	mov    rax,QWORD PTR [rbp-0x20]
    464b:	add    rax,0x18
    464f:	movsd  xmm4,QWORD PTR [rax]
    4653:	mov    rax,QWORD PTR [rbp-0x20]
    4657:	add    rax,0x20
    465b:	movsd  xmm5,QWORD PTR [rax]
    465f:	mov    rax,QWORD PTR [rbp-0x20]
    4663:	add    rax,0x28
    4667:	movsd  xmm0,QWORD PTR [rax]
    466b:	mulsd  xmm0,QWORD PTR [rbp-0x18]
    4670:	addsd  xmm0,xmm5
    4674:	mulsd  xmm0,QWORD PTR [rbp-0x18]
    4679:	addsd  xmm0,xmm4
    467d:	mulsd  xmm0,QWORD PTR [rbp-0x18]
    4682:	addsd  xmm0,xmm3
    4686:	mulsd  xmm0,QWORD PTR [rbp-0x18]
    468b:	addsd  xmm0,xmm2
    468f:	mulsd  xmm0,QWORD PTR [rbp-0x18]
    4694:	addsd  xmm0,xmm1
    4698:	movapd xmm1,xmm0
    469c:	mulsd  xmm1,QWORD PTR [rbp-0x18]
    46a1:	movsd  xmm0,QWORD PTR [rip+0xd8a7]        # 11f50 <qs2+0x30>
    46a9:	addsd  xmm0,xmm1
    46ad:	movsd  QWORD PTR [rbp-0x8],xmm0
    46b2:	movsd  xmm0,QWORD PTR [rbp-0x10]
    46b7:	movapd xmm1,xmm0
    46bb:	divsd  xmm1,QWORD PTR [rbp-0x8]
    46c0:	movsd  xmm0,QWORD PTR [rip+0xd970]        # 12038 <qs2+0x118>
    46c8:	addsd  xmm0,xmm1
    46cc:	movsd  xmm1,QWORD PTR [rbp-0x38]
    46d1:	divsd  xmm0,xmm1
    46d5:	pop    rbp
    46d6:	ret    

00000000000046d7 <__ieee754_jn>:
    46d7:	endbr64 
    46db:	push   rbp
    46dc:	mov    rbp,rsp
    46df:	sub    rsp,0xa0
    46e6:	mov    DWORD PTR [rbp-0x84],edi
    46ec:	movsd  QWORD PTR [rbp-0x90],xmm0
    46f4:	mov    eax,DWORD PTR [rbp-0x8c]
    46fa:	mov    DWORD PTR [rbp-0x78],eax
    46fd:	mov    eax,DWORD PTR [rbp-0x78]
    4700:	and    eax,0x7fffffff
    4705:	mov    DWORD PTR [rbp-0x70],eax
    4708:	lea    rax,[rbp-0x90]
    470f:	mov    eax,DWORD PTR [rax]
    4711:	mov    DWORD PTR [rbp-0x6c],eax
    4714:	mov    eax,DWORD PTR [rbp-0x6c]
    4717:	neg    eax
    4719:	or     eax,DWORD PTR [rbp-0x6c]
    471c:	shr    eax,0x1f
    471f:	mov    edx,eax
    4721:	mov    eax,DWORD PTR [rbp-0x70]
    4724:	or     eax,edx
    4726:	cmp    eax,0x7ff00000
    472b:	jbe    473e <__ieee754_jn+0x67>
    472d:	movsd  xmm0,QWORD PTR [rbp-0x90]
    4735:	addsd  xmm0,xmm0
    4739:	jmp    4dee <__ieee754_jn+0x717>
    473e:	cmp    DWORD PTR [rbp-0x84],0x0
    4745:	jns    4774 <__ieee754_jn+0x9d>
    4747:	neg    DWORD PTR [rbp-0x84]
    474d:	movsd  xmm0,QWORD PTR [rbp-0x90]
    4755:	movq   xmm1,QWORD PTR [rip+0xd903]        # 12060 <one+0x10>
    475d:	xorpd  xmm0,xmm1
    4761:	movsd  QWORD PTR [rbp-0x90],xmm0
    4769:	mov    eax,DWORD PTR [rbp-0x78]
    476c:	xor    eax,0x80000000
    4771:	mov    DWORD PTR [rbp-0x78],eax
    4774:	cmp    DWORD PTR [rbp-0x84],0x0
    477b:	jne    4793 <__ieee754_jn+0xbc>
    477d:	mov    rax,QWORD PTR [rbp-0x90]
    4784:	movq   xmm0,rax
    4789:	call   3175 <__ieee754_j0>
    478e:	jmp    4dee <__ieee754_jn+0x717>
    4793:	cmp    DWORD PTR [rbp-0x84],0x1
    479a:	jne    47b2 <__ieee754_jn+0xdb>
    479c:	mov    rax,QWORD PTR [rbp-0x90]
    47a3:	movq   xmm0,rax
    47a8:	call   3c5b <__ieee754_j1>
    47ad:	jmp    4dee <__ieee754_jn+0x717>
    47b2:	mov    eax,DWORD PTR [rbp-0x84]
    47b8:	and    eax,0x1
    47bb:	mov    edx,eax
    47bd:	mov    eax,DWORD PTR [rbp-0x78]
    47c0:	sar    eax,0x1f
    47c3:	and    eax,edx
    47c5:	mov    DWORD PTR [rbp-0x68],eax
    47c8:	movsd  xmm0,QWORD PTR [rbp-0x90]
    47d0:	movq   xmm1,QWORD PTR [rip+0xd898]        # 12070 <one+0x20>
    47d8:	andpd  xmm0,xmm1
    47dc:	movsd  QWORD PTR [rbp-0x90],xmm0
    47e4:	mov    eax,DWORD PTR [rbp-0x70]
    47e7:	or     eax,DWORD PTR [rbp-0x6c]
    47ea:	test   eax,eax
    47ec:	je     47f7 <__ieee754_jn+0x120>
    47ee:	cmp    DWORD PTR [rbp-0x70],0x7fefffff
    47f5:	jle    4809 <__ieee754_jn+0x132>
    47f7:	movsd  xmm0,QWORD PTR [rip+0x12869]        # 17068 <zero>
    47ff:	movsd  QWORD PTR [rbp-0x58],xmm0
    4804:	jmp    4dd0 <__ieee754_jn+0x6f9>
    4809:	cvtsi2sd xmm1,DWORD PTR [rbp-0x84]
    4811:	movsd  xmm0,QWORD PTR [rbp-0x90]
    4819:	comisd xmm0,xmm1
    481d:	jb     4a41 <__ieee754_jn+0x36a>
    4823:	cmp    DWORD PTR [rbp-0x70],0x52cfffff
    482a:	jle    49b8 <__ieee754_jn+0x2e1>
    4830:	mov    eax,DWORD PTR [rbp-0x84]
    4836:	and    eax,0x3
    4839:	cmp    eax,0x3
    483c:	je     4938 <__ieee754_jn+0x261>
    4842:	cmp    eax,0x3
    4845:	jg     4978 <__ieee754_jn+0x2a1>
    484b:	cmp    eax,0x2
    484e:	je     48eb <__ieee754_jn+0x214>
    4854:	cmp    eax,0x2
    4857:	jg     4978 <__ieee754_jn+0x2a1>
    485d:	test   eax,eax
    485f:	je     486b <__ieee754_jn+0x194>
    4861:	cmp    eax,0x1
    4864:	je     48a7 <__ieee754_jn+0x1d0>
    4866:	jmp    4978 <__ieee754_jn+0x2a1>
    486b:	mov    rax,QWORD PTR [rbp-0x90]
    4872:	movq   xmm0,rax
    4877:	call   bdcf <cos>
    487c:	movsd  QWORD PTR [rbp-0x98],xmm0
    4884:	mov    rax,QWORD PTR [rbp-0x90]
    488b:	movq   xmm0,rax
    4890:	call   e6ca <sin>
    4895:	addsd  xmm0,QWORD PTR [rbp-0x98]
    489d:	movsd  QWORD PTR [rbp-0x50],xmm0
    48a2:	jmp    4978 <__ieee754_jn+0x2a1>
    48a7:	mov    rax,QWORD PTR [rbp-0x90]
    48ae:	movq   xmm0,rax
    48b3:	call   e6ca <sin>
    48b8:	movsd  QWORD PTR [rbp-0x98],xmm0
    48c0:	mov    rax,QWORD PTR [rbp-0x90]
    48c7:	movq   xmm0,rax
    48cc:	call   bdcf <cos>
    48d1:	movsd  xmm5,QWORD PTR [rbp-0x98]
    48d9:	subsd  xmm5,xmm0
    48dd:	movapd xmm0,xmm5
    48e1:	movsd  QWORD PTR [rbp-0x50],xmm0
    48e6:	jmp    4978 <__ieee754_jn+0x2a1>
    48eb:	mov    rax,QWORD PTR [rbp-0x90]
    48f2:	movq   xmm0,rax
    48f7:	call   bdcf <cos>
    48fc:	movq   xmm1,QWORD PTR [rip+0xd75c]        # 12060 <one+0x10>
    4904:	xorpd  xmm0,xmm1
    4908:	movsd  QWORD PTR [rbp-0x98],xmm0
    4910:	mov    rax,QWORD PTR [rbp-0x90]
    4917:	movq   xmm0,rax
    491c:	call   e6ca <sin>
    4921:	movsd  xmm3,QWORD PTR [rbp-0x98]
    4929:	subsd  xmm3,xmm0
    492d:	movapd xmm0,xmm3
    4931:	movsd  QWORD PTR [rbp-0x50],xmm0
    4936:	jmp    4978 <__ieee754_jn+0x2a1>
    4938:	mov    rax,QWORD PTR [rbp-0x90]
    493f:	movq   xmm0,rax
    4944:	call   bdcf <cos>
    4949:	movsd  QWORD PTR [rbp-0x98],xmm0
    4951:	mov    rax,QWORD PTR [rbp-0x90]
    4958:	movq   xmm0,rax
    495d:	call   e6ca <sin>
    4962:	movsd  xmm6,QWORD PTR [rbp-0x98]
    496a:	subsd  xmm6,xmm0
    496e:	movapd xmm0,xmm6
    4972:	movsd  QWORD PTR [rbp-0x50],xmm0
    4977:	nop
    4978:	movsd  xmm0,QWORD PTR [rip+0xd700]        # 12080 <one+0x30>
    4980:	mulsd  xmm0,QWORD PTR [rbp-0x50]
    4985:	movsd  QWORD PTR [rbp-0x98],xmm0
    498d:	mov    rax,QWORD PTR [rbp-0x90]
    4994:	movq   xmm0,rax
    4999:	call   10038 <sqrt>
    499e:	movsd  xmm4,QWORD PTR [rbp-0x98]
    49a6:	divsd  xmm4,xmm0
    49aa:	movapd xmm0,xmm4
    49ae:	movsd  QWORD PTR [rbp-0x58],xmm0
    49b3:	jmp    4dd0 <__ieee754_jn+0x6f9>
    49b8:	mov    rax,QWORD PTR [rbp-0x90]
    49bf:	movq   xmm0,rax
    49c4:	call   3175 <__ieee754_j0>
    49c9:	movq   rax,xmm0
    49ce:	mov    QWORD PTR [rbp-0x60],rax
    49d2:	mov    rax,QWORD PTR [rbp-0x90]
    49d9:	movq   xmm0,rax
    49de:	call   3c5b <__ieee754_j1>
    49e3:	movq   rax,xmm0
    49e8:	mov    QWORD PTR [rbp-0x58],rax
    49ec:	mov    DWORD PTR [rbp-0x7c],0x1
    49f3:	jmp    4a31 <__ieee754_jn+0x35a>
    49f5:	movsd  xmm0,QWORD PTR [rbp-0x58]
    49fa:	movsd  QWORD PTR [rbp-0x50],xmm0
    49ff:	mov    eax,DWORD PTR [rbp-0x7c]
    4a02:	add    eax,eax
    4a04:	cvtsi2sd xmm0,eax
    4a08:	movsd  xmm1,QWORD PTR [rbp-0x90]
    4a10:	divsd  xmm0,xmm1
    4a14:	mulsd  xmm0,QWORD PTR [rbp-0x58]
    4a19:	subsd  xmm0,QWORD PTR [rbp-0x60]
    4a1e:	movsd  QWORD PTR [rbp-0x58],xmm0
    4a23:	movsd  xmm0,QWORD PTR [rbp-0x50]
    4a28:	movsd  QWORD PTR [rbp-0x60],xmm0
    4a2d:	add    DWORD PTR [rbp-0x7c],0x1
    4a31:	mov    eax,DWORD PTR [rbp-0x7c]
    4a34:	cmp    eax,DWORD PTR [rbp-0x84]
    4a3a:	jl     49f5 <__ieee754_jn+0x31e>
    4a3c:	jmp    4dd0 <__ieee754_jn+0x6f9>
    4a41:	cmp    DWORD PTR [rbp-0x70],0x3e0fffff
    4a48:	jg     4ae7 <__ieee754_jn+0x410>
    4a4e:	cmp    DWORD PTR [rbp-0x84],0x21
    4a55:	jle    4a69 <__ieee754_jn+0x392>
    4a57:	movsd  xmm0,QWORD PTR [rip+0x12609]        # 17068 <zero>
    4a5f:	movsd  QWORD PTR [rbp-0x58],xmm0
    4a64:	jmp    4dd0 <__ieee754_jn+0x6f9>
    4a69:	movsd  xmm1,QWORD PTR [rbp-0x90]
    4a71:	movsd  xmm0,QWORD PTR [rip+0xd60f]        # 12088 <one+0x38>
    4a79:	mulsd  xmm0,xmm1
    4a7d:	movsd  QWORD PTR [rbp-0x50],xmm0
    4a82:	movsd  xmm0,QWORD PTR [rbp-0x50]
    4a87:	movsd  QWORD PTR [rbp-0x58],xmm0
    4a8c:	movsd  xmm0,QWORD PTR [rip+0xd5fc]        # 12090 <one+0x40>
    4a94:	movsd  QWORD PTR [rbp-0x60],xmm0
    4a99:	mov    DWORD PTR [rbp-0x7c],0x2
    4aa0:	jmp    4ac8 <__ieee754_jn+0x3f1>
    4aa2:	cvtsi2sd xmm0,DWORD PTR [rbp-0x7c]
    4aa7:	movsd  xmm1,QWORD PTR [rbp-0x60]
    4aac:	mulsd  xmm0,xmm1
    4ab0:	movsd  QWORD PTR [rbp-0x60],xmm0
    4ab5:	movsd  xmm0,QWORD PTR [rbp-0x58]
    4aba:	mulsd  xmm0,QWORD PTR [rbp-0x50]
    4abf:	movsd  QWORD PTR [rbp-0x58],xmm0
    4ac4:	add    DWORD PTR [rbp-0x7c],0x1
    4ac8:	mov    eax,DWORD PTR [rbp-0x7c]
    4acb:	cmp    eax,DWORD PTR [rbp-0x84]
    4ad1:	jle    4aa2 <__ieee754_jn+0x3cb>
    4ad3:	movsd  xmm0,QWORD PTR [rbp-0x58]
    4ad8:	divsd  xmm0,QWORD PTR [rbp-0x60]
    4add:	movsd  QWORD PTR [rbp-0x58],xmm0
    4ae2:	jmp    4dd0 <__ieee754_jn+0x6f9>
    4ae7:	mov    eax,DWORD PTR [rbp-0x84]
    4aed:	add    eax,eax
    4aef:	cvtsi2sd xmm0,eax
    4af3:	movsd  xmm1,QWORD PTR [rbp-0x90]
    4afb:	divsd  xmm0,xmm1
    4aff:	movsd  QWORD PTR [rbp-0x20],xmm0
    4b04:	movsd  xmm1,QWORD PTR [rbp-0x90]
    4b0c:	movsd  xmm0,QWORD PTR [rip+0xd584]        # 12098 <one+0x48>
    4b14:	divsd  xmm0,xmm1
    4b18:	movsd  QWORD PTR [rbp-0x18],xmm0
    4b1d:	movsd  xmm0,QWORD PTR [rbp-0x20]
    4b22:	movsd  QWORD PTR [rbp-0x30],xmm0
    4b27:	movsd  xmm0,QWORD PTR [rbp-0x20]
    4b2c:	addsd  xmm0,QWORD PTR [rbp-0x18]
    4b31:	movsd  QWORD PTR [rbp-0x40],xmm0
    4b36:	movsd  xmm0,QWORD PTR [rbp-0x20]
    4b3b:	mulsd  xmm0,QWORD PTR [rbp-0x40]
    4b40:	movsd  xmm1,QWORD PTR [rip+0xd548]        # 12090 <one+0x40>
    4b48:	subsd  xmm0,xmm1
    4b4c:	movsd  QWORD PTR [rbp-0x28],xmm0
    4b51:	mov    DWORD PTR [rbp-0x74],0x1
    4b58:	jmp    4b95 <__ieee754_jn+0x4be>
    4b5a:	add    DWORD PTR [rbp-0x74],0x1
    4b5e:	movsd  xmm0,QWORD PTR [rbp-0x40]
    4b63:	addsd  xmm0,QWORD PTR [rbp-0x18]
    4b68:	movsd  QWORD PTR [rbp-0x40],xmm0
    4b6d:	movsd  xmm0,QWORD PTR [rbp-0x40]
    4b72:	mulsd  xmm0,QWORD PTR [rbp-0x28]
    4b77:	subsd  xmm0,QWORD PTR [rbp-0x30]
    4b7c:	movsd  QWORD PTR [rbp-0x10],xmm0
    4b81:	movsd  xmm0,QWORD PTR [rbp-0x28]
    4b86:	movsd  QWORD PTR [rbp-0x30],xmm0
    4b8b:	movsd  xmm0,QWORD PTR [rbp-0x10]
    4b90:	movsd  QWORD PTR [rbp-0x28],xmm0
    4b95:	movsd  xmm0,QWORD PTR [rip+0xd503]        # 120a0 <one+0x50>
    4b9d:	comisd xmm0,QWORD PTR [rbp-0x28]
    4ba2:	ja     4b5a <__ieee754_jn+0x483>
    4ba4:	mov    eax,DWORD PTR [rbp-0x84]
    4baa:	add    eax,eax
    4bac:	mov    DWORD PTR [rbp-0x64],eax
    4baf:	movsd  xmm0,QWORD PTR [rip+0x124b1]        # 17068 <zero>
    4bb7:	movsd  QWORD PTR [rbp-0x38],xmm0
    4bbc:	mov    edx,DWORD PTR [rbp-0x84]
    4bc2:	mov    eax,DWORD PTR [rbp-0x74]
    4bc5:	add    eax,edx
    4bc7:	add    eax,eax
    4bc9:	mov    DWORD PTR [rbp-0x7c],eax
    4bcc:	jmp    4bf9 <__ieee754_jn+0x522>
    4bce:	movsd  xmm0,QWORD PTR [rip+0xd4ba]        # 12090 <one+0x40>
    4bd6:	cvtsi2sd xmm1,DWORD PTR [rbp-0x7c]
    4bdb:	movsd  xmm2,QWORD PTR [rbp-0x90]
    4be3:	divsd  xmm1,xmm2
    4be7:	subsd  xmm1,QWORD PTR [rbp-0x38]
    4bec:	divsd  xmm0,xmm1
    4bf0:	movsd  QWORD PTR [rbp-0x38],xmm0
    4bf5:	sub    DWORD PTR [rbp-0x7c],0x2
    4bf9:	mov    eax,DWORD PTR [rbp-0x7c]
    4bfc:	cmp    eax,DWORD PTR [rbp-0x64]
    4bff:	jge    4bce <__ieee754_jn+0x4f7>
    4c01:	movsd  xmm0,QWORD PTR [rbp-0x38]
    4c06:	movsd  QWORD PTR [rbp-0x60],xmm0
    4c0b:	movsd  xmm0,QWORD PTR [rip+0xd47d]        # 12090 <one+0x40>
    4c13:	movsd  QWORD PTR [rbp-0x58],xmm0
    4c18:	cvtsi2sd xmm0,DWORD PTR [rbp-0x84]
    4c20:	movsd  QWORD PTR [rbp-0x10],xmm0
    4c25:	movsd  xmm0,QWORD PTR [rip+0xd46b]        # 12098 <one+0x48>
    4c2d:	movsd  xmm1,QWORD PTR [rbp-0x90]
    4c35:	divsd  xmm0,xmm1
    4c39:	movsd  QWORD PTR [rbp-0x8],xmm0
    4c3e:	movsd  xmm0,QWORD PTR [rbp-0x8]
    4c43:	mulsd  xmm0,QWORD PTR [rbp-0x10]
    4c48:	movq   xmm1,QWORD PTR [rip+0xd420]        # 12070 <one+0x20>
    4c50:	andpd  xmm0,xmm1
    4c54:	call   5f42 <__ieee754_log>
    4c59:	movsd  xmm1,QWORD PTR [rbp-0x10]
    4c5e:	mulsd  xmm0,xmm1
    4c62:	movsd  QWORD PTR [rbp-0x10],xmm0
    4c67:	movsd  xmm0,QWORD PTR [rip+0xd439]        # 120a8 <one+0x58>
    4c6f:	comisd xmm0,QWORD PTR [rbp-0x10]
    4c74:	jbe    4cf5 <__ieee754_jn+0x61e>
    4c76:	mov    eax,DWORD PTR [rbp-0x84]
    4c7c:	sub    eax,0x1
    4c7f:	mov    DWORD PTR [rbp-0x7c],eax
    4c82:	mov    eax,DWORD PTR [rbp-0x7c]
    4c85:	add    eax,eax
    4c87:	cvtsi2sd xmm0,eax
    4c8b:	movsd  QWORD PTR [rbp-0x48],xmm0
    4c90:	jmp    4cea <__ieee754_jn+0x613>
    4c92:	movsd  xmm0,QWORD PTR [rbp-0x58]
    4c97:	movsd  QWORD PTR [rbp-0x50],xmm0
    4c9c:	movsd  xmm0,QWORD PTR [rbp-0x58]
    4ca1:	mulsd  xmm0,QWORD PTR [rbp-0x48]
    4ca6:	movsd  QWORD PTR [rbp-0x58],xmm0
    4cab:	movsd  xmm1,QWORD PTR [rbp-0x90]
    4cb3:	movsd  xmm0,QWORD PTR [rbp-0x58]
    4cb8:	divsd  xmm0,xmm1
    4cbc:	subsd  xmm0,QWORD PTR [rbp-0x60]
    4cc1:	movsd  QWORD PTR [rbp-0x58],xmm0
    4cc6:	movsd  xmm0,QWORD PTR [rbp-0x50]
    4ccb:	movsd  QWORD PTR [rbp-0x60],xmm0
    4cd0:	movsd  xmm1,QWORD PTR [rip+0xd3c0]        # 12098 <one+0x48>
    4cd8:	movsd  xmm0,QWORD PTR [rbp-0x48]
    4cdd:	subsd  xmm0,xmm1
    4ce1:	movsd  QWORD PTR [rbp-0x48],xmm0
    4ce6:	sub    DWORD PTR [rbp-0x7c],0x1
    4cea:	cmp    DWORD PTR [rbp-0x7c],0x0
    4cee:	jg     4c92 <__ieee754_jn+0x5bb>
    4cf0:	jmp    4db0 <__ieee754_jn+0x6d9>
    4cf5:	mov    eax,DWORD PTR [rbp-0x84]
    4cfb:	sub    eax,0x1
    4cfe:	mov    DWORD PTR [rbp-0x7c],eax
    4d01:	mov    eax,DWORD PTR [rbp-0x7c]
    4d04:	add    eax,eax
    4d06:	cvtsi2sd xmm0,eax
    4d0a:	movsd  QWORD PTR [rbp-0x48],xmm0
    4d0f:	jmp    4da6 <__ieee754_jn+0x6cf>
    4d14:	movsd  xmm0,QWORD PTR [rbp-0x58]
    4d19:	movsd  QWORD PTR [rbp-0x50],xmm0
    4d1e:	movsd  xmm0,QWORD PTR [rbp-0x58]
    4d23:	mulsd  xmm0,QWORD PTR [rbp-0x48]
    4d28:	movsd  QWORD PTR [rbp-0x58],xmm0
    4d2d:	movsd  xmm1,QWORD PTR [rbp-0x90]
    4d35:	movsd  xmm0,QWORD PTR [rbp-0x58]
    4d3a:	divsd  xmm0,xmm1
    4d3e:	subsd  xmm0,QWORD PTR [rbp-0x60]
    4d43:	movsd  QWORD PTR [rbp-0x58],xmm0
    4d48:	movsd  xmm0,QWORD PTR [rbp-0x50]
    4d4d:	movsd  QWORD PTR [rbp-0x60],xmm0
    4d52:	movsd  xmm1,QWORD PTR [rip+0xd33e]        # 12098 <one+0x48>
    4d5a:	movsd  xmm0,QWORD PTR [rbp-0x48]
    4d5f:	subsd  xmm0,xmm1
    4d63:	movsd  QWORD PTR [rbp-0x48],xmm0
    4d68:	movsd  xmm0,QWORD PTR [rbp-0x58]
    4d6d:	comisd xmm0,QWORD PTR [rip+0xd33b]        # 120b0 <one+0x60>
    4d75:	jbe    4da2 <__ieee754_jn+0x6cb>
    4d77:	movsd  xmm0,QWORD PTR [rbp-0x60]
    4d7c:	divsd  xmm0,QWORD PTR [rbp-0x58]
    4d81:	movsd  QWORD PTR [rbp-0x60],xmm0
    4d86:	movsd  xmm0,QWORD PTR [rbp-0x38]
    4d8b:	divsd  xmm0,QWORD PTR [rbp-0x58]
    4d90:	movsd  QWORD PTR [rbp-0x38],xmm0
    4d95:	movsd  xmm0,QWORD PTR [rip+0xd2f3]        # 12090 <one+0x40>
    4d9d:	movsd  QWORD PTR [rbp-0x58],xmm0
    4da2:	sub    DWORD PTR [rbp-0x7c],0x1
    4da6:	cmp    DWORD PTR [rbp-0x7c],0x0
    4daa:	jg     4d14 <__ieee754_jn+0x63d>
    4db0:	mov    rax,QWORD PTR [rbp-0x90]
    4db7:	movq   xmm0,rax
    4dbc:	call   3175 <__ieee754_j0>
    4dc1:	mulsd  xmm0,QWORD PTR [rbp-0x38]
    4dc6:	divsd  xmm0,QWORD PTR [rbp-0x58]
    4dcb:	movsd  QWORD PTR [rbp-0x58],xmm0
    4dd0:	cmp    DWORD PTR [rbp-0x68],0x1
    4dd4:	jne    4de9 <__ieee754_jn+0x712>
    4dd6:	movsd  xmm0,QWORD PTR [rbp-0x58]
    4ddb:	movq   xmm1,QWORD PTR [rip+0xd27d]        # 12060 <one+0x10>
    4de3:	xorpd  xmm0,xmm1
    4de7:	jmp    4dee <__ieee754_jn+0x717>
    4de9:	movsd  xmm0,QWORD PTR [rbp-0x58]
    4dee:	leave  
    4def:	ret    

0000000000004df0 <__ieee754_yn>:
    4df0:	endbr64 
    4df4:	push   rbp
    4df5:	mov    rbp,rsp
    4df8:	sub    rsp,0x60
    4dfc:	mov    DWORD PTR [rbp-0x44],edi
    4dff:	movsd  QWORD PTR [rbp-0x50],xmm0
    4e04:	mov    rax,QWORD PTR fs:0x28
    4e0d:	mov    QWORD PTR [rbp-0x8],rax
    4e11:	xor    eax,eax
    4e13:	mov    eax,DWORD PTR [rbp-0x4c]
    4e16:	mov    DWORD PTR [rbp-0x2c],eax
    4e19:	mov    eax,DWORD PTR [rbp-0x2c]
    4e1c:	and    eax,0x7fffffff
    4e21:	mov    DWORD PTR [rbp-0x28],eax
    4e24:	lea    rax,[rbp-0x50]
    4e28:	mov    eax,DWORD PTR [rax]
    4e2a:	mov    DWORD PTR [rbp-0x24],eax
    4e2d:	mov    eax,DWORD PTR [rbp-0x24]
    4e30:	neg    eax
    4e32:	or     eax,DWORD PTR [rbp-0x24]
    4e35:	shr    eax,0x1f
    4e38:	mov    edx,eax
    4e3a:	mov    eax,DWORD PTR [rbp-0x28]
    4e3d:	or     eax,edx
    4e3f:	cmp    eax,0x7ff00000
    4e44:	jbe    4e54 <__ieee754_yn+0x64>
    4e46:	movsd  xmm0,QWORD PTR [rbp-0x50]
    4e4b:	addsd  xmm0,xmm0
    4e4f:	jmp    5122 <__ieee754_yn+0x332>
    4e54:	mov    eax,DWORD PTR [rbp-0x28]
    4e57:	or     eax,DWORD PTR [rbp-0x24]
    4e5a:	test   eax,eax
    4e5c:	jne    4e83 <__ieee754_yn+0x93>
    4e5e:	movsd  xmm0,QWORD PTR [rip+0xd22a]        # 12090 <one+0x40>
    4e66:	movq   xmm1,QWORD PTR [rip+0xd1f2]        # 12060 <one+0x10>
    4e6e:	xorpd  xmm0,xmm1
    4e72:	movsd  xmm1,QWORD PTR [rip+0x121ee]        # 17068 <zero>
    4e7a:	divsd  xmm0,xmm1
    4e7e:	jmp    5122 <__ieee754_yn+0x332>
    4e83:	cmp    DWORD PTR [rbp-0x2c],0x0
    4e87:	jns    4ea2 <__ieee754_yn+0xb2>
    4e89:	movsd  xmm0,QWORD PTR [rip+0x121d7]        # 17068 <zero>
    4e91:	movsd  xmm1,QWORD PTR [rip+0x121cf]        # 17068 <zero>
    4e99:	divsd  xmm0,xmm1
    4e9d:	jmp    5122 <__ieee754_yn+0x332>
    4ea2:	mov    DWORD PTR [rbp-0x30],0x1
    4ea9:	cmp    DWORD PTR [rbp-0x44],0x0
    4ead:	jns    4ec6 <__ieee754_yn+0xd6>
    4eaf:	neg    DWORD PTR [rbp-0x44]
    4eb2:	mov    eax,DWORD PTR [rbp-0x44]
    4eb5:	add    eax,eax
    4eb7:	and    eax,0x2
    4eba:	mov    edx,0x1
    4ebf:	sub    edx,eax
    4ec1:	mov    eax,edx
    4ec3:	mov    DWORD PTR [rbp-0x30],eax
    4ec6:	cmp    DWORD PTR [rbp-0x44],0x0
    4eca:	jne    4edf <__ieee754_yn+0xef>
    4ecc:	mov    rax,QWORD PTR [rbp-0x50]
    4ed0:	movq   xmm0,rax
    4ed5:	call   3509 <__ieee754_y0>
    4eda:	jmp    5122 <__ieee754_yn+0x332>
    4edf:	cmp    DWORD PTR [rbp-0x44],0x1
    4ee3:	jne    4f07 <__ieee754_yn+0x117>
    4ee5:	cvtsi2sd xmm6,DWORD PTR [rbp-0x30]
    4eea:	movsd  QWORD PTR [rbp-0x58],xmm6
    4eef:	mov    rax,QWORD PTR [rbp-0x50]
    4ef3:	movq   xmm0,rax
    4ef8:	call   3f9d <__ieee754_y1>
    4efd:	mulsd  xmm0,QWORD PTR [rbp-0x58]
    4f02:	jmp    5122 <__ieee754_yn+0x332>
    4f07:	cmp    DWORD PTR [rbp-0x28],0x7ff00000
    4f0e:	jne    4f1d <__ieee754_yn+0x12d>
    4f10:	movsd  xmm0,QWORD PTR [rip+0x12150]        # 17068 <zero>
    4f18:	jmp    5122 <__ieee754_yn+0x332>
    4f1d:	cmp    DWORD PTR [rbp-0x28],0x52cfffff
    4f24:	jle    5073 <__ieee754_yn+0x283>
    4f2a:	mov    eax,DWORD PTR [rbp-0x44]
    4f2d:	and    eax,0x3
    4f30:	cmp    eax,0x3
    4f33:	je     5010 <__ieee754_yn+0x220>
    4f39:	cmp    eax,0x3
    4f3c:	jg     503c <__ieee754_yn+0x24c>
    4f42:	cmp    eax,0x2
    4f45:	je     4fdb <__ieee754_yn+0x1eb>
    4f4b:	cmp    eax,0x2
    4f4e:	jg     503c <__ieee754_yn+0x24c>
    4f54:	test   eax,eax
    4f56:	je     4f62 <__ieee754_yn+0x172>
    4f58:	cmp    eax,0x1
    4f5b:	je     4f9a <__ieee754_yn+0x1aa>
    4f5d:	jmp    503c <__ieee754_yn+0x24c>
    4f62:	mov    rax,QWORD PTR [rbp-0x50]
    4f66:	movq   xmm0,rax
    4f6b:	call   e6ca <sin>
    4f70:	movsd  QWORD PTR [rbp-0x58],xmm0
    4f75:	mov    rax,QWORD PTR [rbp-0x50]
    4f79:	movq   xmm0,rax
    4f7e:	call   bdcf <cos>
    4f83:	movsd  xmm4,QWORD PTR [rbp-0x58]
    4f88:	subsd  xmm4,xmm0
    4f8c:	movapd xmm0,xmm4
    4f90:	movsd  QWORD PTR [rbp-0x10],xmm0
    4f95:	jmp    503c <__ieee754_yn+0x24c>
    4f9a:	mov    rax,QWORD PTR [rbp-0x50]
    4f9e:	movq   xmm0,rax
    4fa3:	call   e6ca <sin>
    4fa8:	movq   xmm1,QWORD PTR [rip+0xd0b0]        # 12060 <one+0x10>
    4fb0:	xorpd  xmm0,xmm1
    4fb4:	movsd  QWORD PTR [rbp-0x58],xmm0
    4fb9:	mov    rax,QWORD PTR [rbp-0x50]
    4fbd:	movq   xmm0,rax
    4fc2:	call   bdcf <cos>
    4fc7:	movsd  xmm2,QWORD PTR [rbp-0x58]
    4fcc:	subsd  xmm2,xmm0
    4fd0:	movapd xmm0,xmm2
    4fd4:	movsd  QWORD PTR [rbp-0x10],xmm0
    4fd9:	jmp    503c <__ieee754_yn+0x24c>
    4fdb:	mov    rax,QWORD PTR [rbp-0x50]
    4fdf:	movq   xmm0,rax
    4fe4:	call   bdcf <cos>
    4fe9:	movsd  QWORD PTR [rbp-0x58],xmm0
    4fee:	mov    rax,QWORD PTR [rbp-0x50]
    4ff2:	movq   xmm0,rax
    4ff7:	call   e6ca <sin>
    4ffc:	movsd  xmm5,QWORD PTR [rbp-0x58]
    5001:	subsd  xmm5,xmm0
    5005:	movapd xmm0,xmm5
    5009:	movsd  QWORD PTR [rbp-0x10],xmm0
    500e:	jmp    503c <__ieee754_yn+0x24c>
    5010:	mov    rax,QWORD PTR [rbp-0x50]
    5014:	movq   xmm0,rax
    5019:	call   e6ca <sin>
    501e:	movsd  QWORD PTR [rbp-0x58],xmm0
    5023:	mov    rax,QWORD PTR [rbp-0x50]
    5027:	movq   xmm0,rax
    502c:	call   bdcf <cos>
    5031:	addsd  xmm0,QWORD PTR [rbp-0x58]
    5036:	movsd  QWORD PTR [rbp-0x10],xmm0
    503b:	nop
    503c:	movsd  xmm0,QWORD PTR [rip+0xd03c]        # 12080 <one+0x30>
    5044:	mulsd  xmm0,QWORD PTR [rbp-0x10]
    5049:	movsd  QWORD PTR [rbp-0x58],xmm0
    504e:	mov    rax,QWORD PTR [rbp-0x50]
    5052:	movq   xmm0,rax
    5057:	call   10038 <sqrt>
    505c:	movsd  xmm3,QWORD PTR [rbp-0x58]
    5061:	divsd  xmm3,xmm0
    5065:	movapd xmm0,xmm3
    5069:	movsd  QWORD PTR [rbp-0x20],xmm0
    506e:	jmp    5104 <__ieee754_yn+0x314>
    5073:	mov    rax,QWORD PTR [rbp-0x50]
    5077:	movq   xmm0,rax
    507c:	call   3509 <__ieee754_y0>
    5081:	movq   rax,xmm0
    5086:	mov    QWORD PTR [rbp-0x18],rax
    508a:	mov    rax,QWORD PTR [rbp-0x50]
    508e:	movq   xmm0,rax
    5093:	call   3f9d <__ieee754_y1>
    5098:	movq   rax,xmm0
    509d:	mov    QWORD PTR [rbp-0x20],rax
    50a1:	mov    DWORD PTR [rbp-0x34],0x1
    50a8:	jmp    50eb <__ieee754_yn+0x2fb>
    50aa:	movsd  xmm0,QWORD PTR [rbp-0x20]
    50af:	movsd  QWORD PTR [rbp-0x10],xmm0
    50b4:	mov    eax,DWORD PTR [rbp-0x34]
    50b7:	add    eax,eax
    50b9:	cvtsi2sd xmm0,eax
    50bd:	movsd  xmm1,QWORD PTR [rbp-0x50]
    50c2:	divsd  xmm0,xmm1
    50c6:	movapd xmm1,xmm0
    50ca:	movsd  xmm0,QWORD PTR [rbp-0x20]
    50cf:	mulsd  xmm0,xmm1
    50d3:	subsd  xmm0,QWORD PTR [rbp-0x18]
    50d8:	movsd  QWORD PTR [rbp-0x20],xmm0
    50dd:	movsd  xmm0,QWORD PTR [rbp-0x10]
    50e2:	movsd  QWORD PTR [rbp-0x18],xmm0
    50e7:	add    DWORD PTR [rbp-0x34],0x1
    50eb:	mov    eax,DWORD PTR [rbp-0x34]
    50ee:	cmp    eax,DWORD PTR [rbp-0x44]
    50f1:	jge    5104 <__ieee754_yn+0x314>
    50f3:	lea    rax,[rbp-0x20]
    50f7:	add    rax,0x4
    50fb:	mov    eax,DWORD PTR [rax]
    50fd:	cmp    eax,0xfff00000
    5102:	jne    50aa <__ieee754_yn+0x2ba>
    5104:	cmp    DWORD PTR [rbp-0x30],0x0
    5108:	jle    5111 <__ieee754_yn+0x321>
    510a:	movsd  xmm0,QWORD PTR [rbp-0x20]
    510f:	jmp    5122 <__ieee754_yn+0x332>
    5111:	movsd  xmm0,QWORD PTR [rbp-0x20]
    5116:	movq   xmm1,QWORD PTR [rip+0xcf42]        # 12060 <one+0x10>
    511e:	xorpd  xmm0,xmm1
    5122:	mov    rax,QWORD PTR [rbp-0x8]
    5126:	xor    rax,QWORD PTR fs:0x28
    512f:	je     5136 <__ieee754_yn+0x346>
    5131:	call   1130 <__stack_chk_fail@plt>
    5136:	leave  
    5137:	ret    

0000000000005138 <__ieee754_lgamma>:
    5138:	endbr64 
    513c:	push   rbp
    513d:	mov    rbp,rsp
    5140:	sub    rsp,0x10
    5144:	movsd  QWORD PTR [rbp-0x8],xmm0
    5149:	mov    rax,QWORD PTR [rbp-0x8]
    514d:	lea    rdi,[rip+0x11f44]        # 17098 <signgam>
    5154:	movq   xmm0,rax
    5159:	call   544f <__ieee754_lgamma_r>
    515e:	leave  
    515f:	ret    

0000000000005160 <sin_pi>:
    5160:	endbr64 
    5164:	push   rbp
    5165:	mov    rbp,rsp
    5168:	sub    rsp,0x30
    516c:	movsd  QWORD PTR [rbp-0x28],xmm0
    5171:	mov    rax,QWORD PTR fs:0x28
    517a:	mov    QWORD PTR [rbp-0x8],rax
    517e:	xor    eax,eax
    5180:	lea    rax,[rbp-0x28]
    5184:	add    rax,0x4
    5188:	mov    eax,DWORD PTR [rax]
    518a:	and    eax,0x7fffffff
    518f:	mov    DWORD PTR [rbp-0x1c],eax
    5192:	cmp    DWORD PTR [rbp-0x1c],0x3fcfffff
    5199:	jg     51c7 <sin_pi+0x67>
    519b:	movsd  xmm2,QWORD PTR [rip+0x11ecd]        # 17070 <zero>
    51a3:	movsd  xmm1,QWORD PTR [rip+0xd135]        # 122e0 <w6+0x20>
    51ab:	movsd  xmm0,QWORD PTR [rbp-0x28]
    51b0:	mulsd  xmm0,xmm1
    51b4:	mov    edi,0x0
    51b9:	movapd xmm1,xmm2
    51bd:	call   949c <__kernel_sin>
    51c2:	jmp    5439 <sin_pi+0x2d9>
    51c7:	movsd  xmm0,QWORD PTR [rbp-0x28]
    51cc:	movq   xmm1,QWORD PTR [rip+0xd11c]        # 122f0 <w6+0x30>
    51d4:	xorpd  xmm0,xmm1
    51d8:	movsd  QWORD PTR [rbp-0x10],xmm0
    51dd:	mov    rax,QWORD PTR [rbp-0x10]
    51e1:	movq   xmm0,rax
    51e6:	call   d462 <floor>
    51eb:	movq   rax,xmm0
    51f0:	mov    QWORD PTR [rbp-0x18],rax
    51f4:	movsd  xmm0,QWORD PTR [rbp-0x18]
    51f9:	ucomisd xmm0,QWORD PTR [rbp-0x10]
    51fe:	jp     5207 <sin_pi+0xa7>
    5200:	ucomisd xmm0,QWORD PTR [rbp-0x10]
    5205:	je     525b <sin_pi+0xfb>
    5207:	movsd  xmm1,QWORD PTR [rbp-0x10]
    520c:	movsd  xmm0,QWORD PTR [rip+0xd0ec]        # 12300 <w6+0x40>
    5214:	mulsd  xmm0,xmm1
    5218:	movsd  QWORD PTR [rbp-0x10],xmm0
    521d:	mov    rax,QWORD PTR [rbp-0x10]
    5221:	movq   xmm0,rax
    5226:	call   d462 <floor>
    522b:	movsd  xmm1,QWORD PTR [rbp-0x10]
    5230:	subsd  xmm1,xmm0
    5234:	movapd xmm0,xmm1
    5238:	addsd  xmm0,xmm0
    523c:	movsd  QWORD PTR [rbp-0x10],xmm0
    5241:	movsd  xmm1,QWORD PTR [rbp-0x10]
    5246:	movsd  xmm0,QWORD PTR [rip+0xd0ba]        # 12308 <w6+0x48>
    524e:	mulsd  xmm0,xmm1
    5252:	cvttsd2si eax,xmm0
    5256:	mov    DWORD PTR [rbp-0x20],eax
    5259:	jmp    52af <sin_pi+0x14f>
    525b:	cmp    DWORD PTR [rbp-0x1c],0x433fffff
    5262:	jle    527a <sin_pi+0x11a>
    5264:	movsd  xmm0,QWORD PTR [rip+0x11e04]        # 17070 <zero>
    526c:	movsd  QWORD PTR [rbp-0x10],xmm0
    5271:	mov    DWORD PTR [rbp-0x20],0x0
    5278:	jmp    52af <sin_pi+0x14f>
    527a:	cmp    DWORD PTR [rbp-0x1c],0x432fffff
    5281:	jg     5295 <sin_pi+0x135>
    5283:	movsd  xmm0,QWORD PTR [rip+0xd085]        # 12310 <w6+0x50>
    528b:	addsd  xmm0,QWORD PTR [rbp-0x10]
    5290:	movsd  QWORD PTR [rbp-0x18],xmm0
    5295:	lea    rax,[rbp-0x18]
    5299:	mov    eax,DWORD PTR [rax]
    529b:	and    eax,0x1
    529e:	mov    DWORD PTR [rbp-0x20],eax
    52a1:	cvtsi2sd xmm0,DWORD PTR [rbp-0x20]
    52a6:	movsd  QWORD PTR [rbp-0x10],xmm0
    52ab:	shl    DWORD PTR [rbp-0x20],0x2
    52af:	cmp    DWORD PTR [rbp-0x20],0x6
    52b3:	jg     53e7 <sin_pi+0x287>
    52b9:	cmp    DWORD PTR [rbp-0x20],0x5
    52bd:	jge    53a2 <sin_pi+0x242>
    52c3:	cmp    DWORD PTR [rbp-0x20],0x4
    52c7:	jg     53e7 <sin_pi+0x287>
    52cd:	cmp    DWORD PTR [rbp-0x20],0x3
    52d1:	jge    5361 <sin_pi+0x201>
    52d7:	cmp    DWORD PTR [rbp-0x20],0x0
    52db:	je     52f8 <sin_pi+0x198>
    52dd:	cmp    DWORD PTR [rbp-0x20],0x0
    52e1:	js     53e7 <sin_pi+0x287>
    52e7:	mov    eax,DWORD PTR [rbp-0x20]
    52ea:	sub    eax,0x1
    52ed:	cmp    eax,0x1
    52f0:	ja     53e7 <sin_pi+0x287>
    52f6:	jmp    5325 <sin_pi+0x1c5>
    52f8:	movsd  xmm1,QWORD PTR [rip+0x11d70]        # 17070 <zero>
    5300:	movsd  xmm0,QWORD PTR [rip+0xcfd8]        # 122e0 <w6+0x20>
    5308:	mulsd  xmm0,QWORD PTR [rbp-0x10]
    530d:	mov    edi,0x0
    5312:	call   949c <__kernel_sin>
    5317:	movq   rax,xmm0
    531c:	mov    QWORD PTR [rbp-0x10],rax
    5320:	jmp    5428 <sin_pi+0x2c8>
    5325:	movsd  xmm2,QWORD PTR [rip+0x11d43]        # 17070 <zero>
    532d:	movsd  xmm0,QWORD PTR [rip+0xcfcb]        # 12300 <w6+0x40>
    5335:	movapd xmm1,xmm0
    5339:	subsd  xmm1,QWORD PTR [rbp-0x10]
    533e:	movsd  xmm0,QWORD PTR [rip+0xcf9a]        # 122e0 <w6+0x20>
    5346:	mulsd  xmm0,xmm1
    534a:	movapd xmm1,xmm2
    534e:	call   83fc <__kernel_cos>
    5353:	movq   rax,xmm0
    5358:	mov    QWORD PTR [rbp-0x10],rax
    535c:	jmp    5428 <sin_pi+0x2c8>
    5361:	movsd  xmm2,QWORD PTR [rip+0x11d07]        # 17070 <zero>
    5369:	movsd  xmm0,QWORD PTR [rip+0xcfa7]        # 12318 <w6+0x58>
    5371:	movapd xmm1,xmm0
    5375:	subsd  xmm1,QWORD PTR [rbp-0x10]
    537a:	movsd  xmm0,QWORD PTR [rip+0xcf5e]        # 122e0 <w6+0x20>
    5382:	mulsd  xmm0,xmm1
    5386:	mov    edi,0x0
    538b:	movapd xmm1,xmm2
    538f:	call   949c <__kernel_sin>
    5394:	movq   rax,xmm0
    5399:	mov    QWORD PTR [rbp-0x10],rax
    539d:	jmp    5428 <sin_pi+0x2c8>
    53a2:	movsd  xmm2,QWORD PTR [rip+0x11cc6]        # 17070 <zero>
    53aa:	movsd  xmm0,QWORD PTR [rbp-0x10]
    53af:	movsd  xmm1,QWORD PTR [rip+0xcf69]        # 12320 <w6+0x60>
    53b7:	subsd  xmm0,xmm1
    53bb:	movapd xmm1,xmm0
    53bf:	movsd  xmm0,QWORD PTR [rip+0xcf19]        # 122e0 <w6+0x20>
    53c7:	mulsd  xmm0,xmm1
    53cb:	movapd xmm1,xmm2
    53cf:	call   83fc <__kernel_cos>
    53d4:	movq   xmm1,QWORD PTR [rip+0xcf14]        # 122f0 <w6+0x30>
    53dc:	xorpd  xmm0,xmm1
    53e0:	movsd  QWORD PTR [rbp-0x10],xmm0
    53e5:	jmp    5428 <sin_pi+0x2c8>
    53e7:	movsd  xmm2,QWORD PTR [rip+0x11c81]        # 17070 <zero>
    53ef:	movsd  xmm0,QWORD PTR [rbp-0x10]
    53f4:	movsd  xmm1,QWORD PTR [rip+0xcf2c]        # 12328 <w6+0x68>
    53fc:	subsd  xmm0,xmm1
    5400:	movapd xmm1,xmm0
    5404:	movsd  xmm0,QWORD PTR [rip+0xced4]        # 122e0 <w6+0x20>
    540c:	mulsd  xmm0,xmm1
    5410:	mov    edi,0x0
    5415:	movapd xmm1,xmm2
    5419:	call   949c <__kernel_sin>
    541e:	movq   rax,xmm0
    5423:	mov    QWORD PTR [rbp-0x10],rax
    5427:	nop
    5428:	movsd  xmm0,QWORD PTR [rbp-0x10]
    542d:	movq   xmm1,QWORD PTR [rip+0xcebb]        # 122f0 <w6+0x30>
    5435:	xorpd  xmm0,xmm1
    5439:	mov    rax,QWORD PTR [rbp-0x8]
    543d:	xor    rax,QWORD PTR fs:0x28
    5446:	je     544d <sin_pi+0x2ed>
    5448:	call   1130 <__stack_chk_fail@plt>
    544d:	leave  
    544e:	ret    

000000000000544f <__ieee754_lgamma_r>:
    544f:	endbr64 
    5453:	push   rbp
    5454:	mov    rbp,rsp
    5457:	add    rsp,0xffffffffffffff80
    545b:	movsd  QWORD PTR [rbp-0x78],xmm0
    5460:	mov    QWORD PTR [rbp-0x80],rdi
    5464:	mov    eax,DWORD PTR [rbp-0x74]
    5467:	mov    DWORD PTR [rbp-0x64],eax
    546a:	lea    rax,[rbp-0x78]
    546e:	mov    eax,DWORD PTR [rax]
    5470:	mov    DWORD PTR [rbp-0x60],eax
    5473:	mov    rax,QWORD PTR [rbp-0x80]
    5477:	mov    DWORD PTR [rax],0x1
    547d:	mov    eax,DWORD PTR [rbp-0x64]
    5480:	and    eax,0x7fffffff
    5485:	mov    DWORD PTR [rbp-0x5c],eax
    5488:	cmp    DWORD PTR [rbp-0x5c],0x7fefffff
    548f:	jle    54a4 <__ieee754_lgamma_r+0x55>
    5491:	movsd  xmm1,QWORD PTR [rbp-0x78]
    5496:	movsd  xmm0,QWORD PTR [rbp-0x78]
    549b:	mulsd  xmm0,xmm1
    549f:	jmp    5f40 <__ieee754_lgamma_r+0xaf1>
    54a4:	mov    eax,DWORD PTR [rbp-0x5c]
    54a7:	or     eax,DWORD PTR [rbp-0x60]
    54aa:	test   eax,eax
    54ac:	jne    54c7 <__ieee754_lgamma_r+0x78>
    54ae:	movsd  xmm0,QWORD PTR [rip+0xce62]        # 12318 <w6+0x58>
    54b6:	movsd  xmm1,QWORD PTR [rip+0x11bb2]        # 17070 <zero>
    54be:	divsd  xmm0,xmm1
    54c2:	jmp    5f40 <__ieee754_lgamma_r+0xaf1>
    54c7:	cmp    DWORD PTR [rbp-0x5c],0x3b8fffff
    54ce:	jg     5526 <__ieee754_lgamma_r+0xd7>
    54d0:	cmp    DWORD PTR [rbp-0x64],0x0
    54d4:	jns    5507 <__ieee754_lgamma_r+0xb8>
    54d6:	mov    rax,QWORD PTR [rbp-0x80]
    54da:	mov    DWORD PTR [rax],0xffffffff
    54e0:	movsd  xmm0,QWORD PTR [rbp-0x78]
    54e5:	movq   xmm1,QWORD PTR [rip+0xce03]        # 122f0 <w6+0x30>
    54ed:	xorpd  xmm0,xmm1
    54f1:	call   5f42 <__ieee754_log>
    54f6:	movq   xmm1,QWORD PTR [rip+0xcdf2]        # 122f0 <w6+0x30>
    54fe:	xorpd  xmm0,xmm1
    5502:	jmp    5f40 <__ieee754_lgamma_r+0xaf1>
    5507:	mov    rax,QWORD PTR [rbp-0x78]
    550b:	movq   xmm0,rax
    5510:	call   5f42 <__ieee754_log>
    5515:	movq   xmm1,QWORD PTR [rip+0xcdd3]        # 122f0 <w6+0x30>
    551d:	xorpd  xmm0,xmm1
    5521:	jmp    5f40 <__ieee754_lgamma_r+0xaf1>
    5526:	cmp    DWORD PTR [rbp-0x64],0x0
    552a:	jns    55f7 <__ieee754_lgamma_r+0x1a8>
    5530:	cmp    DWORD PTR [rbp-0x5c],0x432fffff
    5537:	jle    5552 <__ieee754_lgamma_r+0x103>
    5539:	movsd  xmm0,QWORD PTR [rip+0xcdd7]        # 12318 <w6+0x58>
    5541:	movsd  xmm1,QWORD PTR [rip+0x11b27]        # 17070 <zero>
    5549:	divsd  xmm0,xmm1
    554d:	jmp    5f40 <__ieee754_lgamma_r+0xaf1>
    5552:	mov    rax,QWORD PTR [rbp-0x78]
    5556:	movq   xmm0,rax
    555b:	call   5160 <sin_pi>
    5560:	movq   rax,xmm0
    5565:	mov    QWORD PTR [rbp-0x38],rax
    5569:	movsd  xmm0,QWORD PTR [rip+0x11aff]        # 17070 <zero>
    5571:	ucomisd xmm0,QWORD PTR [rbp-0x38]
    5576:	jp     5598 <__ieee754_lgamma_r+0x149>
    5578:	ucomisd xmm0,QWORD PTR [rbp-0x38]
    557d:	jne    5598 <__ieee754_lgamma_r+0x149>
    557f:	movsd  xmm0,QWORD PTR [rip+0xcd91]        # 12318 <w6+0x58>
    5587:	movsd  xmm1,QWORD PTR [rip+0x11ae1]        # 17070 <zero>
    558f:	divsd  xmm0,xmm1
    5593:	jmp    5f40 <__ieee754_lgamma_r+0xaf1>
    5598:	movsd  xmm0,QWORD PTR [rip+0xcd40]        # 122e0 <w6+0x20>
    55a0:	movsd  xmm1,QWORD PTR [rbp-0x78]
    55a5:	mulsd  xmm1,QWORD PTR [rbp-0x38]
    55aa:	movq   xmm2,QWORD PTR [rip+0xcd7e]        # 12330 <w6+0x70>
    55b2:	andpd  xmm1,xmm2
    55b6:	divsd  xmm0,xmm1
    55ba:	call   5f42 <__ieee754_log>
    55bf:	movq   rax,xmm0
    55c4:	mov    QWORD PTR [rbp-0x48],rax
    55c8:	movsd  xmm0,QWORD PTR [rip+0x11aa0]        # 17070 <zero>
    55d0:	comisd xmm0,QWORD PTR [rbp-0x38]
    55d5:	jbe    55e1 <__ieee754_lgamma_r+0x192>
    55d7:	mov    rax,QWORD PTR [rbp-0x80]
    55db:	mov    DWORD PTR [rax],0xffffffff
    55e1:	movsd  xmm0,QWORD PTR [rbp-0x78]
    55e6:	movq   xmm1,QWORD PTR [rip+0xcd02]        # 122f0 <w6+0x30>
    55ee:	xorpd  xmm0,xmm1
    55f2:	movsd  QWORD PTR [rbp-0x78],xmm0
    55f7:	mov    eax,DWORD PTR [rbp-0x5c]
    55fa:	sub    eax,0x3ff00000
    55ff:	or     eax,DWORD PTR [rbp-0x60]
    5602:	test   eax,eax
    5604:	je     5615 <__ieee754_lgamma_r+0x1c6>
    5606:	mov    eax,DWORD PTR [rbp-0x5c]
    5609:	sub    eax,0x40000000
    560e:	or     eax,DWORD PTR [rbp-0x60]
    5611:	test   eax,eax
    5613:	jne    5623 <__ieee754_lgamma_r+0x1d4>
    5615:	pxor   xmm0,xmm0
    5619:	movsd  QWORD PTR [rbp-0x40],xmm0
    561e:	jmp    5f26 <__ieee754_lgamma_r+0xad7>
    5623:	cmp    DWORD PTR [rbp-0x5c],0x3fffffff
    562a:	jg     5b76 <__ieee754_lgamma_r+0x727>
    5630:	cmp    DWORD PTR [rbp-0x5c],0x3feccccc
    5637:	jg     56d1 <__ieee754_lgamma_r+0x282>
    563d:	mov    rax,QWORD PTR [rbp-0x78]
    5641:	movq   xmm0,rax
    5646:	call   5f42 <__ieee754_log>
    564b:	movq   xmm1,QWORD PTR [rip+0xcc9d]        # 122f0 <w6+0x30>
    5653:	xorpd  xmm0,xmm1
    5657:	movsd  QWORD PTR [rbp-0x40],xmm0
    565c:	cmp    DWORD PTR [rbp-0x5c],0x3fe76943
    5663:	jle    5687 <__ieee754_lgamma_r+0x238>
    5665:	movsd  xmm0,QWORD PTR [rip+0xccab]        # 12318 <w6+0x58>
    566d:	movsd  xmm1,QWORD PTR [rbp-0x78]
    5672:	subsd  xmm0,xmm1
    5676:	movsd  QWORD PTR [rbp-0x58],xmm0
    567b:	mov    DWORD PTR [rbp-0x68],0x0
    5682:	jmp    574b <__ieee754_lgamma_r+0x2fc>
    5687:	cmp    DWORD PTR [rbp-0x5c],0x3fcda660
    568e:	jle    56be <__ieee754_lgamma_r+0x26f>
    5690:	movsd  xmm0,QWORD PTR [rbp-0x78]
    5695:	movsd  xmm1,QWORD PTR [rip+0xcca3]        # 12340 <w6+0x80>
    569d:	movsd  xmm2,QWORD PTR [rip+0xcc73]        # 12318 <w6+0x58>
    56a5:	subsd  xmm1,xmm2
    56a9:	subsd  xmm0,xmm1
    56ad:	movsd  QWORD PTR [rbp-0x58],xmm0
    56b2:	mov    DWORD PTR [rbp-0x68],0x1
    56b9:	jmp    574b <__ieee754_lgamma_r+0x2fc>
    56be:	movsd  xmm0,QWORD PTR [rbp-0x78]
    56c3:	movsd  QWORD PTR [rbp-0x58],xmm0
    56c8:	mov    DWORD PTR [rbp-0x68],0x2
    56cf:	jmp    574b <__ieee754_lgamma_r+0x2fc>
    56d1:	movsd  xmm0,QWORD PTR [rip+0x11997]        # 17070 <zero>
    56d9:	movsd  QWORD PTR [rbp-0x40],xmm0
    56de:	cmp    DWORD PTR [rbp-0x5c],0x3ffbb4c2
    56e5:	jle    5706 <__ieee754_lgamma_r+0x2b7>
    56e7:	movsd  xmm1,QWORD PTR [rbp-0x78]
    56ec:	movsd  xmm0,QWORD PTR [rip+0xcc34]        # 12328 <w6+0x68>
    56f4:	subsd  xmm0,xmm1
    56f8:	movsd  QWORD PTR [rbp-0x58],xmm0
    56fd:	mov    DWORD PTR [rbp-0x68],0x0
    5704:	jmp    574b <__ieee754_lgamma_r+0x2fc>
    5706:	cmp    DWORD PTR [rbp-0x5c],0x3ff3b4c3
    570d:	jle    572e <__ieee754_lgamma_r+0x2df>
    570f:	movsd  xmm0,QWORD PTR [rbp-0x78]
    5714:	movsd  xmm1,QWORD PTR [rip+0xcc24]        # 12340 <w6+0x80>
    571c:	subsd  xmm0,xmm1
    5720:	movsd  QWORD PTR [rbp-0x58],xmm0
    5725:	mov    DWORD PTR [rbp-0x68],0x1
    572c:	jmp    574b <__ieee754_lgamma_r+0x2fc>
    572e:	movsd  xmm0,QWORD PTR [rbp-0x78]
    5733:	movsd  xmm1,QWORD PTR [rip+0xcbdd]        # 12318 <w6+0x58>
    573b:	subsd  xmm0,xmm1
    573f:	movsd  QWORD PTR [rbp-0x58],xmm0
    5744:	mov    DWORD PTR [rbp-0x68],0x2
    574b:	cmp    DWORD PTR [rbp-0x68],0x2
    574f:	je     5a4f <__ieee754_lgamma_r+0x600>
    5755:	cmp    DWORD PTR [rbp-0x68],0x2
    5759:	jg     5f26 <__ieee754_lgamma_r+0xad7>
    575f:	cmp    DWORD PTR [rbp-0x68],0x0
    5763:	je     5774 <__ieee754_lgamma_r+0x325>
    5765:	cmp    DWORD PTR [rbp-0x68],0x1
    5769:	je     58bc <__ieee754_lgamma_r+0x46d>
    576f:	jmp    5f26 <__ieee754_lgamma_r+0xad7>
    5774:	movsd  xmm0,QWORD PTR [rbp-0x58]
    5779:	mulsd  xmm0,xmm0
    577d:	movsd  QWORD PTR [rbp-0x50],xmm0
    5782:	movsd  xmm0,QWORD PTR [rip+0xcbbe]        # 12348 <w6+0x88>
    578a:	movapd xmm1,xmm0
    578e:	mulsd  xmm1,QWORD PTR [rbp-0x50]
    5793:	movsd  xmm0,QWORD PTR [rip+0xcbb5]        # 12350 <w6+0x90>
    579b:	addsd  xmm0,xmm1
    579f:	movapd xmm1,xmm0
    57a3:	mulsd  xmm1,QWORD PTR [rbp-0x50]
    57a8:	movsd  xmm0,QWORD PTR [rip+0xcba8]        # 12358 <w6+0x98>
    57b0:	addsd  xmm0,xmm1
    57b4:	movapd xmm1,xmm0
    57b8:	mulsd  xmm1,QWORD PTR [rbp-0x50]
    57bd:	movsd  xmm0,QWORD PTR [rip+0xcb9b]        # 12360 <w6+0xa0>
    57c5:	addsd  xmm0,xmm1
    57c9:	movapd xmm1,xmm0
    57cd:	mulsd  xmm1,QWORD PTR [rbp-0x50]
    57d2:	movsd  xmm0,QWORD PTR [rip+0xcb8e]        # 12368 <w6+0xa8>
    57da:	addsd  xmm0,xmm1
    57de:	movapd xmm1,xmm0
    57e2:	mulsd  xmm1,QWORD PTR [rbp-0x50]
    57e7:	movsd  xmm0,QWORD PTR [rip+0xcb81]        # 12370 <w6+0xb0>
    57ef:	addsd  xmm0,xmm1
    57f3:	movsd  QWORD PTR [rbp-0x18],xmm0
    57f8:	movsd  xmm0,QWORD PTR [rip+0xcb78]        # 12378 <w6+0xb8>
    5800:	movapd xmm1,xmm0
    5804:	mulsd  xmm1,QWORD PTR [rbp-0x50]
    5809:	movsd  xmm0,QWORD PTR [rip+0xcb6f]        # 12380 <w6+0xc0>
    5811:	addsd  xmm0,xmm1
    5815:	movapd xmm1,xmm0
    5819:	mulsd  xmm1,QWORD PTR [rbp-0x50]
    581e:	movsd  xmm0,QWORD PTR [rip+0xcb62]        # 12388 <w6+0xc8>
    5826:	addsd  xmm0,xmm1
    582a:	movapd xmm1,xmm0
    582e:	mulsd  xmm1,QWORD PTR [rbp-0x50]
    5833:	movsd  xmm0,QWORD PTR [rip+0xcb55]        # 12390 <w6+0xd0>
    583b:	addsd  xmm0,xmm1
    583f:	movapd xmm1,xmm0
    5843:	mulsd  xmm1,QWORD PTR [rbp-0x50]
    5848:	movsd  xmm0,QWORD PTR [rip+0xcb48]        # 12398 <w6+0xd8>
    5850:	addsd  xmm0,xmm1
    5854:	movapd xmm1,xmm0
    5858:	mulsd  xmm1,QWORD PTR [rbp-0x50]
    585d:	movsd  xmm0,QWORD PTR [rip+0xcb3b]        # 123a0 <w6+0xe0>
    5865:	addsd  xmm0,xmm1
    5869:	movsd  xmm1,QWORD PTR [rbp-0x50]
    586e:	mulsd  xmm0,xmm1
    5872:	movsd  QWORD PTR [rbp-0x10],xmm0
    5877:	movsd  xmm0,QWORD PTR [rbp-0x58]
    587c:	mulsd  xmm0,QWORD PTR [rbp-0x18]
    5881:	movsd  xmm1,QWORD PTR [rbp-0x10]
    5886:	addsd  xmm0,xmm1
    588a:	movsd  QWORD PTR [rbp-0x28],xmm0
    588f:	movsd  xmm1,QWORD PTR [rbp-0x58]
    5894:	movsd  xmm0,QWORD PTR [rip+0xca64]        # 12300 <w6+0x40>
    589c:	mulsd  xmm1,xmm0
    58a0:	movsd  xmm0,QWORD PTR [rbp-0x28]
    58a5:	subsd  xmm0,xmm1
    58a9:	movsd  xmm1,QWORD PTR [rbp-0x40]
    58ae:	addsd  xmm0,xmm1
    58b2:	movsd  QWORD PTR [rbp-0x40],xmm0
    58b7:	jmp    5f26 <__ieee754_lgamma_r+0xad7>
    58bc:	movsd  xmm0,QWORD PTR [rbp-0x58]
    58c1:	mulsd  xmm0,xmm0
    58c5:	movsd  QWORD PTR [rbp-0x50],xmm0
    58ca:	movsd  xmm0,QWORD PTR [rbp-0x50]
    58cf:	mulsd  xmm0,QWORD PTR [rbp-0x58]
    58d4:	movsd  QWORD PTR [rbp-0x30],xmm0
    58d9:	movsd  xmm0,QWORD PTR [rip+0xcac7]        # 123a8 <w6+0xe8>
    58e1:	movapd xmm1,xmm0
    58e5:	mulsd  xmm1,QWORD PTR [rbp-0x30]
    58ea:	movsd  xmm0,QWORD PTR [rip+0xcabe]        # 123b0 <w6+0xf0>
    58f2:	addsd  xmm0,xmm1
    58f6:	movapd xmm1,xmm0
    58fa:	mulsd  xmm1,QWORD PTR [rbp-0x30]
    58ff:	movsd  xmm0,QWORD PTR [rip+0xcab1]        # 123b8 <w6+0xf8>
    5907:	addsd  xmm0,xmm1
    590b:	movapd xmm1,xmm0
    590f:	mulsd  xmm1,QWORD PTR [rbp-0x30]
    5914:	movsd  xmm0,QWORD PTR [rip+0xcaa4]        # 123c0 <w6+0x100>
    591c:	addsd  xmm0,xmm1
    5920:	movapd xmm1,xmm0
    5924:	mulsd  xmm1,QWORD PTR [rbp-0x30]
    5929:	movsd  xmm0,QWORD PTR [rip+0xca97]        # 123c8 <w6+0x108>
    5931:	addsd  xmm0,xmm1
    5935:	movsd  QWORD PTR [rbp-0x18],xmm0
    593a:	movsd  xmm0,QWORD PTR [rip+0xca8e]        # 123d0 <w6+0x110>
    5942:	movapd xmm1,xmm0
    5946:	mulsd  xmm1,QWORD PTR [rbp-0x30]
    594b:	movsd  xmm0,QWORD PTR [rip+0xca85]        # 123d8 <w6+0x118>
    5953:	addsd  xmm0,xmm1
    5957:	movapd xmm1,xmm0
    595b:	mulsd  xmm1,QWORD PTR [rbp-0x30]
    5960:	movsd  xmm0,QWORD PTR [rip+0xca78]        # 123e0 <w6+0x120>
    5968:	addsd  xmm0,xmm1
    596c:	movapd xmm1,xmm0
    5970:	mulsd  xmm1,QWORD PTR [rbp-0x30]
    5975:	movsd  xmm0,QWORD PTR [rip+0xca6b]        # 123e8 <w6+0x128>
    597d:	addsd  xmm0,xmm1
    5981:	movapd xmm1,xmm0
    5985:	mulsd  xmm1,QWORD PTR [rbp-0x30]
    598a:	movsd  xmm0,QWORD PTR [rip+0xca5e]        # 123f0 <w6+0x130>
    5992:	addsd  xmm0,xmm1
    5996:	movsd  QWORD PTR [rbp-0x10],xmm0
    599b:	movsd  xmm0,QWORD PTR [rip+0xca55]        # 123f8 <w6+0x138>
    59a3:	movapd xmm1,xmm0
    59a7:	mulsd  xmm1,QWORD PTR [rbp-0x30]
    59ac:	movsd  xmm0,QWORD PTR [rip+0xca4c]        # 12400 <w6+0x140>
    59b4:	addsd  xmm0,xmm1
    59b8:	movapd xmm1,xmm0
    59bc:	mulsd  xmm1,QWORD PTR [rbp-0x30]
    59c1:	movsd  xmm0,QWORD PTR [rip+0xca3f]        # 12408 <w6+0x148>
    59c9:	addsd  xmm0,xmm1
    59cd:	movapd xmm1,xmm0
    59d1:	mulsd  xmm1,QWORD PTR [rbp-0x30]
    59d6:	movsd  xmm0,QWORD PTR [rip+0xca32]        # 12410 <w6+0x150>
    59de:	addsd  xmm0,xmm1
    59e2:	movapd xmm1,xmm0
    59e6:	mulsd  xmm1,QWORD PTR [rbp-0x30]
    59eb:	movsd  xmm0,QWORD PTR [rip+0xca25]        # 12418 <w6+0x158>
    59f3:	addsd  xmm0,xmm1
    59f7:	movsd  QWORD PTR [rbp-0x8],xmm0
    59fc:	movsd  xmm0,QWORD PTR [rbp-0x50]
    5a01:	mulsd  xmm0,QWORD PTR [rbp-0x18]
    5a06:	movsd  xmm1,QWORD PTR [rip+0xca12]        # 12420 <w6+0x160>
    5a0e:	movsd  xmm2,QWORD PTR [rbp-0x58]
    5a13:	mulsd  xmm2,QWORD PTR [rbp-0x8]
    5a18:	addsd  xmm2,QWORD PTR [rbp-0x10]
    5a1d:	mulsd  xmm2,QWORD PTR [rbp-0x30]
    5a22:	subsd  xmm1,xmm2
    5a26:	subsd  xmm0,xmm1
    5a2a:	movsd  QWORD PTR [rbp-0x28],xmm0
    5a2f:	movsd  xmm0,QWORD PTR [rip+0xc9f1]        # 12428 <w6+0x168>
    5a37:	addsd  xmm0,QWORD PTR [rbp-0x28]
    5a3c:	movsd  xmm1,QWORD PTR [rbp-0x40]
    5a41:	addsd  xmm0,xmm1
    5a45:	movsd  QWORD PTR [rbp-0x40],xmm0
    5a4a:	jmp    5f26 <__ieee754_lgamma_r+0xad7>
    5a4f:	movsd  xmm0,QWORD PTR [rip+0xc9d9]        # 12430 <w6+0x170>
    5a57:	movapd xmm1,xmm0
    5a5b:	mulsd  xmm1,QWORD PTR [rbp-0x58]
    5a60:	movsd  xmm0,QWORD PTR [rip+0xc9d0]        # 12438 <w6+0x178>
    5a68:	addsd  xmm0,xmm1
    5a6c:	movapd xmm1,xmm0
    5a70:	mulsd  xmm1,QWORD PTR [rbp-0x58]
    5a75:	movsd  xmm0,QWORD PTR [rip+0xc9c3]        # 12440 <w6+0x180>
    5a7d:	addsd  xmm0,xmm1
    5a81:	movapd xmm1,xmm0
    5a85:	mulsd  xmm1,QWORD PTR [rbp-0x58]
    5a8a:	movsd  xmm0,QWORD PTR [rip+0xc9b6]        # 12448 <w6+0x188>
    5a92:	addsd  xmm0,xmm1
    5a96:	movapd xmm1,xmm0
    5a9a:	mulsd  xmm1,QWORD PTR [rbp-0x58]
    5a9f:	movsd  xmm0,QWORD PTR [rip+0xc9a9]        # 12450 <w6+0x190>
    5aa7:	addsd  xmm0,xmm1
    5aab:	movapd xmm1,xmm0
    5aaf:	mulsd  xmm1,QWORD PTR [rbp-0x58]
    5ab4:	movsd  xmm0,QWORD PTR [rip+0xc99c]        # 12458 <w6+0x198>
    5abc:	addsd  xmm0,xmm1
    5ac0:	movsd  xmm1,QWORD PTR [rbp-0x58]
    5ac5:	mulsd  xmm0,xmm1
    5ac9:	movsd  QWORD PTR [rbp-0x18],xmm0
    5ace:	movsd  xmm0,QWORD PTR [rip+0xc98a]        # 12460 <w6+0x1a0>
    5ad6:	movapd xmm1,xmm0
    5ada:	mulsd  xmm1,QWORD PTR [rbp-0x58]
    5adf:	movsd  xmm0,QWORD PTR [rip+0xc981]        # 12468 <w6+0x1a8>
    5ae7:	addsd  xmm0,xmm1
    5aeb:	movapd xmm1,xmm0
    5aef:	mulsd  xmm1,QWORD PTR [rbp-0x58]
    5af4:	movsd  xmm0,QWORD PTR [rip+0xc974]        # 12470 <w6+0x1b0>
    5afc:	addsd  xmm0,xmm1
    5b00:	movapd xmm1,xmm0
    5b04:	mulsd  xmm1,QWORD PTR [rbp-0x58]
    5b09:	movsd  xmm0,QWORD PTR [rip+0xc967]        # 12478 <w6+0x1b8>
    5b11:	addsd  xmm0,xmm1
    5b15:	movapd xmm1,xmm0
    5b19:	mulsd  xmm1,QWORD PTR [rbp-0x58]
    5b1e:	movsd  xmm0,QWORD PTR [rip+0xc95a]        # 12480 <w6+0x1c0>
    5b26:	addsd  xmm0,xmm1
    5b2a:	movapd xmm1,xmm0
    5b2e:	mulsd  xmm1,QWORD PTR [rbp-0x58]
    5b33:	movsd  xmm0,QWORD PTR [rip+0xc7dd]        # 12318 <w6+0x58>
    5b3b:	addsd  xmm0,xmm1
    5b3f:	movsd  QWORD PTR [rbp-0x10],xmm0
    5b44:	movsd  xmm1,QWORD PTR [rbp-0x58]
    5b49:	movsd  xmm0,QWORD PTR [rip+0xc937]        # 12488 <w6+0x1c8>
    5b51:	mulsd  xmm1,xmm0
    5b55:	movsd  xmm0,QWORD PTR [rbp-0x18]
    5b5a:	divsd  xmm0,QWORD PTR [rbp-0x10]
    5b5f:	addsd  xmm0,xmm1
    5b63:	movsd  xmm1,QWORD PTR [rbp-0x40]
    5b68:	addsd  xmm0,xmm1
    5b6c:	movsd  QWORD PTR [rbp-0x40],xmm0
    5b71:	jmp    5f26 <__ieee754_lgamma_r+0xad7>
    5b76:	cmp    DWORD PTR [rbp-0x5c],0x401fffff
    5b7d:	jg     5ded <__ieee754_lgamma_r+0x99e>
    5b83:	movsd  xmm0,QWORD PTR [rbp-0x78]
    5b88:	cvttsd2si eax,xmm0
    5b8c:	mov    DWORD PTR [rbp-0x68],eax
    5b8f:	movsd  xmm0,QWORD PTR [rip+0x114d9]        # 17070 <zero>
    5b97:	movsd  QWORD PTR [rbp-0x38],xmm0
    5b9c:	movsd  xmm0,QWORD PTR [rbp-0x78]
    5ba1:	cvtsi2sd xmm1,DWORD PTR [rbp-0x68]
    5ba6:	subsd  xmm0,xmm1
    5baa:	movsd  QWORD PTR [rbp-0x58],xmm0
    5baf:	movsd  xmm0,QWORD PTR [rip+0xc8d9]        # 12490 <w6+0x1d0>
    5bb7:	movapd xmm1,xmm0
    5bbb:	mulsd  xmm1,QWORD PTR [rbp-0x58]
    5bc0:	movsd  xmm0,QWORD PTR [rip+0xc8d0]        # 12498 <w6+0x1d8>
    5bc8:	addsd  xmm0,xmm1
    5bcc:	movapd xmm1,xmm0
    5bd0:	mulsd  xmm1,QWORD PTR [rbp-0x58]
    5bd5:	movsd  xmm0,QWORD PTR [rip+0xc8c3]        # 124a0 <w6+0x1e0>
    5bdd:	addsd  xmm0,xmm1
    5be1:	movapd xmm1,xmm0
    5be5:	mulsd  xmm1,QWORD PTR [rbp-0x58]
    5bea:	movsd  xmm0,QWORD PTR [rip+0xc8b6]        # 124a8 <w6+0x1e8>
    5bf2:	addsd  xmm0,xmm1
    5bf6:	movapd xmm1,xmm0
    5bfa:	mulsd  xmm1,QWORD PTR [rbp-0x58]
    5bff:	movsd  xmm0,QWORD PTR [rip+0xc8a9]        # 124b0 <w6+0x1f0>
    5c07:	addsd  xmm0,xmm1
    5c0b:	movapd xmm1,xmm0
    5c0f:	mulsd  xmm1,QWORD PTR [rbp-0x58]
    5c14:	movsd  xmm0,QWORD PTR [rip+0xc89c]        # 124b8 <w6+0x1f8>
    5c1c:	addsd  xmm0,xmm1
    5c20:	movapd xmm1,xmm0
    5c24:	mulsd  xmm1,QWORD PTR [rbp-0x58]
    5c29:	movsd  xmm0,QWORD PTR [rip+0xc827]        # 12458 <w6+0x198>
    5c31:	addsd  xmm0,xmm1
    5c35:	movsd  xmm1,QWORD PTR [rbp-0x58]
    5c3a:	mulsd  xmm0,xmm1
    5c3e:	movsd  QWORD PTR [rbp-0x28],xmm0
    5c43:	movsd  xmm0,QWORD PTR [rip+0xc875]        # 124c0 <w6+0x200>
    5c4b:	movapd xmm1,xmm0
    5c4f:	mulsd  xmm1,QWORD PTR [rbp-0x58]
    5c54:	movsd  xmm0,QWORD PTR [rip+0xc86c]        # 124c8 <w6+0x208>
    5c5c:	addsd  xmm0,xmm1
    5c60:	movapd xmm1,xmm0
    5c64:	mulsd  xmm1,QWORD PTR [rbp-0x58]
    5c69:	movsd  xmm0,QWORD PTR [rip+0xc85f]        # 124d0 <w6+0x210>
    5c71:	addsd  xmm0,xmm1
    5c75:	movapd xmm1,xmm0
    5c79:	mulsd  xmm1,QWORD PTR [rbp-0x58]
    5c7e:	movsd  xmm0,QWORD PTR [rip+0xc852]        # 124d8 <w6+0x218>
    5c86:	addsd  xmm0,xmm1
    5c8a:	movapd xmm1,xmm0
    5c8e:	mulsd  xmm1,QWORD PTR [rbp-0x58]
    5c93:	movsd  xmm0,QWORD PTR [rip+0xc845]        # 124e0 <w6+0x220>
    5c9b:	addsd  xmm0,xmm1
    5c9f:	movapd xmm1,xmm0
    5ca3:	mulsd  xmm1,QWORD PTR [rbp-0x58]
    5ca8:	movsd  xmm0,QWORD PTR [rip+0xc838]        # 124e8 <w6+0x228>
    5cb0:	addsd  xmm0,xmm1
    5cb4:	movapd xmm1,xmm0
    5cb8:	mulsd  xmm1,QWORD PTR [rbp-0x58]
    5cbd:	movsd  xmm0,QWORD PTR [rip+0xc653]        # 12318 <w6+0x58>
    5cc5:	addsd  xmm0,xmm1
    5cc9:	movsd  QWORD PTR [rbp-0x20],xmm0
    5cce:	movsd  xmm0,QWORD PTR [rip+0xc62a]        # 12300 <w6+0x40>
    5cd6:	movapd xmm1,xmm0
    5cda:	mulsd  xmm1,QWORD PTR [rbp-0x58]
    5cdf:	movsd  xmm0,QWORD PTR [rbp-0x28]
    5ce4:	divsd  xmm0,QWORD PTR [rbp-0x20]
    5ce9:	addsd  xmm0,xmm1
    5ced:	movsd  QWORD PTR [rbp-0x40],xmm0
    5cf2:	movsd  xmm0,QWORD PTR [rip+0xc61e]        # 12318 <w6+0x58>
    5cfa:	movsd  QWORD PTR [rbp-0x50],xmm0
    5cff:	mov    eax,DWORD PTR [rbp-0x68]
    5d02:	sub    eax,0x3
    5d05:	cmp    eax,0x4
    5d08:	ja     5f26 <__ieee754_lgamma_r+0xad7>
    5d0e:	mov    eax,eax
    5d10:	lea    rdx,[rax*4+0x0]
    5d18:	lea    rax,[rip+0xc5a9]        # 122c8 <w6+0x8>
    5d1f:	mov    eax,DWORD PTR [rdx+rax*1]
    5d22:	cdqe   
    5d24:	lea    rdx,[rip+0xc59d]        # 122c8 <w6+0x8>
    5d2b:	add    rax,rdx
    5d2e:	notrack jmp rax
    5d31:	movsd  xmm1,QWORD PTR [rbp-0x58]
    5d36:	movsd  xmm0,QWORD PTR [rip+0xc7b2]        # 124f0 <w6+0x230>
    5d3e:	addsd  xmm0,xmm1
    5d42:	movsd  xmm1,QWORD PTR [rbp-0x50]
    5d47:	mulsd  xmm0,xmm1
    5d4b:	movsd  QWORD PTR [rbp-0x50],xmm0
    5d50:	movsd  xmm1,QWORD PTR [rbp-0x58]
    5d55:	movsd  xmm0,QWORD PTR [rip+0xc79b]        # 124f8 <w6+0x238>
    5d5d:	addsd  xmm0,xmm1
    5d61:	movsd  xmm1,QWORD PTR [rbp-0x50]
    5d66:	mulsd  xmm0,xmm1
    5d6a:	movsd  QWORD PTR [rbp-0x50],xmm0
    5d6f:	movsd  xmm1,QWORD PTR [rbp-0x58]
    5d74:	movsd  xmm0,QWORD PTR [rip+0xc58c]        # 12308 <w6+0x48>
    5d7c:	addsd  xmm0,xmm1
    5d80:	movsd  xmm1,QWORD PTR [rbp-0x50]
    5d85:	mulsd  xmm0,xmm1
    5d89:	movsd  QWORD PTR [rbp-0x50],xmm0
    5d8e:	movsd  xmm1,QWORD PTR [rbp-0x58]
    5d93:	movsd  xmm0,QWORD PTR [rip+0xc765]        # 12500 <w6+0x240>
    5d9b:	addsd  xmm0,xmm1
    5d9f:	movsd  xmm1,QWORD PTR [rbp-0x50]
    5da4:	mulsd  xmm0,xmm1
    5da8:	movsd  QWORD PTR [rbp-0x50],xmm0
    5dad:	movsd  xmm1,QWORD PTR [rbp-0x58]
    5db2:	movsd  xmm0,QWORD PTR [rip+0xc56e]        # 12328 <w6+0x68>
    5dba:	addsd  xmm0,xmm1
    5dbe:	movsd  xmm1,QWORD PTR [rbp-0x50]
    5dc3:	mulsd  xmm0,xmm1
    5dc7:	movsd  QWORD PTR [rbp-0x50],xmm0
    5dcc:	mov    rax,QWORD PTR [rbp-0x50]
    5dd0:	movq   xmm0,rax
    5dd5:	call   5f42 <__ieee754_log>
    5dda:	movsd  xmm1,QWORD PTR [rbp-0x40]
    5ddf:	addsd  xmm0,xmm1
    5de3:	movsd  QWORD PTR [rbp-0x40],xmm0
    5de8:	jmp    5f26 <__ieee754_lgamma_r+0xad7>
    5ded:	cmp    DWORD PTR [rbp-0x5c],0x438fffff
    5df4:	jg     5efa <__ieee754_lgamma_r+0xaab>
    5dfa:	mov    rax,QWORD PTR [rbp-0x78]
    5dfe:	movq   xmm0,rax
    5e03:	call   5f42 <__ieee754_log>
    5e08:	movq   rax,xmm0
    5e0d:	mov    QWORD PTR [rbp-0x38],rax
    5e11:	movsd  xmm0,QWORD PTR [rip+0xc4ff]        # 12318 <w6+0x58>
    5e19:	movsd  xmm1,QWORD PTR [rbp-0x78]
    5e1e:	divsd  xmm0,xmm1
    5e22:	movsd  QWORD PTR [rbp-0x50],xmm0
    5e27:	movsd  xmm0,QWORD PTR [rbp-0x50]
    5e2c:	mulsd  xmm0,xmm0
    5e30:	movsd  QWORD PTR [rbp-0x58],xmm0
    5e35:	movsd  xmm0,QWORD PTR [rip+0xc6cb]        # 12508 <w6+0x248>
    5e3d:	movapd xmm1,xmm0
    5e41:	mulsd  xmm1,QWORD PTR [rbp-0x58]
    5e46:	movsd  xmm0,QWORD PTR [rip+0xc6c2]        # 12510 <w6+0x250>
    5e4e:	addsd  xmm0,xmm1
    5e52:	movapd xmm1,xmm0
    5e56:	mulsd  xmm1,QWORD PTR [rbp-0x58]
    5e5b:	movsd  xmm0,QWORD PTR [rip+0xc6b5]        # 12518 <w6+0x258>
    5e63:	addsd  xmm0,xmm1
    5e67:	movapd xmm1,xmm0
    5e6b:	mulsd  xmm1,QWORD PTR [rbp-0x58]
    5e70:	movsd  xmm0,QWORD PTR [rip+0xc6a8]        # 12520 <w6+0x260>
    5e78:	addsd  xmm0,xmm1
    5e7c:	movapd xmm1,xmm0
    5e80:	mulsd  xmm1,QWORD PTR [rbp-0x58]
    5e85:	movsd  xmm0,QWORD PTR [rip+0xc69b]        # 12528 <w6+0x268>
    5e8d:	addsd  xmm0,xmm1
    5e91:	movapd xmm1,xmm0
    5e95:	mulsd  xmm1,QWORD PTR [rbp-0x58]
    5e9a:	movsd  xmm0,QWORD PTR [rip+0xc68e]        # 12530 <w6+0x270>
    5ea2:	addsd  xmm0,xmm1
    5ea6:	movapd xmm1,xmm0
    5eaa:	mulsd  xmm1,QWORD PTR [rbp-0x50]
    5eaf:	movsd  xmm0,QWORD PTR [rip+0xc681]        # 12538 <w6+0x278>
    5eb7:	addsd  xmm0,xmm1
    5ebb:	movsd  QWORD PTR [rbp-0x30],xmm0
    5ec0:	movsd  xmm0,QWORD PTR [rbp-0x78]
    5ec5:	movsd  xmm1,QWORD PTR [rip+0xc433]        # 12300 <w6+0x40>
    5ecd:	subsd  xmm0,xmm1
    5ed1:	movapd xmm1,xmm0
    5ed5:	movsd  xmm2,QWORD PTR [rip+0xc43b]        # 12318 <w6+0x58>
    5edd:	movsd  xmm0,QWORD PTR [rbp-0x38]
    5ee2:	subsd  xmm0,xmm2
    5ee6:	mulsd  xmm0,xmm1
    5eea:	movsd  xmm1,QWORD PTR [rbp-0x30]
    5eef:	addsd  xmm0,xmm1
    5ef3:	movsd  QWORD PTR [rbp-0x40],xmm0
    5ef8:	jmp    5f26 <__ieee754_lgamma_r+0xad7>
    5efa:	mov    rax,QWORD PTR [rbp-0x78]
    5efe:	movq   xmm0,rax
    5f03:	call   5f42 <__ieee754_log>
    5f08:	movsd  xmm1,QWORD PTR [rip+0xc408]        # 12318 <w6+0x58>
    5f10:	subsd  xmm0,xmm1
    5f14:	movapd xmm1,xmm0
    5f18:	movsd  xmm0,QWORD PTR [rbp-0x78]
    5f1d:	mulsd  xmm0,xmm1
    5f21:	movsd  QWORD PTR [rbp-0x40],xmm0
    5f26:	cmp    DWORD PTR [rbp-0x64],0x0
    5f2a:	jns    5f3b <__ieee754_lgamma_r+0xaec>
    5f2c:	movsd  xmm0,QWORD PTR [rbp-0x48]
    5f31:	subsd  xmm0,QWORD PTR [rbp-0x40]
    5f36:	movsd  QWORD PTR [rbp-0x40],xmm0
    5f3b:	movsd  xmm0,QWORD PTR [rbp-0x40]
    5f40:	leave  
    5f41:	ret    

0000000000005f42 <__ieee754_log>:
    5f42:	endbr64 
    5f46:	push   rbp
    5f47:	mov    rbp,rsp
    5f4a:	movsd  QWORD PTR [rbp-0x68],xmm0
    5f4f:	mov    eax,DWORD PTR [rbp-0x64]
    5f52:	mov    DWORD PTR [rbp-0x58],eax
    5f55:	lea    rax,[rbp-0x68]
    5f59:	mov    eax,DWORD PTR [rax]
    5f5b:	mov    DWORD PTR [rbp-0x54],eax
    5f5e:	mov    DWORD PTR [rbp-0x5c],0x0
    5f65:	cmp    DWORD PTR [rbp-0x58],0xfffff
    5f6c:	jg     5fe7 <__ieee754_log+0xa5>
    5f6e:	mov    eax,DWORD PTR [rbp-0x58]
    5f71:	and    eax,0x7fffffff
    5f76:	or     eax,DWORD PTR [rbp-0x54]
    5f79:	test   eax,eax
    5f7b:	jne    5fa2 <__ieee754_log+0x60>
    5f7d:	movsd  xmm0,QWORD PTR [rip+0xc60b]        # 12590 <Lg7+0x8>
    5f85:	movq   xmm1,QWORD PTR [rip+0xc613]        # 125a0 <Lg7+0x18>
    5f8d:	xorpd  xmm0,xmm1
    5f91:	movsd  xmm1,QWORD PTR [rip+0x110df]        # 17078 <zero>
    5f99:	divsd  xmm0,xmm1
    5f9d:	jmp    634f <__ieee754_log+0x40d>
    5fa2:	cmp    DWORD PTR [rbp-0x58],0x0
    5fa6:	jns    5fc7 <__ieee754_log+0x85>
    5fa8:	movsd  xmm0,QWORD PTR [rbp-0x68]
    5fad:	movsd  xmm1,QWORD PTR [rbp-0x68]
    5fb2:	subsd  xmm0,xmm1
    5fb6:	movsd  xmm1,QWORD PTR [rip+0x110ba]        # 17078 <zero>
    5fbe:	divsd  xmm0,xmm1
    5fc2:	jmp    634f <__ieee754_log+0x40d>
    5fc7:	sub    DWORD PTR [rbp-0x5c],0x36
    5fcb:	movsd  xmm1,QWORD PTR [rbp-0x68]
    5fd0:	movsd  xmm0,QWORD PTR [rip+0xc5b8]        # 12590 <Lg7+0x8>
    5fd8:	mulsd  xmm0,xmm1
    5fdc:	movsd  QWORD PTR [rbp-0x68],xmm0
    5fe1:	mov    eax,DWORD PTR [rbp-0x64]
    5fe4:	mov    DWORD PTR [rbp-0x58],eax
    5fe7:	cmp    DWORD PTR [rbp-0x58],0x7fefffff
    5fee:	jle    5ffe <__ieee754_log+0xbc>
    5ff0:	movsd  xmm0,QWORD PTR [rbp-0x68]
    5ff5:	addsd  xmm0,xmm0
    5ff9:	jmp    634f <__ieee754_log+0x40d>
    5ffe:	mov    eax,DWORD PTR [rbp-0x58]
    6001:	sar    eax,0x14
    6004:	sub    eax,0x3ff
    6009:	add    DWORD PTR [rbp-0x5c],eax
    600c:	and    DWORD PTR [rbp-0x58],0xfffff
    6013:	mov    eax,DWORD PTR [rbp-0x58]
    6016:	add    eax,0x95f64
    601b:	and    eax,0x100000
    6020:	mov    DWORD PTR [rbp-0x50],eax
    6023:	mov    eax,DWORD PTR [rbp-0x50]
    6026:	xor    eax,0x3ff00000
    602b:	mov    edx,eax
    602d:	lea    rax,[rbp-0x68]
    6031:	add    rax,0x4
    6035:	or     edx,DWORD PTR [rbp-0x58]
    6038:	mov    DWORD PTR [rax],edx
    603a:	mov    eax,DWORD PTR [rbp-0x50]
    603d:	sar    eax,0x14
    6040:	add    DWORD PTR [rbp-0x5c],eax
    6043:	movsd  xmm0,QWORD PTR [rbp-0x68]
    6048:	movsd  xmm1,QWORD PTR [rip+0xc560]        # 125b0 <Lg7+0x28>
    6050:	subsd  xmm0,xmm1
    6054:	movsd  QWORD PTR [rbp-0x48],xmm0
    6059:	mov    eax,DWORD PTR [rbp-0x58]
    605c:	add    eax,0x2
    605f:	and    eax,0xfffff
    6064:	cmp    eax,0x2
    6067:	jg     614e <__ieee754_log+0x20c>
    606d:	movsd  xmm0,QWORD PTR [rip+0x11003]        # 17078 <zero>
    6075:	ucomisd xmm0,QWORD PTR [rbp-0x48]
    607a:	jp     60c7 <__ieee754_log+0x185>
    607c:	ucomisd xmm0,QWORD PTR [rbp-0x48]
    6081:	jne    60c7 <__ieee754_log+0x185>
    6083:	cmp    DWORD PTR [rbp-0x5c],0x0
    6087:	jne    6096 <__ieee754_log+0x154>
    6089:	movsd  xmm0,QWORD PTR [rip+0x10fe7]        # 17078 <zero>
    6091:	jmp    634f <__ieee754_log+0x40d>
    6096:	cvtsi2sd xmm0,DWORD PTR [rbp-0x5c]
    609b:	movsd  QWORD PTR [rbp-0x38],xmm0
    60a0:	movsd  xmm0,QWORD PTR [rip+0xc510]        # 125b8 <Lg7+0x30>
    60a8:	movapd xmm1,xmm0
    60ac:	mulsd  xmm1,QWORD PTR [rbp-0x38]
    60b1:	movsd  xmm0,QWORD PTR [rip+0xc507]        # 125c0 <Lg7+0x38>
    60b9:	mulsd  xmm0,QWORD PTR [rbp-0x38]
    60be:	addsd  xmm0,xmm1
    60c2:	jmp    634f <__ieee754_log+0x40d>
    60c7:	movsd  xmm0,QWORD PTR [rbp-0x48]
    60cc:	movapd xmm1,xmm0
    60d0:	mulsd  xmm1,xmm0
    60d4:	movsd  xmm2,QWORD PTR [rbp-0x48]
    60d9:	movsd  xmm0,QWORD PTR [rip+0xc4e7]        # 125c8 <Lg7+0x40>
    60e1:	mulsd  xmm2,xmm0
    60e5:	movsd  xmm0,QWORD PTR [rip+0xc4e3]        # 125d0 <Lg7+0x48>
    60ed:	subsd  xmm0,xmm2
    60f1:	mulsd  xmm0,xmm1
    60f5:	movsd  QWORD PTR [rbp-0x10],xmm0
    60fa:	cmp    DWORD PTR [rbp-0x5c],0x0
    60fe:	jne    610f <__ieee754_log+0x1cd>
    6100:	movsd  xmm0,QWORD PTR [rbp-0x48]
    6105:	subsd  xmm0,QWORD PTR [rbp-0x10]
    610a:	jmp    634f <__ieee754_log+0x40d>
    610f:	cvtsi2sd xmm0,DWORD PTR [rbp-0x5c]
    6114:	movsd  QWORD PTR [rbp-0x38],xmm0
    6119:	movsd  xmm0,QWORD PTR [rip+0xc497]        # 125b8 <Lg7+0x30>
    6121:	mulsd  xmm0,QWORD PTR [rbp-0x38]
    6126:	movsd  xmm1,QWORD PTR [rip+0xc492]        # 125c0 <Lg7+0x38>
    612e:	movapd xmm2,xmm1
    6132:	mulsd  xmm2,QWORD PTR [rbp-0x38]
    6137:	movsd  xmm1,QWORD PTR [rbp-0x10]
    613c:	subsd  xmm1,xmm2
    6140:	subsd  xmm1,QWORD PTR [rbp-0x48]
    6145:	subsd  xmm0,xmm1
    6149:	jmp    634f <__ieee754_log+0x40d>
    614e:	movsd  xmm1,QWORD PTR [rbp-0x48]
    6153:	movsd  xmm0,QWORD PTR [rip+0xc47d]        # 125d8 <Lg7+0x50>
    615b:	addsd  xmm1,xmm0
    615f:	movsd  xmm0,QWORD PTR [rbp-0x48]
    6164:	divsd  xmm0,xmm1
    6168:	movsd  QWORD PTR [rbp-0x40],xmm0
    616d:	cvtsi2sd xmm0,DWORD PTR [rbp-0x5c]
    6172:	movsd  QWORD PTR [rbp-0x38],xmm0
    6177:	movsd  xmm0,QWORD PTR [rbp-0x40]
    617c:	mulsd  xmm0,xmm0
    6180:	movsd  QWORD PTR [rbp-0x30],xmm0
    6185:	mov    eax,DWORD PTR [rbp-0x58]
    6188:	sub    eax,0x6147a
    618d:	mov    DWORD PTR [rbp-0x50],eax
    6190:	movsd  xmm0,QWORD PTR [rbp-0x30]
    6195:	mulsd  xmm0,xmm0
    6199:	movsd  QWORD PTR [rbp-0x28],xmm0
    619e:	mov    eax,0x6b851
    61a3:	sub    eax,DWORD PTR [rbp-0x58]
    61a6:	mov    DWORD PTR [rbp-0x4c],eax
    61a9:	movsd  xmm0,QWORD PTR [rip+0xc42f]        # 125e0 <Lg7+0x58>
    61b1:	movapd xmm1,xmm0
    61b5:	mulsd  xmm1,QWORD PTR [rbp-0x28]
    61ba:	movsd  xmm0,QWORD PTR [rip+0xc426]        # 125e8 <Lg7+0x60>
    61c2:	addsd  xmm0,xmm1
    61c6:	movapd xmm1,xmm0
    61ca:	mulsd  xmm1,QWORD PTR [rbp-0x28]
    61cf:	movsd  xmm0,QWORD PTR [rip+0xc419]        # 125f0 <Lg7+0x68>
    61d7:	addsd  xmm0,xmm1
    61db:	movsd  xmm1,QWORD PTR [rbp-0x28]
    61e0:	mulsd  xmm0,xmm1
    61e4:	movsd  QWORD PTR [rbp-0x20],xmm0
    61e9:	movsd  xmm0,QWORD PTR [rip+0xc407]        # 125f8 <Lg7+0x70>
    61f1:	movapd xmm1,xmm0
    61f5:	mulsd  xmm1,QWORD PTR [rbp-0x28]
    61fa:	movsd  xmm0,QWORD PTR [rip+0xc3fe]        # 12600 <Lg7+0x78>
    6202:	addsd  xmm0,xmm1
    6206:	movapd xmm1,xmm0
    620a:	mulsd  xmm1,QWORD PTR [rbp-0x28]
    620f:	movsd  xmm0,QWORD PTR [rip+0xc3f1]        # 12608 <Lg7+0x80>
    6217:	addsd  xmm0,xmm1
    621b:	movapd xmm1,xmm0
    621f:	mulsd  xmm1,QWORD PTR [rbp-0x28]
    6224:	movsd  xmm0,QWORD PTR [rip+0xc3e4]        # 12610 <Lg7+0x88>
    622c:	addsd  xmm0,xmm1
    6230:	movsd  xmm1,QWORD PTR [rbp-0x30]
    6235:	mulsd  xmm0,xmm1
    6239:	movsd  QWORD PTR [rbp-0x18],xmm0
    623e:	mov    eax,DWORD PTR [rbp-0x4c]
    6241:	or     DWORD PTR [rbp-0x50],eax
    6244:	movsd  xmm0,QWORD PTR [rbp-0x18]
    6249:	addsd  xmm0,QWORD PTR [rbp-0x20]
    624e:	movsd  QWORD PTR [rbp-0x10],xmm0
    6253:	cmp    DWORD PTR [rbp-0x50],0x0
    6257:	jle    62f5 <__ieee754_log+0x3b3>
    625d:	movsd  xmm1,QWORD PTR [rbp-0x48]
    6262:	movsd  xmm0,QWORD PTR [rip+0xc366]        # 125d0 <Lg7+0x48>
    626a:	mulsd  xmm0,xmm1
    626e:	movsd  xmm1,QWORD PTR [rbp-0x48]
    6273:	mulsd  xmm0,xmm1
    6277:	movsd  QWORD PTR [rbp-0x8],xmm0
    627c:	cmp    DWORD PTR [rbp-0x5c],0x0
    6280:	jne    62b0 <__ieee754_log+0x36e>
    6282:	movsd  xmm0,QWORD PTR [rbp-0x8]
    6287:	addsd  xmm0,QWORD PTR [rbp-0x10]
    628c:	movapd xmm1,xmm0
    6290:	mulsd  xmm1,QWORD PTR [rbp-0x40]
    6295:	movsd  xmm0,QWORD PTR [rbp-0x8]
    629a:	subsd  xmm0,xmm1
    629e:	movapd xmm1,xmm0
    62a2:	movsd  xmm0,QWORD PTR [rbp-0x48]
    62a7:	subsd  xmm0,xmm1
    62ab:	jmp    634f <__ieee754_log+0x40d>
    62b0:	movsd  xmm0,QWORD PTR [rip+0xc300]        # 125b8 <Lg7+0x30>
    62b8:	mulsd  xmm0,QWORD PTR [rbp-0x38]
    62bd:	movsd  xmm1,QWORD PTR [rbp-0x8]
    62c2:	addsd  xmm1,QWORD PTR [rbp-0x10]
    62c7:	movapd xmm2,xmm1
    62cb:	mulsd  xmm2,QWORD PTR [rbp-0x40]
    62d0:	movsd  xmm1,QWORD PTR [rip+0xc2e8]        # 125c0 <Lg7+0x38>
    62d8:	mulsd  xmm1,QWORD PTR [rbp-0x38]
    62dd:	addsd  xmm2,xmm1
    62e1:	movsd  xmm1,QWORD PTR [rbp-0x8]
    62e6:	subsd  xmm1,xmm2
    62ea:	subsd  xmm1,QWORD PTR [rbp-0x48]
    62ef:	subsd  xmm0,xmm1
    62f3:	jmp    634f <__ieee754_log+0x40d>
    62f5:	cmp    DWORD PTR [rbp-0x5c],0x0
    62f9:	jne    6319 <__ieee754_log+0x3d7>
    62fb:	movsd  xmm0,QWORD PTR [rbp-0x48]
    6300:	subsd  xmm0,QWORD PTR [rbp-0x10]
    6305:	movapd xmm1,xmm0
    6309:	mulsd  xmm1,QWORD PTR [rbp-0x40]
    630e:	movsd  xmm0,QWORD PTR [rbp-0x48]
    6313:	subsd  xmm0,xmm1
    6317:	jmp    634f <__ieee754_log+0x40d>
    6319:	movsd  xmm0,QWORD PTR [rip+0xc297]        # 125b8 <Lg7+0x30>
    6321:	mulsd  xmm0,QWORD PTR [rbp-0x38]
    6326:	movsd  xmm1,QWORD PTR [rbp-0x48]
    632b:	subsd  xmm1,QWORD PTR [rbp-0x10]
    6330:	mulsd  xmm1,QWORD PTR [rbp-0x40]
    6335:	movsd  xmm2,QWORD PTR [rip+0xc283]        # 125c0 <Lg7+0x38>
    633d:	mulsd  xmm2,QWORD PTR [rbp-0x38]
    6342:	subsd  xmm1,xmm2
    6346:	subsd  xmm1,QWORD PTR [rbp-0x48]
    634b:	subsd  xmm0,xmm1
    634f:	pop    rbp
    6350:	ret    

0000000000006351 <__ieee754_log10>:
    6351:	endbr64 
    6355:	push   rbp
    6356:	mov    rbp,rsp
    6359:	sub    rsp,0x30
    635d:	movsd  QWORD PTR [rbp-0x28],xmm0
    6362:	mov    eax,DWORD PTR [rbp-0x24]
    6365:	mov    DWORD PTR [rbp-0x1c],eax
    6368:	lea    rax,[rbp-0x28]
    636c:	mov    eax,DWORD PTR [rax]
    636e:	mov    DWORD PTR [rbp-0x18],eax
    6371:	mov    DWORD PTR [rbp-0x20],0x0
    6378:	cmp    DWORD PTR [rbp-0x1c],0xfffff
    637f:	jg     63fa <__ieee754_log10+0xa9>
    6381:	mov    eax,DWORD PTR [rbp-0x1c]
    6384:	and    eax,0x7fffffff
    6389:	or     eax,DWORD PTR [rbp-0x18]
    638c:	test   eax,eax
    638e:	jne    63b5 <__ieee754_log10+0x64>
    6390:	movsd  xmm0,QWORD PTR [rip+0xc2a8]        # 12640 <log10_2lo+0x8>
    6398:	movq   xmm1,QWORD PTR [rip+0xc2b0]        # 12650 <log10_2lo+0x18>
    63a0:	xorpd  xmm0,xmm1
    63a4:	movsd  xmm1,QWORD PTR [rip+0x10cd4]        # 17080 <zero>
    63ac:	divsd  xmm0,xmm1
    63b0:	jmp    64a8 <__ieee754_log10+0x157>
    63b5:	cmp    DWORD PTR [rbp-0x1c],0x0
    63b9:	jns    63da <__ieee754_log10+0x89>
    63bb:	movsd  xmm0,QWORD PTR [rbp-0x28]
    63c0:	movsd  xmm1,QWORD PTR [rbp-0x28]
    63c5:	subsd  xmm0,xmm1
    63c9:	movsd  xmm1,QWORD PTR [rip+0x10caf]        # 17080 <zero>
    63d1:	divsd  xmm0,xmm1
    63d5:	jmp    64a8 <__ieee754_log10+0x157>
    63da:	sub    DWORD PTR [rbp-0x20],0x36
    63de:	movsd  xmm1,QWORD PTR [rbp-0x28]
    63e3:	movsd  xmm0,QWORD PTR [rip+0xc255]        # 12640 <log10_2lo+0x8>
    63eb:	mulsd  xmm0,xmm1
    63ef:	movsd  QWORD PTR [rbp-0x28],xmm0
    63f4:	mov    eax,DWORD PTR [rbp-0x24]
    63f7:	mov    DWORD PTR [rbp-0x1c],eax
    63fa:	cmp    DWORD PTR [rbp-0x1c],0x7fefffff
    6401:	jle    6411 <__ieee754_log10+0xc0>
    6403:	movsd  xmm0,QWORD PTR [rbp-0x28]
    6408:	addsd  xmm0,xmm0
    640c:	jmp    64a8 <__ieee754_log10+0x157>
    6411:	mov    eax,DWORD PTR [rbp-0x1c]
    6414:	sar    eax,0x14
    6417:	sub    eax,0x3ff
    641c:	add    DWORD PTR [rbp-0x20],eax
    641f:	mov    eax,DWORD PTR [rbp-0x20]
    6422:	shr    eax,0x1f
    6425:	mov    DWORD PTR [rbp-0x14],eax
    6428:	mov    eax,DWORD PTR [rbp-0x1c]
    642b:	and    eax,0xfffff
    6430:	mov    edx,eax
    6432:	mov    eax,0x3ff
    6437:	sub    eax,DWORD PTR [rbp-0x14]
    643a:	shl    eax,0x14
    643d:	or     eax,edx
    643f:	mov    DWORD PTR [rbp-0x1c],eax
    6442:	mov    edx,DWORD PTR [rbp-0x20]
    6445:	mov    eax,DWORD PTR [rbp-0x14]
    6448:	add    eax,edx
    644a:	cvtsi2sd xmm0,eax
    644e:	movsd  QWORD PTR [rbp-0x10],xmm0
    6453:	lea    rax,[rbp-0x28]
    6457:	add    rax,0x4
    645b:	mov    edx,DWORD PTR [rbp-0x1c]
    645e:	mov    DWORD PTR [rax],edx
    6460:	movsd  xmm0,QWORD PTR [rip+0xc1f8]        # 12660 <log10_2lo+0x28>
    6468:	mulsd  xmm0,QWORD PTR [rbp-0x10]
    646d:	movsd  QWORD PTR [rbp-0x30],xmm0
    6472:	mov    rax,QWORD PTR [rbp-0x28]
    6476:	movq   xmm0,rax
    647b:	call   5f42 <__ieee754_log>
    6480:	movsd  xmm1,QWORD PTR [rip+0xc1e0]        # 12668 <log10_2lo+0x30>
    6488:	mulsd  xmm0,xmm1
    648c:	addsd  xmm0,QWORD PTR [rbp-0x30]
    6491:	movsd  QWORD PTR [rbp-0x8],xmm0
    6496:	movsd  xmm0,QWORD PTR [rip+0xc1d2]        # 12670 <log10_2lo+0x38>
    649e:	mulsd  xmm0,QWORD PTR [rbp-0x10]
    64a3:	addsd  xmm0,QWORD PTR [rbp-0x8]
    64a8:	leave  
    64a9:	ret    

00000000000064aa <__ieee754_pow>:
    64aa:	endbr64 
    64ae:	push   rbp
    64af:	mov    rbp,rsp
    64b2:	sub    rsp,0xf0
    64b9:	movsd  QWORD PTR [rbp-0xe8],xmm0
    64c1:	movsd  QWORD PTR [rbp-0xf0],xmm1
    64c9:	mov    rax,QWORD PTR fs:0x28
    64d2:	mov    QWORD PTR [rbp-0x8],rax
    64d6:	xor    eax,eax
    64d8:	lea    rax,[rip+0xc1d9]        # 126b8 <one>
    64df:	mov    eax,DWORD PTR [rax]
    64e1:	sar    eax,0x1d
    64e4:	xor    eax,0x1
    64e7:	mov    DWORD PTR [rbp-0xc4],eax
    64ed:	mov    eax,0x1
    64f2:	sub    eax,DWORD PTR [rbp-0xc4]
    64f8:	mov    DWORD PTR [rbp-0xc0],eax
    64fe:	mov    eax,DWORD PTR [rbp-0xe4]
    6504:	mov    DWORD PTR [rbp-0xbc],eax
    650a:	lea    rax,[rbp-0xe8]
    6511:	mov    eax,DWORD PTR [rax]
    6513:	mov    DWORD PTR [rbp-0xb8],eax
    6519:	mov    eax,DWORD PTR [rbp-0xec]
    651f:	mov    DWORD PTR [rbp-0xb4],eax
    6525:	lea    rax,[rbp-0xf0]
    652c:	mov    eax,DWORD PTR [rax]
    652e:	mov    DWORD PTR [rbp-0xb0],eax
    6534:	mov    eax,DWORD PTR [rbp-0xbc]
    653a:	and    eax,0x7fffffff
    653f:	mov    DWORD PTR [rbp-0xc8],eax
    6545:	mov    eax,DWORD PTR [rbp-0xb4]
    654b:	and    eax,0x7fffffff
    6550:	mov    DWORD PTR [rbp-0xac],eax
    6556:	mov    eax,DWORD PTR [rbp-0xac]
    655c:	or     eax,DWORD PTR [rbp-0xb0]
    6562:	test   eax,eax
    6564:	jne    6573 <__ieee754_pow+0xc9>
    6566:	movsd  xmm0,QWORD PTR [rip+0xc21a]        # 12788 <ivln2_l+0x8>
    656e:	jmp    752f <__ieee754_pow+0x1085>
    6573:	cmp    DWORD PTR [rbp-0xc8],0x7ff00000
    657d:	jg     65b5 <__ieee754_pow+0x10b>
    657f:	cmp    DWORD PTR [rbp-0xc8],0x7ff00000
    6589:	jne    6594 <__ieee754_pow+0xea>
    658b:	cmp    DWORD PTR [rbp-0xb8],0x0
    6592:	jne    65b5 <__ieee754_pow+0x10b>
    6594:	cmp    DWORD PTR [rbp-0xac],0x7ff00000
    659e:	jg     65b5 <__ieee754_pow+0x10b>
    65a0:	cmp    DWORD PTR [rbp-0xac],0x7ff00000
    65aa:	jne    65ce <__ieee754_pow+0x124>
    65ac:	cmp    DWORD PTR [rbp-0xb0],0x0
    65b3:	je     65ce <__ieee754_pow+0x124>
    65b5:	movsd  xmm1,QWORD PTR [rbp-0xe8]
    65bd:	movsd  xmm0,QWORD PTR [rbp-0xf0]
    65c5:	addsd  xmm0,xmm1
    65c9:	jmp    752f <__ieee754_pow+0x1085>
    65ce:	mov    DWORD PTR [rbp-0xd0],0x0
    65d8:	cmp    DWORD PTR [rbp-0xbc],0x0
    65df:	jns    66e0 <__ieee754_pow+0x236>
    65e5:	cmp    DWORD PTR [rbp-0xac],0x433fffff
    65ef:	jle    6600 <__ieee754_pow+0x156>
    65f1:	mov    DWORD PTR [rbp-0xd0],0x2
    65fb:	jmp    66e0 <__ieee754_pow+0x236>
    6600:	cmp    DWORD PTR [rbp-0xac],0x3fefffff
    660a:	jle    66e0 <__ieee754_pow+0x236>
    6610:	mov    eax,DWORD PTR [rbp-0xac]
    6616:	sar    eax,0x14
    6619:	sub    eax,0x3ff
    661e:	mov    DWORD PTR [rbp-0xd4],eax
    6624:	cmp    DWORD PTR [rbp-0xd4],0x14
    662b:	jle    6683 <__ieee754_pow+0x1d9>
    662d:	mov    eax,0x34
    6632:	sub    eax,DWORD PTR [rbp-0xd4]
    6638:	mov    edx,DWORD PTR [rbp-0xb0]
    663e:	mov    ecx,eax
    6640:	shr    edx,cl
    6642:	mov    eax,edx
    6644:	mov    DWORD PTR [rbp-0xa8],eax
    664a:	mov    eax,0x34
    664f:	sub    eax,DWORD PTR [rbp-0xd4]
    6655:	mov    edx,DWORD PTR [rbp-0xa8]
    665b:	mov    ecx,eax
    665d:	shl    edx,cl
    665f:	mov    eax,edx
    6661:	cmp    DWORD PTR [rbp-0xb0],eax
    6667:	jne    66e0 <__ieee754_pow+0x236>
    6669:	mov    eax,DWORD PTR [rbp-0xa8]
    666f:	and    eax,0x1
    6672:	mov    edx,0x2
    6677:	sub    edx,eax
    6679:	mov    eax,edx
    667b:	mov    DWORD PTR [rbp-0xd0],eax
    6681:	jmp    66e0 <__ieee754_pow+0x236>
    6683:	cmp    DWORD PTR [rbp-0xb0],0x0
    668a:	jne    66e0 <__ieee754_pow+0x236>
    668c:	mov    eax,0x14
    6691:	sub    eax,DWORD PTR [rbp-0xd4]
    6697:	mov    edx,DWORD PTR [rbp-0xac]
    669d:	mov    ecx,eax
    669f:	sar    edx,cl
    66a1:	mov    eax,edx
    66a3:	mov    DWORD PTR [rbp-0xa8],eax
    66a9:	mov    eax,0x14
    66ae:	sub    eax,DWORD PTR [rbp-0xd4]
    66b4:	mov    edx,DWORD PTR [rbp-0xa8]
    66ba:	mov    ecx,eax
    66bc:	shl    edx,cl
    66be:	mov    eax,edx
    66c0:	cmp    DWORD PTR [rbp-0xac],eax
    66c6:	jne    66e0 <__ieee754_pow+0x236>
    66c8:	mov    eax,DWORD PTR [rbp-0xa8]
    66ce:	and    eax,0x1
    66d1:	mov    edx,0x2
    66d6:	sub    edx,eax
    66d8:	mov    eax,edx
    66da:	mov    DWORD PTR [rbp-0xd0],eax
    66e0:	cmp    DWORD PTR [rbp-0xb0],0x0
    66e7:	jne    680c <__ieee754_pow+0x362>
    66ed:	cmp    DWORD PTR [rbp-0xac],0x7ff00000
    66f7:	jne    6781 <__ieee754_pow+0x2d7>
    66fd:	mov    eax,DWORD PTR [rbp-0xc8]
    6703:	sub    eax,0x3ff00000
    6708:	or     eax,DWORD PTR [rbp-0xb8]
    670e:	test   eax,eax
    6710:	jne    672b <__ieee754_pow+0x281>
    6712:	movsd  xmm0,QWORD PTR [rbp-0xf0]
    671a:	movsd  xmm1,QWORD PTR [rbp-0xf0]
    6722:	subsd  xmm0,xmm1
    6726:	jmp    752f <__ieee754_pow+0x1085>
    672b:	cmp    DWORD PTR [rbp-0xc8],0x3fefffff
    6735:	jle    6756 <__ieee754_pow+0x2ac>
    6737:	cmp    DWORD PTR [rbp-0xb4],0x0
    673e:	js     674d <__ieee754_pow+0x2a3>
    6740:	movsd  xmm0,QWORD PTR [rbp-0xf0]
    6748:	jmp    752f <__ieee754_pow+0x1085>
    674d:	pxor   xmm0,xmm0
    6751:	jmp    752f <__ieee754_pow+0x1085>
    6756:	cmp    DWORD PTR [rbp-0xb4],0x0
    675d:	jns    6778 <__ieee754_pow+0x2ce>
    675f:	movsd  xmm0,QWORD PTR [rbp-0xf0]
    6767:	movq   xmm1,QWORD PTR [rip+0xc021]        # 12790 <ivln2_l+0x10>
    676f:	xorpd  xmm0,xmm1
    6773:	jmp    752f <__ieee754_pow+0x1085>
    6778:	pxor   xmm0,xmm0
    677c:	jmp    752f <__ieee754_pow+0x1085>
    6781:	cmp    DWORD PTR [rbp-0xac],0x3ff00000
    678b:	jne    67bc <__ieee754_pow+0x312>
    678d:	cmp    DWORD PTR [rbp-0xb4],0x0
    6794:	jns    67af <__ieee754_pow+0x305>
    6796:	movsd  xmm0,QWORD PTR [rip+0xbfea]        # 12788 <ivln2_l+0x8>
    679e:	movsd  xmm1,QWORD PTR [rbp-0xe8]
    67a6:	divsd  xmm0,xmm1
    67aa:	jmp    752f <__ieee754_pow+0x1085>
    67af:	movsd  xmm0,QWORD PTR [rbp-0xe8]
    67b7:	jmp    752f <__ieee754_pow+0x1085>
    67bc:	cmp    DWORD PTR [rbp-0xb4],0x40000000
    67c6:	jne    67e1 <__ieee754_pow+0x337>
    67c8:	movsd  xmm1,QWORD PTR [rbp-0xe8]
    67d0:	movsd  xmm0,QWORD PTR [rbp-0xe8]
    67d8:	mulsd  xmm0,xmm1
    67dc:	jmp    752f <__ieee754_pow+0x1085>
    67e1:	cmp    DWORD PTR [rbp-0xb4],0x3fe00000
    67eb:	jne    680c <__ieee754_pow+0x362>
    67ed:	cmp    DWORD PTR [rbp-0xbc],0x0
    67f4:	js     680c <__ieee754_pow+0x362>
    67f6:	mov    rax,QWORD PTR [rbp-0xe8]
    67fd:	movq   xmm0,rax
    6802:	call   10038 <sqrt>
    6807:	jmp    752f <__ieee754_pow+0x1085>
    680c:	movsd  xmm0,QWORD PTR [rbp-0xe8]
    6814:	movq   xmm1,QWORD PTR [rip+0xbf84]        # 127a0 <ivln2_l+0x20>
    681c:	andpd  xmm0,xmm1
    6820:	movsd  QWORD PTR [rbp-0xa0],xmm0
    6828:	cmp    DWORD PTR [rbp-0xb8],0x0
    682f:	jne    68f4 <__ieee754_pow+0x44a>
    6835:	cmp    DWORD PTR [rbp-0xc8],0x7ff00000
    683f:	je     685a <__ieee754_pow+0x3b0>
    6841:	cmp    DWORD PTR [rbp-0xc8],0x0
    6848:	je     685a <__ieee754_pow+0x3b0>
    684a:	cmp    DWORD PTR [rbp-0xc8],0x3ff00000
    6854:	jne    68f4 <__ieee754_pow+0x44a>
    685a:	movsd  xmm0,QWORD PTR [rbp-0xa0]
    6862:	movsd  QWORD PTR [rbp-0x80],xmm0
    6867:	cmp    DWORD PTR [rbp-0xb4],0x0
    686e:	jns    6886 <__ieee754_pow+0x3dc>
    6870:	movsd  xmm0,QWORD PTR [rip+0xbf10]        # 12788 <ivln2_l+0x8>
    6878:	movsd  xmm1,QWORD PTR [rbp-0x80]
    687d:	divsd  xmm0,xmm1
    6881:	movsd  QWORD PTR [rbp-0x80],xmm0
    6886:	cmp    DWORD PTR [rbp-0xbc],0x0
    688d:	jns    68ea <__ieee754_pow+0x440>
    688f:	mov    eax,DWORD PTR [rbp-0xc8]
    6895:	sub    eax,0x3ff00000
    689a:	or     eax,DWORD PTR [rbp-0xd0]
    68a0:	test   eax,eax
    68a2:	jne    68cb <__ieee754_pow+0x421>
    68a4:	movsd  xmm0,QWORD PTR [rbp-0x80]
    68a9:	movsd  xmm1,QWORD PTR [rbp-0x80]
    68ae:	subsd  xmm0,xmm1
    68b2:	movsd  xmm1,QWORD PTR [rbp-0x80]
    68b7:	movsd  xmm2,QWORD PTR [rbp-0x80]
    68bc:	subsd  xmm1,xmm2
    68c0:	divsd  xmm0,xmm1
    68c4:	movsd  QWORD PTR [rbp-0x80],xmm0
    68c9:	jmp    68ea <__ieee754_pow+0x440>
    68cb:	cmp    DWORD PTR [rbp-0xd0],0x1
    68d2:	jne    68ea <__ieee754_pow+0x440>
    68d4:	movsd  xmm0,QWORD PTR [rbp-0x80]
    68d9:	movq   xmm1,QWORD PTR [rip+0xbeaf]        # 12790 <ivln2_l+0x10>
    68e1:	xorpd  xmm0,xmm1
    68e5:	movsd  QWORD PTR [rbp-0x80],xmm0
    68ea:	movsd  xmm0,QWORD PTR [rbp-0x80]
    68ef:	jmp    752f <__ieee754_pow+0x1085>
    68f4:	mov    eax,DWORD PTR [rbp-0xbc]
    68fa:	sar    eax,0x1f
    68fd:	add    eax,0x1
    6900:	mov    DWORD PTR [rbp-0xcc],eax
    6906:	mov    eax,DWORD PTR [rbp-0xcc]
    690c:	or     eax,DWORD PTR [rbp-0xd0]
    6912:	test   eax,eax
    6914:	jne    6947 <__ieee754_pow+0x49d>
    6916:	movsd  xmm0,QWORD PTR [rbp-0xe8]
    691e:	movsd  xmm1,QWORD PTR [rbp-0xe8]
    6926:	subsd  xmm0,xmm1
    692a:	movsd  xmm1,QWORD PTR [rbp-0xe8]
    6932:	movsd  xmm2,QWORD PTR [rbp-0xe8]
    693a:	subsd  xmm1,xmm2
    693e:	divsd  xmm0,xmm1
    6942:	jmp    752f <__ieee754_pow+0x1085>
    6947:	movsd  xmm0,QWORD PTR [rip+0xbe39]        # 12788 <ivln2_l+0x8>
    694f:	movsd  QWORD PTR [rbp-0x68],xmm0
    6954:	mov    eax,DWORD PTR [rbp-0xd0]
    695a:	sub    eax,0x1
    695d:	or     eax,DWORD PTR [rbp-0xcc]
    6963:	test   eax,eax
    6965:	jne    6980 <__ieee754_pow+0x4d6>
    6967:	movsd  xmm0,QWORD PTR [rip+0xbe19]        # 12788 <ivln2_l+0x8>
    696f:	movq   xmm1,QWORD PTR [rip+0xbe19]        # 12790 <ivln2_l+0x10>
    6977:	xorpd  xmm0,xmm1
    697b:	movsd  QWORD PTR [rbp-0x68],xmm0
    6980:	cmp    DWORD PTR [rbp-0xac],0x41e00000
    698a:	jle    6bdb <__ieee754_pow+0x731>
    6990:	cmp    DWORD PTR [rbp-0xac],0x43f00000
    699a:	jle    6a2e <__ieee754_pow+0x584>
    69a0:	cmp    DWORD PTR [rbp-0xc8],0x3fefffff
    69aa:	jg     69e7 <__ieee754_pow+0x53d>
    69ac:	cmp    DWORD PTR [rbp-0xb4],0x0
    69b3:	jns    69ce <__ieee754_pow+0x524>
    69b5:	movsd  xmm1,QWORD PTR [rip+0xbdf3]        # 127b0 <ivln2_l+0x30>
    69bd:	movsd  xmm0,QWORD PTR [rip+0xbdeb]        # 127b0 <ivln2_l+0x30>
    69c5:	mulsd  xmm0,xmm1
    69c9:	jmp    752f <__ieee754_pow+0x1085>
    69ce:	movsd  xmm1,QWORD PTR [rip+0xbde2]        # 127b8 <ivln2_l+0x38>
    69d6:	movsd  xmm0,QWORD PTR [rip+0xbdda]        # 127b8 <ivln2_l+0x38>
    69de:	mulsd  xmm0,xmm1
    69e2:	jmp    752f <__ieee754_pow+0x1085>
    69e7:	cmp    DWORD PTR [rbp-0xc8],0x3fefffff
    69f1:	jle    6a2e <__ieee754_pow+0x584>
    69f3:	cmp    DWORD PTR [rbp-0xb4],0x0
    69fa:	jle    6a15 <__ieee754_pow+0x56b>
    69fc:	movsd  xmm1,QWORD PTR [rip+0xbdac]        # 127b0 <ivln2_l+0x30>
    6a04:	movsd  xmm0,QWORD PTR [rip+0xbda4]        # 127b0 <ivln2_l+0x30>
    6a0c:	mulsd  xmm0,xmm1
    6a10:	jmp    752f <__ieee754_pow+0x1085>
    6a15:	movsd  xmm1,QWORD PTR [rip+0xbd9b]        # 127b8 <ivln2_l+0x38>
    6a1d:	movsd  xmm0,QWORD PTR [rip+0xbd93]        # 127b8 <ivln2_l+0x38>
    6a25:	mulsd  xmm0,xmm1
    6a29:	jmp    752f <__ieee754_pow+0x1085>
    6a2e:	cmp    DWORD PTR [rbp-0xc8],0x3feffffe
    6a38:	jg     6a87 <__ieee754_pow+0x5dd>
    6a3a:	cmp    DWORD PTR [rbp-0xb4],0x0
    6a41:	jns    6a65 <__ieee754_pow+0x5bb>
    6a43:	movsd  xmm0,QWORD PTR [rip+0xbd65]        # 127b0 <ivln2_l+0x30>
    6a4b:	movapd xmm1,xmm0
    6a4f:	mulsd  xmm1,QWORD PTR [rbp-0x68]
    6a54:	movsd  xmm0,QWORD PTR [rip+0xbd54]        # 127b0 <ivln2_l+0x30>
    6a5c:	mulsd  xmm0,xmm1
    6a60:	jmp    752f <__ieee754_pow+0x1085>
    6a65:	movsd  xmm0,QWORD PTR [rip+0xbd4b]        # 127b8 <ivln2_l+0x38>
    6a6d:	movapd xmm1,xmm0
    6a71:	mulsd  xmm1,QWORD PTR [rbp-0x68]
    6a76:	movsd  xmm0,QWORD PTR [rip+0xbd3a]        # 127b8 <ivln2_l+0x38>
    6a7e:	mulsd  xmm0,xmm1
    6a82:	jmp    752f <__ieee754_pow+0x1085>
    6a87:	cmp    DWORD PTR [rbp-0xc8],0x3ff00000
    6a91:	jle    6ae0 <__ieee754_pow+0x636>
    6a93:	cmp    DWORD PTR [rbp-0xb4],0x0
    6a9a:	jle    6abe <__ieee754_pow+0x614>
    6a9c:	movsd  xmm0,QWORD PTR [rip+0xbd0c]        # 127b0 <ivln2_l+0x30>
    6aa4:	movapd xmm1,xmm0
    6aa8:	mulsd  xmm1,QWORD PTR [rbp-0x68]
    6aad:	movsd  xmm0,QWORD PTR [rip+0xbcfb]        # 127b0 <ivln2_l+0x30>
    6ab5:	mulsd  xmm0,xmm1
    6ab9:	jmp    752f <__ieee754_pow+0x1085>
    6abe:	movsd  xmm0,QWORD PTR [rip+0xbcf2]        # 127b8 <ivln2_l+0x38>
    6ac6:	movapd xmm1,xmm0
    6aca:	mulsd  xmm1,QWORD PTR [rbp-0x68]
    6acf:	movsd  xmm0,QWORD PTR [rip+0xbce1]        # 127b8 <ivln2_l+0x38>
    6ad7:	mulsd  xmm0,xmm1
    6adb:	jmp    752f <__ieee754_pow+0x1085>
    6ae0:	movsd  xmm0,QWORD PTR [rbp-0xa0]
    6ae8:	movsd  xmm1,QWORD PTR [rip+0xbc98]        # 12788 <ivln2_l+0x8>
    6af0:	subsd  xmm0,xmm1
    6af4:	movsd  QWORD PTR [rbp-0x88],xmm0
    6afc:	movsd  xmm1,QWORD PTR [rbp-0x88]
    6b04:	movsd  xmm0,QWORD PTR [rbp-0x88]
    6b0c:	mulsd  xmm1,xmm0
    6b10:	movsd  xmm2,QWORD PTR [rbp-0x88]
    6b18:	movsd  xmm0,QWORD PTR [rip+0xbca0]        # 127c0 <ivln2_l+0x40>
    6b20:	mulsd  xmm2,xmm0
    6b24:	movsd  xmm0,QWORD PTR [rip+0xbc9c]        # 127c8 <ivln2_l+0x48>
    6b2c:	subsd  xmm0,xmm2
    6b30:	movapd xmm2,xmm0
    6b34:	movsd  xmm0,QWORD PTR [rbp-0x88]
    6b3c:	mulsd  xmm2,xmm0
    6b40:	movsd  xmm0,QWORD PTR [rip+0xbc88]        # 127d0 <ivln2_l+0x50>
    6b48:	subsd  xmm0,xmm2
    6b4c:	mulsd  xmm0,xmm1
    6b50:	movsd  QWORD PTR [rbp-0x10],xmm0
    6b55:	movsd  xmm1,QWORD PTR [rip+0xbc7b]        # 127d8 <ivln2_l+0x58>
    6b5d:	movsd  xmm0,QWORD PTR [rbp-0x88]
    6b65:	mulsd  xmm0,xmm1
    6b69:	movsd  QWORD PTR [rbp-0x60],xmm0
    6b6e:	movsd  xmm1,QWORD PTR [rbp-0x88]
    6b76:	movsd  xmm0,QWORD PTR [rip+0xbc62]        # 127e0 <ivln2_l+0x60>
    6b7e:	mulsd  xmm0,xmm1
    6b82:	movsd  xmm1,QWORD PTR [rip+0xbc5e]        # 127e8 <ivln2_l+0x68>
    6b8a:	mulsd  xmm1,QWORD PTR [rbp-0x10]
    6b8f:	subsd  xmm0,xmm1
    6b93:	movsd  QWORD PTR [rbp-0x58],xmm0
    6b98:	movsd  xmm0,QWORD PTR [rbp-0x60]
    6b9d:	addsd  xmm0,QWORD PTR [rbp-0x58]
    6ba2:	movsd  QWORD PTR [rbp-0x90],xmm0
    6baa:	lea    rax,[rbp-0x90]
    6bb1:	mov    DWORD PTR [rax],0x0
    6bb7:	movsd  xmm0,QWORD PTR [rbp-0x90]
    6bbf:	movapd xmm1,xmm0
    6bc3:	subsd  xmm1,QWORD PTR [rbp-0x60]
    6bc8:	movsd  xmm0,QWORD PTR [rbp-0x58]
    6bcd:	subsd  xmm0,xmm1
    6bd1:	movsd  QWORD PTR [rbp-0x70],xmm0
    6bd6:	jmp    706a <__ieee754_pow+0xbc0>
    6bdb:	mov    DWORD PTR [rbp-0xcc],0x0
    6be5:	cmp    DWORD PTR [rbp-0xc8],0xfffff
    6bef:	jg     6c20 <__ieee754_pow+0x776>
    6bf1:	movsd  xmm1,QWORD PTR [rbp-0xa0]
    6bf9:	movsd  xmm0,QWORD PTR [rip+0xbbef]        # 127f0 <ivln2_l+0x70>
    6c01:	mulsd  xmm0,xmm1
    6c05:	movsd  QWORD PTR [rbp-0xa0],xmm0
    6c0d:	sub    DWORD PTR [rbp-0xcc],0x35
    6c14:	mov    eax,DWORD PTR [rbp-0x9c]
    6c1a:	mov    DWORD PTR [rbp-0xc8],eax
    6c20:	mov    eax,DWORD PTR [rbp-0xc8]
    6c26:	sar    eax,0x14
    6c29:	sub    eax,0x3ff
    6c2e:	add    DWORD PTR [rbp-0xcc],eax
    6c34:	mov    eax,DWORD PTR [rbp-0xc8]
    6c3a:	and    eax,0xfffff
    6c3f:	mov    DWORD PTR [rbp-0xa8],eax
    6c45:	mov    eax,DWORD PTR [rbp-0xa8]
    6c4b:	or     eax,0x3ff00000
    6c50:	mov    DWORD PTR [rbp-0xc8],eax
    6c56:	cmp    DWORD PTR [rbp-0xa8],0x3988e
    6c60:	jg     6c6e <__ieee754_pow+0x7c4>
    6c62:	mov    DWORD PTR [rbp-0xd4],0x0
    6c6c:	jmp    6ca1 <__ieee754_pow+0x7f7>
    6c6e:	cmp    DWORD PTR [rbp-0xa8],0xbb679
    6c78:	jg     6c86 <__ieee754_pow+0x7dc>
    6c7a:	mov    DWORD PTR [rbp-0xd4],0x1
    6c84:	jmp    6ca1 <__ieee754_pow+0x7f7>
    6c86:	mov    DWORD PTR [rbp-0xd4],0x0
    6c90:	add    DWORD PTR [rbp-0xcc],0x1
    6c97:	sub    DWORD PTR [rbp-0xc8],0x100000
    6ca1:	lea    rax,[rbp-0xa0]
    6ca8:	add    rax,0x4
    6cac:	mov    edx,DWORD PTR [rbp-0xc8]
    6cb2:	mov    DWORD PTR [rax],edx
    6cb4:	movsd  xmm0,QWORD PTR [rbp-0xa0]
    6cbc:	mov    eax,DWORD PTR [rbp-0xd4]
    6cc2:	cdqe   
    6cc4:	lea    rdx,[rax*8+0x0]
    6ccc:	lea    rax,[rip+0xb9ad]        # 12680 <bp>
    6cd3:	movsd  xmm1,QWORD PTR [rdx+rax*1]
    6cd8:	subsd  xmm0,xmm1
    6cdc:	movsd  QWORD PTR [rbp-0x60],xmm0
    6ce1:	movsd  xmm0,QWORD PTR [rip+0xba9f]        # 12788 <ivln2_l+0x8>
    6ce9:	mov    eax,DWORD PTR [rbp-0xd4]
    6cef:	cdqe   
    6cf1:	lea    rdx,[rax*8+0x0]
    6cf9:	lea    rax,[rip+0xb980]        # 12680 <bp>
    6d00:	movsd  xmm2,QWORD PTR [rdx+rax*1]
    6d05:	movsd  xmm1,QWORD PTR [rbp-0xa0]
    6d0d:	addsd  xmm1,xmm2
    6d11:	divsd  xmm0,xmm1
    6d15:	movsd  QWORD PTR [rbp-0x58],xmm0
    6d1a:	movsd  xmm0,QWORD PTR [rbp-0x60]
    6d1f:	mulsd  xmm0,QWORD PTR [rbp-0x58]
    6d24:	movsd  QWORD PTR [rbp-0x50],xmm0
    6d29:	movsd  xmm0,QWORD PTR [rbp-0x50]
    6d2e:	movsd  QWORD PTR [rbp-0x80],xmm0
    6d33:	lea    rax,[rbp-0x80]
    6d37:	mov    DWORD PTR [rax],0x0
    6d3d:	pxor   xmm0,xmm0
    6d41:	movsd  QWORD PTR [rbp-0x78],xmm0
    6d46:	mov    eax,DWORD PTR [rbp-0xc8]
    6d4c:	sar    eax,1
    6d4e:	or     eax,0x20000000
    6d53:	lea    ecx,[rax+0x80000]
    6d59:	mov    eax,DWORD PTR [rbp-0xd4]
    6d5f:	shl    eax,0x12
    6d62:	mov    edx,eax
    6d64:	lea    rax,[rbp-0x78]
    6d68:	add    rax,0x4
    6d6c:	add    edx,ecx
    6d6e:	mov    DWORD PTR [rax],edx
    6d70:	movsd  xmm0,QWORD PTR [rbp-0xa0]
    6d78:	movsd  xmm1,QWORD PTR [rbp-0x78]
    6d7d:	mov    eax,DWORD PTR [rbp-0xd4]
    6d83:	cdqe   
    6d85:	lea    rdx,[rax*8+0x0]
    6d8d:	lea    rax,[rip+0xb8ec]        # 12680 <bp>
    6d94:	movsd  xmm2,QWORD PTR [rdx+rax*1]
    6d99:	subsd  xmm1,xmm2
    6d9d:	subsd  xmm0,xmm1
    6da1:	movsd  QWORD PTR [rbp-0x48],xmm0
    6da6:	movsd  xmm1,QWORD PTR [rbp-0x80]
    6dab:	movsd  xmm0,QWORD PTR [rbp-0x78]
    6db0:	mulsd  xmm1,xmm0
    6db4:	movsd  xmm0,QWORD PTR [rbp-0x60]
    6db9:	subsd  xmm0,xmm1
    6dbd:	movsd  xmm1,QWORD PTR [rbp-0x80]
    6dc2:	mulsd  xmm1,QWORD PTR [rbp-0x48]
    6dc7:	subsd  xmm0,xmm1
    6dcb:	movsd  xmm1,QWORD PTR [rbp-0x58]
    6dd0:	mulsd  xmm0,xmm1
    6dd4:	movsd  QWORD PTR [rbp-0x40],xmm0
    6dd9:	movsd  xmm0,QWORD PTR [rbp-0x50]
    6dde:	mulsd  xmm0,xmm0
    6de2:	movsd  QWORD PTR [rbp-0x38],xmm0
    6de7:	movsd  xmm0,QWORD PTR [rbp-0x38]
    6dec:	movapd xmm1,xmm0
    6df0:	mulsd  xmm1,xmm0
    6df4:	movsd  xmm0,QWORD PTR [rip+0xb9fc]        # 127f8 <ivln2_l+0x78>
    6dfc:	movapd xmm2,xmm0
    6e00:	mulsd  xmm2,QWORD PTR [rbp-0x38]
    6e05:	movsd  xmm0,QWORD PTR [rip+0xb9f3]        # 12800 <ivln2_l+0x80>
    6e0d:	addsd  xmm0,xmm2
    6e11:	movapd xmm2,xmm0
    6e15:	mulsd  xmm2,QWORD PTR [rbp-0x38]
    6e1a:	movsd  xmm0,QWORD PTR [rip+0xb9e6]        # 12808 <ivln2_l+0x88>
    6e22:	addsd  xmm0,xmm2
    6e26:	movapd xmm2,xmm0
    6e2a:	mulsd  xmm2,QWORD PTR [rbp-0x38]
    6e2f:	movsd  xmm0,QWORD PTR [rip+0xb9d9]        # 12810 <ivln2_l+0x90>
    6e37:	addsd  xmm0,xmm2
    6e3b:	movapd xmm2,xmm0
    6e3f:	mulsd  xmm2,QWORD PTR [rbp-0x38]
    6e44:	movsd  xmm0,QWORD PTR [rip+0xb9cc]        # 12818 <ivln2_l+0x98>
    6e4c:	addsd  xmm0,xmm2
    6e50:	movapd xmm2,xmm0
    6e54:	mulsd  xmm2,QWORD PTR [rbp-0x38]
    6e59:	movsd  xmm0,QWORD PTR [rip+0xb9bf]        # 12820 <ivln2_l+0xa0>
    6e61:	addsd  xmm0,xmm2
    6e65:	mulsd  xmm0,xmm1
    6e69:	movsd  QWORD PTR [rbp-0x30],xmm0
    6e6e:	movsd  xmm0,QWORD PTR [rbp-0x80]
    6e73:	addsd  xmm0,QWORD PTR [rbp-0x50]
    6e78:	mulsd  xmm0,QWORD PTR [rbp-0x40]
    6e7d:	movsd  xmm1,QWORD PTR [rbp-0x30]
    6e82:	addsd  xmm0,xmm1
    6e86:	movsd  QWORD PTR [rbp-0x30],xmm0
    6e8b:	movsd  xmm1,QWORD PTR [rbp-0x80]
    6e90:	movsd  xmm0,QWORD PTR [rbp-0x80]
    6e95:	mulsd  xmm0,xmm1
    6e99:	movsd  QWORD PTR [rbp-0x38],xmm0
    6e9e:	movsd  xmm1,QWORD PTR [rbp-0x38]
    6ea3:	movsd  xmm0,QWORD PTR [rip+0xb97d]        # 12828 <ivln2_l+0xa8>
    6eab:	addsd  xmm0,xmm1
    6eaf:	addsd  xmm0,QWORD PTR [rbp-0x30]
    6eb4:	movsd  QWORD PTR [rbp-0x78],xmm0
    6eb9:	lea    rax,[rbp-0x78]
    6ebd:	mov    DWORD PTR [rax],0x0
    6ec3:	movsd  xmm0,QWORD PTR [rbp-0x78]
    6ec8:	movsd  xmm1,QWORD PTR [rip+0xb958]        # 12828 <ivln2_l+0xa8>
    6ed0:	subsd  xmm0,xmm1
    6ed4:	movapd xmm1,xmm0
    6ed8:	subsd  xmm1,QWORD PTR [rbp-0x38]
    6edd:	movsd  xmm0,QWORD PTR [rbp-0x30]
    6ee2:	subsd  xmm0,xmm1
    6ee6:	movsd  QWORD PTR [rbp-0x48],xmm0
    6eeb:	movsd  xmm1,QWORD PTR [rbp-0x80]
    6ef0:	movsd  xmm0,QWORD PTR [rbp-0x78]
    6ef5:	mulsd  xmm0,xmm1
    6ef9:	movsd  QWORD PTR [rbp-0x60],xmm0
    6efe:	movsd  xmm0,QWORD PTR [rbp-0x78]
    6f03:	movapd xmm1,xmm0
    6f07:	mulsd  xmm1,QWORD PTR [rbp-0x40]
    6f0c:	movsd  xmm0,QWORD PTR [rbp-0x48]
    6f11:	mulsd  xmm0,QWORD PTR [rbp-0x50]
    6f16:	addsd  xmm0,xmm1
    6f1a:	movsd  QWORD PTR [rbp-0x58],xmm0
    6f1f:	movsd  xmm0,QWORD PTR [rbp-0x60]
    6f24:	addsd  xmm0,QWORD PTR [rbp-0x58]
    6f29:	movsd  QWORD PTR [rbp-0x98],xmm0
    6f31:	lea    rax,[rbp-0x98]
    6f38:	mov    DWORD PTR [rax],0x0
    6f3e:	movsd  xmm0,QWORD PTR [rbp-0x98]
    6f46:	movapd xmm1,xmm0
    6f4a:	subsd  xmm1,QWORD PTR [rbp-0x60]
    6f4f:	movsd  xmm0,QWORD PTR [rbp-0x58]
    6f54:	subsd  xmm0,xmm1
    6f58:	movsd  QWORD PTR [rbp-0x28],xmm0
    6f5d:	movsd  xmm1,QWORD PTR [rip+0xb8cb]        # 12830 <ivln2_l+0xb0>
    6f65:	movsd  xmm0,QWORD PTR [rbp-0x98]
    6f6d:	mulsd  xmm0,xmm1
    6f71:	movsd  QWORD PTR [rbp-0x20],xmm0
    6f76:	movsd  xmm1,QWORD PTR [rip+0xb8ba]        # 12838 <ivln2_l+0xb8>
    6f7e:	movsd  xmm0,QWORD PTR [rbp-0x98]
    6f86:	mulsd  xmm1,xmm0
    6f8a:	movsd  xmm0,QWORD PTR [rip+0xb8ae]        # 12840 <ivln2_l+0xc0>
    6f92:	mulsd  xmm0,QWORD PTR [rbp-0x28]
    6f97:	addsd  xmm1,xmm0
    6f9b:	mov    eax,DWORD PTR [rbp-0xd4]
    6fa1:	cdqe   
    6fa3:	lea    rdx,[rax*8+0x0]
    6fab:	lea    rax,[rip+0xb6ee]        # 126a0 <dp_l>
    6fb2:	movsd  xmm0,QWORD PTR [rdx+rax*1]
    6fb7:	addsd  xmm0,xmm1
    6fbb:	movsd  QWORD PTR [rbp-0x18],xmm0
    6fc0:	cvtsi2sd xmm0,DWORD PTR [rbp-0xcc]
    6fc8:	movsd  QWORD PTR [rbp-0x88],xmm0
    6fd0:	movsd  xmm0,QWORD PTR [rbp-0x20]
    6fd5:	movapd xmm1,xmm0
    6fd9:	addsd  xmm1,QWORD PTR [rbp-0x18]
    6fde:	mov    eax,DWORD PTR [rbp-0xd4]
    6fe4:	cdqe   
    6fe6:	lea    rdx,[rax*8+0x0]
    6fee:	lea    rax,[rip+0xb69b]        # 12690 <dp_h>
    6ff5:	movsd  xmm0,QWORD PTR [rdx+rax*1]
    6ffa:	addsd  xmm1,xmm0
    6ffe:	movsd  xmm0,QWORD PTR [rbp-0x88]
    7006:	addsd  xmm0,xmm1
    700a:	movsd  QWORD PTR [rbp-0x90],xmm0
    7012:	lea    rax,[rbp-0x90]
    7019:	mov    DWORD PTR [rax],0x0
    701f:	movsd  xmm0,QWORD PTR [rbp-0x90]
    7027:	movsd  xmm1,QWORD PTR [rbp-0x88]
    702f:	subsd  xmm0,xmm1
    7033:	mov    eax,DWORD PTR [rbp-0xd4]
    7039:	cdqe   
    703b:	lea    rdx,[rax*8+0x0]
    7043:	lea    rax,[rip+0xb646]        # 12690 <dp_h>
    704a:	movsd  xmm1,QWORD PTR [rdx+rax*1]
    704f:	subsd  xmm0,xmm1
    7053:	movapd xmm1,xmm0
    7057:	subsd  xmm1,QWORD PTR [rbp-0x20]
    705c:	movsd  xmm0,QWORD PTR [rbp-0x18]
    7061:	subsd  xmm0,xmm1
    7065:	movsd  QWORD PTR [rbp-0x70],xmm0
    706a:	movsd  xmm0,QWORD PTR [rbp-0xf0]
    7072:	movsd  QWORD PTR [rbp-0x78],xmm0
    7077:	lea    rax,[rbp-0x78]
    707b:	mov    DWORD PTR [rax],0x0
    7081:	movsd  xmm0,QWORD PTR [rbp-0xf0]
    7089:	movsd  xmm1,QWORD PTR [rbp-0x78]
    708e:	subsd  xmm0,xmm1
    7092:	movapd xmm1,xmm0
    7096:	movsd  xmm0,QWORD PTR [rbp-0x90]
    709e:	mulsd  xmm1,xmm0
    70a2:	movsd  xmm0,QWORD PTR [rbp-0xf0]
    70aa:	mulsd  xmm0,QWORD PTR [rbp-0x70]
    70af:	addsd  xmm0,xmm1
    70b3:	movsd  QWORD PTR [rbp-0x28],xmm0
    70b8:	movsd  xmm1,QWORD PTR [rbp-0x78]
    70bd:	movsd  xmm0,QWORD PTR [rbp-0x90]
    70c5:	mulsd  xmm0,xmm1
    70c9:	movsd  QWORD PTR [rbp-0x98],xmm0
    70d1:	movsd  xmm0,QWORD PTR [rbp-0x98]
    70d9:	addsd  xmm0,QWORD PTR [rbp-0x28]
    70de:	movsd  QWORD PTR [rbp-0x80],xmm0
    70e3:	mov    eax,DWORD PTR [rbp-0x7c]
    70e6:	mov    DWORD PTR [rbp-0xa8],eax
    70ec:	lea    rax,[rbp-0x80]
    70f0:	mov    eax,DWORD PTR [rax]
    70f2:	mov    DWORD PTR [rbp-0xa4],eax
    70f8:	cmp    DWORD PTR [rbp-0xa8],0x408fffff
    7102:	jle    7189 <__ieee754_pow+0xcdf>
    7108:	mov    eax,DWORD PTR [rbp-0xa8]
    710e:	sub    eax,0x40900000
    7113:	or     eax,DWORD PTR [rbp-0xa4]
    7119:	test   eax,eax
    711b:	je     713f <__ieee754_pow+0xc95>
    711d:	movsd  xmm0,QWORD PTR [rip+0xb68b]        # 127b0 <ivln2_l+0x30>
    7125:	movapd xmm1,xmm0
    7129:	mulsd  xmm1,QWORD PTR [rbp-0x68]
    712e:	movsd  xmm0,QWORD PTR [rip+0xb67a]        # 127b0 <ivln2_l+0x30>
    7136:	mulsd  xmm0,xmm1
    713a:	jmp    752f <__ieee754_pow+0x1085>
    713f:	movsd  xmm0,QWORD PTR [rip+0xb701]        # 12848 <ivln2_l+0xc8>
    7147:	addsd  xmm0,QWORD PTR [rbp-0x28]
    714c:	movsd  xmm1,QWORD PTR [rbp-0x80]
    7151:	movsd  xmm2,QWORD PTR [rbp-0x98]
    7159:	subsd  xmm1,xmm2
    715d:	comisd xmm0,xmm1
    7161:	jbe    720f <__ieee754_pow+0xd65>
    7167:	movsd  xmm0,QWORD PTR [rip+0xb641]        # 127b0 <ivln2_l+0x30>
    716f:	movapd xmm1,xmm0
    7173:	mulsd  xmm1,QWORD PTR [rbp-0x68]
    7178:	movsd  xmm0,QWORD PTR [rip+0xb630]        # 127b0 <ivln2_l+0x30>
    7180:	mulsd  xmm0,xmm1
    7184:	jmp    752f <__ieee754_pow+0x1085>
    7189:	mov    eax,DWORD PTR [rbp-0xa8]
    718f:	and    eax,0x7fffffff
    7194:	cmp    eax,0x4090cbff
    7199:	jle    720f <__ieee754_pow+0xd65>
    719b:	mov    eax,DWORD PTR [rbp-0xa8]
    71a1:	lea    edx,[rax+0x3f6f3400]
    71a7:	mov    eax,DWORD PTR [rbp-0xa4]
    71ad:	or     eax,edx
    71af:	test   eax,eax
    71b1:	je     71d5 <__ieee754_pow+0xd2b>
    71b3:	movsd  xmm0,QWORD PTR [rip+0xb5fd]        # 127b8 <ivln2_l+0x38>
    71bb:	movapd xmm1,xmm0
    71bf:	mulsd  xmm1,QWORD PTR [rbp-0x68]
    71c4:	movsd  xmm0,QWORD PTR [rip+0xb5ec]        # 127b8 <ivln2_l+0x38>
    71cc:	mulsd  xmm0,xmm1
    71d0:	jmp    752f <__ieee754_pow+0x1085>
    71d5:	movsd  xmm0,QWORD PTR [rbp-0x80]
    71da:	movsd  xmm1,QWORD PTR [rbp-0x98]
    71e2:	subsd  xmm0,xmm1
    71e6:	comisd xmm0,QWORD PTR [rbp-0x28]
    71eb:	jb     720f <__ieee754_pow+0xd65>
    71ed:	movsd  xmm0,QWORD PTR [rip+0xb5c3]        # 127b8 <ivln2_l+0x38>
    71f5:	movapd xmm1,xmm0
    71f9:	mulsd  xmm1,QWORD PTR [rbp-0x68]
    71fe:	movsd  xmm0,QWORD PTR [rip+0xb5b2]        # 127b8 <ivln2_l+0x38>
    7206:	mulsd  xmm0,xmm1
    720a:	jmp    752f <__ieee754_pow+0x1085>
    720f:	mov    eax,DWORD PTR [rbp-0xa8]
    7215:	and    eax,0x7fffffff
    721a:	mov    DWORD PTR [rbp-0xa4],eax
    7220:	mov    eax,DWORD PTR [rbp-0xa4]
    7226:	sar    eax,0x14
    7229:	sub    eax,0x3ff
    722e:	mov    DWORD PTR [rbp-0xd4],eax
    7234:	mov    DWORD PTR [rbp-0xcc],0x0
    723e:	cmp    DWORD PTR [rbp-0xa4],0x3fe00000
    7248:	jle    730f <__ieee754_pow+0xe65>
    724e:	mov    eax,DWORD PTR [rbp-0xd4]
    7254:	add    eax,0x1
    7257:	mov    edx,0x100000
    725c:	mov    ecx,eax
    725e:	sar    edx,cl
    7260:	mov    eax,DWORD PTR [rbp-0xa8]
    7266:	add    eax,edx
    7268:	mov    DWORD PTR [rbp-0xcc],eax
    726e:	mov    eax,DWORD PTR [rbp-0xcc]
    7274:	sar    eax,0x14
    7277:	and    eax,0x7ff
    727c:	sub    eax,0x3ff
    7281:	mov    DWORD PTR [rbp-0xd4],eax
    7287:	pxor   xmm0,xmm0
    728b:	movsd  QWORD PTR [rbp-0x88],xmm0
    7293:	mov    eax,DWORD PTR [rbp-0xd4]
    7299:	mov    edx,0xfffff
    729e:	mov    ecx,eax
    72a0:	sar    edx,cl
    72a2:	mov    eax,edx
    72a4:	not    eax
    72a6:	mov    edx,eax
    72a8:	lea    rax,[rbp-0x88]
    72af:	add    rax,0x4
    72b3:	and    edx,DWORD PTR [rbp-0xcc]
    72b9:	mov    DWORD PTR [rax],edx
    72bb:	mov    eax,DWORD PTR [rbp-0xcc]
    72c1:	and    eax,0xfffff
    72c6:	or     eax,0x100000
    72cb:	mov    edx,eax
    72cd:	mov    eax,0x14
    72d2:	sub    eax,DWORD PTR [rbp-0xd4]
    72d8:	mov    ecx,eax
    72da:	sar    edx,cl
    72dc:	mov    eax,edx
    72de:	mov    DWORD PTR [rbp-0xcc],eax
    72e4:	cmp    DWORD PTR [rbp-0xa8],0x0
    72eb:	jns    72f3 <__ieee754_pow+0xe49>
    72ed:	neg    DWORD PTR [rbp-0xcc]
    72f3:	movsd  xmm0,QWORD PTR [rbp-0x98]
    72fb:	movsd  xmm1,QWORD PTR [rbp-0x88]
    7303:	subsd  xmm0,xmm1
    7307:	movsd  QWORD PTR [rbp-0x98],xmm0
    730f:	movsd  xmm0,QWORD PTR [rbp-0x98]
    7317:	addsd  xmm0,QWORD PTR [rbp-0x28]
    731c:	movsd  QWORD PTR [rbp-0x88],xmm0
    7324:	lea    rax,[rbp-0x88]
    732b:	mov    DWORD PTR [rax],0x0
    7331:	movsd  xmm1,QWORD PTR [rbp-0x88]
    7339:	movsd  xmm0,QWORD PTR [rip+0xb50f]        # 12850 <ivln2_l+0xd0>
    7341:	mulsd  xmm0,xmm1
    7345:	movsd  QWORD PTR [rbp-0x60],xmm0
    734a:	movsd  xmm0,QWORD PTR [rbp-0x88]
    7352:	movsd  xmm1,QWORD PTR [rbp-0x98]
    735a:	subsd  xmm0,xmm1
    735e:	movapd xmm1,xmm0
    7362:	movsd  xmm0,QWORD PTR [rbp-0x28]
    7367:	subsd  xmm0,xmm1
    736b:	movapd xmm1,xmm0
    736f:	movsd  xmm0,QWORD PTR [rip+0xb4e1]        # 12858 <ivln2_l+0xd8>
    7377:	mulsd  xmm1,xmm0
    737b:	movsd  xmm2,QWORD PTR [rbp-0x88]
    7383:	movsd  xmm0,QWORD PTR [rip+0xb4d5]        # 12860 <ivln2_l+0xe0>
    738b:	mulsd  xmm0,xmm2
    738f:	addsd  xmm0,xmm1
    7393:	movsd  QWORD PTR [rbp-0x58],xmm0
    7398:	movsd  xmm0,QWORD PTR [rbp-0x60]
    739d:	addsd  xmm0,QWORD PTR [rbp-0x58]
    73a2:	movsd  QWORD PTR [rbp-0x80],xmm0
    73a7:	movsd  xmm0,QWORD PTR [rbp-0x80]
    73ac:	movapd xmm1,xmm0
    73b0:	subsd  xmm1,QWORD PTR [rbp-0x60]
    73b5:	movsd  xmm0,QWORD PTR [rbp-0x58]
    73ba:	subsd  xmm0,xmm1
    73be:	movsd  QWORD PTR [rbp-0x10],xmm0
    73c3:	movsd  xmm1,QWORD PTR [rbp-0x80]
    73c8:	movsd  xmm0,QWORD PTR [rbp-0x80]
    73cd:	mulsd  xmm0,xmm1
    73d1:	movsd  QWORD PTR [rbp-0x88],xmm0
    73d9:	movsd  xmm0,QWORD PTR [rbp-0x80]
    73de:	movsd  xmm2,QWORD PTR [rbp-0x88]
    73e6:	movsd  xmm1,QWORD PTR [rip+0xb47a]        # 12868 <ivln2_l+0xe8>
    73ee:	mulsd  xmm2,xmm1
    73f2:	movsd  xmm1,QWORD PTR [rip+0xb476]        # 12870 <ivln2_l+0xf0>
    73fa:	addsd  xmm2,xmm1
    73fe:	movsd  xmm1,QWORD PTR [rbp-0x88]
    7406:	mulsd  xmm2,xmm1
    740a:	movsd  xmm1,QWORD PTR [rip+0xb466]        # 12878 <ivln2_l+0xf8>
    7412:	addsd  xmm2,xmm1
    7416:	movsd  xmm1,QWORD PTR [rbp-0x88]
    741e:	mulsd  xmm2,xmm1
    7422:	movsd  xmm1,QWORD PTR [rip+0xb456]        # 12880 <ivln2_l+0x100>
    742a:	addsd  xmm2,xmm1
    742e:	movsd  xmm1,QWORD PTR [rbp-0x88]
    7436:	mulsd  xmm2,xmm1
    743a:	movsd  xmm1,QWORD PTR [rip+0xb446]        # 12888 <ivln2_l+0x108>
    7442:	addsd  xmm2,xmm1
    7446:	movsd  xmm1,QWORD PTR [rbp-0x88]
    744e:	mulsd  xmm1,xmm2
    7452:	subsd  xmm0,xmm1
    7456:	movsd  QWORD PTR [rbp-0x90],xmm0
    745e:	movsd  xmm1,QWORD PTR [rbp-0x80]
    7463:	movsd  xmm0,QWORD PTR [rbp-0x90]
    746b:	mulsd  xmm0,xmm1
    746f:	movsd  xmm1,QWORD PTR [rbp-0x90]
    7477:	movsd  xmm2,QWORD PTR [rip+0xb411]        # 12890 <ivln2_l+0x110>
    747f:	subsd  xmm1,xmm2
    7483:	divsd  xmm0,xmm1
    7487:	movsd  xmm1,QWORD PTR [rbp-0x80]
    748c:	mulsd  xmm1,QWORD PTR [rbp-0x10]
    7491:	addsd  xmm1,QWORD PTR [rbp-0x10]
    7496:	subsd  xmm0,xmm1
    749a:	movsd  QWORD PTR [rbp-0x30],xmm0
    749f:	movsd  xmm0,QWORD PTR [rip+0xb2e1]        # 12788 <ivln2_l+0x8>
    74a7:	movsd  xmm2,QWORD PTR [rbp-0x80]
    74ac:	movsd  xmm1,QWORD PTR [rbp-0x30]
    74b1:	subsd  xmm1,xmm2
    74b5:	subsd  xmm0,xmm1
    74b9:	movsd  QWORD PTR [rbp-0x80],xmm0
    74be:	mov    eax,DWORD PTR [rbp-0x7c]
    74c1:	mov    DWORD PTR [rbp-0xa8],eax
    74c7:	mov    eax,DWORD PTR [rbp-0xcc]
    74cd:	shl    eax,0x14
    74d0:	add    DWORD PTR [rbp-0xa8],eax
    74d6:	mov    eax,DWORD PTR [rbp-0xa8]
    74dc:	sar    eax,0x14
    74df:	test   eax,eax
    74e1:	jg     7504 <__ieee754_pow+0x105a>
    74e3:	mov    rax,QWORD PTR [rbp-0x80]
    74e7:	mov    edx,DWORD PTR [rbp-0xcc]
    74ed:	mov    edi,edx
    74ef:	movq   xmm0,rax
    74f4:	call   e4e6 <scalbn>
    74f9:	movq   rax,xmm0
    74fe:	mov    QWORD PTR [rbp-0x80],rax
    7502:	jmp    7525 <__ieee754_pow+0x107b>
    7504:	lea    rax,[rbp-0x80]
    7508:	add    rax,0x4
    750c:	mov    edx,DWORD PTR [rax]
    750e:	mov    eax,DWORD PTR [rbp-0xcc]
    7514:	shl    eax,0x14
    7517:	mov    ecx,eax
    7519:	lea    rax,[rbp-0x80]
    751d:	add    rax,0x4
    7521:	add    edx,ecx
    7523:	mov    DWORD PTR [rax],edx
    7525:	movsd  xmm0,QWORD PTR [rbp-0x80]
    752a:	mulsd  xmm0,QWORD PTR [rbp-0x68]
    752f:	mov    rax,QWORD PTR [rbp-0x8]
    7533:	xor    rax,QWORD PTR fs:0x28
    753c:	je     7543 <__ieee754_pow+0x1099>
    753e:	call   1130 <__stack_chk_fail@plt>
    7543:	leave  
    7544:	ret    

0000000000007545 <__ieee754_rem_pio2>:
    7545:	endbr64 
    7549:	push   rbp
    754a:	mov    rbp,rsp
    754d:	add    rsp,0xffffffffffffff80
    7551:	movsd  QWORD PTR [rbp-0x78],xmm0
    7556:	mov    QWORD PTR [rbp-0x80],rdi
    755a:	mov    rax,QWORD PTR fs:0x28
    7563:	mov    QWORD PTR [rbp-0x8],rax
    7567:	xor    eax,eax
    7569:	mov    eax,DWORD PTR [rbp-0x74]
    756c:	mov    DWORD PTR [rbp-0x5c],eax
    756f:	mov    eax,DWORD PTR [rbp-0x5c]
    7572:	and    eax,0x7fffffff
    7577:	mov    DWORD PTR [rbp-0x58],eax
    757a:	cmp    DWORD PTR [rbp-0x58],0x3fe921fb
    7581:	jg     75aa <__ieee754_rem_pio2+0x65>
    7583:	movsd  xmm0,QWORD PTR [rbp-0x78]
    7588:	mov    rax,QWORD PTR [rbp-0x80]
    758c:	movsd  QWORD PTR [rax],xmm0
    7590:	mov    rax,QWORD PTR [rbp-0x80]
    7594:	add    rax,0x8
    7598:	pxor   xmm0,xmm0
    759c:	movsd  QWORD PTR [rax],xmm0
    75a0:	mov    eax,0x0
    75a5:	jmp    7b27 <__ieee754_rem_pio2+0x5e2>
    75aa:	cmp    DWORD PTR [rbp-0x58],0x4002d97b
    75b1:	jg     7753 <__ieee754_rem_pio2+0x20e>
    75b7:	cmp    DWORD PTR [rbp-0x5c],0x0
    75bb:	jle    7686 <__ieee754_rem_pio2+0x141>
    75c1:	movsd  xmm0,QWORD PTR [rbp-0x78]
    75c6:	movsd  xmm1,QWORD PTR [rip+0xb4c2]        # 12a90 <pio2_3t+0x8>
    75ce:	subsd  xmm0,xmm1
    75d2:	movsd  QWORD PTR [rbp-0x48],xmm0
    75d7:	cmp    DWORD PTR [rbp-0x58],0x3ff921fb
    75de:	je     7624 <__ieee754_rem_pio2+0xdf>
    75e0:	movsd  xmm0,QWORD PTR [rbp-0x48]
    75e5:	movsd  xmm1,QWORD PTR [rip+0xb4ab]        # 12a98 <pio2_3t+0x10>
    75ed:	subsd  xmm0,xmm1
    75f1:	mov    rax,QWORD PTR [rbp-0x80]
    75f5:	movsd  QWORD PTR [rax],xmm0
    75f9:	movsd  xmm0,QWORD PTR [rbp-0x48]
    75fe:	mov    rax,QWORD PTR [rbp-0x80]
    7602:	movsd  xmm1,QWORD PTR [rax]
    7606:	subsd  xmm0,xmm1
    760a:	movsd  xmm1,QWORD PTR [rip+0xb486]        # 12a98 <pio2_3t+0x10>
    7612:	mov    rax,QWORD PTR [rbp-0x80]
    7616:	add    rax,0x8
    761a:	subsd  xmm0,xmm1
    761e:	movsd  QWORD PTR [rax],xmm0
    7622:	jmp    767c <__ieee754_rem_pio2+0x137>
    7624:	movsd  xmm0,QWORD PTR [rbp-0x48]
    7629:	movsd  xmm1,QWORD PTR [rip+0xb46f]        # 12aa0 <pio2_3t+0x18>
    7631:	subsd  xmm0,xmm1
    7635:	movsd  QWORD PTR [rbp-0x48],xmm0
    763a:	movsd  xmm0,QWORD PTR [rbp-0x48]
    763f:	movsd  xmm1,QWORD PTR [rip+0xb461]        # 12aa8 <pio2_3t+0x20>
    7647:	subsd  xmm0,xmm1
    764b:	mov    rax,QWORD PTR [rbp-0x80]
    764f:	movsd  QWORD PTR [rax],xmm0
    7653:	movsd  xmm0,QWORD PTR [rbp-0x48]
    7658:	mov    rax,QWORD PTR [rbp-0x80]
    765c:	movsd  xmm1,QWORD PTR [rax]
    7660:	subsd  xmm0,xmm1
    7664:	movsd  xmm1,QWORD PTR [rip+0xb43c]        # 12aa8 <pio2_3t+0x20>
    766c:	mov    rax,QWORD PTR [rbp-0x80]
    7670:	add    rax,0x8
    7674:	subsd  xmm0,xmm1
    7678:	movsd  QWORD PTR [rax],xmm0
    767c:	mov    eax,0x1
    7681:	jmp    7b27 <__ieee754_rem_pio2+0x5e2>
    7686:	movsd  xmm1,QWORD PTR [rbp-0x78]
    768b:	movsd  xmm0,QWORD PTR [rip+0xb3fd]        # 12a90 <pio2_3t+0x8>
    7693:	addsd  xmm0,xmm1
    7697:	movsd  QWORD PTR [rbp-0x48],xmm0
    769c:	cmp    DWORD PTR [rbp-0x58],0x3ff921fb
    76a3:	je     76ed <__ieee754_rem_pio2+0x1a8>
    76a5:	movsd  xmm1,QWORD PTR [rbp-0x48]
    76aa:	movsd  xmm0,QWORD PTR [rip+0xb3e6]        # 12a98 <pio2_3t+0x10>
    76b2:	addsd  xmm0,xmm1
    76b6:	mov    rax,QWORD PTR [rbp-0x80]
    76ba:	movsd  QWORD PTR [rax],xmm0
    76be:	movsd  xmm0,QWORD PTR [rbp-0x48]
    76c3:	mov    rax,QWORD PTR [rbp-0x80]
    76c7:	movsd  xmm1,QWORD PTR [rax]
    76cb:	subsd  xmm0,xmm1
    76cf:	movapd xmm1,xmm0
    76d3:	movsd  xmm0,QWORD PTR [rip+0xb3bd]        # 12a98 <pio2_3t+0x10>
    76db:	mov    rax,QWORD PTR [rbp-0x80]
    76df:	add    rax,0x8
    76e3:	addsd  xmm0,xmm1
    76e7:	movsd  QWORD PTR [rax],xmm0
    76eb:	jmp    7749 <__ieee754_rem_pio2+0x204>
    76ed:	movsd  xmm1,QWORD PTR [rbp-0x48]
    76f2:	movsd  xmm0,QWORD PTR [rip+0xb3a6]        # 12aa0 <pio2_3t+0x18>
    76fa:	addsd  xmm0,xmm1
    76fe:	movsd  QWORD PTR [rbp-0x48],xmm0
    7703:	movsd  xmm1,QWORD PTR [rbp-0x48]
    7708:	movsd  xmm0,QWORD PTR [rip+0xb398]        # 12aa8 <pio2_3t+0x20>
    7710:	addsd  xmm0,xmm1
    7714:	mov    rax,QWORD PTR [rbp-0x80]
    7718:	movsd  QWORD PTR [rax],xmm0
    771c:	movsd  xmm0,QWORD PTR [rbp-0x48]
    7721:	mov    rax,QWORD PTR [rbp-0x80]
    7725:	movsd  xmm1,QWORD PTR [rax]
    7729:	subsd  xmm0,xmm1
    772d:	movapd xmm1,xmm0
    7731:	movsd  xmm0,QWORD PTR [rip+0xb36f]        # 12aa8 <pio2_3t+0x20>
    7739:	mov    rax,QWORD PTR [rbp-0x80]
    773d:	add    rax,0x8
    7741:	addsd  xmm0,xmm1
    7745:	movsd  QWORD PTR [rax],xmm0
    7749:	mov    eax,0xffffffff
    774e:	jmp    7b27 <__ieee754_rem_pio2+0x5e2>
    7753:	cmp    DWORD PTR [rbp-0x58],0x413921fb
    775a:	jg     79be <__ieee754_rem_pio2+0x479>
    7760:	movsd  xmm0,QWORD PTR [rbp-0x78]
    7765:	movq   xmm1,QWORD PTR [rip+0xb343]        # 12ab0 <pio2_3t+0x28>
    776d:	andpd  xmm0,xmm1
    7771:	movsd  QWORD PTR [rbp-0x30],xmm0
    7776:	movsd  xmm0,QWORD PTR [rip+0xb342]        # 12ac0 <pio2_3t+0x38>
    777e:	movapd xmm1,xmm0
    7782:	mulsd  xmm1,QWORD PTR [rbp-0x30]
    7787:	movsd  xmm0,QWORD PTR [rip+0xb339]        # 12ac8 <pio2_3t+0x40>
    778f:	addsd  xmm0,xmm1
    7793:	cvttsd2si eax,xmm0
    7797:	mov    DWORD PTR [rbp-0x50],eax
    779a:	cvtsi2sd xmm0,DWORD PTR [rbp-0x50]
    779f:	movsd  QWORD PTR [rbp-0x28],xmm0
    77a4:	movsd  xmm0,QWORD PTR [rip+0xb2e4]        # 12a90 <pio2_3t+0x8>
    77ac:	movapd xmm1,xmm0
    77b0:	mulsd  xmm1,QWORD PTR [rbp-0x28]
    77b5:	movsd  xmm0,QWORD PTR [rbp-0x30]
    77ba:	subsd  xmm0,xmm1
    77be:	movsd  QWORD PTR [rbp-0x38],xmm0
    77c3:	movsd  xmm0,QWORD PTR [rip+0xb2cd]        # 12a98 <pio2_3t+0x10>
    77cb:	movsd  xmm1,QWORD PTR [rbp-0x28]
    77d0:	mulsd  xmm0,xmm1
    77d4:	movsd  QWORD PTR [rbp-0x40],xmm0
    77d9:	cmp    DWORD PTR [rbp-0x50],0x1f
    77dd:	jg     7815 <__ieee754_rem_pio2+0x2d0>
    77df:	mov    eax,DWORD PTR [rbp-0x50]
    77e2:	sub    eax,0x1
    77e5:	cdqe   
    77e7:	lea    rdx,[rax*4+0x0]
    77ef:	lea    rax,[rip+0xb1ca]        # 129c0 <npio2_hw>
    77f6:	mov    eax,DWORD PTR [rdx+rax*1]
    77f9:	cmp    DWORD PTR [rbp-0x58],eax
    77fc:	je     7815 <__ieee754_rem_pio2+0x2d0>
    77fe:	movsd  xmm0,QWORD PTR [rbp-0x38]
    7803:	subsd  xmm0,QWORD PTR [rbp-0x40]
    7808:	mov    rax,QWORD PTR [rbp-0x80]
    780c:	movsd  QWORD PTR [rax],xmm0
    7810:	jmp    7944 <__ieee754_rem_pio2+0x3ff>
    7815:	mov    eax,DWORD PTR [rbp-0x58]
    7818:	sar    eax,0x14
    781b:	mov    DWORD PTR [rbp-0x4c],eax
    781e:	movsd  xmm0,QWORD PTR [rbp-0x38]
    7823:	subsd  xmm0,QWORD PTR [rbp-0x40]
    7828:	mov    rax,QWORD PTR [rbp-0x80]
    782c:	movsd  QWORD PTR [rax],xmm0
    7830:	mov    rax,QWORD PTR [rbp-0x80]
    7834:	add    rax,0x4
    7838:	mov    eax,DWORD PTR [rax]
    783a:	sar    eax,0x14
    783d:	and    eax,0x7ff
    7842:	mov    edx,eax
    7844:	mov    eax,DWORD PTR [rbp-0x4c]
    7847:	sub    eax,edx
    7849:	mov    DWORD PTR [rbp-0x64],eax
    784c:	cmp    DWORD PTR [rbp-0x64],0x10
    7850:	jle    7944 <__ieee754_rem_pio2+0x3ff>
    7856:	movsd  xmm0,QWORD PTR [rbp-0x38]
    785b:	movsd  QWORD PTR [rbp-0x30],xmm0
    7860:	movsd  xmm0,QWORD PTR [rip+0xb238]        # 12aa0 <pio2_3t+0x18>
    7868:	movsd  xmm1,QWORD PTR [rbp-0x28]
    786d:	mulsd  xmm0,xmm1
    7871:	movsd  QWORD PTR [rbp-0x40],xmm0
    7876:	movsd  xmm0,QWORD PTR [rbp-0x30]
    787b:	subsd  xmm0,QWORD PTR [rbp-0x40]
    7880:	movsd  QWORD PTR [rbp-0x38],xmm0
    7885:	movsd  xmm0,QWORD PTR [rip+0xb21b]        # 12aa8 <pio2_3t+0x20>
    788d:	mulsd  xmm0,QWORD PTR [rbp-0x28]
    7892:	movsd  xmm1,QWORD PTR [rbp-0x30]
    7897:	subsd  xmm1,QWORD PTR [rbp-0x38]
    789c:	subsd  xmm1,QWORD PTR [rbp-0x40]
    78a1:	subsd  xmm0,xmm1
    78a5:	movsd  QWORD PTR [rbp-0x40],xmm0
    78aa:	movsd  xmm0,QWORD PTR [rbp-0x38]
    78af:	subsd  xmm0,QWORD PTR [rbp-0x40]
    78b4:	mov    rax,QWORD PTR [rbp-0x80]
    78b8:	movsd  QWORD PTR [rax],xmm0
    78bc:	mov    rax,QWORD PTR [rbp-0x80]
    78c0:	add    rax,0x4
    78c4:	mov    eax,DWORD PTR [rax]
    78c6:	sar    eax,0x14
    78c9:	and    eax,0x7ff
    78ce:	mov    edx,eax
    78d0:	mov    eax,DWORD PTR [rbp-0x4c]
    78d3:	sub    eax,edx
    78d5:	mov    DWORD PTR [rbp-0x64],eax
    78d8:	cmp    DWORD PTR [rbp-0x64],0x31
    78dc:	jle    7944 <__ieee754_rem_pio2+0x3ff>
    78de:	movsd  xmm0,QWORD PTR [rbp-0x38]
    78e3:	movsd  QWORD PTR [rbp-0x30],xmm0
    78e8:	movsd  xmm0,QWORD PTR [rip+0xb1e0]        # 12ad0 <pio2_3t+0x48>
    78f0:	movsd  xmm1,QWORD PTR [rbp-0x28]
    78f5:	mulsd  xmm0,xmm1
    78f9:	movsd  QWORD PTR [rbp-0x40],xmm0
    78fe:	movsd  xmm0,QWORD PTR [rbp-0x30]
    7903:	subsd  xmm0,QWORD PTR [rbp-0x40]
    7908:	movsd  QWORD PTR [rbp-0x38],xmm0
    790d:	movsd  xmm0,QWORD PTR [rip+0xb1c3]        # 12ad8 <pio2_3t+0x50>
    7915:	mulsd  xmm0,QWORD PTR [rbp-0x28]
    791a:	movsd  xmm1,QWORD PTR [rbp-0x30]
    791f:	subsd  xmm1,QWORD PTR [rbp-0x38]
    7924:	subsd  xmm1,QWORD PTR [rbp-0x40]
    7929:	subsd  xmm0,xmm1
    792d:	movsd  QWORD PTR [rbp-0x40],xmm0
    7932:	movsd  xmm0,QWORD PTR [rbp-0x38]
    7937:	subsd  xmm0,QWORD PTR [rbp-0x40]
    793c:	mov    rax,QWORD PTR [rbp-0x80]
    7940:	movsd  QWORD PTR [rax],xmm0
    7944:	mov    rax,QWORD PTR [rbp-0x80]
    7948:	movsd  xmm1,QWORD PTR [rax]
    794c:	movsd  xmm0,QWORD PTR [rbp-0x38]
    7951:	subsd  xmm0,xmm1
    7955:	mov    rax,QWORD PTR [rbp-0x80]
    7959:	add    rax,0x8
    795d:	subsd  xmm0,QWORD PTR [rbp-0x40]
    7962:	movsd  QWORD PTR [rax],xmm0
    7966:	cmp    DWORD PTR [rbp-0x5c],0x0
    796a:	jns    79b6 <__ieee754_rem_pio2+0x471>
    796c:	mov    rax,QWORD PTR [rbp-0x80]
    7970:	movsd  xmm0,QWORD PTR [rax]
    7974:	movq   xmm1,QWORD PTR [rip+0xb164]        # 12ae0 <pio2_3t+0x58>
    797c:	xorpd  xmm0,xmm1
    7980:	mov    rax,QWORD PTR [rbp-0x80]
    7984:	movsd  QWORD PTR [rax],xmm0
    7988:	mov    rax,QWORD PTR [rbp-0x80]
    798c:	add    rax,0x8
    7990:	movsd  xmm0,QWORD PTR [rax]
    7994:	mov    rax,QWORD PTR [rbp-0x80]
    7998:	add    rax,0x8
    799c:	movq   xmm1,QWORD PTR [rip+0xb13c]        # 12ae0 <pio2_3t+0x58>
    79a4:	xorpd  xmm0,xmm1
    79a8:	movsd  QWORD PTR [rax],xmm0
    79ac:	mov    eax,DWORD PTR [rbp-0x50]
    79af:	neg    eax
    79b1:	jmp    7b27 <__ieee754_rem_pio2+0x5e2>
    79b6:	mov    eax,DWORD PTR [rbp-0x50]
    79b9:	jmp    7b27 <__ieee754_rem_pio2+0x5e2>
    79be:	cmp    DWORD PTR [rbp-0x58],0x7fefffff
    79c5:	jle    79f7 <__ieee754_rem_pio2+0x4b2>
    79c7:	movsd  xmm0,QWORD PTR [rbp-0x78]
    79cc:	movsd  xmm1,QWORD PTR [rbp-0x78]
    79d1:	mov    rax,QWORD PTR [rbp-0x80]
    79d5:	add    rax,0x8
    79d9:	subsd  xmm0,xmm1
    79dd:	movsd  QWORD PTR [rax],xmm0
    79e1:	movsd  xmm0,QWORD PTR [rax]
    79e5:	mov    rax,QWORD PTR [rbp-0x80]
    79e9:	movsd  QWORD PTR [rax],xmm0
    79ed:	mov    eax,0x0
    79f2:	jmp    7b27 <__ieee754_rem_pio2+0x5e2>
    79f7:	lea    rdx,[rbp-0x78]
    79fb:	lea    rax,[rbp-0x48]
    79ff:	mov    edx,DWORD PTR [rdx]
    7a01:	mov    DWORD PTR [rax],edx
    7a03:	mov    eax,DWORD PTR [rbp-0x58]
    7a06:	sar    eax,0x14
    7a09:	sub    eax,0x416
    7a0e:	mov    DWORD PTR [rbp-0x54],eax
    7a11:	mov    eax,DWORD PTR [rbp-0x54]
    7a14:	shl    eax,0x14
    7a17:	mov    ecx,eax
    7a19:	lea    rax,[rbp-0x48]
    7a1d:	add    rax,0x4
    7a21:	mov    edx,DWORD PTR [rbp-0x58]
    7a24:	sub    edx,ecx
    7a26:	mov    DWORD PTR [rax],edx
    7a28:	mov    DWORD PTR [rbp-0x64],0x0
    7a2f:	jmp    7a76 <__ieee754_rem_pio2+0x531>
    7a31:	movsd  xmm0,QWORD PTR [rbp-0x48]
    7a36:	cvttsd2si eax,xmm0
    7a3a:	cvtsi2sd xmm0,eax
    7a3e:	mov    eax,DWORD PTR [rbp-0x64]
    7a41:	cdqe   
    7a43:	movsd  QWORD PTR [rbp+rax*8-0x20],xmm0
    7a49:	movsd  xmm0,QWORD PTR [rbp-0x48]
    7a4e:	mov    eax,DWORD PTR [rbp-0x64]
    7a51:	cdqe   
    7a53:	movsd  xmm1,QWORD PTR [rbp+rax*8-0x20]
    7a59:	subsd  xmm0,xmm1
    7a5d:	movapd xmm1,xmm0
    7a61:	movsd  xmm0,QWORD PTR [rip+0xb087]        # 12af0 <pio2_3t+0x68>
    7a69:	mulsd  xmm0,xmm1
    7a6d:	movsd  QWORD PTR [rbp-0x48],xmm0
    7a72:	add    DWORD PTR [rbp-0x64],0x1
    7a76:	cmp    DWORD PTR [rbp-0x64],0x1
    7a7a:	jle    7a31 <__ieee754_rem_pio2+0x4ec>
    7a7c:	movsd  xmm0,QWORD PTR [rbp-0x48]
    7a81:	movsd  QWORD PTR [rbp-0x10],xmm0
    7a86:	mov    DWORD PTR [rbp-0x60],0x3
    7a8d:	jmp    7a93 <__ieee754_rem_pio2+0x54e>
    7a8f:	sub    DWORD PTR [rbp-0x60],0x1
    7a93:	mov    eax,DWORD PTR [rbp-0x60]
    7a96:	sub    eax,0x1
    7a99:	cdqe   
    7a9b:	movsd  xmm0,QWORD PTR [rbp+rax*8-0x20]
    7aa1:	pxor   xmm1,xmm1
    7aa5:	ucomisd xmm0,xmm1
    7aa9:	jp     7ab1 <__ieee754_rem_pio2+0x56c>
    7aab:	ucomisd xmm0,xmm1
    7aaf:	je     7a8f <__ieee754_rem_pio2+0x54a>
    7ab1:	mov    ecx,DWORD PTR [rbp-0x60]
    7ab4:	mov    edx,DWORD PTR [rbp-0x54]
    7ab7:	mov    rsi,QWORD PTR [rbp-0x80]
    7abb:	lea    rax,[rbp-0x20]
    7abf:	lea    r9,[rip+0xadda]        # 128a0 <two_over_pi>
    7ac6:	mov    r8d,0x2
    7acc:	mov    rdi,rax
    7acf:	call   85e1 <__kernel_rem_pio2>
    7ad4:	mov    DWORD PTR [rbp-0x50],eax
    7ad7:	cmp    DWORD PTR [rbp-0x5c],0x0
    7adb:	jns    7b24 <__ieee754_rem_pio2+0x5df>
    7add:	mov    rax,QWORD PTR [rbp-0x80]
    7ae1:	movsd  xmm0,QWORD PTR [rax]
    7ae5:	movq   xmm1,QWORD PTR [rip+0xaff3]        # 12ae0 <pio2_3t+0x58>
    7aed:	xorpd  xmm0,xmm1
    7af1:	mov    rax,QWORD PTR [rbp-0x80]
    7af5:	movsd  QWORD PTR [rax],xmm0
    7af9:	mov    rax,QWORD PTR [rbp-0x80]
    7afd:	add    rax,0x8
    7b01:	movsd  xmm0,QWORD PTR [rax]
    7b05:	mov    rax,QWORD PTR [rbp-0x80]
    7b09:	add    rax,0x8
    7b0d:	movq   xmm1,QWORD PTR [rip+0xafcb]        # 12ae0 <pio2_3t+0x58>
    7b15:	xorpd  xmm0,xmm1
    7b19:	movsd  QWORD PTR [rax],xmm0
    7b1d:	mov    eax,DWORD PTR [rbp-0x50]
    7b20:	neg    eax
    7b22:	jmp    7b27 <__ieee754_rem_pio2+0x5e2>
    7b24:	mov    eax,DWORD PTR [rbp-0x50]
    7b27:	mov    rdi,QWORD PTR [rbp-0x8]
    7b2b:	xor    rdi,QWORD PTR fs:0x28
    7b34:	je     7b3b <__ieee754_rem_pio2+0x5f6>
    7b36:	call   1130 <__stack_chk_fail@plt>
    7b3b:	leave  
    7b3c:	ret    

0000000000007b3d <__ieee754_remainder>:
    7b3d:	endbr64 
    7b41:	push   rbp
    7b42:	mov    rbp,rsp
    7b45:	sub    rsp,0x30
    7b49:	movsd  QWORD PTR [rbp-0x28],xmm0
    7b4e:	movsd  QWORD PTR [rbp-0x30],xmm1
    7b53:	mov    eax,DWORD PTR [rbp-0x24]
    7b56:	mov    DWORD PTR [rbp-0x1c],eax
    7b59:	lea    rax,[rbp-0x28]
    7b5d:	mov    eax,DWORD PTR [rax]
    7b5f:	mov    DWORD PTR [rbp-0x18],eax
    7b62:	mov    eax,DWORD PTR [rbp-0x2c]
    7b65:	mov    DWORD PTR [rbp-0x14],eax
    7b68:	lea    rax,[rbp-0x30]
    7b6c:	mov    eax,DWORD PTR [rax]
    7b6e:	mov    DWORD PTR [rbp-0x10],eax
    7b71:	mov    eax,DWORD PTR [rbp-0x1c]
    7b74:	and    eax,0x80000000
    7b79:	mov    DWORD PTR [rbp-0xc],eax
    7b7c:	and    DWORD PTR [rbp-0x14],0x7fffffff
    7b83:	and    DWORD PTR [rbp-0x1c],0x7fffffff
    7b8a:	mov    eax,DWORD PTR [rbp-0x14]
    7b8d:	or     eax,DWORD PTR [rbp-0x10]
    7b90:	test   eax,eax
    7b92:	jne    7bb9 <__ieee754_remainder+0x7c>
    7b94:	movsd  xmm1,QWORD PTR [rbp-0x28]
    7b99:	movsd  xmm0,QWORD PTR [rbp-0x30]
    7b9e:	mulsd  xmm0,xmm1
    7ba2:	movsd  xmm2,QWORD PTR [rbp-0x28]
    7ba7:	movsd  xmm1,QWORD PTR [rbp-0x30]
    7bac:	mulsd  xmm1,xmm2
    7bb0:	divsd  xmm0,xmm1
    7bb4:	jmp    7d4d <__ieee754_remainder+0x210>
    7bb9:	cmp    DWORD PTR [rbp-0x1c],0x7fefffff
    7bc0:	jg     7bda <__ieee754_remainder+0x9d>
    7bc2:	cmp    DWORD PTR [rbp-0x14],0x7fefffff
    7bc9:	jle    7bff <__ieee754_remainder+0xc2>
    7bcb:	mov    eax,DWORD PTR [rbp-0x14]
    7bce:	sub    eax,0x7ff00000
    7bd3:	or     eax,DWORD PTR [rbp-0x10]
    7bd6:	test   eax,eax
    7bd8:	je     7bff <__ieee754_remainder+0xc2>
    7bda:	movsd  xmm1,QWORD PTR [rbp-0x28]
    7bdf:	movsd  xmm0,QWORD PTR [rbp-0x30]
    7be4:	mulsd  xmm0,xmm1
    7be8:	movsd  xmm2,QWORD PTR [rbp-0x28]
    7bed:	movsd  xmm1,QWORD PTR [rbp-0x30]
    7bf2:	mulsd  xmm1,xmm2
    7bf6:	divsd  xmm0,xmm1
    7bfa:	jmp    7d4d <__ieee754_remainder+0x210>
    7bff:	cmp    DWORD PTR [rbp-0x14],0x7fdfffff
    7c06:	jg     7c2c <__ieee754_remainder+0xef>
    7c08:	movsd  xmm0,QWORD PTR [rbp-0x30]
    7c0d:	addsd  xmm0,xmm0
    7c11:	mov    rax,QWORD PTR [rbp-0x28]
    7c15:	movapd xmm1,xmm0
    7c19:	movq   xmm0,rax
    7c1e:	call   28aa <__ieee754_fmod>
    7c23:	movq   rax,xmm0
    7c28:	mov    QWORD PTR [rbp-0x28],rax
    7c2c:	mov    eax,DWORD PTR [rbp-0x1c]
    7c2f:	sub    eax,DWORD PTR [rbp-0x14]
    7c32:	mov    edx,eax
    7c34:	mov    eax,DWORD PTR [rbp-0x18]
    7c37:	sub    eax,DWORD PTR [rbp-0x10]
    7c3a:	or     eax,edx
    7c3c:	test   eax,eax
    7c3e:	jne    7c52 <__ieee754_remainder+0x115>
    7c40:	pxor   xmm1,xmm1
    7c44:	movsd  xmm0,QWORD PTR [rbp-0x28]
    7c49:	mulsd  xmm0,xmm1
    7c4d:	jmp    7d4d <__ieee754_remainder+0x210>
    7c52:	movsd  xmm0,QWORD PTR [rbp-0x28]
    7c57:	movq   xmm1,QWORD PTR [rip+0xaeb1]        # 12b10 <zero+0x10>
    7c5f:	andpd  xmm0,xmm1
    7c63:	movsd  QWORD PTR [rbp-0x28],xmm0
    7c68:	movsd  xmm0,QWORD PTR [rbp-0x30]
    7c6d:	movq   xmm1,QWORD PTR [rip+0xae9b]        # 12b10 <zero+0x10>
    7c75:	andpd  xmm0,xmm1
    7c79:	movsd  QWORD PTR [rbp-0x30],xmm0
    7c7e:	cmp    DWORD PTR [rbp-0x14],0x1fffff
    7c85:	jg     7cdb <__ieee754_remainder+0x19e>
    7c87:	movsd  xmm0,QWORD PTR [rbp-0x28]
    7c8c:	addsd  xmm0,xmm0
    7c90:	movsd  xmm1,QWORD PTR [rbp-0x30]
    7c95:	comisd xmm0,xmm1
    7c99:	jbe    7d2f <__ieee754_remainder+0x1f2>
    7c9f:	movsd  xmm0,QWORD PTR [rbp-0x28]
    7ca4:	movsd  xmm1,QWORD PTR [rbp-0x30]
    7ca9:	subsd  xmm0,xmm1
    7cad:	movsd  QWORD PTR [rbp-0x28],xmm0
    7cb2:	movsd  xmm0,QWORD PTR [rbp-0x28]
    7cb7:	addsd  xmm0,xmm0
    7cbb:	movsd  xmm1,QWORD PTR [rbp-0x30]
    7cc0:	comisd xmm0,xmm1
    7cc4:	jb     7d2f <__ieee754_remainder+0x1f2>
    7cc6:	movsd  xmm0,QWORD PTR [rbp-0x28]
    7ccb:	movsd  xmm1,QWORD PTR [rbp-0x30]
    7cd0:	subsd  xmm0,xmm1
    7cd4:	movsd  QWORD PTR [rbp-0x28],xmm0
    7cd9:	jmp    7d2f <__ieee754_remainder+0x1f2>
    7cdb:	movsd  xmm1,QWORD PTR [rbp-0x30]
    7ce0:	movsd  xmm0,QWORD PTR [rip+0xae38]        # 12b20 <zero+0x20>
    7ce8:	mulsd  xmm0,xmm1
    7cec:	movsd  QWORD PTR [rbp-0x8],xmm0
    7cf1:	movsd  xmm0,QWORD PTR [rbp-0x28]
    7cf6:	comisd xmm0,QWORD PTR [rbp-0x8]
    7cfb:	jbe    7d2f <__ieee754_remainder+0x1f2>
    7cfd:	movsd  xmm0,QWORD PTR [rbp-0x28]
    7d02:	movsd  xmm1,QWORD PTR [rbp-0x30]
    7d07:	subsd  xmm0,xmm1
    7d0b:	movsd  QWORD PTR [rbp-0x28],xmm0
    7d10:	movsd  xmm0,QWORD PTR [rbp-0x28]
    7d15:	comisd xmm0,QWORD PTR [rbp-0x8]
    7d1a:	jb     7d2f <__ieee754_remainder+0x1f2>
    7d1c:	movsd  xmm0,QWORD PTR [rbp-0x28]
    7d21:	movsd  xmm1,QWORD PTR [rbp-0x30]
    7d26:	subsd  xmm0,xmm1
    7d2a:	movsd  QWORD PTR [rbp-0x28],xmm0
    7d2f:	lea    rax,[rbp-0x28]
    7d33:	add    rax,0x4
    7d37:	mov    eax,DWORD PTR [rax]
    7d39:	xor    eax,DWORD PTR [rbp-0xc]
    7d3c:	mov    edx,eax
    7d3e:	lea    rax,[rbp-0x28]
    7d42:	add    rax,0x4
    7d46:	mov    DWORD PTR [rax],edx
    7d48:	movsd  xmm0,QWORD PTR [rbp-0x28]
    7d4d:	leave  
    7d4e:	ret    

0000000000007d4f <__ieee754_scalb>:
    7d4f:	endbr64 
    7d53:	push   rbp
    7d54:	mov    rbp,rsp
    7d57:	sub    rsp,0x10
    7d5b:	movsd  QWORD PTR [rbp-0x8],xmm0
    7d60:	movsd  QWORD PTR [rbp-0x10],xmm1
    7d65:	movsd  xmm0,QWORD PTR [rbp-0x8]
    7d6a:	ucomisd xmm0,QWORD PTR [rbp-0x8]
    7d6f:	jp     7d7d <__ieee754_scalb+0x2e>
    7d71:	movsd  xmm0,QWORD PTR [rbp-0x10]
    7d76:	ucomisd xmm0,QWORD PTR [rbp-0x10]
    7d7b:	jnp    7d8c <__ieee754_scalb+0x3d>
    7d7d:	movsd  xmm0,QWORD PTR [rbp-0x8]
    7d82:	mulsd  xmm0,QWORD PTR [rbp-0x10]
    7d87:	jmp    7e8c <__ieee754_scalb+0x13d>
    7d8c:	movsd  xmm0,QWORD PTR [rbp-0x10]
    7d91:	movq   xmm1,QWORD PTR [rip+0xad97]        # 12b30 <zero+0x30>
    7d99:	andpd  xmm1,xmm0
    7d9d:	movsd  xmm0,QWORD PTR [rip+0xad9b]        # 12b40 <zero+0x40>
    7da5:	ucomisd xmm0,xmm1
    7da9:	setb   al
    7dac:	xor    eax,0x1
    7daf:	movzx  eax,al
    7db2:	test   eax,eax
    7db4:	jne    7def <__ieee754_scalb+0xa0>
    7db6:	movsd  xmm0,QWORD PTR [rbp-0x10]
    7dbb:	pxor   xmm1,xmm1
    7dbf:	comisd xmm0,xmm1
    7dc3:	jbe    7dd4 <__ieee754_scalb+0x85>
    7dc5:	movsd  xmm0,QWORD PTR [rbp-0x8]
    7dca:	mulsd  xmm0,QWORD PTR [rbp-0x10]
    7dcf:	jmp    7e8c <__ieee754_scalb+0x13d>
    7dd4:	movsd  xmm0,QWORD PTR [rbp-0x8]
    7dd9:	movq   xmm1,QWORD PTR [rip+0xad6f]        # 12b50 <zero+0x50>
    7de1:	xorpd  xmm0,xmm1
    7de5:	divsd  xmm0,QWORD PTR [rbp-0x10]
    7dea:	jmp    7e8c <__ieee754_scalb+0x13d>
    7def:	mov    rax,QWORD PTR [rbp-0x10]
    7df3:	movq   xmm0,rax
    7df8:	call   e25b <rint>
    7dfd:	ucomisd xmm0,QWORD PTR [rbp-0x10]
    7e02:	jp     7e0b <__ieee754_scalb+0xbc>
    7e04:	ucomisd xmm0,QWORD PTR [rbp-0x10]
    7e09:	je     7e2b <__ieee754_scalb+0xdc>
    7e0b:	movsd  xmm0,QWORD PTR [rbp-0x10]
    7e10:	movapd xmm1,xmm0
    7e14:	subsd  xmm1,xmm0
    7e18:	movsd  xmm0,QWORD PTR [rbp-0x10]
    7e1d:	subsd  xmm0,xmm0
    7e21:	divsd  xmm1,xmm0
    7e25:	movapd xmm0,xmm1
    7e29:	jmp    7e8c <__ieee754_scalb+0x13d>
    7e2b:	movsd  xmm0,QWORD PTR [rbp-0x10]
    7e30:	comisd xmm0,QWORD PTR [rip+0xad28]        # 12b60 <zero+0x60>
    7e38:	jbe    7e4f <__ieee754_scalb+0x100>
    7e3a:	mov    rax,QWORD PTR [rbp-0x8]
    7e3e:	mov    edi,0xfde8
    7e43:	movq   xmm0,rax
    7e48:	call   e4e6 <scalbn>
    7e4d:	jmp    7e8c <__ieee754_scalb+0x13d>
    7e4f:	movsd  xmm0,QWORD PTR [rip+0xad11]        # 12b68 <zero+0x68>
    7e57:	comisd xmm0,QWORD PTR [rbp-0x10]
    7e5c:	jbe    7e73 <__ieee754_scalb+0x124>
    7e5e:	mov    rax,QWORD PTR [rbp-0x8]
    7e62:	mov    edi,0xffff0218
    7e67:	movq   xmm0,rax
    7e6c:	call   e4e6 <scalbn>
    7e71:	jmp    7e8c <__ieee754_scalb+0x13d>
    7e73:	movsd  xmm0,QWORD PTR [rbp-0x10]
    7e78:	cvttsd2si edx,xmm0
    7e7c:	mov    rax,QWORD PTR [rbp-0x8]
    7e80:	mov    edi,edx
    7e82:	movq   xmm0,rax
    7e87:	call   e4e6 <scalbn>
    7e8c:	leave  
    7e8d:	ret    

0000000000007e8e <__ieee754_sinh>:
    7e8e:	endbr64 
    7e92:	push   rbp
    7e93:	mov    rbp,rsp
    7e96:	sub    rsp,0x40
    7e9a:	movsd  QWORD PTR [rbp-0x38],xmm0
    7e9f:	mov    eax,DWORD PTR [rbp-0x34]
    7ea2:	mov    DWORD PTR [rbp-0x24],eax
    7ea5:	mov    eax,DWORD PTR [rbp-0x24]
    7ea8:	and    eax,0x7fffffff
    7ead:	mov    DWORD PTR [rbp-0x20],eax
    7eb0:	cmp    DWORD PTR [rbp-0x20],0x7fefffff
    7eb7:	jle    7ec7 <__ieee754_sinh+0x39>
    7eb9:	movsd  xmm0,QWORD PTR [rbp-0x38]
    7ebe:	addsd  xmm0,xmm0
    7ec2:	jmp    8076 <__ieee754_sinh+0x1e8>
    7ec7:	movsd  xmm0,QWORD PTR [rip+0xacb1]        # 12b80 <shuge+0x8>
    7ecf:	movsd  QWORD PTR [rbp-0x18],xmm0
    7ed4:	cmp    DWORD PTR [rbp-0x24],0x0
    7ed8:	jns    7ef0 <__ieee754_sinh+0x62>
    7eda:	movsd  xmm0,QWORD PTR [rbp-0x18]
    7edf:	movq   xmm1,QWORD PTR [rip+0xaca9]        # 12b90 <shuge+0x18>
    7ee7:	xorpd  xmm0,xmm1
    7eeb:	movsd  QWORD PTR [rbp-0x18],xmm0
    7ef0:	cmp    DWORD PTR [rbp-0x20],0x4035ffff
    7ef7:	jg     7fb9 <__ieee754_sinh+0x12b>
    7efd:	cmp    DWORD PTR [rbp-0x20],0x3e2fffff
    7f04:	jg     7f2f <__ieee754_sinh+0xa1>
    7f06:	movsd  xmm1,QWORD PTR [rip+0xac92]        # 12ba0 <shuge+0x28>
    7f0e:	movsd  xmm0,QWORD PTR [rbp-0x38]
    7f13:	addsd  xmm0,xmm1
    7f17:	movsd  xmm1,QWORD PTR [rip+0xac89]        # 12ba8 <shuge+0x30>
    7f1f:	comisd xmm0,xmm1
    7f23:	jbe    7f2f <__ieee754_sinh+0xa1>
    7f25:	movsd  xmm0,QWORD PTR [rbp-0x38]
    7f2a:	jmp    8076 <__ieee754_sinh+0x1e8>
    7f2f:	movsd  xmm0,QWORD PTR [rbp-0x38]
    7f34:	movq   xmm1,QWORD PTR [rip+0xac74]        # 12bb0 <shuge+0x38>
    7f3c:	andpd  xmm0,xmm1
    7f40:	call   ce43 <expm1>
    7f45:	movq   rax,xmm0
    7f4a:	mov    QWORD PTR [rbp-0x8],rax
    7f4e:	cmp    DWORD PTR [rbp-0x20],0x3fefffff
    7f55:	jg     7f90 <__ieee754_sinh+0x102>
    7f57:	movsd  xmm0,QWORD PTR [rbp-0x8]
    7f5c:	movapd xmm1,xmm0
    7f60:	addsd  xmm1,xmm0
    7f64:	movsd  xmm0,QWORD PTR [rbp-0x8]
    7f69:	mulsd  xmm0,xmm0
    7f6d:	movsd  xmm2,QWORD PTR [rip+0xac33]        # 12ba8 <shuge+0x30>
    7f75:	addsd  xmm2,QWORD PTR [rbp-0x8]
    7f7a:	divsd  xmm0,xmm2
    7f7e:	subsd  xmm1,xmm0
    7f82:	movapd xmm0,xmm1
    7f86:	mulsd  xmm0,QWORD PTR [rbp-0x18]
    7f8b:	jmp    8076 <__ieee754_sinh+0x1e8>
    7f90:	movsd  xmm0,QWORD PTR [rip+0xac10]        # 12ba8 <shuge+0x30>
    7f98:	movapd xmm1,xmm0
    7f9c:	addsd  xmm1,QWORD PTR [rbp-0x8]
    7fa1:	movsd  xmm0,QWORD PTR [rbp-0x8]
    7fa6:	divsd  xmm0,xmm1
    7faa:	addsd  xmm0,QWORD PTR [rbp-0x8]
    7faf:	mulsd  xmm0,QWORD PTR [rbp-0x18]
    7fb4:	jmp    8076 <__ieee754_sinh+0x1e8>
    7fb9:	cmp    DWORD PTR [rbp-0x20],0x40862e41
    7fc0:	jg     7fe2 <__ieee754_sinh+0x154>
    7fc2:	movsd  xmm0,QWORD PTR [rbp-0x38]
    7fc7:	movq   xmm1,QWORD PTR [rip+0xabe1]        # 12bb0 <shuge+0x38>
    7fcf:	andpd  xmm0,xmm1
