
hmmer:     file format elf64-x86-64


Disassembly of section .init:

0000000000003000 <_init>:
    3000:	endbr64 
    3004:	sub    rsp,0x8
    3008:	mov    rax,QWORD PTR [rip+0x49fd9]        # 4cfe8 <__gmon_start__>
    300f:	test   rax,rax
    3012:	je     3016 <_init+0x16>
    3014:	call   rax
    3016:	add    rsp,0x8
    301a:	ret    

Disassembly of section .plt:

0000000000003020 <.plt>:
    3020:	push   QWORD PTR [rip+0x49da2]        # 4cdc8 <_GLOBAL_OFFSET_TABLE_+0x8>
    3026:	bnd jmp QWORD PTR [rip+0x49da3]        # 4cdd0 <_GLOBAL_OFFSET_TABLE_+0x10>
    302d:	nop    DWORD PTR [rax]
    3030:	endbr64 
    3034:	push   0x0
    3039:	bnd jmp 3020 <.plt>
    303f:	nop
    3040:	endbr64 
    3044:	push   0x1
    3049:	bnd jmp 3020 <.plt>
    304f:	nop
    3050:	endbr64 
    3054:	push   0x2
    3059:	bnd jmp 3020 <.plt>
    305f:	nop
    3060:	endbr64 
    3064:	push   0x3
    3069:	bnd jmp 3020 <.plt>
    306f:	nop
    3070:	endbr64 
    3074:	push   0x4
    3079:	bnd jmp 3020 <.plt>
    307f:	nop
    3080:	endbr64 
    3084:	push   0x5
    3089:	bnd jmp 3020 <.plt>
    308f:	nop
    3090:	endbr64 
    3094:	push   0x6
    3099:	bnd jmp 3020 <.plt>
    309f:	nop
    30a0:	endbr64 
    30a4:	push   0x7
    30a9:	bnd jmp 3020 <.plt>
    30af:	nop
    30b0:	endbr64 
    30b4:	push   0x8
    30b9:	bnd jmp 3020 <.plt>
    30bf:	nop
    30c0:	endbr64 
    30c4:	push   0x9
    30c9:	bnd jmp 3020 <.plt>
    30cf:	nop
    30d0:	endbr64 
    30d4:	push   0xa
    30d9:	bnd jmp 3020 <.plt>
    30df:	nop
    30e0:	endbr64 
    30e4:	push   0xb
    30e9:	bnd jmp 3020 <.plt>
    30ef:	nop
    30f0:	endbr64 
    30f4:	push   0xc
    30f9:	bnd jmp 3020 <.plt>
    30ff:	nop
    3100:	endbr64 
    3104:	push   0xd
    3109:	bnd jmp 3020 <.plt>
    310f:	nop
    3110:	endbr64 
    3114:	push   0xe
    3119:	bnd jmp 3020 <.plt>
    311f:	nop
    3120:	endbr64 
    3124:	push   0xf
    3129:	bnd jmp 3020 <.plt>
    312f:	nop
    3130:	endbr64 
    3134:	push   0x10
    3139:	bnd jmp 3020 <.plt>
    313f:	nop
    3140:	endbr64 
    3144:	push   0x11
    3149:	bnd jmp 3020 <.plt>
    314f:	nop
    3150:	endbr64 
    3154:	push   0x12
    3159:	bnd jmp 3020 <.plt>
    315f:	nop
    3160:	endbr64 
    3164:	push   0x13
    3169:	bnd jmp 3020 <.plt>
    316f:	nop
    3170:	endbr64 
    3174:	push   0x14
    3179:	bnd jmp 3020 <.plt>
    317f:	nop
    3180:	endbr64 
    3184:	push   0x15
    3189:	bnd jmp 3020 <.plt>
    318f:	nop
    3190:	endbr64 
    3194:	push   0x16
    3199:	bnd jmp 3020 <.plt>
    319f:	nop
    31a0:	endbr64 
    31a4:	push   0x17
    31a9:	bnd jmp 3020 <.plt>
    31af:	nop
    31b0:	endbr64 
    31b4:	push   0x18
    31b9:	bnd jmp 3020 <.plt>
    31bf:	nop
    31c0:	endbr64 
    31c4:	push   0x19
    31c9:	bnd jmp 3020 <.plt>
    31cf:	nop
    31d0:	endbr64 
    31d4:	push   0x1a
    31d9:	bnd jmp 3020 <.plt>
    31df:	nop
    31e0:	endbr64 
    31e4:	push   0x1b
    31e9:	bnd jmp 3020 <.plt>
    31ef:	nop
    31f0:	endbr64 
    31f4:	push   0x1c
    31f9:	bnd jmp 3020 <.plt>
    31ff:	nop
    3200:	endbr64 
    3204:	push   0x1d
    3209:	bnd jmp 3020 <.plt>
    320f:	nop
    3210:	endbr64 
    3214:	push   0x1e
    3219:	bnd jmp 3020 <.plt>
    321f:	nop
    3220:	endbr64 
    3224:	push   0x1f
    3229:	bnd jmp 3020 <.plt>
    322f:	nop
    3230:	endbr64 
    3234:	push   0x20
    3239:	bnd jmp 3020 <.plt>
    323f:	nop
    3240:	endbr64 
    3244:	push   0x21
    3249:	bnd jmp 3020 <.plt>
    324f:	nop
    3250:	endbr64 
    3254:	push   0x22
    3259:	bnd jmp 3020 <.plt>
    325f:	nop
    3260:	endbr64 
    3264:	push   0x23
    3269:	bnd jmp 3020 <.plt>
    326f:	nop
    3270:	endbr64 
    3274:	push   0x24
    3279:	bnd jmp 3020 <.plt>
    327f:	nop
    3280:	endbr64 
    3284:	push   0x25
    3289:	bnd jmp 3020 <.plt>
    328f:	nop
    3290:	endbr64 
    3294:	push   0x26
    3299:	bnd jmp 3020 <.plt>
    329f:	nop
    32a0:	endbr64 
    32a4:	push   0x27
    32a9:	bnd jmp 3020 <.plt>
    32af:	nop
    32b0:	endbr64 
    32b4:	push   0x28
    32b9:	bnd jmp 3020 <.plt>
    32bf:	nop
    32c0:	endbr64 
    32c4:	push   0x29
    32c9:	bnd jmp 3020 <.plt>
    32cf:	nop
    32d0:	endbr64 
    32d4:	push   0x2a
    32d9:	bnd jmp 3020 <.plt>
    32df:	nop
    32e0:	endbr64 
    32e4:	push   0x2b
    32e9:	bnd jmp 3020 <.plt>
    32ef:	nop
    32f0:	endbr64 
    32f4:	push   0x2c
    32f9:	bnd jmp 3020 <.plt>
    32ff:	nop
    3300:	endbr64 
    3304:	push   0x2d
    3309:	bnd jmp 3020 <.plt>
    330f:	nop
    3310:	endbr64 
    3314:	push   0x2e
    3319:	bnd jmp 3020 <.plt>
    331f:	nop
    3320:	endbr64 
    3324:	push   0x2f
    3329:	bnd jmp 3020 <.plt>
    332f:	nop
    3330:	endbr64 
    3334:	push   0x30
    3339:	bnd jmp 3020 <.plt>
    333f:	nop
    3340:	endbr64 
    3344:	push   0x31
    3349:	bnd jmp 3020 <.plt>
    334f:	nop
    3350:	endbr64 
    3354:	push   0x32
    3359:	bnd jmp 3020 <.plt>
    335f:	nop
    3360:	endbr64 
    3364:	push   0x33
    3369:	bnd jmp 3020 <.plt>
    336f:	nop
    3370:	endbr64 
    3374:	push   0x34
    3379:	bnd jmp 3020 <.plt>
    337f:	nop
    3380:	endbr64 
    3384:	push   0x35
    3389:	bnd jmp 3020 <.plt>
    338f:	nop
    3390:	endbr64 
    3394:	push   0x36
    3399:	bnd jmp 3020 <.plt>
    339f:	nop
    33a0:	endbr64 
    33a4:	push   0x37
    33a9:	bnd jmp 3020 <.plt>
    33af:	nop
    33b0:	endbr64 
    33b4:	push   0x38
    33b9:	bnd jmp 3020 <.plt>
    33bf:	nop
    33c0:	endbr64 
    33c4:	push   0x39
    33c9:	bnd jmp 3020 <.plt>
    33cf:	nop
    33d0:	endbr64 
    33d4:	push   0x3a
    33d9:	bnd jmp 3020 <.plt>
    33df:	nop
    33e0:	endbr64 
    33e4:	push   0x3b
    33e9:	bnd jmp 3020 <.plt>
    33ef:	nop
    33f0:	endbr64 
    33f4:	push   0x3c
    33f9:	bnd jmp 3020 <.plt>
    33ff:	nop
    3400:	endbr64 
    3404:	push   0x3d
    3409:	bnd jmp 3020 <.plt>
    340f:	nop
    3410:	endbr64 
    3414:	push   0x3e
    3419:	bnd jmp 3020 <.plt>
    341f:	nop
    3420:	endbr64 
    3424:	push   0x3f
    3429:	bnd jmp 3020 <.plt>
    342f:	nop

Disassembly of section .plt.got:

0000000000003430 <__cxa_finalize@plt>:
    3430:	endbr64 
    3434:	bnd jmp QWORD PTR [rip+0x49bbd]        # 4cff8 <__cxa_finalize@GLIBC_2.2.5>
    343b:	nop    DWORD PTR [rax+rax*1+0x0]

Disassembly of section .plt.sec:

0000000000003440 <__ctype_toupper_loc@plt>:
    3440:	endbr64 
    3444:	bnd jmp QWORD PTR [rip+0x4998d]        # 4cdd8 <__ctype_toupper_loc@GLIBC_2.3>
    344b:	nop    DWORD PTR [rax+rax*1+0x0]

0000000000003450 <getenv@plt>:
    3450:	endbr64 
    3454:	bnd jmp QWORD PTR [rip+0x49985]        # 4cde0 <getenv@GLIBC_2.2.5>
    345b:	nop    DWORD PTR [rax+rax*1+0x0]

0000000000003460 <free@plt>:
    3460:	endbr64 
    3464:	bnd jmp QWORD PTR [rip+0x4997d]        # 4cde8 <free@GLIBC_2.2.5>
    346b:	nop    DWORD PTR [rax+rax*1+0x0]

0000000000003470 <putchar@plt>:
    3470:	endbr64 
    3474:	bnd jmp QWORD PTR [rip+0x49975]        # 4cdf0 <putchar@GLIBC_2.2.5>
    347b:	nop    DWORD PTR [rax+rax*1+0x0]

0000000000003480 <localtime@plt>:
    3480:	endbr64 
    3484:	bnd jmp QWORD PTR [rip+0x4996d]        # 4cdf8 <localtime@GLIBC_2.2.5>
    348b:	nop    DWORD PTR [rax+rax*1+0x0]

0000000000003490 <__vfprintf_chk@plt>:
    3490:	endbr64 
    3494:	bnd jmp QWORD PTR [rip+0x49965]        # 4ce00 <__vfprintf_chk@GLIBC_2.3.4>
    349b:	nop    DWORD PTR [rax+rax*1+0x0]

00000000000034a0 <abort@plt>:
    34a0:	endbr64 
    34a4:	bnd jmp QWORD PTR [rip+0x4995d]        # 4ce08 <abort@GLIBC_2.2.5>
    34ab:	nop    DWORD PTR [rax+rax*1+0x0]

00000000000034b0 <strncpy@plt>:
    34b0:	endbr64 
    34b4:	bnd jmp QWORD PTR [rip+0x49955]        # 4ce10 <strncpy@GLIBC_2.2.5>
    34bb:	nop    DWORD PTR [rax+rax*1+0x0]

00000000000034c0 <remove@plt>:
    34c0:	endbr64 
    34c4:	bnd jmp QWORD PTR [rip+0x4994d]        # 4ce18 <remove@GLIBC_2.2.5>
    34cb:	nop    DWORD PTR [rax+rax*1+0x0]

00000000000034d0 <strncmp@plt>:
    34d0:	endbr64 
    34d4:	bnd jmp QWORD PTR [rip+0x49945]        # 4ce20 <strncmp@GLIBC_2.2.5>
    34db:	nop    DWORD PTR [rax+rax*1+0x0]

00000000000034e0 <strcpy@plt>:
    34e0:	endbr64 
    34e4:	bnd jmp QWORD PTR [rip+0x4993d]        # 4ce28 <strcpy@GLIBC_2.2.5>
    34eb:	nop    DWORD PTR [rax+rax*1+0x0]

00000000000034f0 <puts@plt>:
    34f0:	endbr64 
    34f4:	bnd jmp QWORD PTR [rip+0x49935]        # 4ce30 <puts@GLIBC_2.2.5>
    34fb:	nop    DWORD PTR [rax+rax*1+0x0]

0000000000003500 <fread@plt>:
    3500:	endbr64 
    3504:	bnd jmp QWORD PTR [rip+0x4992d]        # 4ce38 <fread@GLIBC_2.2.5>
    350b:	nop    DWORD PTR [rax+rax*1+0x0]

0000000000003510 <strtod@plt>:
    3510:	endbr64 
    3514:	bnd jmp QWORD PTR [rip+0x49925]        # 4ce40 <strtod@GLIBC_2.2.5>
    351b:	nop    DWORD PTR [rax+rax*1+0x0]

0000000000003520 <pow@plt>:
    3520:	endbr64 
    3524:	bnd jmp QWORD PTR [rip+0x4991d]        # 4ce48 <pow@GLIBC_2.29>
    352b:	nop    DWORD PTR [rax+rax*1+0x0]

0000000000003530 <fclose@plt>:
    3530:	endbr64 
    3534:	bnd jmp QWORD PTR [rip+0x49915]        # 4ce50 <fclose@GLIBC_2.2.5>
    353b:	nop    DWORD PTR [rax+rax*1+0x0]

0000000000003540 <ctime@plt>:
    3540:	endbr64 
    3544:	bnd jmp QWORD PTR [rip+0x4990d]        # 4ce58 <ctime@GLIBC_2.2.5>
    354b:	nop    DWORD PTR [rax+rax*1+0x0]

0000000000003550 <stpcpy@plt>:
    3550:	endbr64 
    3554:	bnd jmp QWORD PTR [rip+0x49905]        # 4ce60 <stpcpy@GLIBC_2.2.5>
    355b:	nop    DWORD PTR [rax+rax*1+0x0]

0000000000003560 <strlen@plt>:
    3560:	endbr64 
    3564:	bnd jmp QWORD PTR [rip+0x498fd]        # 4ce68 <strlen@GLIBC_2.2.5>
    356b:	nop    DWORD PTR [rax+rax*1+0x0]

0000000000003570 <__stack_chk_fail@plt>:
    3570:	endbr64 
    3574:	bnd jmp QWORD PTR [rip+0x498f5]        # 4ce70 <__stack_chk_fail@GLIBC_2.4>
    357b:	nop    DWORD PTR [rax+rax*1+0x0]

0000000000003580 <system@plt>:
    3580:	endbr64 
    3584:	bnd jmp QWORD PTR [rip+0x498ed]        # 4ce78 <system@GLIBC_2.2.5>
    358b:	nop    DWORD PTR [rax+rax*1+0x0]

0000000000003590 <strchr@plt>:
    3590:	endbr64 
    3594:	bnd jmp QWORD PTR [rip+0x498e5]        # 4ce80 <strchr@GLIBC_2.2.5>
    359b:	nop    DWORD PTR [rax+rax*1+0x0]

00000000000035a0 <rewind@plt>:
    35a0:	endbr64 
    35a4:	bnd jmp QWORD PTR [rip+0x498dd]        # 4ce88 <rewind@GLIBC_2.2.5>
    35ab:	nop    DWORD PTR [rax+rax*1+0x0]

00000000000035b0 <strrchr@plt>:
    35b0:	endbr64 
    35b4:	bnd jmp QWORD PTR [rip+0x498d5]        # 4ce90 <strrchr@GLIBC_2.2.5>
    35bb:	nop    DWORD PTR [rax+rax*1+0x0]

00000000000035c0 <fputs@plt>:
    35c0:	endbr64 
    35c4:	bnd jmp QWORD PTR [rip+0x498cd]        # 4ce98 <fputs@GLIBC_2.2.5>
    35cb:	nop    DWORD PTR [rax+rax*1+0x0]

00000000000035d0 <memset@plt>:
    35d0:	endbr64 
    35d4:	bnd jmp QWORD PTR [rip+0x498c5]        # 4cea0 <memset@GLIBC_2.2.5>
    35db:	nop    DWORD PTR [rax+rax*1+0x0]

00000000000035e0 <log@plt>:
    35e0:	endbr64 
    35e4:	bnd jmp QWORD PTR [rip+0x498bd]        # 4cea8 <log@GLIBC_2.29>
    35eb:	nop    DWORD PTR [rax+rax*1+0x0]

00000000000035f0 <strspn@plt>:
    35f0:	endbr64 
    35f4:	bnd jmp QWORD PTR [rip+0x498b5]        # 4ceb0 <strspn@GLIBC_2.2.5>
    35fb:	nop    DWORD PTR [rax+rax*1+0x0]

0000000000003600 <fputc@plt>:
    3600:	endbr64 
    3604:	bnd jmp QWORD PTR [rip+0x498ad]        # 4ceb8 <fputc@GLIBC_2.2.5>
    360b:	nop    DWORD PTR [rax+rax*1+0x0]

0000000000003610 <strcspn@plt>:
    3610:	endbr64 
    3614:	bnd jmp QWORD PTR [rip+0x498a5]        # 4cec0 <strcspn@GLIBC_2.2.5>
    361b:	nop    DWORD PTR [rax+rax*1+0x0]

0000000000003620 <fgets@plt>:
    3620:	endbr64 
    3624:	bnd jmp QWORD PTR [rip+0x4989d]        # 4cec8 <fgets@GLIBC_2.2.5>
    362b:	nop    DWORD PTR [rax+rax*1+0x0]

0000000000003630 <calloc@plt>:
    3630:	endbr64 
    3634:	bnd jmp QWORD PTR [rip+0x49895]        # 4ced0 <calloc@GLIBC_2.2.5>
    363b:	nop    DWORD PTR [rax+rax*1+0x0]

0000000000003640 <strcmp@plt>:
    3640:	endbr64 
    3644:	bnd jmp QWORD PTR [rip+0x4988d]        # 4ced8 <strcmp@GLIBC_2.2.5>
    364b:	nop    DWORD PTR [rax+rax*1+0x0]

0000000000003650 <ftell@plt>:
    3650:	endbr64 
    3654:	bnd jmp QWORD PTR [rip+0x49885]        # 4cee0 <ftell@GLIBC_2.2.5>
    365b:	nop    DWORD PTR [rax+rax*1+0x0]

0000000000003660 <feof@plt>:
    3660:	endbr64 
    3664:	bnd jmp QWORD PTR [rip+0x4987d]        # 4cee8 <feof@GLIBC_2.2.5>
    366b:	nop    DWORD PTR [rax+rax*1+0x0]

0000000000003670 <strtol@plt>:
    3670:	endbr64 
    3674:	bnd jmp QWORD PTR [rip+0x49875]        # 4cef0 <strtol@GLIBC_2.2.5>
    367b:	nop    DWORD PTR [rax+rax*1+0x0]

0000000000003680 <memcpy@plt>:
    3680:	endbr64 
    3684:	bnd jmp QWORD PTR [rip+0x4986d]        # 4cef8 <memcpy@GLIBC_2.14>
    368b:	nop    DWORD PTR [rax+rax*1+0x0]

0000000000003690 <time@plt>:
    3690:	endbr64 
    3694:	bnd jmp QWORD PTR [rip+0x49865]        # 4cf00 <time@GLIBC_2.2.5>
    369b:	nop    DWORD PTR [rax+rax*1+0x0]

00000000000036a0 <sqrtf@plt>:
    36a0:	endbr64 
    36a4:	bnd jmp QWORD PTR [rip+0x4985d]        # 4cf08 <sqrtf@GLIBC_2.2.5>
    36ab:	nop    DWORD PTR [rax+rax*1+0x0]

00000000000036b0 <malloc@plt>:
    36b0:	endbr64 
    36b4:	bnd jmp QWORD PTR [rip+0x49855]        # 4cf10 <malloc@GLIBC_2.2.5>
    36bb:	nop    DWORD PTR [rax+rax*1+0x0]

00000000000036c0 <fflush@plt>:
    36c0:	endbr64 
    36c4:	bnd jmp QWORD PTR [rip+0x4984d]        # 4cf18 <fflush@GLIBC_2.2.5>
    36cb:	nop    DWORD PTR [rax+rax*1+0x0]

00000000000036d0 <strpbrk@plt>:
    36d0:	endbr64 
    36d4:	bnd jmp QWORD PTR [rip+0x49845]        # 4cf20 <strpbrk@GLIBC_2.2.5>
    36db:	nop    DWORD PTR [rax+rax*1+0x0]

00000000000036e0 <fseek@plt>:
    36e0:	endbr64 
    36e4:	bnd jmp QWORD PTR [rip+0x4983d]        # 4cf28 <fseek@GLIBC_2.2.5>
    36eb:	nop    DWORD PTR [rax+rax*1+0x0]

00000000000036f0 <realloc@plt>:
    36f0:	endbr64 
    36f4:	bnd jmp QWORD PTR [rip+0x49835]        # 4cf30 <realloc@GLIBC_2.2.5>
    36fb:	nop    DWORD PTR [rax+rax*1+0x0]

0000000000003700 <__strcpy_chk@plt>:
    3700:	endbr64 
    3704:	bnd jmp QWORD PTR [rip+0x4982d]        # 4cf38 <__strcpy_chk@GLIBC_2.3.4>
    370b:	nop    DWORD PTR [rax+rax*1+0x0]

0000000000003710 <__printf_chk@plt>:
    3710:	endbr64 
    3714:	bnd jmp QWORD PTR [rip+0x49825]        # 4cf40 <__printf_chk@GLIBC_2.3.4>
    371b:	nop    DWORD PTR [rax+rax*1+0x0]

0000000000003720 <__fread_chk@plt>:
    3720:	endbr64 
    3724:	bnd jmp QWORD PTR [rip+0x4981d]        # 4cf48 <__fread_chk@GLIBC_2.7>
    372b:	nop    DWORD PTR [rax+rax*1+0x0]

0000000000003730 <strftime@plt>:
    3730:	endbr64 
    3734:	bnd jmp QWORD PTR [rip+0x49815]        # 4cf50 <strftime@GLIBC_2.2.5>
    373b:	nop    DWORD PTR [rax+rax*1+0x0]

0000000000003740 <memmove@plt>:
    3740:	endbr64 
    3744:	bnd jmp QWORD PTR [rip+0x4980d]        # 4cf58 <memmove@GLIBC_2.2.5>
    374b:	nop    DWORD PTR [rax+rax*1+0x0]

0000000000003750 <fopen@plt>:
    3750:	endbr64 
    3754:	bnd jmp QWORD PTR [rip+0x49805]        # 4cf60 <fopen@GLIBC_2.2.5>
    375b:	nop    DWORD PTR [rax+rax*1+0x0]

0000000000003760 <perror@plt>:
    3760:	endbr64 
    3764:	bnd jmp QWORD PTR [rip+0x497fd]        # 4cf68 <perror@GLIBC_2.2.5>
    376b:	nop    DWORD PTR [rax+rax*1+0x0]

0000000000003770 <strtok@plt>:
    3770:	endbr64 
    3774:	bnd jmp QWORD PTR [rip+0x497f5]        # 4cf70 <strtok@GLIBC_2.2.5>
    377b:	nop    DWORD PTR [rax+rax*1+0x0]

0000000000003780 <strtoul@plt>:
    3780:	endbr64 
    3784:	bnd jmp QWORD PTR [rip+0x497ed]        # 4cf78 <strtoul@GLIBC_2.2.5>
    378b:	nop    DWORD PTR [rax+rax*1+0x0]

0000000000003790 <strcat@plt>:
    3790:	endbr64 
    3794:	bnd jmp QWORD PTR [rip+0x497e5]        # 4cf80 <strcat@GLIBC_2.2.5>
    379b:	nop    DWORD PTR [rax+rax*1+0x0]

00000000000037a0 <exit@plt>:
    37a0:	endbr64 
    37a4:	bnd jmp QWORD PTR [rip+0x497dd]        # 4cf88 <exit@GLIBC_2.2.5>
    37ab:	nop    DWORD PTR [rax+rax*1+0x0]

00000000000037b0 <fwrite@plt>:
    37b0:	endbr64 
    37b4:	bnd jmp QWORD PTR [rip+0x497d5]        # 4cf90 <fwrite@GLIBC_2.2.5>
    37bb:	nop    DWORD PTR [rax+rax*1+0x0]

00000000000037c0 <__fprintf_chk@plt>:
    37c0:	endbr64 
    37c4:	bnd jmp QWORD PTR [rip+0x497cd]        # 4cf98 <__fprintf_chk@GLIBC_2.3.4>
    37cb:	nop    DWORD PTR [rax+rax*1+0x0]

00000000000037d0 <__strncat_chk@plt>:
    37d0:	endbr64 
    37d4:	bnd jmp QWORD PTR [rip+0x497c5]        # 4cfa0 <__strncat_chk@GLIBC_2.3.4>
    37db:	nop    DWORD PTR [rax+rax*1+0x0]

00000000000037e0 <sqrt@plt>:
    37e0:	endbr64 
    37e4:	bnd jmp QWORD PTR [rip+0x497bd]        # 4cfa8 <sqrt@GLIBC_2.2.5>
    37eb:	nop    DWORD PTR [rax+rax*1+0x0]

00000000000037f0 <strstr@plt>:
    37f0:	endbr64 
    37f4:	bnd jmp QWORD PTR [rip+0x497b5]        # 4cfb0 <strstr@GLIBC_2.2.5>
    37fb:	nop    DWORD PTR [rax+rax*1+0x0]

0000000000003800 <exp@plt>:
    3800:	endbr64 
    3804:	bnd jmp QWORD PTR [rip+0x497ad]        # 4cfb8 <exp@GLIBC_2.29>
    380b:	nop    DWORD PTR [rax+rax*1+0x0]

0000000000003810 <__ctype_tolower_loc@plt>:
    3810:	endbr64 
    3814:	bnd jmp QWORD PTR [rip+0x497a5]        # 4cfc0 <__ctype_tolower_loc@GLIBC_2.3>
    381b:	nop    DWORD PTR [rax+rax*1+0x0]

0000000000003820 <__ctype_b_loc@plt>:
    3820:	endbr64 
    3824:	bnd jmp QWORD PTR [rip+0x4979d]        # 4cfc8 <__ctype_b_loc@GLIBC_2.3>
    382b:	nop    DWORD PTR [rax+rax*1+0x0]

0000000000003830 <__sprintf_chk@plt>:
    3830:	endbr64 
    3834:	bnd jmp QWORD PTR [rip+0x49795]        # 4cfd0 <__sprintf_chk@GLIBC_2.3.4>
    383b:	nop    DWORD PTR [rax+rax*1+0x0]

Disassembly of section .text:

0000000000003840 <sqd_regcomp.cold>:
    3840:	movzx  eax,BYTE PTR ds:0x0
    3848:	ud2    

000000000000384a <regmatch.cold>:
    384a:	movzx  eax,BYTE PTR ds:0x0
    3852:	ud2    

0000000000003854 <write_offset.cold>:
    3854:	call   34a0 <abort@plt>

0000000000003859 <SSIGetFilePosition.cold>:
    3859:	call   34a0 <abort@plt>

000000000000385e <SSIAddPrimaryKeyToIndex.cold>:
    385e:	call   34a0 <abort@plt>
    3863:	nop    WORD PTR cs:[rax+rax*1+0x0]
    386d:	nop    DWORD PTR [rax]

0000000000003870 <main>:
    3870:	endbr64 
    3874:	push   r15
    3876:	push   r14
    3878:	push   r13
    387a:	push   r12
    387c:	push   rbp
    387d:	mov    rbp,rsi
    3880:	push   rbx
    3881:	sub    rsp,0x288
    3888:	mov    rax,QWORD PTR fs:0x28
    3891:	mov    QWORD PTR [rsp+0x278],rax
    3899:	xor    eax,eax
    389b:	cmp    edi,0x3
    389e:	jne    4335 <main+0xac5>
    38a4:	mov    rax,QWORD PTR [rip+0x3b3f5]        # 3eca0 <_IO_stdin_used+0x1ca0>
    38ab:	movss  xmm0,DWORD PTR [rip+0x3ae59]        # 3e70c <_IO_stdin_used+0x170c>
    38b3:	mov    QWORD PTR [rsp+0x100],0x0
    38bf:	xor    r15d,r15d
    38c2:	mov    DWORD PTR [rsp+0x10],0x0
    38ca:	lea    r14,[rsp+0xa4]
    38d2:	lea    r13,[rsp+0xc8]
    38da:	mov    QWORD PTR [rsp+0xe8],rax
    38e2:	mov    rax,QWORD PTR [rip+0x3b3bf]        # 3eca8 <_IO_stdin_used+0x1ca8>
    38e9:	lea    rbx,[rsp+0xc0]
    38f1:	mov    DWORD PTR [rsp+0x40],0x0
    38f9:	mov    QWORD PTR [rsp+0xf8],rax
    3901:	mov    DWORD PTR [rsp+0x4],0x0
    3909:	mov    DWORD PTR [rsp+0x18],0x0
    3911:	mov    DWORD PTR [rsp+0x8],0x0
    3919:	mov    DWORD PTR [rsp+0x48],0x1
    3921:	mov    DWORD PTR [rsp],0x7fffffff
    3928:	movss  DWORD PTR [rsp+0xe0],xmm0
    3931:	movss  DWORD PTR [rsp+0xf0],xmm0
    393a:	nop    WORD PTR [rax+rax*1+0x0]
    3940:	push   r13
    3942:	mov    ecx,0x11
    3947:	mov    r9,r14
    394a:	mov    rsi,rbp
    394d:	push   rbx
    394e:	lea    rdx,[rip+0x49eeb]        # 4d840 <OPTIONS>
    3955:	mov    edi,0x3
    395a:	lea    r8,[rip+0x49d1f]        # 4d680 <usage>
    3961:	call   278d0 <Getopt>
    3966:	pop    rdx
    3967:	pop    rcx
    3968:	test   eax,eax
    396a:	je     3af8 <main+0x288>
    3970:	mov    r12,QWORD PTR [rsp+0xc0]
    3978:	movzx  eax,BYTE PTR [r12]
    397d:	cmp    eax,0x2d
    3980:	je     39f0 <main+0x180>
    3982:	mov    ecx,0x9
    3987:	mov    rsi,r12
    398a:	lea    rdi,[rip+0x3ad8a]        # 3e71b <_IO_stdin_used+0x171b>
    3991:	repz cmps BYTE PTR ds:[rsi],BYTE PTR es:[rdi]
    3993:	seta   al
    3996:	sbb    al,0x0
    3998:	test   al,al
    399a:	je     3ae8 <main+0x278>
    39a0:	mov    ecx,0x6
    39a5:	mov    rsi,r12
    39a8:	lea    rdi,[rip+0x3a924]        # 3e2d3 <_IO_stdin_used+0x12d3>
    39af:	repz cmps BYTE PTR ds:[rsi],BYTE PTR es:[rdi]
    39b1:	seta   al
    39b4:	sbb    al,0x0
    39b6:	test   al,al
    39b8:	je     4286 <main+0xa16>
    39be:	mov    ecx,0x9
    39c3:	mov    rsi,r12
    39c6:	lea    rdi,[rip+0x3ad57]        # 3e724 <_IO_stdin_used+0x1724>
    39cd:	repz cmps BYTE PTR ds:[rsi],BYTE PTR es:[rdi]
    39cf:	seta   al
    39d2:	sbb    al,0x0
    39d4:	test   al,al
    39d6:	jne    3f60 <main+0x6f0>
    39dc:	mov    DWORD PTR [rsp+0x100],0x1
    39e7:	jmp    3940 <main+0xd0>
    39ec:	nop    DWORD PTR [rax+0x0]
    39f0:	cmp    BYTE PTR [r12+0x1],0x41
    39f6:	je     3a60 <main+0x1f0>
    39f8:	cmp    eax,0x2d
    39fb:	jne    3982 <main+0x112>
    39fd:	cmp    BYTE PTR [r12+0x1],0x45
    3a03:	je     3a88 <main+0x218>
    3a09:	cmp    eax,0x2d
    3a0c:	jne    3982 <main+0x112>
    3a12:	cmp    BYTE PTR [r12+0x1],0x54
    3a18:	je     3ab8 <main+0x248>
    3a1e:	cmp    eax,0x2d
    3a21:	jne    3982 <main+0x112>
    3a27:	cmp    BYTE PTR [r12+0x1],0x5a
    3a2d:	jne    3982 <main+0x112>
    3a33:	cmp    BYTE PTR [r12+0x2],0x0
    3a39:	jne    3982 <main+0x112>
    3a3f:	mov    rdi,QWORD PTR [rsp+0xc8]
    3a47:	mov    edx,0xa
    3a4c:	xor    esi,esi
    3a4e:	call   3670 <strtol@plt>
    3a53:	mov    DWORD PTR [rsp+0x104],eax
    3a5a:	jmp    3940 <main+0xd0>
    3a5f:	nop
    3a60:	cmp    BYTE PTR [r12+0x2],0x0
    3a66:	jne    39f8 <main+0x188>
    3a68:	mov    rdi,QWORD PTR [rsp+0xc8]
    3a70:	mov    edx,0xa
    3a75:	xor    esi,esi
    3a77:	call   3670 <strtol@plt>
    3a7c:	mov    DWORD PTR [rsp],eax
    3a7f:	jmp    3940 <main+0xd0>
    3a84:	nop    DWORD PTR [rax+0x0]
    3a88:	cmp    BYTE PTR [r12+0x2],0x0
    3a8e:	jne    3a09 <main+0x199>
    3a94:	mov    rdi,QWORD PTR [rsp+0xc8]
    3a9c:	xor    esi,esi
    3a9e:	call   3510 <strtod@plt>
    3aa3:	movsd  QWORD PTR [rsp+0xe8],xmm0
    3aac:	jmp    3940 <main+0xd0>
    3ab1:	nop    DWORD PTR [rax+0x0]
    3ab8:	cmp    BYTE PTR [r12+0x2],0x0
    3abe:	jne    3a1e <main+0x1ae>
    3ac4:	mov    rdi,QWORD PTR [rsp+0xc8]
    3acc:	xor    esi,esi
    3ace:	call   3510 <strtod@plt>
    3ad3:	cvtsd2ss xmm0,xmm0
    3ad7:	movss  DWORD PTR [rsp+0xe0],xmm0
    3ae0:	jmp    3940 <main+0xd0>
    3ae5:	nop    DWORD PTR [rax]
    3ae8:	mov    DWORD PTR [rsp+0x40],0x1
    3af0:	jmp    3940 <main+0xd0>
    3af5:	nop    DWORD PTR [rax]
    3af8:	cmp    DWORD PTR [rsp+0xa4],0x1
    3b00:	mov    r12d,eax
    3b03:	jne    3fe9 <main+0x779>
    3b09:	movsxd rdx,DWORD PTR [rsp+0xa4]
    3b11:	mov    rax,rdx
    3b14:	mov    r14,QWORD PTR [rbp+rdx*8+0x0]
    3b19:	mov    r13,QWORD PTR [rbp+rdx*8+0x8]
    3b1e:	add    eax,0x2
    3b21:	mov    DWORD PTR [rsp+0xa4],eax
    3b28:	mov    eax,DWORD PTR [rsp+0x4]
    3b2c:	test   eax,eax
    3b2e:	jne    4001 <main+0x791>
    3b34:	mov    eax,DWORD PTR [rsp+0x10]
    3b38:	test   eax,eax
    3b3a:	jne    403b <main+0x7cb>
    3b40:	test   r15d,r15d
    3b43:	je     4014 <main+0x7a4>
    3b49:	lea    rdx,[rip+0x3ac29]        # 3e779 <_IO_stdin_used+0x1779>
    3b50:	mov    esi,r15d
    3b53:	mov    rdi,r13
    3b56:	call   34320 <SeqfileOpen>
    3b5b:	mov    rbp,rax
    3b5e:	test   rax,rax
    3b61:	je     46d2 <main+0xe62>
    3b67:	lea    rsi,[rip+0x3ac13]        # 3e781 <_IO_stdin_used+0x1781>
    3b6e:	mov    rdi,r14
    3b71:	call   15570 <HMMFileOpen>
    3b76:	mov    QWORD PTR [rsp+0x68],rax
    3b7b:	test   rax,rax
    3b7e:	je     46a1 <main+0xe31>
    3b84:	mov    rdi,QWORD PTR [rsp+0x68]
    3b89:	lea    rsi,[rsp+0xa8]
    3b91:	call   154e0 <HMMFileRead>
    3b96:	test   eax,eax
    3b98:	je     404e <main+0x7de>
    3b9e:	cmp    QWORD PTR [rsp+0xa8],0x0
    3ba7:	je     46bc <main+0xe4c>
    3bad:	mov    esi,DWORD PTR [rsp+0x8]
    3bb1:	mov    rdi,QWORD PTR [rsp+0xa8]
    3bb9:	xor    esi,0x1
    3bbc:	call   1ca40 <P7Logoddsify>
    3bc1:	mov    r15d,DWORD PTR [rsp+0x18]
    3bc6:	test   r15d,r15d
    3bc9:	je     3bd8 <main+0x368>
    3bcb:	cmp    DWORD PTR [rip+0x5e4ae],0x2        # 62080 <Alphabet_type>
    3bd2:	je     468e <main+0xe1e>
    3bd8:	lea    rax,[rsp+0xe0]
    3be0:	mov    rsi,QWORD PTR [rsp+0xa8]
    3be8:	mov    rdi,rax
    3beb:	mov    QWORD PTR [rsp+0x50],rax
    3bf0:	call   18960 <SetAutocuts>
    3bf5:	test   eax,eax
    3bf7:	je     4062 <main+0x7f2>
    3bfd:	mov    rdi,QWORD PTR [rip+0x4a6fc]        # 4e300 <stdout@@GLIBC_2.2.5>
    3c04:	lea    rsi,[rip+0x49bf5]        # 4d800 <banner>
    3c0b:	call   18700 <HMMERBanner>
    3c10:	mov    rax,QWORD PTR [rsp+0xa8]
    3c18:	mov    rdx,r14
    3c1b:	lea    rsi,[rip+0x3ae9e]        # 3eac0 <_IO_stdin_used+0x1ac0>
    3c22:	mov    edi,0x1
    3c27:	mov    rcx,QWORD PTR [rax]
    3c2a:	xor    eax,eax
    3c2c:	call   3710 <__printf_chk@plt>
    3c31:	mov    rdx,r13
    3c34:	mov    edi,0x1
    3c39:	xor    eax,eax
    3c3b:	lea    rsi,[rip+0x3aea6]        # 3eae8 <_IO_stdin_used+0x1ae8>
    3c42:	call   3710 <__printf_chk@plt>
    3c47:	mov    ebx,DWORD PTR [rsp+0x4]
    3c4b:	test   ebx,ebx
    3c4d:	jne    4080 <main+0x810>
    3c53:	xor    eax,eax
    3c55:	lea    rsi,[rip+0x3ab4b]        # 3e7a7 <_IO_stdin_used+0x17a7>
    3c5c:	mov    edi,0x1
    3c61:	call   3710 <__printf_chk@plt>
    3c66:	movss  xmm0,DWORD PTR [rsp+0xe0]
    3c6f:	ucomiss xmm0,DWORD PTR [rip+0x3aa96]        # 3e70c <_IO_stdin_used+0x170c>
    3c76:	jp     3f9e <main+0x72e>
    3c7c:	jne    3f9e <main+0x72e>
    3c82:	lea    rdi,[rip+0x3aa8b]        # 3e714 <_IO_stdin_used+0x1714>
    3c89:	call   34f0 <puts@plt>
    3c8e:	xor    eax,eax
    3c90:	lea    rsi,[rip+0x3ab4a]        # 3e7e1 <_IO_stdin_used+0x17e1>
    3c97:	mov    edi,0x1
    3c9c:	call   3710 <__printf_chk@plt>
    3ca1:	movss  xmm0,DWORD PTR [rsp+0xf0]
    3caa:	ucomiss xmm0,DWORD PTR [rip+0x3aa5b]        # 3e70c <_IO_stdin_used+0x170c>
    3cb1:	jp     42a3 <main+0xa33>
    3cb7:	jne    42a3 <main+0xa33>
    3cbd:	lea    rdi,[rip+0x3aa50]        # 3e714 <_IO_stdin_used+0x1714>
    3cc4:	call   34f0 <puts@plt>
    3cc9:	xor    eax,eax
    3ccb:	lea    rsi,[rip+0x3ab41]        # 3e813 <_IO_stdin_used+0x1813>
    3cd2:	mov    edi,0x1
    3cd7:	call   3710 <__printf_chk@plt>
    3cdc:	movsd  xmm0,QWORD PTR [rsp+0xe8]
    3ce5:	ucomisd xmm0,QWORD PTR [rip+0x3afbb]        # 3eca8 <_IO_stdin_used+0x1ca8>
    3ced:	jp     4309 <main+0xa99>
    3cf3:	jne    4309 <main+0xa99>
    3cf9:	lea    rdi,[rip+0x3aa14]        # 3e714 <_IO_stdin_used+0x1714>
    3d00:	call   34f0 <puts@plt>
    3d05:	xor    eax,eax
    3d07:	lea    rsi,[rip+0x3ab2e]        # 3e83c <_IO_stdin_used+0x183c>
    3d0e:	mov    edi,0x1
    3d13:	call   3710 <__printf_chk@plt>
    3d18:	movsd  xmm0,QWORD PTR [rsp+0xf8]
    3d21:	ucomisd xmm0,QWORD PTR [rip+0x3af7f]        # 3eca8 <_IO_stdin_used+0x1ca8>
    3d29:	jp     42ee <main+0xa7e>
    3d2f:	jne    42ee <main+0xa7e>
    3d35:	lea    rdi,[rip+0x3a9d8]        # 3e714 <_IO_stdin_used+0x1714>
    3d3c:	call   34f0 <puts@plt>
    3d41:	lea    rdi,[rip+0x3ade8]        # 3eb30 <_IO_stdin_used+0x1b30>
    3d48:	lea    r14,[rsp+0x110]
    3d50:	call   34f0 <puts@plt>
    3d55:	mov    edx,0x64
    3d5a:	mov    esi,0xc8
    3d5f:	mov    edi,0xffffff38
    3d64:	call   f1b0 <AllocHistogram>
    3d69:	mov    edi,0xc8
    3d6e:	lea    r15,[rsp+0xd8]
    3d76:	mov    QWORD PTR [rsp+0x10],rax
    3d7b:	call   20100 <AllocTophits>
    3d80:	mov    edi,0xc8
    3d85:	mov    QWORD PTR [rsp+0x38],rax
    3d8a:	call   20100 <AllocTophits>
    3d8f:	mov    rbx,QWORD PTR [rsp+0xa8]
    3d97:	xor    ecx,ecx
    3d99:	mov    edx,0x19
    3d9e:	mov    edi,0x1
    3da3:	mov    QWORD PTR [rsp+0x30],rax
    3da8:	mov    esi,DWORD PTR [rbx+0x88]
    3dae:	call   5350 <CreatePlan7Matrix>
    3db3:	mov    QWORD PTR [rsp+0x20],rax
    3db8:	lea    rax,[rsp+0xd0]
    3dc0:	mov    QWORD PTR [rsp+0x28],rax
    3dc5:	nop    DWORD PTR [rax]
    3dc8:	mov    esi,DWORD PTR [rbp+0x90]
    3dce:	mov    rcx,r14
    3dd1:	mov    rdx,r15
    3dd4:	mov    rdi,rbp
    3dd7:	call   327a0 <ReadSeq>
    3ddc:	test   eax,eax
    3dde:	je     4118 <main+0x8a8>
    3de4:	mov    esi,DWORD PTR [rsp+0x254]
    3deb:	test   esi,esi
    3ded:	je     3dc8 <main+0x558>
    3def:	mov    rdi,QWORD PTR [rsp+0xd8]
    3df7:	add    r12d,0x1
    3dfb:	call   4f00 <DigitizeSequence>
    3e00:	mov    r11d,DWORD PTR [rsp+0x18]
    3e05:	mov    edi,DWORD PTR [rsp+0x254]
    3e0c:	mov    r13,rax
    3e0f:	test   r11d,r11d
    3e12:	je     3e21 <main+0x5b1>
    3e14:	cmp    DWORD PTR [rip+0x5e265],0x3        # 62080 <Alphabet_type>
    3e1b:	je     4342 <main+0xad2>
    3e21:	mov    esi,DWORD PTR [rbx+0x88]
    3e27:	call   5b10 <P7ViterbiSize>
    3e2c:	mov    r8,QWORD PTR [rsp+0x28]
    3e31:	mov    rdx,rbx
    3e34:	mov    rdi,r13
    3e37:	mov    rcx,QWORD PTR [rsp+0x20]
    3e3c:	mov    esi,DWORD PTR [rsp+0x254]
    3e43:	cmp    eax,0x3e8
    3e48:	jg     4098 <main+0x828>
    3e4e:	call   ec90 <P7Viterbi>
    3e53:	mov    r10d,DWORD PTR [rsp+0x8]
    3e58:	movaps xmm1,xmm0
    3e5b:	test   r10d,r10d
    3e5e:	jne    40ae <main+0x83e>
    3e64:	movaps xmm0,xmm1
    3e67:	mov    rdi,rbx
    3e6a:	movss  DWORD PTR [rsp+0x4],xmm1
    3e70:	call   17840 <PValue>
    3e75:	mov    eax,DWORD PTR [rsp+0x104]
    3e7c:	movss  xmm1,DWORD PTR [rsp+0x4]
    3e82:	test   eax,eax
    3e84:	je     4100 <main+0x890>
    3e8a:	pxor   xmm2,xmm2
    3e8e:	cvtsi2sd xmm2,eax
    3e92:	mulsd  xmm0,xmm2
    3e96:	comiss xmm1,DWORD PTR [rsp+0xe0]
    3e9e:	jb     3f29 <main+0x6b9>
    3ea4:	movsd  xmm2,QWORD PTR [rsp+0xe8]
    3ead:	comisd xmm2,xmm0
    3eb1:	jb     3f29 <main+0x6b9>
    3eb3:	mov    esi,DWORD PTR [rsp+0x110]
    3eba:	xor    ecx,ecx
    3ebc:	movaps xmm0,xmm1
    3ebf:	mov    r8,r13
    3ec2:	lea    rdx,[rsp+0x1d4]
    3eca:	lea    rax,[rsp+0x194]
    3ed2:	test   sil,0x8
    3ed6:	cmove  rdx,rcx
    3eda:	and    esi,0x4
    3edd:	cmove  rax,rcx
    3ee1:	sub    rsp,0x8
    3ee5:	push   0x0
    3ee7:	push   QWORD PTR [rsp+0x60]
    3eeb:	mov    ecx,DWORD PTR [rsp+0x60]
    3eef:	push   rcx
    3ef0:	mov    ecx,DWORD PTR [rsp+0x28]
    3ef4:	push   rcx
    3ef5:	mov    rcx,rbx
    3ef8:	push   rdx
    3ef9:	push   rax
    3efa:	lea    rax,[rsp+0x14c]
    3f02:	push   rax
    3f03:	mov    r9d,DWORD PTR [rsp+0x294]
    3f0b:	mov    rdx,QWORD PTR [rsp+0x110]
    3f13:	mov    rsi,QWORD PTR [rsp+0x70]
    3f18:	mov    rdi,QWORD PTR [rsp+0x78]
    3f1d:	call   abe0 <PostprocessSignificantHit>
    3f22:	add    rsp,0x40
    3f26:	movaps xmm1,xmm0
    3f29:	mov    rdi,QWORD PTR [rsp+0x10]
    3f2e:	movaps xmm0,xmm1
    3f31:	call   f2d0 <AddToHistogram>
    3f36:	mov    rdi,QWORD PTR [rsp+0xd8]
    3f3e:	mov    rsi,r14
    3f41:	call   32400 <FreeSequence>
    3f46:	mov    rdi,QWORD PTR [rsp+0xd0]
    3f4e:	call   20af0 <P7FreeTrace>
    3f53:	mov    rdi,r13
    3f56:	call   3460 <free@plt>
    3f5b:	jmp    3dc8 <main+0x558>
    3f60:	lea    rsi,[rip+0x3a7c6]        # 3e72d <_IO_stdin_used+0x172d>
    3f67:	mov    rdi,r12
    3f6a:	call   3640 <strcmp@plt>
    3f6f:	test   eax,eax
    3f71:	je     463d <main+0xdcd>
    3f77:	lea    rsi,[rip+0x3a7b8]        # 3e736 <_IO_stdin_used+0x1736>
    3f7e:	mov    rdi,r12
    3f81:	call   3640 <strcmp@plt>
    3f86:	test   eax,eax
    3f88:	jne    4727 <main+0xeb7>
    3f8e:	mov    DWORD PTR [rsp+0x100],0x3
    3f99:	jmp    3940 <main+0xd0>
    3f9e:	lea    rsi,[rip+0x3a81f]        # 3e7c4 <_IO_stdin_used+0x17c4>
    3fa5:	mov    edi,0x1
    3faa:	mov    eax,0x1
    3faf:	cvtss2sd xmm0,xmm0
    3fb3:	call   3710 <__printf_chk@plt>
    3fb8:	mov    eax,DWORD PTR [rsp+0x100]
    3fbf:	cmp    eax,0x1
    3fc2:	je     483b <main+0xfcb>
    3fc8:	cmp    eax,0x2
    3fcb:	je     486e <main+0xffe>
    3fd1:	cmp    eax,0x3
    3fd4:	je     467d <main+0xe0d>
    3fda:	mov    edi,0xa
    3fdf:	call   3470 <putchar@plt>
    3fe4:	jmp    3c8e <main+0x41e>
    3fe9:	lea    rsi,[rip+0x49690]        # 4d680 <usage>
    3ff0:	lea    rdi,[rip+0x3a421]        # 3e418 <_IO_stdin_used+0x1418>
    3ff7:	call   317f0 <Die>
    3ffc:	jmp    3b09 <main+0x299>
    4001:	lea    rdi,[rip+0x3a8f8]        # 3e900 <_IO_stdin_used+0x1900>
    4008:	xor    eax,eax
    400a:	call   317f0 <Die>
    400f:	jmp    3b34 <main+0x2c4>
    4014:	xor    edx,edx
    4016:	mov    rsi,r13
    4019:	lea    rdi,[rip+0x3a750]        # 3e770 <_IO_stdin_used+0x1770>
    4020:	call   2a780 <Strparse>
    4025:	mov    r15d,eax
    4028:	test   eax,eax
    402a:	je     464d <main+0xddd>
    4030:	mov    r15d,0x7
    4036:	jmp    3b49 <main+0x2d9>
    403b:	lea    rdi,[rip+0x3a90e]        # 3e950 <_IO_stdin_used+0x1950>
    4042:	xor    eax,eax
    4044:	call   317f0 <Die>
    4049:	jmp    3b40 <main+0x2d0>
    404e:	mov    rsi,r14
    4051:	lea    rdi,[rip+0x3a978]        # 3e9d0 <_IO_stdin_used+0x19d0>
    4058:	call   317f0 <Die>
    405d:	jmp    3b9e <main+0x32e>
    4062:	mov    rax,QWORD PTR [rsp+0xa8]
    406a:	lea    rdi,[rip+0x3aa0f]        # 3ea80 <_IO_stdin_used+0x1a80>
    4071:	mov    rsi,QWORD PTR [rax]
    4074:	xor    eax,eax
    4076:	call   317f0 <Die>
    407b:	jmp    3bfd <main+0x38d>
    4080:	lea    rdi,[rip+0x3aa81]        # 3eb08 <_IO_stdin_used+0x1b08>
    4087:	call   34f0 <puts@plt>
    408c:	jmp    3c53 <main+0x3e3>
    4091:	nop    DWORD PTR [rax+0x0]
    4098:	call   8c40 <P7SmallViterbi>
    409d:	mov    r10d,DWORD PTR [rsp+0x8]
    40a2:	movaps xmm1,xmm0
    40a5:	test   r10d,r10d
    40a8:	je     3e64 <main+0x5f4>
    40ae:	mov    esi,DWORD PTR [rsp+0x254]
    40b5:	xor    ecx,ecx
    40b7:	mov    rdx,rbx
    40ba:	mov    rdi,r13
    40bd:	call   5c20 <P7Forward>
    40c2:	mov    r9d,DWORD PTR [rsp+0x48]
    40c7:	movaps xmm1,xmm0
    40ca:	test   r9d,r9d
    40cd:	je     3e64 <main+0x5f4>
    40d3:	mov    rsi,QWORD PTR [rsp+0xd0]
    40db:	mov    rdx,r13
    40de:	mov    rdi,rbx
    40e1:	movss  DWORD PTR [rsp+0x4],xmm0
    40e7:	call   184f0 <TraceScoreCorrection>
    40ec:	movss  xmm1,DWORD PTR [rsp+0x4]
    40f2:	subss  xmm1,xmm0
    40f6:	jmp    3e64 <main+0x5f4>
    40fb:	nop    DWORD PTR [rax+rax*1+0x0]
    4100:	pxor   xmm2,xmm2
    4104:	cvtsi2sd xmm2,r12d
    4109:	mulsd  xmm0,xmm2
    410d:	jmp    3e96 <main+0x626>
    4112:	nop    WORD PTR [rax+rax*1+0x0]
    4118:	mov    rdi,QWORD PTR [rsp+0x20]
    411d:	mov    r13d,eax
    4120:	call   5810 <FreePlan7Matrix>
    4125:	mov    rax,QWORD PTR [rsp+0xa8]
    412d:	test   BYTE PTR [rax+0x1c8],0x80
    4134:	jne    45ff <main+0xd8f>
    413a:	mov    r8d,DWORD PTR [rsp+0x104]
    4142:	test   r8d,r8d
    4145:	jne    414f <main+0x8df>
    4147:	mov    DWORD PTR [rsp+0x104],r12d
    414f:	mov    edi,DWORD PTR [rsp+0x40]
    4153:	mov    rdx,QWORD PTR [rax]
    4156:	test   edi,edi
    4158:	je     4358 <main+0xae8>
    415e:	mov    ecx,DWORD PTR [rax+0x1c8]
    4164:	lea    r8,[rip+0x3d2c5]        # 41430 <gki_primes+0x9b0>
    416b:	test   cl,0x2
    416e:	je     4174 <main+0x904>
    4170:	mov    r8,QWORD PTR [rax+0x10]
    4174:	lea    r9,[rip+0x3d2b5]        # 41430 <gki_primes+0x9b0>
    417b:	and    ch,0x2
    417e:	je     4184 <main+0x914>
    4180:	mov    r9,QWORD PTR [rax+0x8]
    4184:	mov    rcx,r9
    4187:	lea    rsi,[rip+0x3a6d6]        # 3e864 <_IO_stdin_used+0x1864>
    418e:	mov    edi,0x1
    4193:	xor    eax,eax
    4195:	call   3710 <__printf_chk@plt>
    419a:	mov    rax,QWORD PTR [rsp+0xa8]
    41a2:	test   BYTE PTR [rax+0x1c8],0x80
    41a9:	je     4324 <main+0xab4>
    41af:	lea    rdi,[rip+0x3a9ba]        # 3eb70 <_IO_stdin_used+0x1b70>
    41b6:	call   34f0 <puts@plt>
    41bb:	mov    rbx,QWORD PTR [rsp+0x38]
    41c0:	mov    rdi,rbx
    41c3:	call   20720 <FullSortTophits>
    41c8:	mov    rdi,rbx
    41cb:	call   206c0 <TophitsMaxName>
    41d0:	cmp    eax,0x7
    41d3:	jg     43ce <main+0xb5e>
    41d9:	mov    rbx,QWORD PTR [rsp+0x30]
    41de:	mov    rdi,rbx
    41e1:	call   20720 <FullSortTophits>
    41e6:	mov    rdi,rbx
    41e9:	call   206c0 <TophitsMaxName>
    41ee:	cmp    eax,0x7
    41f1:	jg     45f0 <main+0xd80>
    41f7:	mov    esi,DWORD PTR [rsp]
    41fa:	test   esi,esi
    41fc:	jne    43dd <main+0xb6d>
    4202:	mov    edx,r12d
    4205:	lea    rsi,[rip+0x3aa74]        # 3ec80 <_IO_stdin_used+0x1c80>
    420c:	mov    edi,0x1
    4211:	xor    eax,eax
    4213:	call   3710 <__printf_chk@plt>
    4218:	mov    rdi,QWORD PTR [rsp+0x10]
    421d:	call   f270 <FreeHistogram>
    4222:	mov    rdi,QWORD PTR [rsp+0x68]
    4227:	call   15540 <HMMFileClose>
    422c:	mov    rdi,rbp
    422f:	call   32370 <SeqfileClose>
    4234:	mov    rdi,QWORD PTR [rsp+0x38]
    4239:	call   202b0 <FreeTophits>
    423e:	mov    rdi,QWORD PTR [rsp+0x30]
    4243:	call   202b0 <FreeTophits>
    4248:	mov    rdi,QWORD PTR [rsp+0xa8]
    4250:	call   1aed0 <FreePlan7>
    4255:	call   29160 <SqdClean>
    425a:	mov    rax,QWORD PTR [rsp+0x278]
    4262:	xor    rax,QWORD PTR fs:0x28
    426b:	jne    4924 <main+0x10b4>
    4271:	add    rsp,0x288
    4278:	mov    eax,r13d
    427b:	pop    rbx
    427c:	pop    rbp
    427d:	pop    r12
    427f:	pop    r13
    4281:	pop    r14
    4283:	pop    r15
    4285:	ret    
    4286:	mov    rdi,QWORD PTR [rsp+0xc8]
    428e:	mov    edx,0xa
    4293:	xor    esi,esi
    4295:	call   3670 <strtol@plt>
    429a:	mov    DWORD PTR [rsp+0x10],eax
    429e:	jmp    3940 <main+0xd0>
    42a3:	lea    rsi,[rip+0x3a51a]        # 3e7c4 <_IO_stdin_used+0x17c4>
    42aa:	mov    edi,0x1
    42af:	mov    eax,0x1
    42b4:	cvtss2sd xmm0,xmm0
    42b8:	call   3710 <__printf_chk@plt>
    42bd:	mov    eax,DWORD PTR [rsp+0x100]
    42c4:	cmp    eax,0x1
    42c7:	je     484c <main+0xfdc>
    42cd:	cmp    eax,0x2
    42d0:	je     485d <main+0xfed>
    42d6:	cmp    eax,0x3
    42d9:	je     466c <main+0xdfc>
    42df:	mov    edi,0xa
    42e4:	call   3470 <putchar@plt>
    42e9:	jmp    3cc9 <main+0x459>
    42ee:	lea    rsi,[rip+0x3a564]        # 3e859 <_IO_stdin_used+0x1859>
    42f5:	mov    edi,0x1
    42fa:	mov    eax,0x1
    42ff:	call   3710 <__printf_chk@plt>
    4304:	jmp    3d41 <main+0x4d1>
    4309:	lea    rsi,[rip+0x3a520]        # 3e830 <_IO_stdin_used+0x1830>
    4310:	mov    edi,0x1
    4315:	mov    eax,0x1
    431a:	call   3710 <__printf_chk@plt>
    431f:	jmp    3d05 <main+0x495>
    4324:	lea    rdi,[rip+0x3a885]        # 3ebb0 <_IO_stdin_used+0x1bb0>
    432b:	call   34f0 <puts@plt>
    4330:	jmp    41bb <main+0x94b>
    4335:	call   16a80 <hmmcalibrate>
    433a:	mov    r13d,eax
    433d:	jmp    425a <main+0x9ea>
    4342:	mov    esi,edi
    4344:	mov    rdi,rax
    4347:	call   18290 <XNU>
    434c:	mov    edi,DWORD PTR [rsp+0x254]
    4353:	jmp    3e21 <main+0x5b1>
    4358:	lea    rsi,[rip+0x3a51b]        # 3e87a <_IO_stdin_used+0x187a>
    435f:	mov    edi,0x1
    4364:	xor    eax,eax
    4366:	call   3710 <__printf_chk@plt>
    436b:	mov    rax,QWORD PTR [rsp+0xa8]
    4373:	lea    rdx,[rip+0x3a39a]        # 3e714 <_IO_stdin_used+0x1714>
    437a:	test   BYTE PTR [rax+0x1c9],0x2
    4381:	je     4387 <main+0xb17>
    4383:	mov    rdx,QWORD PTR [rax+0x8]
    4387:	lea    rsi,[rip+0x3a4fe]        # 3e88c <_IO_stdin_used+0x188c>
    438e:	mov    edi,0x1
    4393:	xor    eax,eax
    4395:	call   3710 <__printf_chk@plt>
    439a:	mov    rax,QWORD PTR [rsp+0xa8]
    43a2:	lea    rdx,[rip+0x3a36b]        # 3e714 <_IO_stdin_used+0x1714>
    43a9:	test   BYTE PTR [rax+0x1c8],0x2
    43b0:	je     43b6 <main+0xb46>
    43b2:	mov    rdx,QWORD PTR [rax+0x10]
    43b6:	lea    rsi,[rip+0x3a4e0]        # 3e89d <_IO_stdin_used+0x189d>
    43bd:	mov    edi,0x1
    43c2:	xor    eax,eax
    43c4:	call   3710 <__printf_chk@plt>
    43c9:	jmp    419a <main+0x92a>
    43ce:	mov    rdi,QWORD PTR [rsp+0x38]
    43d3:	call   206c0 <TophitsMaxName>
    43d8:	jmp    41d9 <main+0x969>
    43dd:	lea    rdi,[rip+0x3a804]        # 3ebe8 <_IO_stdin_used+0x1be8>
    43e4:	call   34f0 <puts@plt>
    43e9:	mov    rax,QWORD PTR [rsp+0x30]
    43ee:	cmp    DWORD PTR [rax+0x14],0x0
    43f2:	jle    4706 <main+0xe96>
    43f8:	lea    rcx,[rsp+0xb0]
    4400:	xor    ebx,ebx
    4402:	lea    rax,[rsp+0xd0]
    440a:	mov    DWORD PTR [rsp+0x78],r12d
    440f:	mov    QWORD PTR [rsp+0x58],rcx
    4414:	lea    rcx,[rsp+0xa0]
    441c:	lea    rdi,[rsp+0x80]
    4424:	mov    r12d,ebx
    4427:	mov    QWORD PTR [rsp+0x50],rcx
    442c:	lea    rcx,[rsp+0x9c]
    4434:	lea    rdx,[rsp+0xb8]
    443c:	mov    rbx,rax
    443f:	mov    QWORD PTR [rsp+0x48],rcx
    4444:	lea    rcx,[rsp+0x94]
    444c:	lea    r14,[rsp+0x84]
    4454:	mov    QWORD PTR [rsp+0x28],rcx
    4459:	lea    rcx,[rsp+0x90]
    4461:	mov    QWORD PTR [rsp+0x20],rcx
    4466:	lea    rcx,[rsp+0x98]
    446e:	mov    QWORD PTR [rsp+0x40],rcx
    4473:	lea    rcx,[rsp+0x8c]
    447b:	mov    QWORD PTR [rsp+0x18],rcx
    4480:	lea    rcx,[rsp+0x88]
    4488:	mov    QWORD PTR [rsp+0x70],rbp
    448d:	mov    rbp,rdi
    4490:	mov    DWORD PTR [rsp+0x7c],r13d
    4495:	mov    r13,rdx
    4498:	mov    QWORD PTR [rsp+0x60],r15
    449d:	mov    r15,QWORD PTR [rsp+0x30]
    44a2:	mov    DWORD PTR [rsp+0x4],0x0
    44aa:	mov    QWORD PTR [rsp+0x8],rcx
    44af:	jmp    44d3 <main+0xc63>
    44b1:	nop    DWORD PTR [rax+0x0]
    44b8:	add    r12d,0x1
    44bc:	cmp    DWORD PTR [r15+0x14],r12d
    44c0:	jle    46ef <main+0xe7f>
    44c6:	mov    ecx,DWORD PTR [rsp]
    44c9:	cmp    DWORD PTR [rsp+0x4],ecx
    44cd:	je     4811 <main+0xfa1>
    44d3:	push   QWORD PTR [rsp+0x58]
    44d7:	mov    r9,r14
    44da:	mov    r8,rbx
    44dd:	mov    rcx,rbp
    44e0:	push   QWORD PTR [rsp+0x58]
    44e4:	mov    rdx,r13
    44e7:	mov    esi,r12d
    44ea:	mov    rdi,r15
    44ed:	push   QWORD PTR [rsp+0x58]
    44f1:	push   0x0
    44f3:	push   QWORD PTR [rsp+0x48]
    44f7:	push   QWORD PTR [rsp+0x48]
    44fb:	push   QWORD PTR [rsp+0x70]
    44ff:	push   QWORD PTR [rsp+0x50]
    4503:	push   QWORD PTR [rsp+0x48]
    4507:	push   0x0
    4509:	push   0x0
    450b:	push   QWORD PTR [rsp+0xb8]
    4512:	call   204e0 <GetRankedHit>
    4517:	pxor   xmm1,xmm1
    451b:	movsd  xmm0,QWORD PTR [rsp+0x130]
    4524:	cvtsi2sd xmm1,DWORD PTR [rsp+0x164]
    452d:	add    rsp,0x60
    4531:	mulsd  xmm0,xmm1
    4535:	comisd xmm0,QWORD PTR [rsp+0xe8]
    453e:	ja     44b8 <main+0xc48>
    4544:	movss  xmm0,DWORD PTR [rsp+0xe0]
    454d:	comiss xmm0,DWORD PTR [rsp+0x84]
    4555:	ja     44b8 <main+0xc48>
    455b:	mulsd  xmm1,QWORD PTR [rsp+0xb8]
    4564:	movsd  xmm0,QWORD PTR [rsp+0xf8]
    456d:	comisd xmm0,xmm1
    4571:	jb     44b8 <main+0xc48>
    4577:	movss  xmm0,DWORD PTR [rsp+0x80]
    4580:	comiss xmm0,DWORD PTR [rsp+0xf0]
    4588:	jb     44b8 <main+0xc48>
    458e:	push   rax
    458f:	mov    eax,DWORD PTR [rsp+0x94]
    4596:	lea    rsi,[rip+0x3a673]        # 3ec10 <_IO_stdin_used+0x1c10>
    459d:	cvtss2sd xmm0,xmm0
    45a1:	mov    edi,0x1
    45a6:	push   rax
    45a7:	mov    r9d,DWORD PTR [rsp+0x98]
    45af:	mov    eax,0x2
    45b4:	mov    r8d,DWORD PTR [rsp+0xb0]
    45bc:	mov    ecx,DWORD PTR [rsp+0xac]
    45c3:	mov    rdx,QWORD PTR [rsp+0xe8]
    45cb:	call   3710 <__printf_chk@plt>
    45d0:	mov    rsi,QWORD PTR [rsp+0xc0]
    45d8:	mov    rdi,QWORD PTR [rip+0x49d21]        # 4e300 <stdout@@GLIBC_2.2.5>
    45df:	call   22720 <PrintFancyAli>
    45e4:	add    DWORD PTR [rsp+0x14],0x1
    45e9:	pop    rdx
    45ea:	pop    rcx
    45eb:	jmp    44b8 <main+0xc48>
    45f0:	mov    rdi,QWORD PTR [rsp+0x30]
    45f5:	call   206c0 <TophitsMaxName>
    45fa:	jmp    41f7 <main+0x987>
    45ff:	mov    rbx,QWORD PTR [rsp+0x10]
    4604:	pxor   xmm3,xmm3
    4608:	pxor   xmm2,xmm2
    460c:	xor    esi,esi
    460e:	movss  xmm0,DWORD PTR [rax+0x1c0]
    4616:	movss  xmm1,DWORD PTR [rax+0x1c4]
    461e:	cvtsi2ss xmm3,DWORD PTR [rbx+0x10]
    4623:	mov    rdi,rbx
    4626:	cvtsi2ss xmm2,DWORD PTR [rbx+0x14]
    462b:	call   105e0 <ExtremeValueSetHistogram>
    4630:	mov    rax,QWORD PTR [rsp+0xa8]
    4638:	jmp    413a <main+0x8ca>
    463d:	mov    DWORD PTR [rsp+0x100],0x2
    4648:	jmp    3940 <main+0xd0>
    464d:	lea    rsi,[rip+0x39546]        # 3db9a <_IO_stdin_used+0xb9a>
    4654:	mov    rdi,r13
    4657:	call   3640 <strcmp@plt>
    465c:	test   eax,eax
    465e:	mov    eax,0x7
    4663:	cmove  r15d,eax
    4667:	jmp    3b49 <main+0x2d9>
    466c:	lea    rdi,[rip+0x3a199]        # 3e80c <_IO_stdin_used+0x180c>
    4673:	call   34f0 <puts@plt>
    4678:	jmp    3cc9 <main+0x459>
    467d:	lea    rdi,[rip+0x3a156]        # 3e7da <_IO_stdin_used+0x17da>
    4684:	call   34f0 <puts@plt>
    4689:	jmp    3c8e <main+0x41e>
    468e:	lea    rdi,[rip+0x3a3a3]        # 3ea38 <_IO_stdin_used+0x1a38>
    4695:	xor    eax,eax
    4697:	call   317f0 <Die>
    469c:	jmp    3bd8 <main+0x368>
    46a1:	lea    rdx,[rip+0x48fd8]        # 4d680 <usage>
    46a8:	mov    rsi,r14
    46ab:	lea    rdi,[rip+0x3a0d7]        # 3e789 <_IO_stdin_used+0x1789>
    46b2:	call   317f0 <Die>
    46b7:	jmp    3b84 <main+0x314>
    46bc:	mov    rsi,r14
    46bf:	lea    rdi,[rip+0x3a332]        # 3e9f8 <_IO_stdin_used+0x19f8>
    46c6:	xor    eax,eax
    46c8:	call   317f0 <Die>
    46cd:	jmp    3bad <main+0x33d>
    46d2:	lea    rdx,[rip+0x48fa7]        # 4d680 <usage>
    46d9:	mov    rsi,r13
    46dc:	lea    rdi,[rip+0x3a2bd]        # 3e9a0 <_IO_stdin_used+0x19a0>
    46e3:	xor    eax,eax
    46e5:	call   317f0 <Die>
    46ea:	jmp    3b67 <main+0x2f7>
    46ef:	mov    eax,DWORD PTR [rsp+0x4]
    46f3:	mov    r12d,DWORD PTR [rsp+0x78]
    46f8:	mov    rbp,QWORD PTR [rsp+0x70]
    46fd:	mov    r13d,DWORD PTR [rsp+0x7c]
    4702:	test   eax,eax
    4704:	jne    4717 <main+0xea7>
    4706:	lea    rdi,[rip+0x3a1a1]        # 3e8ae <_IO_stdin_used+0x18ae>
    470d:	call   34f0 <puts@plt>
    4712:	jmp    4202 <main+0x992>
    4717:	mov    ebx,DWORD PTR [rsp]
    471a:	cmp    eax,ebx
    471c:	jne    4202 <main+0x992>
    4722:	jmp    4820 <main+0xfb0>
    4727:	lea    rsi,[rip+0x3a011]        # 3e73f <_IO_stdin_used+0x173f>
    472e:	mov    rdi,r12
    4731:	call   3640 <strcmp@plt>
    4736:	test   eax,eax
    4738:	je     48a0 <main+0x1030>
    473e:	lea    rsi,[rip+0x3a001]        # 3e746 <_IO_stdin_used+0x1746>
    4745:	mov    rdi,r12
    4748:	call   3640 <strcmp@plt>
    474d:	test   eax,eax
    474f:	je     487f <main+0x100f>
    4755:	lea    rsi,[rip+0x39ff1]        # 3e74d <_IO_stdin_used+0x174d>
    475c:	mov    rdi,r12
    475f:	call   3640 <strcmp@plt>
    4764:	test   eax,eax
    4766:	je     48bd <main+0x104d>
    476c:	lea    rsi,[rip+0x39fe4]        # 3e757 <_IO_stdin_used+0x1757>
    4773:	mov    rdi,r12
    4776:	call   3640 <strcmp@plt>
    477b:	test   eax,eax
    477d:	je     48ca <main+0x105a>
    4783:	lea    rsi,[rip+0x39b6f]        # 3e2f9 <_IO_stdin_used+0x12f9>
    478a:	mov    rdi,r12
    478d:	call   3640 <strcmp@plt>
    4792:	test   eax,eax
    4794:	je     48d7 <main+0x1067>
    479a:	lea    rsi,[rip+0x39fbe]        # 3e75f <_IO_stdin_used+0x175f>
    47a1:	mov    rdi,r12
    47a4:	call   3640 <strcmp@plt>
    47a9:	test   eax,eax
    47ab:	je     48e4 <main+0x1074>
    47b1:	lea    rsi,[rip+0x39fad]        # 3e765 <_IO_stdin_used+0x1765>
    47b8:	mov    rdi,r12
    47bb:	call   3640 <strcmp@plt>
    47c0:	test   eax,eax
    47c2:	je     48f1 <main+0x1081>
    47c8:	lea    rsi,[rip+0x39c42]        # 3e411 <_IO_stdin_used+0x1411>
    47cf:	mov    rdi,r12
    47d2:	call   3640 <strcmp@plt>
    47d7:	test   eax,eax
    47d9:	jne    3940 <main+0xd0>
    47df:	mov    rdi,QWORD PTR [rip+0x49b1a]        # 4e300 <stdout@@GLIBC_2.2.5>
    47e6:	lea    rsi,[rip+0x49013]        # 4d800 <banner>
    47ed:	call   18700 <HMMERBanner>
    47f2:	lea    rdi,[rip+0x48e87]        # 4d680 <usage>
    47f9:	call   34f0 <puts@plt>
    47fe:	lea    rdi,[rip+0x48b7b]        # 4d380 <experts>
    4805:	call   34f0 <puts@plt>
    480a:	xor    edi,edi
    480c:	call   37a0 <exit@plt>
    4811:	mov    r12d,DWORD PTR [rsp+0x78]
    4816:	mov    rbp,QWORD PTR [rsp+0x70]
    481b:	mov    r13d,DWORD PTR [rsp+0x7c]
    4820:	mov    edx,DWORD PTR [rsp]
    4823:	lea    rsi,[rip+0x3a426]        # 3ec50 <_IO_stdin_used+0x1c50>
    482a:	mov    edi,0x1
    482f:	xor    eax,eax
    4831:	call   3710 <__printf_chk@plt>
    4836:	jmp    4202 <main+0x992>
    483b:	lea    rdi,[rip+0x39f8a]        # 3e7cc <_IO_stdin_used+0x17cc>
    4842:	call   34f0 <puts@plt>
    4847:	jmp    3c8e <main+0x41e>
    484c:	lea    rdi,[rip+0x39fab]        # 3e7fe <_IO_stdin_used+0x17fe>
    4853:	call   34f0 <puts@plt>
    4858:	jmp    3cc9 <main+0x459>
    485d:	lea    rdi,[rip+0x39fa1]        # 3e805 <_IO_stdin_used+0x1805>
    4864:	call   34f0 <puts@plt>
    4869:	jmp    3cc9 <main+0x459>
    486e:	lea    rdi,[rip+0x39f5e]        # 3e7d3 <_IO_stdin_used+0x17d3>
    4875:	call   34f0 <puts@plt>
    487a:	jmp    3c8e <main+0x41e>
    487f:	mov    rdi,QWORD PTR [rsp+0xc8]
    4887:	xor    esi,esi
    4889:	call   3510 <strtod@plt>
    488e:	cvtsd2ss xmm0,xmm0
    4892:	movss  DWORD PTR [rsp+0xf0],xmm0
    489b:	jmp    3940 <main+0xd0>
    48a0:	mov    rdi,QWORD PTR [rsp+0xc8]
    48a8:	xor    esi,esi
    48aa:	call   3510 <strtod@plt>
    48af:	movsd  QWORD PTR [rsp+0xf8],xmm0
    48b8:	jmp    3940 <main+0xd0>
    48bd:	mov    DWORD PTR [rsp+0x8],0x1
    48c5:	jmp    3940 <main+0xd0>
    48ca:	mov    DWORD PTR [rsp+0x48],0x0
    48d2:	jmp    3940 <main+0xd0>
    48d7:	mov    DWORD PTR [rsp+0x4],0x1
    48df:	jmp    3940 <main+0xd0>
    48e4:	mov    DWORD PTR [rsp+0x18],0x1
    48ec:	jmp    3940 <main+0xd0>
    48f1:	mov    rdi,QWORD PTR [rsp+0xc8]
    48f9:	call   35180 <String2SeqfileFormat>
    48fe:	mov    r15d,eax
    4901:	test   eax,eax
    4903:	jne    3940 <main+0xd0>
    4909:	mov    rsi,QWORD PTR [rsp+0xc8]
    4911:	lea    rdi,[rip+0x39fc0]        # 3e8d8 <_IO_stdin_used+0x18d8>
    4918:	xor    eax,eax
    491a:	call   317f0 <Die>
    491f:	jmp    3940 <main+0xd0>
    4924:	call   3570 <__stack_chk_fail@plt>
    4929:	nop    DWORD PTR [rax+0x0]

0000000000004930 <_start>:
    4930:	endbr64 
    4934:	xor    ebp,ebp
    4936:	mov    r9,rdx
    4939:	pop    rsi
    493a:	mov    rdx,rsp
    493d:	and    rsp,0xfffffffffffffff0
    4941:	push   rax
    4942:	push   rsp
    4943:	lea    r8,[rip+0x381c6]        # 3cb10 <__libc_csu_fini>
    494a:	lea    rcx,[rip+0x3814f]        # 3caa0 <__libc_csu_init>
    4951:	lea    rdi,[rip+0xffffffffffffef18]        # 3870 <main>
    4958:	call   QWORD PTR [rip+0x48682]        # 4cfe0 <__libc_start_main@GLIBC_2.2.5>
    495e:	hlt    
    495f:	nop

0000000000004960 <deregister_tm_clones>:
    4960:	lea    rdi,[rip+0x49981]        # 4e2e8 <__TMC_END__>
    4967:	lea    rax,[rip+0x4997a]        # 4e2e8 <__TMC_END__>
    496e:	cmp    rax,rdi
    4971:	je     4988 <deregister_tm_clones+0x28>
    4973:	mov    rax,QWORD PTR [rip+0x4865e]        # 4cfd8 <_ITM_deregisterTMCloneTable>
    497a:	test   rax,rax
    497d:	je     4988 <deregister_tm_clones+0x28>
    497f:	jmp    rax
    4981:	nop    DWORD PTR [rax+0x0]
    4988:	ret    
    4989:	nop    DWORD PTR [rax+0x0]

0000000000004990 <register_tm_clones>:
    4990:	lea    rdi,[rip+0x49951]        # 4e2e8 <__TMC_END__>
    4997:	lea    rsi,[rip+0x4994a]        # 4e2e8 <__TMC_END__>
    499e:	sub    rsi,rdi
    49a1:	mov    rax,rsi
    49a4:	shr    rsi,0x3f
    49a8:	sar    rax,0x3
    49ac:	add    rsi,rax
    49af:	sar    rsi,1
    49b2:	je     49c8 <register_tm_clones+0x38>
    49b4:	mov    rax,QWORD PTR [rip+0x48635]        # 4cff0 <_ITM_registerTMCloneTable>
    49bb:	test   rax,rax
    49be:	je     49c8 <register_tm_clones+0x38>
    49c0:	jmp    rax
    49c2:	nop    WORD PTR [rax+rax*1+0x0]
    49c8:	ret    
    49c9:	nop    DWORD PTR [rax+0x0]

00000000000049d0 <__do_global_dtors_aux>:
    49d0:	endbr64 
    49d4:	cmp    BYTE PTR [rip+0x4994d],0x0        # 4e328 <completed.8061>
    49db:	jne    4a08 <__do_global_dtors_aux+0x38>
    49dd:	push   rbp
    49de:	cmp    QWORD PTR [rip+0x48612],0x0        # 4cff8 <__cxa_finalize@GLIBC_2.2.5>
    49e6:	mov    rbp,rsp
    49e9:	je     49f7 <__do_global_dtors_aux+0x27>
    49eb:	mov    rdi,QWORD PTR [rip+0x48616]        # 4d008 <__dso_handle>
    49f2:	call   3430 <__cxa_finalize@plt>
    49f7:	call   4960 <deregister_tm_clones>
    49fc:	mov    BYTE PTR [rip+0x49925],0x1        # 4e328 <completed.8061>
    4a03:	pop    rbp
    4a04:	ret    
    4a05:	nop    DWORD PTR [rax]
    4a08:	ret    
    4a09:	nop    DWORD PTR [rax+0x0]

0000000000004a10 <frame_dummy>:
    4a10:	endbr64 
    4a14:	jmp    4990 <register_tm_clones>
    4a19:	nop    DWORD PTR [rax+0x0]

0000000000004a20 <set_degenerate>:
    4a20:	push   r15
    4a22:	mov    r15,rsi
    4a25:	push   r14
    4a27:	mov    r14d,edi
    4a2a:	mov    rdi,rsi
    4a2d:	push   r13
    4a2f:	movsx  r14d,r14b
    4a33:	push   r12
    4a35:	lea    r12,[rip+0x5d844]        # 62280 <Alphabet>
    4a3c:	push   rbp
    4a3d:	push   rbx
    4a3e:	sub    rsp,0x8
    4a42:	call   3560 <strlen@plt>
    4a47:	mov    esi,r14d
    4a4a:	lea    rdi,[rip+0x5d82f]        # 62280 <Alphabet>
    4a51:	mov    rbx,rax
    4a54:	call   3590 <strchr@plt>
    4a59:	lea    rcx,[rip+0x5d840]        # 622a0 <DegenCount>
    4a60:	sub    rax,r12
    4a63:	mov    DWORD PTR [rcx+rax*4],ebx
    4a66:	movzx  ebp,BYTE PTR [r15]
    4a6a:	test   bpl,bpl
    4a6d:	je     4ab8 <set_degenerate+0x98>
    4a6f:	mov    r13,r12
    4a72:	nop    WORD PTR [rax+rax*1+0x0]
    4a78:	mov    esi,r14d
    4a7b:	mov    rdi,r13
    4a7e:	add    r15,0x1
    4a82:	call   3590 <strchr@plt>
    4a87:	movsx  esi,bpl
    4a8b:	mov    rdi,r13
    4a8e:	mov    rbx,rax
    4a91:	call   3590 <strchr@plt>
    4a96:	sub    rbx,r12
    4a99:	lea    rdx,[rip+0x5d600]        # 620a0 <Degenerate>
    4aa0:	lea    rcx,[rbx+rbx*4]
    4aa4:	sub    rax,r12
    4aa7:	lea    rcx,[rdx+rcx*4]
    4aab:	mov    BYTE PTR [rcx+rax*1],0x1
    4aaf:	movzx  ebp,BYTE PTR [r15]
    4ab3:	test   bpl,bpl
    4ab6:	jne    4a78 <set_degenerate+0x58>
    4ab8:	add    rsp,0x8
    4abc:	pop    rbx
    4abd:	pop    rbp
    4abe:	pop    r12
    4ac0:	pop    r13
    4ac2:	pop    r14
    4ac4:	pop    r15
    4ac6:	ret    
    4ac7:	nop    WORD PTR [rax+rax*1+0x0]

0000000000004ad0 <SetAlphabet>:
    4ad0:	endbr64 
    4ad4:	mov    eax,DWORD PTR [rip+0x5d5a6]        # 62080 <Alphabet_type>
    4ada:	test   eax,eax
    4adc:	jne    4d68 <SetAlphabet+0x298>
    4ae2:	sub    rsp,0x8
    4ae6:	cmp    edi,0x2
    4ae9:	je     4bf8 <SetAlphabet+0x128>
    4aef:	cmp    edi,0x3
    4af2:	jne    4be0 <SetAlphabet+0x110>
    4af8:	movdqa xmm0,XMMWORD PTR [rip+0x386a0]        # 3d1a0 <_IO_stdin_used+0x1a0>
    4b00:	mov    DWORD PTR [rip+0x5d576],0x3        # 62080 <Alphabet_type>
    4b0a:	movabs rax,0x585a425559575654
    4b14:	lea    rdx,[rip+0x5d585]        # 620a0 <Degenerate>
    4b1b:	mov    BYTE PTR [rip+0x5d776],0x0        # 62298 <Alphabet+0x18>
    4b22:	lea    rcx,[rdx+0x1e0]
    4b29:	mov    DWORD PTR [rip+0x5d7cd],0x14        # 62300 <Alphabet_size>
    4b33:	mov    DWORD PTR [rip+0x5d75f],0x18        # 6229c <Alphabet_iupac>
    4b3d:	mov    QWORD PTR [rip+0x5d74c],rax        # 62290 <Alphabet+0x10>
    4b44:	mov    rax,rdx
    4b47:	movups XMMWORD PTR [rip+0x5d732],xmm0        # 62280 <Alphabet>
    4b4e:	xchg   ax,ax
    4b50:	pxor   xmm0,xmm0
    4b54:	mov    DWORD PTR [rax+0x10],0x0
    4b5b:	add    rax,0x14
    4b5f:	movups XMMWORD PTR [rax-0x14],xmm0
    4b63:	cmp    rax,rcx
    4b66:	jne    4b50 <SetAlphabet+0x80>
    4b68:	lea    rax,[rip+0x5d731]        # 622a0 <DegenCount>
    4b6f:	lea    rcx,[rip+0x5d6ce]        # 62244 <Degenerate+0x1a4>
    4b76:	nop    WORD PTR cs:[rax+rax*1+0x0]
    4b80:	mov    BYTE PTR [rdx],0x1
    4b83:	add    rdx,0x15
    4b87:	add    rax,0x4
    4b8b:	mov    DWORD PTR [rax-0x4],0x1
    4b92:	cmp    rdx,rcx
    4b95:	jne    4b80 <SetAlphabet+0xb0>
    4b97:	lea    rsi,[rip+0x3cd0c]        # 418aa <CSWTCH.18+0x1ea>
    4b9e:	mov    edi,0x55
    4ba3:	call   4a20 <set_degenerate>
    4ba8:	lea    rsi,[rip+0x38596]        # 3d145 <_IO_stdin_used+0x145>
    4baf:	mov    edi,0x42
    4bb4:	call   4a20 <set_degenerate>
    4bb9:	lea    rsi,[rip+0x38588]        # 3d148 <_IO_stdin_used+0x148>
    4bc0:	mov    edi,0x5a
    4bc5:	call   4a20 <set_degenerate>
    4bca:	lea    rsi,[rip+0x3857a]        # 3d14b <_IO_stdin_used+0x14b>
    4bd1:	mov    edi,0x58
    4bd6:	add    rsp,0x8
    4bda:	jmp    4a20 <set_degenerate>
    4bdf:	nop
    4be0:	lea    rdi,[rip+0x38491]        # 3d078 <_IO_stdin_used+0x78>
    4be7:	xor    eax,eax
    4be9:	add    rsp,0x8
    4bed:	jmp    317f0 <Die>
    4bf2:	nop    WORD PTR [rax+rax*1+0x0]
    4bf8:	mov    eax,0x58
    4bfd:	movdqa xmm0,XMMWORD PTR [rip+0x385ab]        # 3d1b0 <_IO_stdin_used+0x1b0>
    4c05:	mov    DWORD PTR [rip+0x5d471],0x2        # 62080 <Alphabet_type>
    4c0f:	mov    DWORD PTR [rip+0x5d6e7],0x4        # 62300 <Alphabet_size>
    4c19:	mov    DWORD PTR [rip+0x5d679],0x11        # 6229c <Alphabet_iupac>
    4c23:	mov    WORD PTR [rip+0x5d666],ax        # 62290 <Alphabet+0x10>
    4c2a:	lea    rax,[rip+0x5d46f]        # 620a0 <Degenerate>
    4c31:	movups XMMWORD PTR [rip+0x5d648],xmm0        # 62280 <Alphabet>
    4c38:	lea    rdx,[rax+0x154]
    4c3f:	nop
    4c40:	mov    DWORD PTR [rax],0x0
    4c46:	add    rax,0x14
    4c4a:	cmp    rdx,rax
    4c4d:	jne    4c40 <SetAlphabet+0x170>
    4c4f:	movabs rax,0x100000001
    4c59:	lea    rsi,[rip+0x39c71]        # 3e8d1 <_IO_stdin_used+0x18d1>
    4c60:	mov    edi,0x55
    4c65:	mov    BYTE PTR [rip+0x5d434],0x1        # 620a0 <Degenerate>
    4c6c:	mov    QWORD PTR [rip+0x5d62d],rax        # 622a0 <DegenCount>
    4c73:	mov    QWORD PTR [rip+0x5d62e],rax        # 622a8 <DegenCount+0x8>
    4c7a:	mov    BYTE PTR [rip+0x5d434],0x1        # 620b5 <Degenerate+0x15>
    4c81:	mov    BYTE PTR [rip+0x5d442],0x1        # 620ca <Degenerate+0x2a>
    4c88:	mov    BYTE PTR [rip+0x5d450],0x1        # 620df <Degenerate+0x3f>
    4c8f:	call   4a20 <set_degenerate>
    4c94:	lea    rsi,[rip+0x384c5]        # 3d160 <_IO_stdin_used+0x160>
    4c9b:	mov    edi,0x4e
    4ca0:	call   4a20 <set_degenerate>
    4ca5:	lea    rsi,[rip+0x384b4]        # 3d160 <_IO_stdin_used+0x160>
    4cac:	mov    edi,0x58
    4cb1:	call   4a20 <set_degenerate>
    4cb6:	lea    rsi,[rip+0x384a8]        # 3d165 <_IO_stdin_used+0x165>
    4cbd:	mov    edi,0x52
    4cc2:	call   4a20 <set_degenerate>
    4cc7:	lea    rsi,[rip+0x3849b]        # 3d169 <_IO_stdin_used+0x169>
    4cce:	mov    edi,0x59
    4cd3:	call   4a20 <set_degenerate>
    4cd8:	lea    rsi,[rip+0x3cc0b]        # 418ea <CSWTCH.18+0x22a>
    4cdf:	mov    edi,0x4d
    4ce4:	call   4a20 <set_degenerate>
    4ce9:	lea    rsi,[rip+0x38481]        # 3d171 <_IO_stdin_used+0x171>
    4cf0:	mov    edi,0x4b
    4cf5:	call   4a20 <set_degenerate>
    4cfa:	lea    rsi,[rip+0x3846c]        # 3d16d <_IO_stdin_used+0x16d>
    4d01:	mov    edi,0x53
    4d06:	call   4a20 <set_degenerate>
    4d0b:	lea    rsi,[rip+0x3acf9]        # 3fa0b <xpam120+0xcab>
    4d12:	mov    edi,0x57
    4d17:	call   4a20 <set_degenerate>
    4d1c:	lea    rsi,[rip+0x38445]        # 3d168 <_IO_stdin_used+0x168>
    4d23:	mov    edi,0x48
    4d28:	call   4a20 <set_degenerate>
    4d2d:	lea    rsi,[rip+0x3842d]        # 3d161 <_IO_stdin_used+0x161>
    4d34:	mov    edi,0x42
    4d39:	call   4a20 <set_degenerate>
    4d3e:	lea    rsi,[rip+0x38427]        # 3d16c <_IO_stdin_used+0x16c>
    4d45:	mov    edi,0x56
    4d4a:	call   4a20 <set_degenerate>
    4d4f:	lea    rsi,[rip+0x3841a]        # 3d170 <_IO_stdin_used+0x170>
    4d56:	mov    edi,0x44
    4d5b:	add    rsp,0x8
    4d5f:	jmp    4a20 <set_degenerate>
    4d64:	nop    DWORD PTR [rax+0x0]
    4d68:	cmp    eax,edi
    4d6a:	jne    4d70 <SetAlphabet+0x2a0>
    4d6c:	ret    
    4d6d:	nop    DWORD PTR [rax]
    4d70:	lea    rdi,[rip+0x38291]        # 3d008 <_IO_stdin_used+0x8>
    4d77:	xor    eax,eax
    4d79:	jmp    317f0 <Die>
    4d7e:	xchg   ax,ax

0000000000004d80 <DetermineAlphabet>:
    4d80:	endbr64 
    4d84:	push   r15
    4d86:	push   r14
    4d88:	push   r13
    4d8a:	push   r12
    4d8c:	mov    r12d,esi
    4d8f:	push   rbp
    4d90:	push   rbx
    4d91:	sub    rsp,0x8
    4d95:	test   esi,esi
    4d97:	jle    4e98 <DetermineAlphabet+0x118>
    4d9d:	lea    eax,[rsi-0x1]
    4da0:	mov    r15,rdi
    4da3:	xor    r14d,r14d
    4da6:	xor    ebx,ebx
    4da8:	lea    rbp,[rdi+rax*8+0x8]
    4dad:	xor    r13d,r13d
    4db0:	jmp    4dcb <DetermineAlphabet+0x4b>
    4db2:	nop    WORD PTR [rax+rax*1+0x0]
    4db8:	jne    4e50 <DetermineAlphabet+0xd0>
    4dbe:	add    r13d,0x1
    4dc2:	add    r15,0x8
    4dc6:	cmp    r15,rbp
    4dc9:	je     4de8 <DetermineAlphabet+0x68>
    4dcb:	mov    rdi,QWORD PTR [r15]
    4dce:	call   338c0 <Seqtype>
    4dd3:	cmp    eax,0x2
    4dd6:	jg     4e40 <DetermineAlphabet+0xc0>
    4dd8:	test   eax,eax
    4dda:	jle    4db8 <DetermineAlphabet+0x38>
    4ddc:	add    r15,0x8
    4de0:	add    ebx,0x1
    4de3:	cmp    r15,rbp
    4de6:	jne    4dcb <DetermineAlphabet+0x4b>
    4de8:	mov    ebp,0x2
    4ded:	cmp    r12d,ebx
    4df0:	je     4e24 <DetermineAlphabet+0xa4>
    4df2:	mov    ebp,0x3
    4df7:	cmp    r12d,r14d
    4dfa:	je     4e24 <DetermineAlphabet+0xa4>
    4dfc:	cmp    r13d,r14d
    4dff:	mov    eax,r14d
    4e02:	cmovge eax,r13d
    4e06:	cmp    eax,ebx
    4e08:	jl     4e80 <DetermineAlphabet+0x100>
    4e0a:	cmp    r13d,ebx
    4e0d:	cmovge ebx,r13d
    4e11:	cmp    ebx,r14d
    4e14:	jge    4e68 <DetermineAlphabet+0xe8>
    4e16:	lea    rdi,[rip+0x382c3]        # 3d0e0 <_IO_stdin_used+0xe0>
    4e1d:	xor    eax,eax
    4e1f:	call   318f0 <Warn>
    4e24:	add    rsp,0x8
    4e28:	mov    edi,ebp
    4e2a:	pop    rbx
    4e2b:	pop    rbp
    4e2c:	pop    r12
    4e2e:	pop    r13
    4e30:	pop    r14
    4e32:	pop    r15
    4e34:	jmp    4ad0 <SetAlphabet>
    4e39:	nop    DWORD PTR [rax+0x0]
    4e40:	cmp    eax,0x3
    4e43:	jne    4e50 <DetermineAlphabet+0xd0>
    4e45:	add    r14d,0x1
    4e49:	jmp    4dc2 <DetermineAlphabet+0x42>
    4e4e:	xchg   ax,ax
    4e50:	lea    rdi,[rip+0x3831d]        # 3d174 <_IO_stdin_used+0x174>
    4e57:	xor    eax,eax
    4e59:	call   317f0 <Die>
    4e5e:	jmp    4dc2 <DetermineAlphabet+0x42>
    4e63:	nop    DWORD PTR [rax+rax*1+0x0]
    4e68:	lea    rdi,[rip+0x382a9]        # 3d118 <_IO_stdin_used+0x118>
    4e6f:	xor    eax,eax
    4e71:	xor    ebp,ebp
    4e73:	call   317f0 <Die>
    4e78:	jmp    4e24 <DetermineAlphabet+0xa4>
    4e7a:	nop    WORD PTR [rax+rax*1+0x0]
    4e80:	lea    rdi,[rip+0x38221]        # 3d0a8 <_IO_stdin_used+0xa8>
    4e87:	xor    eax,eax
    4e89:	mov    ebp,0x2
    4e8e:	call   318f0 <Warn>
    4e93:	jmp    4e24 <DetermineAlphabet+0xa4>
    4e95:	nop    DWORD PTR [rax]
    4e98:	xor    r14d,r14d
    4e9b:	xor    ebx,ebx
    4e9d:	xor    r13d,r13d
    4ea0:	jmp    4de8 <DetermineAlphabet+0x68>
    4ea5:	data16 nop WORD PTR cs:[rax+rax*1+0x0]

0000000000004eb0 <SymbolIndex>:
    4eb0:	endbr64 
    4eb4:	push   rbx
    4eb5:	movsx  rbx,dil
    4eb9:	call   3440 <__ctype_toupper_loc@plt>
    4ebe:	lea    rdi,[rip+0x5d3bb]        # 62280 <Alphabet>
    4ec5:	mov    rax,QWORD PTR [rax]
    4ec8:	movsx  esi,BYTE PTR [rax+rbx*4]
    4ecc:	call   3590 <strchr@plt>
    4ed1:	lea    rdx,[rip+0x5d3a8]        # 62280 <Alphabet>
    4ed8:	mov    r8d,eax
    4edb:	sub    r8d,edx
    4ede:	test   rax,rax
    4ee1:	je     4ef0 <SymbolIndex+0x40>
    4ee3:	mov    eax,r8d
    4ee6:	pop    rbx
    4ee7:	ret    
    4ee8:	nop    DWORD PTR [rax+rax*1+0x0]
    4ef0:	mov    eax,DWORD PTR [rip+0x5d3a6]        # 6229c <Alphabet_iupac>
    4ef6:	pop    rbx
    4ef7:	lea    r8d,[rax-0x1]
    4efb:	mov    eax,r8d
    4efe:	ret    
    4eff:	nop

0000000000004f00 <DigitizeSequence>:
    4f00:	endbr64 
    4f04:	push   r13
    4f06:	lea    edx,[rsi+0x2]
    4f09:	push   r12
    4f0b:	movsxd rdx,edx
    4f0e:	push   rbp
    4f0f:	mov    rbp,rdi
    4f12:	lea    rdi,[rip+0x38271]        # 3d18a <_IO_stdin_used+0x18a>
    4f19:	push   rbx
    4f1a:	mov    ebx,esi
    4f1c:	mov    esi,0xd7
    4f21:	sub    rsp,0x8
    4f25:	call   36810 <sre_malloc>
    4f2a:	movsxd rdx,ebx
    4f2d:	mov    r12,rax
    4f30:	mov    eax,DWORD PTR [rip+0x5d366]        # 6229c <Alphabet_iupac>
    4f36:	mov    BYTE PTR [r12+rdx*1+0x1],al
    4f3b:	mov    BYTE PTR [r12],al
    4f3f:	test   ebx,ebx
    4f41:	jle    4f6b <DigitizeSequence+0x6b>
    4f43:	lea    r13d,[rbx-0x1]
    4f47:	xor    ebx,ebx
    4f49:	nop    DWORD PTR [rax+0x0]
    4f50:	movsx  edi,BYTE PTR [rbp+rbx*1+0x0]
    4f55:	call   4eb0 <SymbolIndex>
    4f5a:	mov    BYTE PTR [r12+rbx*1+0x1],al
    4f5f:	mov    rax,rbx
    4f62:	add    rbx,0x1
    4f66:	cmp    rax,r13
    4f69:	jne    4f50 <DigitizeSequence+0x50>
    4f6b:	add    rsp,0x8
    4f6f:	mov    rax,r12
    4f72:	pop    rbx
    4f73:	pop    rbp
    4f74:	pop    r12
    4f76:	pop    r13
    4f78:	ret    
    4f79:	nop    DWORD PTR [rax+0x0]

0000000000004f80 <DedigitizeSequence>:
    4f80:	endbr64 
    4f84:	push   rbp
    4f85:	movsxd rbp,esi
    4f88:	mov    esi,0xeb
    4f8d:	push   rbx
    4f8e:	lea    edx,[rbp+0x1]
    4f91:	mov    rbx,rdi
    4f94:	lea    rdi,[rip+0x381ef]        # 3d18a <_IO_stdin_used+0x18a>
    4f9b:	movsxd rdx,edx
    4f9e:	sub    rsp,0x8
    4fa2:	call   36810 <sre_malloc>
    4fa7:	test   ebp,ebp
    4fa9:	jle    4fd6 <DedigitizeSequence+0x56>
    4fab:	lea    esi,[rbp-0x1]
    4fae:	mov    edx,0x1
    4fb3:	lea    rdi,[rip+0x5d2c6]        # 62280 <Alphabet>
    4fba:	add    rsi,0x2
    4fbe:	xchg   ax,ax
    4fc0:	movsx  rcx,BYTE PTR [rbx+rdx*1]
    4fc5:	movzx  ecx,BYTE PTR [rdi+rcx*1]
    4fc9:	mov    BYTE PTR [rax+rdx*1-0x1],cl
    4fcd:	add    rdx,0x1
    4fd1:	cmp    rsi,rdx
    4fd4:	jne    4fc0 <DedigitizeSequence+0x40>
    4fd6:	mov    BYTE PTR [rax+rbp*1],0x0
    4fda:	add    rsp,0x8
    4fde:	pop    rbx
    4fdf:	pop    rbp
    4fe0:	ret    
    4fe1:	data16 nop WORD PTR cs:[rax+rax*1+0x0]
    4fec:	nop    DWORD PTR [rax+0x0]

0000000000004ff0 <DigitizeAlignment>:
    4ff0:	endbr64 
    4ff4:	push   r15
    4ff6:	xor    r15d,r15d
    4ff9:	push   r14
    4ffb:	push   r13
    4ffd:	mov    r13,rdi
    5000:	push   r12
    5002:	push   rbp
    5003:	movabs rbp,0x8000000000006001
    500d:	push   rbx
    500e:	sub    rsp,0x28
    5012:	movsxd rdx,DWORD PTR [rdi+0x1c]
    5016:	lea    rdi,[rip+0x3816d]        # 3d18a <_IO_stdin_used+0x18a>
    501d:	mov    QWORD PTR [rsp+0x18],rsi
    5022:	mov    esi,0x108
    5027:	shl    rdx,0x3
    502b:	call   36810 <sre_malloc>
    5030:	mov    edx,DWORD PTR [r13+0x1c]
    5034:	mov    r12,rax
    5037:	test   edx,edx
    5039:	jle    511b <DigitizeAlignment+0x12b>
    503f:	nop
    5040:	mov    eax,DWORD PTR [r13+0x18]
    5044:	mov    esi,0x10a
    5049:	lea    rdi,[rip+0x3813a]        # 3d18a <_IO_stdin_used+0x18a>
    5050:	lea    r14,[r15*8+0x0]
    5058:	lea    edx,[rax+0x2]
    505b:	movsxd rdx,edx
    505e:	call   36810 <sre_malloc>
    5063:	mov    edx,DWORD PTR [rip+0x5d233]        # 6229c <Alphabet_iupac>
    5069:	mov    QWORD PTR [r12+r15*8],rax
    506d:	mov    BYTE PTR [rax],dl
    506f:	mov    eax,DWORD PTR [r13+0x18]
    5073:	test   eax,eax
    5075:	jle    5138 <DigitizeAlignment+0x148>
    507b:	xor    ebx,ebx
    507d:	mov    esi,0x1
    5082:	mov    edx,0x1
    5087:	jmp    509a <DigitizeAlignment+0xaa>
    5089:	nop    DWORD PTR [rax+0x0]
    5090:	add    rbx,0x1
    5094:	cmp    DWORD PTR [r13+0x18],ebx
    5098:	jle    5100 <DigitizeAlignment+0x110>
    509a:	mov    rax,QWORD PTR [r13+0x0]
    509e:	mov    rax,QWORD PTR [rax+r14*1]
    50a2:	movsx  edi,BYTE PTR [rax+rbx*1]
    50a6:	mov    eax,0x1
    50ab:	lea    ecx,[rdi-0x20]
    50ae:	cmp    cl,0x3f
    50b1:	ja     50bf <DigitizeAlignment+0xcf>
    50b3:	mov    rax,rbp
    50b6:	shr    rax,cl
    50b9:	not    rax
    50bc:	and    eax,0x1
    50bf:	mov    rcx,rdx
    50c2:	cmp    dil,0x7e
    50c6:	je     5090 <DigitizeAlignment+0xa0>
    50c8:	test   al,al
    50ca:	je     5090 <DigitizeAlignment+0xa0>
    50cc:	mov    QWORD PTR [rsp+0x10],rdx
    50d1:	add    rbx,0x1
    50d5:	mov    DWORD PTR [rsp+0xc],esi
    50d9:	call   4eb0 <SymbolIndex>
    50de:	mov    esi,DWORD PTR [rsp+0xc]
    50e2:	mov    rcx,QWORD PTR [r12+r15*8]
    50e6:	mov    rdx,QWORD PTR [rsp+0x10]
    50eb:	add    esi,0x1
    50ee:	mov    BYTE PTR [rcx+rdx*1],al
    50f1:	movsxd rdx,esi
    50f4:	mov    rcx,rdx
    50f7:	cmp    DWORD PTR [r13+0x18],ebx
    50fb:	jg     509a <DigitizeAlignment+0xaa>
    50fd:	nop    DWORD PTR [rax]
    5100:	mov    rax,QWORD PTR [r12+r15*8]
    5104:	mov    edx,DWORD PTR [rip+0x5d192]        # 6229c <Alphabet_iupac>
    510a:	add    r15,0x1
    510e:	mov    BYTE PTR [rax+rcx*1],dl
    5111:	cmp    DWORD PTR [r13+0x1c],r15d
    5115:	jg     5040 <DigitizeAlignment+0x50>
    511b:	mov    rax,QWORD PTR [rsp+0x18]
    5120:	mov    QWORD PTR [rax],r12
    5123:	add    rsp,0x28
    5127:	pop    rbx
    5128:	pop    rbp
    5129:	pop    r12
    512b:	pop    r13
    512d:	pop    r14
    512f:	pop    r15
    5131:	ret    
    5132:	nop    WORD PTR [rax+rax*1+0x0]
    5138:	mov    ecx,0x1
    513d:	jmp    5100 <DigitizeAlignment+0x110>
    513f:	nop

0000000000005140 <P7CountSymbol>:
    5140:	endbr64 
    5144:	mov    edx,DWORD PTR [rip+0x5d1b6]        # 62300 <Alphabet_size>
    514a:	movsx  rax,sil
    514e:	movsx  rsi,sil
    5152:	cmp    esi,edx
    5154:	jl     51b8 <P7CountSymbol+0x78>
    5156:	test   edx,edx
    5158:	jle    51c8 <P7CountSymbol+0x88>
    515a:	lea    r8d,[rdx-0x1]
    515e:	lea    rdx,[rax+rax*4]
    5162:	lea    rax,[rip+0x5cf37]        # 620a0 <Degenerate>
    5169:	lea    r9,[rip+0x5d130]        # 622a0 <DegenCount>
    5170:	lea    rcx,[rax+rdx*4]
    5174:	xor    eax,eax
    5176:	jmp    5183 <P7CountSymbol+0x43>
    5178:	nop    DWORD PTR [rax+rax*1+0x0]
    5180:	mov    rax,rdx
    5183:	cmp    BYTE PTR [rcx+rax*1],0x0
    5187:	je     51a8 <P7CountSymbol+0x68>
    5189:	pxor   xmm1,xmm1
    518d:	movaps xmm2,xmm0
    5190:	cvtsi2ss xmm1,DWORD PTR [r9+rsi*4]
    5196:	divss  xmm2,xmm1
    519a:	movss  xmm1,DWORD PTR [rdi+rax*4]
    519f:	addss  xmm1,xmm2
    51a3:	movss  DWORD PTR [rdi+rax*4],xmm1
    51a8:	lea    rdx,[rax+0x1]
    51ac:	cmp    rax,r8
    51af:	jne    5180 <P7CountSymbol+0x40>
    51b1:	ret    
    51b2:	nop    WORD PTR [rax+rax*1+0x0]
    51b8:	lea    rax,[rdi+rax*4]
    51bc:	addss  xmm0,DWORD PTR [rax]
    51c0:	movss  DWORD PTR [rax],xmm0
    51c4:	ret    
    51c5:	nop    DWORD PTR [rax]
    51c8:	ret    
    51c9:	nop    DWORD PTR [rax+0x0]

00000000000051d0 <DefaultGeneticCode>:
    51d0:	endbr64 
    51d4:	push   r13
    51d6:	lea    r13,[rip+0x5d0a3]        # 62280 <Alphabet>
    51dd:	push   r12
    51df:	push   rbp
    51e0:	mov    rbp,rdi
    51e3:	push   rbx
    51e4:	lea    rbx,[rip+0x48ad5]        # 4dcc0 <stdcode1>
    51eb:	lea    r12,[rbx+0x200]
    51f2:	sub    rsp,0x8
    51f6:	jmp    521b <DefaultGeneticCode+0x4b>
    51f8:	nop    DWORD PTR [rax+rax*1+0x0]
    5200:	mov    rdi,r13
    5203:	add    rbx,0x8
    5207:	add    rbp,0x4
    520b:	call   3590 <strchr@plt>
    5210:	sub    rax,r13
    5213:	mov    DWORD PTR [rbp-0x4],eax
    5216:	cmp    r12,rbx
    5219:	je     523b <DefaultGeneticCode+0x6b>
    521b:	mov    rax,QWORD PTR [rbx]
    521e:	movsx  esi,BYTE PTR [rax]
    5221:	cmp    sil,0x2a
    5225:	jne    5200 <DefaultGeneticCode+0x30>
    5227:	add    rbx,0x8
    522b:	mov    DWORD PTR [rbp+0x0],0xffffffff
    5232:	add    rbp,0x4
    5236:	cmp    r12,rbx
    5239:	jne    521b <DefaultGeneticCode+0x4b>
    523b:	add    rsp,0x8
    523f:	pop    rbx
    5240:	pop    rbp
    5241:	pop    r12
    5243:	pop    r13
    5245:	ret    
    5246:	nop    WORD PTR cs:[rax+rax*1+0x0]

0000000000005250 <DefaultCodonBias>:
    5250:	endbr64 
    5254:	movabs rax,0x3e8000003e800000
    525e:	movabs rsi,0x3eaaaaab3eaaaaab
    5268:	movabs rdx,0x3e2aaaab3e2aaaab
    5272:	movabs rcx,0x3f0000003f000000
    527c:	mov    QWORD PTR [rdi+0x10],rax
    5280:	mov    QWORD PTR [rdi+0x18],rax
    5284:	mov    QWORD PTR [rdi+0x50],rax
    5288:	mov    QWORD PTR [rdi+0x58],rax
    528c:	mov    QWORD PTR [rdi+0x90],rax
    5293:	mov    QWORD PTR [rdi+0x98],rax
    529a:	mov    QWORD PTR [rdi+0xa0],rax
    52a1:	mov    QWORD PTR [rdi+0xa8],rax
    52a8:	mov    QWORD PTR [rdi+0xb0],rax
    52af:	mov    QWORD PTR [rdi+0xb8],rax
    52b6:	movabs rax,0x3f00000000000000
    52c0:	mov    QWORD PTR [rdi+0xc0],rax
    52c7:	mov    QWORD PTR [rdi+0xc8],rax
    52ce:	mov    QWORD PTR [rdi+0xe0],rax
    52d5:	add    rax,0x3f800000
    52db:	mov    QWORD PTR [rdi+0x30],rsi
    52df:	add    rsi,0xd55555
    52e6:	mov    QWORD PTR [rdi+0xe8],rax
    52ed:	sub    rax,0x1555555
    52f3:	mov    QWORD PTR [rdi],rcx
    52f6:	mov    QWORD PTR [rdi+0x8],rcx
    52fa:	mov    QWORD PTR [rdi+0x20],rdx
    52fe:	mov    QWORD PTR [rdi+0x28],rdx
    5302:	mov    QWORD PTR [rdi+0x38],rsi
    5306:	mov    QWORD PTR [rdi+0x40],rcx
    530a:	mov    QWORD PTR [rdi+0x48],rcx
    530e:	mov    QWORD PTR [rdi+0x60],rdx
    5312:	mov    QWORD PTR [rdi+0x68],rdx
    5316:	mov    QWORD PTR [rdi+0x70],rdx
    531a:	mov    QWORD PTR [rdi+0x78],rdx
    531e:	mov    QWORD PTR [rdi+0x80],rcx
    5325:	mov    QWORD PTR [rdi+0x88],rcx
    532c:	mov    QWORD PTR [rdi+0xd0],rdx
    5333:	mov    QWORD PTR [rdi+0xd8],rdx
    533a:	mov    QWORD PTR [rdi+0xf0],rax
    5341:	mov    QWORD PTR [rdi+0xf8],rax
    5348:	ret    
    5349:	nop    DWORD PTR [rax+0x0]

0000000000005350 <CreatePlan7Matrix>:
    5350:	endbr64 
    5354:	push   r15
    5356:	push   r14
    5358:	mov    r14d,ecx
    535b:	push   r13
    535d:	push   r12
    535f:	push   rbp
    5360:	mov    ebp,edi
    5362:	lea    rdi,[rip+0x37e57]        # 3d1c0 <_IO_stdin_used+0x1c0>
    5369:	push   rbx
    536a:	lea    r15d,[rbp+0x1]
    536e:	mov    ebx,esi
    5370:	mov    esi,0x42
    5375:	sub    rsp,0x18
    5379:	mov    DWORD PTR [rsp+0x8],edx
    537d:	mov    edx,0x50
    5382:	call   36810 <sre_malloc>
    5387:	movsxd rdx,r15d
    538a:	mov    esi,0x43
    538f:	lea    rdi,[rip+0x37e2a]        # 3d1c0 <_IO_stdin_used+0x1c0>
    5396:	lea    r13,[rdx*8+0x0]
    539e:	mov    r12,rax
    53a1:	mov    rdx,r13
    53a4:	call   36810 <sre_malloc>
    53a9:	mov    rdx,r13
    53ac:	mov    esi,0x44
    53b1:	lea    rdi,[rip+0x37e08]        # 3d1c0 <_IO_stdin_used+0x1c0>
    53b8:	mov    QWORD PTR [r12],rax
    53bc:	call   36810 <sre_malloc>
    53c1:	mov    rdx,r13
    53c4:	mov    esi,0x45
    53c9:	lea    rdi,[rip+0x37df0]        # 3d1c0 <_IO_stdin_used+0x1c0>
    53d0:	mov    QWORD PTR [r12+0x8],rax
    53d5:	call   36810 <sre_malloc>
    53da:	mov    rdx,r13
    53dd:	mov    esi,0x46
    53e2:	lea    rdi,[rip+0x37dd7]        # 3d1c0 <_IO_stdin_used+0x1c0>
    53e9:	mov    QWORD PTR [r12+0x10],rax
    53ee:	call   36810 <sre_malloc>
    53f3:	lea    edx,[r15+r15*4]
    53f7:	mov    esi,0x47
    53fc:	lea    rdi,[rip+0x37dbd]        # 3d1c0 <_IO_stdin_used+0x1c0>
    5403:	mov    QWORD PTR [r12+0x18],rax
    5408:	movsxd rdx,edx
    540b:	shl    rdx,0x2
    540f:	call   36810 <sre_malloc>
    5414:	lea    r11d,[rbx+0x2]
    5418:	mov    esi,0x48
    541d:	lea    rdi,[rip+0x37d9c]        # 3d1c0 <_IO_stdin_used+0x1c0>
    5424:	imul   r15d,r11d
    5428:	mov    QWORD PTR [r12+0x20],rax
    542d:	mov    DWORD PTR [rsp+0xc],r11d
    5432:	movsxd r15,r15d
    5435:	shl    r15,0x2
    5439:	mov    rdx,r15
    543c:	call   36810 <sre_malloc>
    5441:	mov    rdx,r15
    5444:	mov    esi,0x49
    5449:	lea    rdi,[rip+0x37d70]        # 3d1c0 <_IO_stdin_used+0x1c0>
    5450:	mov    QWORD PTR [r12+0x28],rax
    5455:	call   36810 <sre_malloc>
    545a:	lea    rdi,[rip+0x37d5f]        # 3d1c0 <_IO_stdin_used+0x1c0>
    5461:	mov    rdx,r15
    5464:	mov    esi,0x4a
    5469:	mov    QWORD PTR [r12+0x30],rax
    546e:	call   36810 <sre_malloc>
    5473:	mov    rdi,QWORD PTR [r12]
    5477:	mov    r8,QWORD PTR [r12+0x8]
    547c:	mov    r9,QWORD PTR [r12+0x10]
    5481:	mov    rcx,QWORD PTR [r12+0x18]
    5486:	mov    QWORD PTR [r12+0x38],rax
    548b:	mov    rax,QWORD PTR [r12+0x20]
    5490:	mov    QWORD PTR [rdi],rax
    5493:	mov    rax,QWORD PTR [r12+0x28]
    5498:	mov    QWORD PTR [r8],rax
    549b:	mov    rax,QWORD PTR [r12+0x30]
    54a0:	mov    QWORD PTR [r9],rax
    54a3:	mov    rax,QWORD PTR [r12+0x38]
    54a8:	mov    QWORD PTR [rcx],rax
    54ab:	test   ebp,ebp
    54ad:	jle    5508 <CreatePlan7Matrix+0x1b8>
    54af:	movsxd r11,DWORD PTR [rsp+0xc]
    54b4:	lea    r15d,[rbp-0x1]
    54b8:	mov    esi,0x14
    54bd:	mov    eax,0x1
    54c2:	add    r15,0x2
    54c6:	shl    r11,0x2
    54ca:	mov    rdx,r11
    54cd:	nop    DWORD PTR [rax]
    54d0:	mov    r10,QWORD PTR [rdi]
    54d3:	add    r10,rsi
    54d6:	add    rsi,0x14
    54da:	mov    QWORD PTR [rdi+rax*8],r10
    54de:	mov    r10,QWORD PTR [r8]
    54e1:	add    r10,rdx
    54e4:	mov    QWORD PTR [r8+rax*8],r10
    54e8:	mov    r10,QWORD PTR [r9]
    54eb:	add    r10,rdx
    54ee:	mov    QWORD PTR [r9+rax*8],r10
    54f2:	mov    r10,QWORD PTR [rcx]
    54f5:	add    r10,rdx
    54f8:	add    rdx,r11
    54fb:	mov    QWORD PTR [rcx+rax*8],r10
    54ff:	add    rax,0x1
    5503:	cmp    rax,r15
    5506:	jne    54d0 <CreatePlan7Matrix+0x180>
    5508:	test   r14d,r14d
    550b:	jle    5515 <CreatePlan7Matrix+0x1c5>
    550d:	mov    eax,DWORD PTR [rsp+0x8]
    5511:	test   eax,eax
    5513:	jg     5540 <CreatePlan7Matrix+0x1f0>
    5515:	mov    eax,DWORD PTR [rsp+0x8]
    5519:	mov    DWORD PTR [r12+0x40],ebp
    551e:	mov    DWORD PTR [r12+0x44],ebx
    5523:	mov    DWORD PTR [r12+0x48],eax
    5528:	mov    rax,r12
    552b:	mov    DWORD PTR [r12+0x4c],r14d
    5530:	add    rsp,0x18
    5534:	pop    rbx
    5535:	pop    rbp
    5536:	pop    r12
    5538:	pop    r13
    553a:	pop    r14
    553c:	pop    r15
    553e:	ret    
    553f:	nop
    5540:	lea    rdi,[rip+0x37cd9]        # 3d220 <_IO_stdin_used+0x220>
    5547:	xor    eax,eax
    5549:	call   317f0 <Die>
    554e:	jmp    5515 <CreatePlan7Matrix+0x1c5>

0000000000005550 <ResizePlan7Matrix>:
    5550:	endbr64 
    5554:	push   r15
    5556:	mov    r15,r9
    5559:	push   r14
    555b:	push   r13
    555d:	push   r12
    555f:	mov    r12d,esi
    5562:	push   rbp
    5563:	mov    ebp,edx
    5565:	push   rbx
    5566:	mov    rbx,rdi
    5569:	sub    rsp,0x18
    556d:	mov    QWORD PTR [rsp],rcx
    5571:	mov    QWORD PTR [rsp+0x8],r8
    5576:	cmp    DWORD PTR [rdi+0x40],esi
    5579:	jl     5700 <ResizePlan7Matrix+0x1b0>
    557f:	lea    r13d,[rsi+0x1]
    5583:	cmp    DWORD PTR [rdi+0x44],edx
    5586:	jge    56a8 <ResizePlan7Matrix+0x158>
    558c:	add    ebp,DWORD PTR [rbx+0x4c]
    558f:	mov    DWORD PTR [rbx+0x44],ebp
    5592:	lea    ecx,[r13+r13*4+0x0]
    5597:	mov    rdx,QWORD PTR [rbx+0x20]
    559b:	mov    esi,0x90
    55a0:	add    ebp,0x2
    55a3:	movsxd rcx,ecx
    55a6:	lea    rdi,[rip+0x37c13]        # 3d1c0 <_IO_stdin_used+0x1c0>
    55ad:	shl    rcx,0x2
    55b1:	call   36860 <sre_realloc>
    55b6:	mov    r8d,r13d
    55b9:	mov    rdx,QWORD PTR [rbx+0x28]
    55bd:	mov    esi,0x91
    55c2:	imul   r8d,ebp
    55c6:	mov    QWORD PTR [rbx+0x20],rax
    55ca:	lea    rdi,[rip+0x37bef]        # 3d1c0 <_IO_stdin_used+0x1c0>
    55d1:	movsxd rcx,r8d
    55d4:	lea    r13,[rcx*4+0x0]
    55dc:	mov    rcx,r13
    55df:	call   36860 <sre_realloc>
    55e4:	mov    rdx,QWORD PTR [rbx+0x30]
    55e8:	mov    rcx,r13
    55eb:	mov    esi,0x92
    55f0:	mov    QWORD PTR [rbx+0x28],rax
    55f4:	lea    rdi,[rip+0x37bc5]        # 3d1c0 <_IO_stdin_used+0x1c0>
    55fb:	call   36860 <sre_realloc>
    5600:	mov    rdx,QWORD PTR [rbx+0x38]
    5604:	mov    esi,0x93
    5609:	mov    rcx,r13
    560c:	mov    QWORD PTR [rbx+0x30],rax
    5610:	lea    rdi,[rip+0x37ba9]        # 3d1c0 <_IO_stdin_used+0x1c0>
    5617:	call   36860 <sre_realloc>
    561c:	mov    rsi,QWORD PTR [rbx]
    561f:	mov    rdi,QWORD PTR [rbx+0x8]
    5623:	mov    r8,QWORD PTR [rbx+0x10]
    5627:	mov    r9,QWORD PTR [rbx+0x18]
    562b:	mov    QWORD PTR [rbx+0x38],rax
    562f:	mov    rax,QWORD PTR [rbx+0x20]
    5633:	mov    QWORD PTR [rsi],rax
    5636:	mov    rax,QWORD PTR [rbx+0x28]
    563a:	mov    QWORD PTR [rdi],rax
    563d:	mov    rax,QWORD PTR [rbx+0x30]
    5641:	mov    QWORD PTR [r8],rax
    5644:	mov    rax,QWORD PTR [rbx+0x38]
    5648:	mov    QWORD PTR [r9],rax
    564b:	test   r12d,r12d
    564e:	jle    56a8 <ResizePlan7Matrix+0x158>
    5650:	movsxd rbp,ebp
    5653:	lea    r11d,[r12-0x1]
    5658:	mov    ecx,0x14
    565d:	mov    eax,0x1
    5662:	shl    rbp,0x2
    5666:	add    r11,0x2
    566a:	mov    rdx,rbp
    566d:	nop    DWORD PTR [rax]
    5670:	mov    r10,QWORD PTR [rsi]
    5673:	add    r10,rcx
    5676:	add    rcx,0x14
    567a:	mov    QWORD PTR [rsi+rax*8],r10
    567e:	mov    r10,QWORD PTR [rdi]
    5681:	add    r10,rdx
    5684:	mov    QWORD PTR [rdi+rax*8],r10
    5688:	mov    r10,QWORD PTR [r8]
    568b:	add    r10,rdx
    568e:	mov    QWORD PTR [r8+rax*8],r10
    5692:	mov    r10,QWORD PTR [r9]
    5695:	add    r10,rdx
    5698:	add    rdx,rbp
    569b:	mov    QWORD PTR [r9+rax*8],r10
    569f:	add    rax,0x1
    56a3:	cmp    r11,rax
    56a6:	jne    5670 <ResizePlan7Matrix+0x120>
    56a8:	cmp    QWORD PTR [rsp],0x0
    56ad:	je     56b9 <ResizePlan7Matrix+0x169>
    56af:	mov    rax,QWORD PTR [rbx]
    56b2:	mov    rdi,QWORD PTR [rsp]
    56b6:	mov    QWORD PTR [rdi],rax
    56b9:	mov    rsi,QWORD PTR [rsp+0x8]
    56be:	test   rsi,rsi
    56c1:	je     56ca <ResizePlan7Matrix+0x17a>
    56c3:	mov    rax,QWORD PTR [rbx+0x8]
    56c7:	mov    QWORD PTR [rsi],rax
    56ca:	test   r15,r15
    56cd:	je     56d6 <ResizePlan7Matrix+0x186>
    56cf:	mov    rax,QWORD PTR [rbx+0x10]
    56d3:	mov    QWORD PTR [r15],rax
    56d6:	cmp    QWORD PTR [rsp+0x50],0x0
    56dc:	je     56ea <ResizePlan7Matrix+0x19a>
    56de:	mov    rax,QWORD PTR [rbx+0x18]
    56e2:	mov    rdi,QWORD PTR [rsp+0x50]
    56e7:	mov    QWORD PTR [rdi],rax
    56ea:	add    rsp,0x18
    56ee:	pop    rbx
    56ef:	pop    rbp
    56f0:	pop    r12
    56f2:	pop    r13
    56f4:	pop    r14
    56f6:	pop    r15
    56f8:	ret    
    56f9:	nop    DWORD PTR [rax+0x0]
    5700:	add    r12d,DWORD PTR [rdi+0x48]
    5704:	mov    rdx,QWORD PTR [rdi]
    5707:	mov    esi,0x85
    570c:	lea    r13d,[r12+0x1]
    5711:	mov    DWORD PTR [rdi+0x40],r12d
    5715:	lea    rdi,[rip+0x37aa4]        # 3d1c0 <_IO_stdin_used+0x1c0>
    571c:	movsxd rcx,r13d
    571f:	lea    r14,[rcx*8+0x0]
    5727:	mov    rcx,r14
    572a:	call   36860 <sre_realloc>
    572f:	mov    rdx,QWORD PTR [rbx+0x8]
    5733:	mov    rcx,r14
    5736:	mov    esi,0x86
    573b:	mov    QWORD PTR [rbx],rax
    573e:	lea    rdi,[rip+0x37a7b]        # 3d1c0 <_IO_stdin_used+0x1c0>
    5745:	call   36860 <sre_realloc>
    574a:	mov    rdx,QWORD PTR [rbx+0x10]
    574e:	mov    rcx,r14
    5751:	mov    esi,0x87
    5756:	mov    QWORD PTR [rbx+0x8],rax
    575a:	lea    rdi,[rip+0x37a5f]        # 3d1c0 <_IO_stdin_used+0x1c0>
    5761:	call   36860 <sre_realloc>
    5766:	mov    rdx,QWORD PTR [rbx+0x18]
    576a:	mov    rcx,r14
    576d:	mov    esi,0x88
    5772:	mov    QWORD PTR [rbx+0x10],rax
    5776:	lea    rdi,[rip+0x37a43]        # 3d1c0 <_IO_stdin_used+0x1c0>
    577d:	call   36860 <sre_realloc>
    5782:	mov    QWORD PTR [rbx+0x18],rax
    5786:	cmp    DWORD PTR [rbx+0x44],ebp
    5789:	jge    5592 <ResizePlan7Matrix+0x42>
    578f:	jmp    558c <ResizePlan7Matrix+0x3c>
    5794:	data16 nop WORD PTR cs:[rax+rax*1+0x0]
    579f:	nop

00000000000057a0 <AllocPlan7Matrix>:
    57a0:	endbr64 
    57a4:	push   r13
    57a6:	sub    edi,0x1
    57a9:	mov    r13,r8
    57ac:	push   r12
    57ae:	mov    r12,rdx
    57b1:	xor    edx,edx
    57b3:	push   rbp
    57b4:	mov    rbp,rcx
    57b7:	xor    ecx,ecx
    57b9:	push   rbx
    57ba:	mov    rbx,r9
    57bd:	sub    rsp,0x8
    57c1:	call   5350 <CreatePlan7Matrix>
    57c6:	test   r12,r12
    57c9:	je     57d2 <AllocPlan7Matrix+0x32>
    57cb:	mov    rdx,QWORD PTR [rax]
    57ce:	mov    QWORD PTR [r12],rdx
    57d2:	test   rbp,rbp
    57d5:	je     57df <AllocPlan7Matrix+0x3f>
    57d7:	mov    rdx,QWORD PTR [rax+0x8]
    57db:	mov    QWORD PTR [rbp+0x0],rdx
    57df:	test   r13,r13
    57e2:	je     57ec <AllocPlan7Matrix+0x4c>
    57e4:	mov    rdx,QWORD PTR [rax+0x10]
    57e8:	mov    QWORD PTR [r13+0x0],rdx
    57ec:	test   rbx,rbx
    57ef:	je     57f8 <AllocPlan7Matrix+0x58>
    57f1:	mov    rdx,QWORD PTR [rax+0x18]
    57f5:	mov    QWORD PTR [rbx],rdx
    57f8:	add    rsp,0x8
    57fc:	pop    rbx
    57fd:	pop    rbp
    57fe:	pop    r12
    5800:	pop    r13
    5802:	ret    
    5803:	data16 nop WORD PTR cs:[rax+rax*1+0x0]
    580e:	xchg   ax,ax

0000000000005810 <FreePlan7Matrix>:
    5810:	endbr64 
    5814:	push   rbp
    5815:	mov    rbp,rdi
    5818:	mov    rdi,QWORD PTR [rdi+0x20]
    581c:	call   3460 <free@plt>
    5821:	mov    rdi,QWORD PTR [rbp+0x28]
    5825:	call   3460 <free@plt>
    582a:	mov    rdi,QWORD PTR [rbp+0x30]
    582e:	call   3460 <free@plt>
    5833:	mov    rdi,QWORD PTR [rbp+0x38]
    5837:	call   3460 <free@plt>
    583c:	mov    rdi,QWORD PTR [rbp+0x0]
    5840:	call   3460 <free@plt>
    5845:	mov    rdi,QWORD PTR [rbp+0x8]
    5849:	call   3460 <free@plt>
    584e:	mov    rdi,QWORD PTR [rbp+0x10]
    5852:	call   3460 <free@plt>
    5857:	mov    rdi,QWORD PTR [rbp+0x18]
    585b:	call   3460 <free@plt>
    5860:	mov    rdi,rbp
    5863:	pop    rbp
    5864:	jmp    3460 <free@plt>
    5869:	nop    DWORD PTR [rax+0x0]

0000000000005870 <AllocShadowMatrix>:
    5870:	endbr64 
    5874:	push   r15
    5876:	mov    r15,r8
    5879:	push   r14
    587b:	push   r13
    587d:	movsxd r13,edi
    5880:	lea    rdi,[rip+0x37939]        # 3d1c0 <_IO_stdin_used+0x1c0>
    5887:	push   r12
    5889:	lea    r14,[r13*8+0x0]
    5891:	push   rbp
    5892:	mov    rbp,r13
    5895:	push   rbx
    5896:	mov    ebx,esi
    5898:	mov    esi,0xf4
    589d:	add    ebx,0x2
    58a0:	sub    rsp,0x28
    58a4:	mov    QWORD PTR [rsp],rdx
    58a8:	mov    edx,0x28
    58ad:	mov    QWORD PTR [rsp+0x18],r9
    58b2:	mov    QWORD PTR [rsp+0x8],rcx
    58b7:	call   36810 <sre_malloc>
    58bc:	mov    rdx,r14
    58bf:	mov    esi,0xf5
    58c4:	lea    rdi,[rip+0x378f5]        # 3d1c0 <_IO_stdin_used+0x1c0>
    58cb:	mov    r12,rax
    58ce:	call   36810 <sre_malloc>
    58d3:	mov    rdx,r14
    58d6:	mov    esi,0xf6
    58db:	lea    rdi,[rip+0x378de]        # 3d1c0 <_IO_stdin_used+0x1c0>
    58e2:	mov    QWORD PTR [r12],rax
    58e6:	call   36810 <sre_malloc>
    58eb:	mov    rdx,r14
    58ee:	mov    esi,0xf7
    58f3:	lea    rdi,[rip+0x378c6]        # 3d1c0 <_IO_stdin_used+0x1c0>
    58fa:	mov    QWORD PTR [r12+0x8],rax
    58ff:	call   36810 <sre_malloc>
    5904:	mov    rdx,r14
    5907:	mov    esi,0xf8
    590c:	lea    rdi,[rip+0x378ad]        # 3d1c0 <_IO_stdin_used+0x1c0>
    5913:	mov    QWORD PTR [r12+0x10],rax
    5918:	call   36810 <sre_malloc>
    591d:	lea    rdx,[r13*4+0x0]
    5925:	mov    esi,0xf9
    592a:	lea    rdi,[rip+0x3788f]        # 3d1c0 <_IO_stdin_used+0x1c0>
    5931:	mov    QWORD PTR [r12+0x18],rax
    5936:	call   36810 <sre_malloc>
    593b:	lea    edx,[rbp+rbp*4+0x0]
    593f:	mov    esi,0xfa
    5944:	lea    rdi,[rip+0x37875]        # 3d1c0 <_IO_stdin_used+0x1c0>
    594b:	mov    QWORD PTR [r12+0x20],rax
    5950:	movsxd rdx,edx
    5953:	mov    r13,QWORD PTR [r12]
    5957:	call   36810 <sre_malloc>
    595c:	mov    edx,ebx
    595e:	mov    rcx,QWORD PTR [r12+0x8]
    5963:	mov    esi,0xfb
    5968:	imul   edx,ebp
    596b:	mov    QWORD PTR [r13+0x0],rax
    596f:	lea    rdi,[rip+0x3784a]        # 3d1c0 <_IO_stdin_used+0x1c0>
    5976:	mov    QWORD PTR [rsp+0x10],rcx
    597b:	movsxd r13,edx
    597e:	mov    rdx,r13
    5981:	call   36810 <sre_malloc>
    5986:	mov    rcx,QWORD PTR [rsp+0x10]
    598b:	mov    rdx,r13
    598e:	mov    esi,0xfc
    5993:	lea    rdi,[rip+0x37826]        # 3d1c0 <_IO_stdin_used+0x1c0>
    599a:	mov    QWORD PTR [rcx],rax
    599d:	mov    rcx,QWORD PTR [r12+0x10]
    59a2:	mov    QWORD PTR [rsp+0x10],rcx
    59a7:	call   36810 <sre_malloc>
    59ac:	mov    rcx,QWORD PTR [rsp+0x10]
    59b1:	mov    rdx,r13
    59b4:	mov    esi,0xfd
    59b9:	lea    rdi,[rip+0x37800]        # 3d1c0 <_IO_stdin_used+0x1c0>
    59c0:	mov    QWORD PTR [rcx],rax
    59c3:	mov    rcx,QWORD PTR [r12+0x18]
    59c8:	mov    QWORD PTR [rsp+0x10],rcx
    59cd:	call   36810 <sre_malloc>
    59d2:	mov    rcx,QWORD PTR [rsp+0x10]
    59d7:	cmp    ebp,0x1
    59da:	mov    r9,QWORD PTR [rsp+0x18]
    59df:	mov    QWORD PTR [rcx],rax
    59e2:	jle    5a45 <AllocShadowMatrix+0x1d5>
    59e4:	movsxd rbx,ebx
    59e7:	lea    r11d,[rbp-0x2]
    59eb:	mov    r10,QWORD PTR [r12]
    59ef:	mov    r8,QWORD PTR [r12+0x8]
    59f4:	mov    rdi,QWORD PTR [r12+0x10]
    59f9:	mov    rcx,QWORD PTR [r12+0x18]
    59fe:	add    r11,0x2
    5a02:	mov    rdx,rbx
    5a05:	mov    eax,0x1
    5a0a:	nop    WORD PTR [rax+rax*1+0x0]
    5a10:	lea    rsi,[rax+rax*4]
    5a14:	add    rsi,QWORD PTR [r10]
    5a17:	mov    QWORD PTR [r10+rax*8],rsi
    5a1b:	mov    rsi,QWORD PTR [r8]
    5a1e:	add    rsi,rdx
    5a21:	mov    QWORD PTR [r8+rax*8],rsi
    5a25:	mov    rsi,QWORD PTR [rdi]
    5a28:	add    rsi,rdx
    5a2b:	mov    QWORD PTR [rdi+rax*8],rsi
    5a2f:	mov    rsi,QWORD PTR [rcx]
    5a32:	add    rsi,rdx
    5a35:	add    rdx,rbx
    5a38:	mov    QWORD PTR [rcx+rax*8],rsi
    5a3c:	add    rax,0x1
    5a40:	cmp    r11,rax
    5a43:	jne    5a10 <AllocShadowMatrix+0x1a0>
    5a45:	mov    rbx,QWORD PTR [rsp]
    5a49:	test   rbx,rbx
    5a4c:	je     5a55 <AllocShadowMatrix+0x1e5>
    5a4e:	mov    rax,QWORD PTR [r12]
    5a52:	mov    QWORD PTR [rbx],rax
    5a55:	mov    rbx,QWORD PTR [rsp+0x8]
    5a5a:	test   rbx,rbx
    5a5d:	je     5a67 <AllocShadowMatrix+0x1f7>
    5a5f:	mov    rax,QWORD PTR [r12+0x8]
    5a64:	mov    QWORD PTR [rbx],rax
    5a67:	test   r15,r15
    5a6a:	je     5a74 <AllocShadowMatrix+0x204>
    5a6c:	mov    rax,QWORD PTR [r12+0x10]
    5a71:	mov    QWORD PTR [r15],rax
    5a74:	test   r9,r9
    5a77:	je     5a81 <AllocShadowMatrix+0x211>
    5a79:	mov    rax,QWORD PTR [r12+0x18]
    5a7e:	mov    QWORD PTR [r9],rax
    5a81:	add    rsp,0x28
    5a85:	mov    rax,r12
    5a88:	pop    rbx
    5a89:	pop    rbp
    5a8a:	pop    r12
    5a8c:	pop    r13
    5a8e:	pop    r14
    5a90:	pop    r15
    5a92:	ret    
    5a93:	data16 nop WORD PTR cs:[rax+rax*1+0x0]
    5a9e:	xchg   ax,ax

0000000000005aa0 <FreeShadowMatrix>:
    5aa0:	endbr64 
    5aa4:	push   rbp
    5aa5:	mov    rax,QWORD PTR [rdi]
    5aa8:	mov    rbp,rdi
    5aab:	mov    rdi,QWORD PTR [rax]
    5aae:	call   3460 <free@plt>
    5ab3:	mov    rax,QWORD PTR [rbp+0x8]
    5ab7:	mov    rdi,QWORD PTR [rax]
    5aba:	call   3460 <free@plt>
    5abf:	mov    rax,QWORD PTR [rbp+0x10]
    5ac3:	mov    rdi,QWORD PTR [rax]
    5ac6:	call   3460 <free@plt>
    5acb:	mov    rax,QWORD PTR [rbp+0x18]
    5acf:	mov    rdi,QWORD PTR [rax]
    5ad2:	call   3460 <free@plt>
    5ad7:	mov    rdi,QWORD PTR [rbp+0x20]
    5adb:	call   3460 <free@plt>
    5ae0:	mov    rdi,QWORD PTR [rbp+0x0]
    5ae4:	call   3460 <free@plt>
    5ae9:	mov    rdi,QWORD PTR [rbp+0x8]
    5aed:	call   3460 <free@plt>
    5af2:	mov    rdi,QWORD PTR [rbp+0x10]
    5af6:	call   3460 <free@plt>
    5afb:	mov    rdi,QWORD PTR [rbp+0x18]
    5aff:	call   3460 <free@plt>
    5b04:	mov    rdi,rbp
    5b07:	pop    rbp
    5b08:	jmp    3460 <free@plt>
    5b0d:	nop    DWORD PTR [rax]

0000000000005b10 <P7ViterbiSize>:
    5b10:	endbr64 
    5b14:	add    edi,0x1
    5b17:	pxor   xmm2,xmm2
    5b1b:	pxor   xmm1,xmm1
    5b1f:	add    esi,0x2
    5b22:	cvtsi2ss xmm2,edi
    5b26:	movsd  xmm0,QWORD PTR [rip+0x3782a]        # 3d358 <_IO_stdin_used+0x358>
    5b2e:	cvtsi2ss xmm1,esi
    5b32:	cvtss2sd xmm2,xmm2
    5b36:	mulsd  xmm0,xmm2
    5b3a:	movapd xmm3,xmm2
    5b3e:	cvtss2sd xmm1,xmm1
    5b42:	mulsd  xmm2,QWORD PTR [rip+0x3782e]        # 3d378 <_IO_stdin_used+0x378>
    5b4a:	mulsd  xmm1,xmm0
    5b4e:	movsd  xmm0,QWORD PTR [rip+0x3780a]        # 3d360 <_IO_stdin_used+0x360>
    5b56:	mulsd  xmm3,xmm0
    5b5a:	mulsd  xmm3,QWORD PTR [rip+0x3780e]        # 3d370 <_IO_stdin_used+0x370>
    5b62:	mulsd  xmm2,xmm0
    5b66:	mulsd  xmm1,xmm0
    5b6a:	pxor   xmm0,xmm0
    5b6e:	addsd  xmm1,QWORD PTR [rip+0x377f2]        # 3d368 <_IO_stdin_used+0x368>
    5b76:	cvtsd2ss xmm1,xmm1
    5b7a:	cvtss2sd xmm1,xmm1
    5b7e:	addsd  xmm1,xmm3
    5b82:	cvtsd2ss xmm1,xmm1
    5b86:	cvtss2sd xmm0,xmm1
    5b8a:	addsd  xmm0,xmm2
    5b8e:	cvtsd2ss xmm0,xmm0
    5b92:	mulss  xmm0,DWORD PTR [rip+0x377fe]        # 3d398 <_IO_stdin_used+0x398>
    5b9a:	cvttss2si eax,xmm0
    5b9e:	ret    
    5b9f:	nop

0000000000005ba0 <P7SmallViterbiSize>:
    5ba0:	endbr64 
    5ba4:	lea    eax,[rsi+rsi*2+0x6]
    5ba8:	lea    edx,[rdi+rdi*1+0x2]
    5bac:	movabs rcx,0x431bde82d7b634db
    5bb6:	shl    eax,0x2
    5bb9:	movsxd rdx,edx
    5bbc:	cdqe   
    5bbe:	lea    rdx,[rdx+rax*1+0x5c]
    5bc3:	shl    rdx,0x2
    5bc7:	mov    rax,rdx
    5bca:	mul    rcx
    5bcd:	mov    rax,rdx
    5bd0:	shr    rax,0x12
    5bd4:	ret    
    5bd5:	data16 nop WORD PTR cs:[rax+rax*1+0x0]

0000000000005be0 <P7WeeViterbiSize>:
    5be0:	endbr64 
    5be4:	add    edi,0x2
    5be7:	lea    eax,[rsi+rsi*2+0x6]
    5beb:	movsxd rcx,edi
    5bee:	add    edi,edi
    5bf0:	shl    eax,0x2
    5bf3:	movsxd rdi,edi
    5bf6:	cdqe   
    5bf8:	lea    rdx,[rcx+rdi*1+0x5c]
    5bfd:	add    rax,rdx
    5c00:	lea    rdx,[rcx+rax*4]
    5c04:	movabs rcx,0x431bde82d7b634db
    5c0e:	mov    rax,rdx
    5c11:	mul    rcx
    5c14:	mov    rax,rdx
    5c17:	shr    rax,0x12
    5c1b:	ret    
    5c1c:	nop    DWORD PTR [rax+0x0]

0000000000005c20 <P7Forward>:
    5c20:	endbr64 
    5c24:	push   r15
    5c26:	mov    r15,rdx
    5c29:	push   r14
    5c2b:	mov    r14,rdi
    5c2e:	mov    edi,esi
    5c30:	push   r13
    5c32:	push   r12
    5c34:	push   rbp
    5c35:	push   rbx
    5c36:	sub    rsp,0x48
    5c3a:	mov    DWORD PTR [rsp+0x24],esi
    5c3e:	mov    esi,DWORD PTR [rdx+0x88]
    5c44:	xor    edx,edx
    5c46:	mov    QWORD PTR [rsp+0x38],rcx
    5c4b:	xor    ecx,ecx
    5c4d:	call   5350 <CreatePlan7Matrix>
    5c52:	mov    rcx,QWORD PTR [rax]
    5c55:	mov    rbx,QWORD PTR [rax+0x8]
    5c59:	mov    QWORD PTR [rsp+0x30],rax
    5c5e:	mov    rbp,QWORD PTR [rax+0x10]
    5c62:	mov    r13,QWORD PTR [rax+0x18]
    5c66:	mov    rdi,QWORD PTR [rcx]
    5c69:	mov    QWORD PTR [rsp+0x28],rcx
    5c6e:	mov    DWORD PTR [rdi+0x10],0x0
    5c75:	mov    eax,DWORD PTR [r15+0x150]
    5c7c:	mov    DWORD PTR [rdi+0xc],0xc521974f
    5c83:	mov    DWORD PTR [rdi],eax
    5c85:	movabs rax,0xc521974fc521974f
    5c8f:	mov    QWORD PTR [rdi+0x4],rax
    5c93:	mov    ecx,DWORD PTR [r15+0x88]
    5c9a:	test   ecx,ecx
    5c9c:	js     5cd2 <P7Forward+0xb2>
    5c9e:	mov    rsi,QWORD PTR [r13+0x0]
    5ca2:	mov    rcx,QWORD PTR [rbp+0x0]
    5ca6:	xor    eax,eax
    5ca8:	mov    rdx,QWORD PTR [rbx]
    5cab:	nop    DWORD PTR [rax+rax*1+0x0]
    5cb0:	mov    DWORD PTR [rsi+rax*4],0xc521974f
    5cb7:	mov    DWORD PTR [rcx+rax*4],0xc521974f
    5cbe:	mov    DWORD PTR [rdx+rax*4],0xc521974f
    5cc5:	add    rax,0x1
    5cc9:	cmp    DWORD PTR [r15+0x88],eax
    5cd0:	jge    5cb0 <P7Forward+0x90>
    5cd2:	mov    eax,DWORD PTR [rsp+0x24]
    5cd6:	test   eax,eax
    5cd8:	jle    60b0 <P7Forward+0x490>
    5cde:	mov    rcx,QWORD PTR [rsp+0x28]
    5ce3:	sub    eax,0x1
    5ce6:	mov    QWORD PTR [rsp],r14
    5cea:	add    rbx,0x8
    5cee:	add    rax,r14
    5cf1:	mov    QWORD PTR [rsp+0x10],rcx
    5cf6:	mov    QWORD PTR [rsp+0x18],rax
    5cfb:	nop    DWORD PTR [rax+rax*1+0x0]
    5d00:	mov    rax,QWORD PTR [r13+0x8]
    5d04:	mov    DWORD PTR [rax],0xc521974f
    5d0a:	mov    rax,QWORD PTR [rbp+0x8]
    5d0e:	mov    DWORD PTR [rax],0xc521974f
    5d14:	mov    rax,QWORD PTR [rbx]
    5d17:	mov    DWORD PTR [rax],0xc521974f
    5d1d:	movsxd rax,DWORD PTR [r15+0x88]
    5d24:	cmp    eax,0x1
    5d27:	jle    5eb4 <P7Forward+0x294>
    5d2d:	mov    rax,r13
    5d30:	xor    ecx,ecx
    5d32:	mov    r13,rbp
    5d35:	mov    r14,rcx
    5d38:	mov    rbp,rax
    5d3b:	jmp    5d48 <P7Forward+0x128>
    5d3d:	nop    DWORD PTR [rax]
    5d40:	mov    rax,QWORD PTR [rsp+0x10]
    5d45:	mov    rdi,QWORD PTR [rax]
    5d48:	mov    rax,QWORD PTR [r15+0x138]
    5d4f:	add    r14,0x1
    5d53:	mov    rsi,QWORD PTR [rbp+0x0]
    5d57:	lea    r12,[r14*4+0x0]
    5d5f:	mov    edi,DWORD PTR [rdi]
    5d61:	mov    rax,QWORD PTR [rax+0x28]
    5d65:	mov    esi,DWORD PTR [rsi+r12*1-0x4]
    5d6a:	add    esi,DWORD PTR [rax+r12*1-0x4]
    5d6f:	mov    rax,QWORD PTR [r15+0x170]
    5d76:	add    edi,DWORD PTR [rax+r14*4]
    5d7a:	call   179b0 <ILogsum>
    5d7f:	mov    rdi,QWORD PTR [r13+0x0]
    5d83:	mov    r9,QWORD PTR [rbx-0x8]
    5d87:	mov    DWORD PTR [rsp+0x20],eax
    5d8b:	mov    rax,QWORD PTR [r15+0x138]
    5d92:	mov    rsi,QWORD PTR [rax+0x18]
    5d96:	mov    rax,QWORD PTR [rax]
    5d99:	mov    esi,DWORD PTR [rsi+r12*1-0x4]
    5d9e:	add    esi,DWORD PTR [rdi+r12*1-0x4]
    5da3:	mov    edi,DWORD PTR [rax+r12*1-0x4]
    5da8:	add    edi,DWORD PTR [r9+r12*1-0x4]
    5dad:	call   179b0 <ILogsum>
    5db2:	mov    r8d,DWORD PTR [rsp+0x20]
    5db7:	mov    r9,QWORD PTR [rbx]
    5dba:	mov    edi,eax
    5dbc:	add    r9,r12
    5dbf:	mov    esi,r8d
    5dc2:	mov    QWORD PTR [rsp+0x8],r9
    5dc7:	call   179b0 <ILogsum>
    5dcc:	mov    r9,QWORD PTR [rsp+0x8]
    5dd1:	mov    rdx,QWORD PTR [rsp]
    5dd5:	mov    rsi,QWORD PTR [r15+0x140]
    5ddc:	mov    DWORD PTR [r9],eax
    5ddf:	movsx  rdi,BYTE PTR [rdx+0x1]
    5de4:	mov    rax,QWORD PTR [rbx]
    5de7:	mov    rsi,QWORD PTR [rsi+rdi*8]
    5deb:	mov    rdi,QWORD PTR [r15+0x138]
    5df2:	mov    esi,DWORD PTR [rsi+r14*4]
    5df6:	mov    r9,QWORD PTR [rdi+0x30]
    5dfa:	add    DWORD PTR [rax+r12*1],esi
    5dfe:	mov    rsi,QWORD PTR [rbp+0x8]
    5e02:	lea    r8,[rsi+r12*1]
    5e06:	mov    esi,DWORD PTR [rsi+r12*1-0x4]
    5e0b:	add    esi,DWORD PTR [r9+r12*1-0x4]
    5e10:	mov    r9,QWORD PTR [rdi+0x10]
    5e14:	mov    edi,DWORD PTR [rax+r12*1-0x4]
    5e19:	mov    QWORD PTR [rsp+0x8],r8
    5e1e:	add    edi,DWORD PTR [r9+r12*1-0x4]
    5e23:	call   179b0 <ILogsum>
    5e28:	mov    r8,QWORD PTR [rsp+0x8]
    5e2d:	mov    rdi,QWORD PTR [r13+0x0]
    5e31:	mov    r9,QWORD PTR [rbx-0x8]
    5e35:	mov    DWORD PTR [r8],eax
    5e38:	mov    rax,QWORD PTR [r15+0x138]
    5e3f:	mov    r8,QWORD PTR [r13+0x8]
    5e43:	mov    rsi,QWORD PTR [rax+0x20]
    5e47:	mov    rax,QWORD PTR [rax+0x8]
    5e4b:	add    r8,r12
    5e4e:	mov    esi,DWORD PTR [rsi+r14*4]
    5e52:	add    esi,DWORD PTR [rdi+r14*4]
    5e56:	mov    QWORD PTR [rsp+0x8],r8
    5e5b:	mov    edi,DWORD PTR [rax+r14*4]
    5e5f:	add    edi,DWORD PTR [r9+r14*4]
    5e63:	call   179b0 <ILogsum>
    5e68:	mov    r8,QWORD PTR [rsp+0x8]
    5e6d:	mov    rdx,QWORD PTR [rsp]
    5e71:	add    r12,QWORD PTR [r13+0x8]
    5e75:	mov    DWORD PTR [r8],eax
    5e78:	mov    rax,QWORD PTR [r15+0x148]
    5e7f:	movsx  rsi,BYTE PTR [rdx+0x1]
    5e84:	mov    rax,QWORD PTR [rax+rsi*8]
    5e88:	lea    esi,[r14+0x1]
    5e8c:	mov    eax,DWORD PTR [rax+r14*4]
    5e90:	add    DWORD PTR [r12],eax
    5e94:	movsxd rax,DWORD PTR [r15+0x88]
    5e9b:	cmp    eax,esi
    5e9d:	jg     5d40 <P7Forward+0x120>
    5ea3:	mov    rcx,rbp
    5ea6:	mov    rbp,r13
    5ea9:	mov    r13,rcx
    5eac:	mov    rcx,QWORD PTR [rsp+0x10]
    5eb1:	mov    rdi,QWORD PTR [rcx]
    5eb4:	mov    rdx,QWORD PTR [r15+0x138]
    5ebb:	mov    rcx,QWORD PTR [r13+0x0]
    5ebf:	shl    rax,0x2
    5ec3:	mov    edi,DWORD PTR [rdi]
    5ec5:	mov    rdx,QWORD PTR [rdx+0x28]
    5ec9:	mov    esi,DWORD PTR [rcx+rax*1-0x4]
    5ecd:	add    esi,DWORD PTR [rdx+rax*1-0x4]
    5ed1:	mov    rdx,QWORD PTR [r15+0x170]
    5ed8:	add    edi,DWORD PTR [rdx+rax*1-0x4]
    5edc:	call   179b0 <ILogsum>
    5ee1:	mov    rdx,QWORD PTR [r15+0x138]
    5ee8:	mov    rcx,QWORD PTR [rbp+0x0]
    5eec:	mov    DWORD PTR [rsp+0x20],eax
    5ef0:	movsxd rax,DWORD PTR [r15+0x88]
    5ef7:	mov    rsi,QWORD PTR [rdx+0x18]
    5efb:	mov    rdx,QWORD PTR [rdx]
    5efe:	shl    rax,0x2
    5f02:	mov    esi,DWORD PTR [rsi+rax*1-0x4]
    5f06:	add    esi,DWORD PTR [rcx+rax*1-0x4]
    5f0a:	mov    rcx,QWORD PTR [rbx-0x8]
    5f0e:	mov    edi,DWORD PTR [rdx+rax*1-0x4]
    5f12:	add    edi,DWORD PTR [rcx+rax*1-0x4]
    5f16:	call   179b0 <ILogsum>
    5f1b:	mov    r9d,DWORD PTR [rsp+0x20]
    5f20:	movsxd rdx,DWORD PTR [r15+0x88]
    5f27:	mov    edi,eax
    5f29:	mov    rax,QWORD PTR [rbx]
    5f2c:	mov    esi,r9d
    5f2f:	lea    rdx,[rax+rdx*4]
    5f33:	mov    QWORD PTR [rsp+0x8],rdx
    5f38:	call   179b0 <ILogsum>
    5f3d:	mov    rdx,QWORD PTR [rsp+0x8]
    5f42:	mov    rcx,QWORD PTR [rsp]
    5f46:	mov    r14,QWORD PTR [rsp+0x10]
    5f4b:	mov    DWORD PTR [rdx],eax
    5f4d:	movsx  rsi,BYTE PTR [rcx+0x1]
    5f52:	mov    rcx,QWORD PTR [r15+0x140]
    5f59:	movsxd rdx,DWORD PTR [r15+0x88]
    5f60:	mov    rax,QWORD PTR [rbx]
    5f63:	mov    r9,QWORD PTR [r14]
    5f66:	mov    rcx,QWORD PTR [rcx+rsi*8]
    5f6a:	mov    ecx,DWORD PTR [rcx+rdx*4]
    5f6d:	add    DWORD PTR [rax+rdx*4],ecx
    5f70:	mov    rcx,QWORD PTR [r14+0x8]
    5f74:	mov    edx,DWORD PTR [r15+0x154]
    5f7b:	add    edx,DWORD PTR [r9+0x10]
    5f7f:	mov    DWORD PTR [rcx+0x10],edx
    5f82:	mov    DWORD PTR [rcx+0x4],0xc521974f
    5f89:	mov    edx,DWORD PTR [r15+0x88]
    5f90:	test   edx,edx
    5f92:	jle    60f0 <P7Forward+0x4d0>
    5f98:	xor    edx,edx
    5f9a:	mov    QWORD PTR [rsp+0x8],rbp
    5f9f:	mov    edi,0xc521974f
    5fa4:	mov    rbp,r15
    5fa7:	mov    r12,rdx
    5faa:	mov    r15,rcx
    5fad:	jmp    5fbb <P7Forward+0x39b>
    5faf:	nop
    5fb0:	mov    r15,QWORD PTR [r14+0x8]
    5fb4:	mov    rax,QWORD PTR [rbx]
    5fb7:	mov    edi,DWORD PTR [r15+0x4]
    5fbb:	mov    rcx,QWORD PTR [rbp+0x178]
    5fc2:	add    r12,0x1
    5fc6:	mov    esi,DWORD PTR [rax+r12*4]
    5fca:	add    esi,DWORD PTR [rcx+r12*4]
    5fce:	call   179b0 <ILogsum>
    5fd3:	mov    DWORD PTR [r15+0x4],eax
    5fd7:	lea    eax,[r12+0x1]
    5fdc:	cmp    DWORD PTR [rbp+0x88],eax
    5fe2:	jge    5fb0 <P7Forward+0x390>
    5fe4:	mov    rax,QWORD PTR [rsp+0x10]
    5fe9:	mov    r15,rbp
    5fec:	mov    rbp,QWORD PTR [rsp+0x8]
    5ff1:	mov    rcx,QWORD PTR [rax+0x8]
    5ff5:	mov    r9,QWORD PTR [rax]
    5ff8:	mov    esi,DWORD PTR [rcx+0x4]
    5ffb:	mov    edi,DWORD PTR [r15+0x16c]
    6002:	add    edi,DWORD PTR [r9+0xc]
    6006:	add    r13,0x8
    600a:	add    rbp,0x8
    600e:	add    esi,DWORD PTR [r15+0x15c]
    6015:	mov    QWORD PTR [rsp+0x8],rcx
    601a:	add    rbx,0x8
    601e:	call   179b0 <ILogsum>
    6023:	mov    r14,QWORD PTR [rsp+0x10]
    6028:	mov    rcx,QWORD PTR [rsp+0x8]
    602d:	mov    rdx,QWORD PTR [r14+0x8]
    6031:	mov    DWORD PTR [rcx+0xc],eax
    6034:	add    r14,0x8
    6038:	mov    esi,DWORD PTR [r15+0x168]
    603f:	mov    edi,DWORD PTR [r15+0x150]
    6046:	add    esi,DWORD PTR [rdx+0xc]
    6049:	add    edi,DWORD PTR [rdx+0x10]
    604c:	mov    QWORD PTR [rsp+0x8],rdx
    6051:	call   179b0 <ILogsum>
    6056:	mov    rdx,QWORD PTR [rsp+0x8]
    605b:	mov    DWORD PTR [rdx],eax
    605d:	mov    rdx,QWORD PTR [r14]
    6060:	mov    rax,QWORD PTR [r14-0x8]
    6064:	mov    esi,DWORD PTR [r15+0x158]
    606b:	mov    edi,DWORD PTR [r15+0x164]
    6072:	add    esi,DWORD PTR [rdx+0x4]
    6075:	mov    QWORD PTR [rsp+0x8],rdx
    607a:	add    edi,DWORD PTR [rax+0x8]
    607d:	call   179b0 <ILogsum>
    6082:	mov    rdx,QWORD PTR [rsp+0x8]
    6087:	mov    QWORD PTR [rsp+0x10],r14
    608c:	mov    DWORD PTR [rdx+0x8],eax
    608f:	mov    rax,QWORD PTR [rsp]
    6093:	cmp    QWORD PTR [rsp+0x18],rax
    6098:	je     60b0 <P7Forward+0x490>
    609a:	add    rax,0x1
    609e:	mov    rdi,QWORD PTR [r14]
    60a1:	mov    QWORD PTR [rsp],rax
    60a5:	jmp    5d00 <P7Forward+0xe0>
    60aa:	nop    WORD PTR [rax+rax*1+0x0]
    60b0:	movsxd rax,DWORD PTR [rsp+0x24]
    60b5:	mov    rcx,QWORD PTR [rsp+0x28]
    60ba:	mov    ebp,DWORD PTR [r15+0x160]
    60c1:	mov    rax,QWORD PTR [rcx+rax*8]
    60c5:	add    ebp,DWORD PTR [rax+0x8]
    60c8:	mov    rax,QWORD PTR [rsp+0x38]
    60cd:	test   rax,rax
    60d0:	je     60fa <P7Forward+0x4da>
    60d2:	mov    rcx,QWORD PTR [rsp+0x30]
    60d7:	mov    QWORD PTR [rax],rcx
    60da:	add    rsp,0x48
    60de:	mov    edi,ebp
    60e0:	pop    rbx
    60e1:	pop    rbp
    60e2:	pop    r12
    60e4:	pop    r13
    60e6:	pop    r14
    60e8:	pop    r15
    60ea:	jmp    17820 <Scorify>
    60ef:	nop
    60f0:	mov    esi,0xc521974f
    60f5:	jmp    5ffb <P7Forward+0x3db>
    60fa:	mov    rdi,QWORD PTR [rsp+0x30]
    60ff:	call   5810 <FreePlan7Matrix>
    6104:	jmp    60da <P7Forward+0x4ba>
    6106:	nop    WORD PTR cs:[rax+rax*1+0x0]

0000000000006110 <P7ViterbiTrace>:
    6110:	endbr64 
    6114:	push   r15
    6116:	mov    r15,rdi
    6119:	push   r14
    611b:	push   r13
    611d:	mov    r13d,edx
    6120:	push   r12
    6122:	lea    r12d,[rdx+rdx*1+0x6]
    6127:	push   rbp
    6128:	mov    edi,r12d
    612b:	mov    rbp,rcx
    612e:	push   rbx
    612f:	sub    rsp,0x68
    6133:	mov    QWORD PTR [rsp+0x28],rsi
    6138:	lea    rsi,[rsp+0x50]
    613d:	mov    DWORD PTR [rsp+0x24],edx
    6141:	mov    QWORD PTR [rsp+0x40],r8
    6146:	mov    rax,QWORD PTR fs:0x28
    614f:	mov    QWORD PTR [rsp+0x58],rax
    6154:	xor    eax,eax
    6156:	call   209f0 <P7AllocTrace>
    615b:	mov    rax,QWORD PTR [rbp+0x0]
    615f:	mov    QWORD PTR [rsp+0x8],rax
    6164:	mov    rax,QWORD PTR [rbp+0x8]
    6168:	mov    QWORD PTR [rsp+0x10],rax
    616d:	mov    rax,QWORD PTR [rbp+0x10]
    6171:	mov    QWORD PTR [rsp+0x18],rax
    6176:	mov    rax,QWORD PTR [rbp+0x18]
    617a:	mov    ebp,0x2
    617f:	mov    QWORD PTR [rsp+0x30],rax
    6184:	mov    rax,QWORD PTR [rsp+0x50]
    6189:	mov    rax,QWORD PTR [rax+0x8]
    618d:	mov    BYTE PTR [rax],0x9
    6190:	mov    rax,QWORD PTR [rsp+0x50]
    6195:	mov    rdx,QWORD PTR [rax+0x10]
    6199:	mov    DWORD PTR [rdx],0x0
    619f:	mov    rdx,QWORD PTR [rax+0x18]
    61a3:	mov    rax,QWORD PTR [rax+0x8]
    61a7:	mov    DWORD PTR [rdx],0x0
    61ad:	mov    BYTE PTR [rax+0x1],0x8
    61b1:	mov    rdi,QWORD PTR [rsp+0x50]
    61b6:	mov    rax,QWORD PTR [rdi+0x10]
    61ba:	mov    rdx,QWORD PTR [rdi+0x8]
    61be:	mov    DWORD PTR [rax+0x4],0x0
    61c5:	mov    rax,QWORD PTR [rdi+0x18]
    61c9:	mov    DWORD PTR [rax+0x4],0x0
    61d0:	movzx  ecx,BYTE PTR [rdx+0x1]
    61d4:	cmp    cl,0x4
    61d7:	je     6230 <P7ViterbiTrace+0x120>
    61d9:	mov    eax,0x2
    61de:	lea    r14,[rip+0x370cb]        # 3d2b0 <_IO_stdin_used+0x2b0>
    61e5:	nop    DWORD PTR [rax]
    61e8:	cmp    cl,0xa
    61eb:	ja     6200 <P7ViterbiTrace+0xf0>
    61ed:	movsxd rcx,DWORD PTR [r14+rcx*4]
    61f1:	add    rcx,r14
    61f4:	notrack jmp rcx
    61f7:	je     6213 <P7ViterbiTrace+0x103>
    61f9:	nop    DWORD PTR [rax+0x0]
    6200:	lea    rdi,[rip+0x36fcb]        # 3d1d2 <_IO_stdin_used+0x1d2>
    6207:	xor    eax,eax
    6209:	call   317f0 <Die>
    620e:	mov    rdi,QWORD PTR [rsp+0x50]
    6213:	add    ebp,0x1
    6216:	cmp    r12d,ebp
    6219:	je     62ee <P7ViterbiTrace+0x1de>
    621f:	mov    rdx,QWORD PTR [rdi+0x8]
    6223:	movsxd rax,ebp
    6226:	movzx  ecx,BYTE PTR [rdx+rax*1-0x1]
    622b:	cmp    cl,0x4
    622e:	jne    61e8 <P7ViterbiTrace+0xd8>
    6230:	mov    DWORD PTR [rdi],ebp
    6232:	call   20bf0 <P7ReverseTrace>
    6237:	mov    rax,QWORD PTR [rsp+0x50]
    623c:	mov    rbx,QWORD PTR [rsp+0x40]
    6241:	mov    QWORD PTR [rbx],rax
    6244:	mov    rax,QWORD PTR [rsp+0x58]
    6249:	xor    rax,QWORD PTR fs:0x28
    6252:	jne    6986 <P7ViterbiTrace+0x876>
    6258:	add    rsp,0x68
    625c:	pop    rbx
    625d:	pop    rbp
    625e:	pop    r12
    6260:	pop    r13
    6262:	pop    r14
    6264:	pop    r15
    6266:	ret    
    6267:	nop    WORD PTR [rax+rax*1+0x0]
    6270:	mov    rsi,QWORD PTR [rsp+0x8]
    6275:	movsxd rcx,r13d
    6278:	lea    r8,[rcx*8+0x0]
    6280:	mov    rsi,QWORD PTR [rsi+rcx*8]
    6284:	mov    ecx,DWORD PTR [rsi+0xc]
    6287:	cmp    ecx,0xc5219750
    628d:	jl     6818 <P7ViterbiTrace+0x708>
    6293:	mov    rdi,QWORD PTR [rsp+0x8]
    6298:	mov    rdi,QWORD PTR [rdi+r8*1-0x8]
    629d:	mov    r8d,DWORD PTR [r15+0x16c]
    62a4:	add    r8d,DWORD PTR [rdi+0xc]
    62a8:	cmp    ecx,r8d
    62ab:	je     67a0 <P7ViterbiTrace+0x690>
    62b1:	mov    edi,DWORD PTR [r15+0x15c]
    62b8:	add    edi,DWORD PTR [rsi+0x4]
    62bb:	cmp    ecx,edi
    62bd:	jne    6693 <P7ViterbiTrace+0x583>
    62c3:	mov    BYTE PTR [rdx+rax*1],0x7
    62c7:	mov    rdi,QWORD PTR [rsp+0x50]
    62cc:	add    ebp,0x1
    62cf:	mov    rdx,QWORD PTR [rdi+0x10]
    62d3:	mov    DWORD PTR [rdx+rax*4],0x0
    62da:	mov    rdx,QWORD PTR [rdi+0x18]
    62de:	mov    DWORD PTR [rdx+rax*4],0x0
    62e5:	cmp    r12d,ebp
    62e8:	jne    621f <P7ViterbiTrace+0x10f>
    62ee:	add    r12d,DWORD PTR [rsp+0x24]
    62f3:	mov    esi,r12d
    62f6:	call   20a70 <P7ReallocTrace>
    62fb:	mov    rdi,QWORD PTR [rsp+0x50]
    6300:	jmp    621f <P7ViterbiTrace+0x10f>
    6305:	nop    DWORD PTR [rax]
    6308:	test   r13d,r13d
    630b:	jne    6728 <P7ViterbiTrace+0x618>
    6311:	mov    rsi,QWORD PTR [rsp+0x8]
    6316:	mov    rcx,QWORD PTR [rsi]
    6319:	mov    ecx,DWORD PTR [rcx+0x10]
    631c:	test   ecx,ecx
    631e:	jne    6200 <P7ViterbiTrace+0xf0>
    6324:	mov    BYTE PTR [rdx+rax*1],0x4
    6328:	jmp    62c7 <P7ViterbiTrace+0x1b7>
    632a:	nop    WORD PTR [rax+rax*1+0x0]
    6330:	movsxd r9,r13d
    6333:	mov    r11,QWORD PTR [rsp+0x18]
    6338:	movsxd rcx,ebx
    633b:	lea    r8,[r9+0x1]
    633f:	lea    rsi,[r8*8+0x0]
    6347:	mov    r8,QWORD PTR [r11+r8*8]
    634b:	mov    r11,QWORD PTR [rsp+0x28]
    6350:	movsx  r10,BYTE PTR [r11+r9*1+0x1]
    6356:	mov    r9,QWORD PTR [r15+0x148]
    635d:	mov    r8d,DWORD PTR [r8+rcx*4]
    6361:	mov    r9,QWORD PTR [r9+r10*8]
    6365:	sub    r8d,DWORD PTR [r9+rcx*4]
    6369:	cmp    r8d,0xc5219750
    6370:	jl     6818 <P7ViterbiTrace+0x708>
    6376:	mov    rdi,QWORD PTR [rsp+0x10]
    637b:	mov    r9,QWORD PTR [r15+0x138]
    6382:	mov    r10,QWORD PTR [rdi+rsi*1-0x8]
    6387:	mov    rdi,QWORD PTR [r9+0x8]
    638b:	mov    edi,DWORD PTR [rdi+rcx*4]
    638e:	add    edi,DWORD PTR [r10+rcx*4]
    6392:	cmp    edi,r8d
    6395:	je     6700 <P7ViterbiTrace+0x5f0>
    639b:	mov    rdi,QWORD PTR [rsp+0x18]
    63a0:	mov    rsi,QWORD PTR [rdi+rsi*1-0x8]
    63a5:	mov    rdi,QWORD PTR [r9+0x20]
    63a9:	mov    edi,DWORD PTR [rdi+rcx*4]
    63ac:	add    edi,DWORD PTR [rsi+rcx*4]
    63af:	cmp    edi,r8d
    63b2:	jne    6200 <P7ViterbiTrace+0xf0>
    63b8:	mov    BYTE PTR [rdx+rax*1],0x3
    63bc:	mov    rdi,QWORD PTR [rsp+0x50]
    63c1:	mov    rdx,QWORD PTR [rdi+0x10]
    63c5:	mov    DWORD PTR [rdx+rax*4],ebx
    63c8:	mov    rdx,QWORD PTR [rdi+0x18]
    63cc:	mov    DWORD PTR [rdx+rax*4],r13d
    63d0:	sub    r13d,0x1
    63d4:	jmp    6213 <P7ViterbiTrace+0x103>
    63d9:	nop    DWORD PTR [rax+0x0]
    63e0:	mov    rbx,QWORD PTR [rsp+0x8]
    63e5:	movsxd rax,r13d
    63e8:	mov    rdx,QWORD PTR [rbx+rax*8]
    63ec:	mov    esi,DWORD PTR [rdx+0x4]
    63ef:	cmp    esi,0xc5219750
    63f5:	jl     6818 <P7ViterbiTrace+0x708>
    63fb:	mov    ebx,DWORD PTR [r15+0x88]
    6402:	test   ebx,ebx
    6404:	jle    61f7 <P7ViterbiTrace+0xe7>
    640a:	mov    rdx,QWORD PTR [rsp+0x10]
    640f:	mov    r8,QWORD PTR [r15+0x178]
    6416:	mov    r9,QWORD PTR [rdx+rax*8]
    641a:	movsxd rdx,ebx
    641d:	shl    rdx,0x2
    6421:	jmp    6434 <P7ViterbiTrace+0x324>
    6423:	nop    DWORD PTR [rax+rax*1+0x0]
    6428:	sub    rdx,0x4
    642c:	test   ebx,ebx
    642e:	je     6213 <P7ViterbiTrace+0x103>
    6434:	mov    eax,DWORD PTR [r8+rdx*1]
    6438:	add    eax,DWORD PTR [r9+rdx*1]
    643c:	mov    ecx,ebx
    643e:	sub    ebx,0x1
    6441:	cmp    esi,eax
    6443:	jne    6428 <P7ViterbiTrace+0x318>
    6445:	mov    rax,QWORD PTR [r15+0xd8]
    644c:	movss  xmm1,DWORD PTR [rip+0x36f48]        # 3d39c <_IO_stdin_used+0x39c>
    6454:	mov    DWORD PTR [rsp+0x48],ecx
    6458:	mov    QWORD PTR [rsp+0x38],rdx
    645d:	movss  xmm0,DWORD PTR [rax+rdx*1]
    6462:	call   17710 <Prob2Score>
    6467:	pxor   xmm0,xmm0
    646b:	mov    rdx,QWORD PTR [rsp+0x38]
    6470:	pxor   xmm1,xmm1
    6474:	cvtsi2sd xmm0,eax
    6478:	mov    rax,QWORD PTR [r15+0x178]
    647f:	addsd  xmm0,QWORD PTR [rip+0x36ef9]        # 3d380 <_IO_stdin_used+0x380>
    6487:	mov    rdi,QWORD PTR [rsp+0x50]
    648c:	mov    ecx,DWORD PTR [rsp+0x48]
    6490:	cvtsi2sd xmm1,DWORD PTR [rax+rdx*1]
    6495:	comisd xmm1,xmm0
    6499:	jae    6830 <P7ViterbiTrace+0x720>
    649f:	mov    rdx,QWORD PTR [rdi+0x8]
    64a3:	movsxd rax,ebp
    64a6:	mov    BYTE PTR [rdx+rax*1],0x1
    64aa:	mov    rdi,QWORD PTR [rsp+0x50]
    64af:	mov    rdx,QWORD PTR [rdi+0x10]
    64b3:	mov    DWORD PTR [rdx+rax*4],ecx
    64b6:	mov    rdx,QWORD PTR [rdi+0x18]
    64ba:	mov    DWORD PTR [rdx+rax*4],r13d
    64be:	sub    r13d,0x1
    64c2:	jmp    6213 <P7ViterbiTrace+0x103>
    64c7:	nop    WORD PTR [rax+rax*1+0x0]
    64d0:	mov    rcx,QWORD PTR [rsp+0x30]
    64d5:	movsxd rsi,r13d
    64d8:	movsxd r8,ebx
    64db:	add    r8,0x1
    64df:	mov    r9,QWORD PTR [rcx+rsi*8]
    64e3:	lea    rcx,[r8*4+0x0]
    64eb:	mov    r8d,DWORD PTR [r9+r8*4]
    64ef:	cmp    r8d,0xc5219750
    64f6:	jl     6818 <P7ViterbiTrace+0x708>
    64fc:	mov    rdi,QWORD PTR [r15+0x138]
    6503:	mov    r11,QWORD PTR [rsp+0x10]
    6508:	mov    r10,QWORD PTR [r11+rsi*8]
    650c:	mov    rsi,QWORD PTR [rdi+0x10]
    6510:	mov    esi,DWORD PTR [rsi+rcx*1-0x4]
    6514:	add    esi,DWORD PTR [r10+rcx*1-0x4]
    6519:	cmp    r8d,esi
    651c:	je     6700 <P7ViterbiTrace+0x5f0>
    6522:	mov    rsi,QWORD PTR [rdi+0x30]
    6526:	mov    edi,DWORD PTR [r9+rcx*1-0x4]
    652b:	add    edi,DWORD PTR [rsi+rcx*1-0x4]
    652f:	cmp    r8d,edi
    6532:	jne    6200 <P7ViterbiTrace+0xf0>
    6538:	mov    BYTE PTR [rdx+rax*1],0x2
    653c:	mov    rdi,QWORD PTR [rsp+0x50]
    6541:	mov    rdx,QWORD PTR [rdi+0x10]
    6545:	mov    DWORD PTR [rdx+rax*4],ebx
    6548:	mov    rdx,QWORD PTR [rdi+0x18]
    654c:	sub    ebx,0x1
    654f:	mov    DWORD PTR [rdx+rax*4],0x0
    6556:	jmp    6213 <P7ViterbiTrace+0x103>
    655b:	nop    DWORD PTR [rax+rax*1+0x0]
    6560:	movsxd r10,r13d
    6563:	mov    r11,QWORD PTR [rsp+0x10]
    6568:	movsxd rcx,ebx
    656b:	lea    r9,[r10+0x1]
    656f:	add    rcx,0x1
    6573:	lea    r8,[r9*8+0x0]
    657b:	mov    r9,QWORD PTR [r11+r9*8]
    657f:	mov    r11,QWORD PTR [rsp+0x28]
    6584:	lea    rsi,[rcx*4+0x0]
    658c:	movsx  r11,BYTE PTR [r11+r10*1+0x1]
    6592:	mov    r10,QWORD PTR [r15+0x140]
    6599:	mov    r9d,DWORD PTR [r9+rcx*4]
    659d:	mov    r10,QWORD PTR [r10+r11*8]
    65a1:	sub    r9d,DWORD PTR [r10+rcx*4]
    65a5:	cmp    r9d,0xc5219750
    65ac:	jl     6818 <P7ViterbiTrace+0x708>
    65b2:	mov    rdi,QWORD PTR [rsp+0x8]
    65b7:	mov    r10,QWORD PTR [rdi+r8*1-0x8]
    65bc:	mov    rdi,QWORD PTR [r15+0x170]
    65c3:	mov    edi,DWORD PTR [rdi+rcx*4]
    65c6:	add    edi,DWORD PTR [r10]
    65c9:	cmp    edi,r9d
    65cc:	je     67b0 <P7ViterbiTrace+0x6a0>
    65d2:	mov    rcx,QWORD PTR [rsp+0x10]
    65d7:	mov    rdi,QWORD PTR [r15+0x138]
    65de:	mov    r10,QWORD PTR [rcx+r8*1-0x8]
    65e3:	mov    rcx,QWORD PTR [rdi]
    65e6:	mov    ecx,DWORD PTR [rcx+rsi*1-0x4]
    65ea:	add    ecx,DWORD PTR [r10+rsi*1-0x4]
    65ef:	cmp    ecx,r9d
    65f2:	je     6700 <P7ViterbiTrace+0x5f0>
    65f8:	mov    rcx,QWORD PTR [rsp+0x18]
    65fd:	mov    r10,QWORD PTR [rcx+r8*1-0x8]
    6602:	mov    rcx,QWORD PTR [rdi+0x18]
    6606:	mov    ecx,DWORD PTR [rcx+rsi*1-0x4]
    660a:	add    ecx,DWORD PTR [r10+rsi*1-0x4]
    660f:	cmp    ecx,r9d
    6612:	je     63b8 <P7ViterbiTrace+0x2a8>
    6618:	mov    rcx,QWORD PTR [rsp+0x30]
    661d:	mov    rdi,QWORD PTR [rdi+0x28]
    6621:	mov    rcx,QWORD PTR [rcx+r8*1-0x8]
    6626:	mov    edi,DWORD PTR [rdi+rsi*1-0x4]
    662a:	add    edi,DWORD PTR [rcx+rsi*1-0x4]
    662e:	cmp    edi,r9d
    6631:	je     6538 <P7ViterbiTrace+0x428>
    6637:	jmp    6200 <P7ViterbiTrace+0xf0>
    663c:	nop    DWORD PTR [rax+0x0]
    6640:	mov    rsi,QWORD PTR [rsp+0x8]
    6645:	movsxd rcx,r13d
    6648:	lea    r8,[rcx*8+0x0]
    6650:	mov    rsi,QWORD PTR [rsi+rcx*8]
    6654:	mov    ecx,DWORD PTR [rsi+0x8]
    6657:	cmp    ecx,0xc5219750
    665d:	jl     6818 <P7ViterbiTrace+0x708>
    6663:	mov    rdi,QWORD PTR [rsp+0x8]
    6668:	mov    rdi,QWORD PTR [rdi+r8*1-0x8]
    666d:	mov    r8d,DWORD PTR [r15+0x164]
    6674:	add    r8d,DWORD PTR [rdi+0x8]
    6678:	cmp    ecx,r8d
    667b:	je     6798 <P7ViterbiTrace+0x688>
    6681:	mov    edi,DWORD PTR [r15+0x158]
    6688:	add    edi,DWORD PTR [rsi+0x4]
    668b:	cmp    ecx,edi
    668d:	je     62c3 <P7ViterbiTrace+0x1b3>
    6693:	lea    rdi,[rip+0x36b49]        # 3d1e3 <_IO_stdin_used+0x1e3>
    669a:	xor    eax,eax
    669c:	call   317f0 <Die>
    66a1:	mov    rdi,QWORD PTR [rsp+0x50]
    66a6:	jmp    6213 <P7ViterbiTrace+0x103>
    66ab:	nop    DWORD PTR [rax+rax*1+0x0]
    66b0:	mov    rsi,QWORD PTR [rsp+0x8]
    66b5:	movsxd rcx,r13d
    66b8:	mov    rsi,QWORD PTR [rsi+rcx*8]
    66bc:	mov    ecx,DWORD PTR [rsi]
    66be:	cmp    ecx,0xc5219750
    66c4:	jl     6818 <P7ViterbiTrace+0x708>
    66ca:	mov    edi,DWORD PTR [r15+0x150]
    66d1:	add    edi,DWORD PTR [rsi+0x10]
    66d4:	cmp    ecx,edi
    66d6:	je     6788 <P7ViterbiTrace+0x678>
    66dc:	mov    edi,DWORD PTR [r15+0x168]
    66e3:	add    edi,DWORD PTR [rsi+0xc]
    66e6:	cmp    ecx,edi
    66e8:	jne    6200 <P7ViterbiTrace+0xf0>
    66ee:	mov    BYTE PTR [rdx+rax*1],0xa
    66f2:	jmp    62c7 <P7ViterbiTrace+0x1b7>
    66f7:	nop    WORD PTR [rax+rax*1+0x0]
    6700:	mov    BYTE PTR [rdx+rax*1],0x1
    6704:	mov    rdi,QWORD PTR [rsp+0x50]
    6709:	mov    rdx,QWORD PTR [rdi+0x10]
    670d:	mov    DWORD PTR [rdx+rax*4],ebx
    6710:	mov    rdx,QWORD PTR [rdi+0x18]
    6714:	sub    ebx,0x1
    6717:	mov    DWORD PTR [rdx+rax*4],r13d
    671b:	sub    r13d,0x1
    671f:	jmp    6213 <P7ViterbiTrace+0x103>
    6724:	nop    DWORD PTR [rax+0x0]
    6728:	jle    6200 <P7ViterbiTrace+0xf0>
    672e:	mov    rdi,QWORD PTR [rsp+0x8]
    6733:	movsxd rsi,r13d
    6736:	add    rsi,0x1
    673a:	mov    rcx,QWORD PTR [rdi+rsi*8]
    673e:	mov    rsi,QWORD PTR [rdi+rsi*8-0x8]
    6743:	mov    edi,DWORD PTR [r15+0x154]
    674a:	add    edi,DWORD PTR [rsi+0x10]
    674d:	cmp    DWORD PTR [rcx+0x10],edi
    6750:	jne    6200 <P7ViterbiTrace+0xf0>
    6756:	mov    BYTE PTR [rdx+rax*1],0x5
    675a:	mov    rdi,QWORD PTR [rsp+0x50]
    675f:	mov    rdx,QWORD PTR [rdi+0x10]
    6763:	mov    DWORD PTR [rdx+rax*4],0x0
    676a:	mov    rdx,QWORD PTR [rdi+0x18]
    676e:	mov    DWORD PTR [rdx+rax*4-0x4],r13d
    6773:	sub    r13d,0x1
    6777:	mov    DWORD PTR [rdx+rax*4],0x0
    677e:	jmp    6213 <P7ViterbiTrace+0x103>
    6783:	nop    DWORD PTR [rax+rax*1+0x0]
    6788:	mov    BYTE PTR [rdx+rax*1],0x5
    678c:	jmp    62c7 <P7ViterbiTrace+0x1b7>
    6791:	nop    DWORD PTR [rax+0x0]
    6798:	mov    BYTE PTR [rdx+rax*1],0x8
    679c:	jmp    675a <P7ViterbiTrace+0x64a>
    679e:	xchg   ax,ax
    67a0:	mov    BYTE PTR [rdx+rax*1],0xa
    67a4:	jmp    675a <P7ViterbiTrace+0x64a>
    67a6:	nop    WORD PTR cs:[rax+rax*1+0x0]
    67b0:	mov    rax,QWORD PTR [r15+0xd0]
    67b7:	mov    QWORD PTR [rsp+0x38],rcx
    67bc:	movss  xmm1,DWORD PTR [r15+0x130]
    67c5:	movss  xmm0,DWORD PTR [rax+rcx*4]
    67ca:	call   17710 <Prob2Score>
    67cf:	pxor   xmm0,xmm0
    67d3:	mov    rcx,QWORD PTR [rsp+0x38]
    67d8:	pxor   xmm1,xmm1
    67dc:	cvtsi2sd xmm0,eax
    67e0:	mov    rax,QWORD PTR [r15+0x170]
    67e7:	mov    rdi,QWORD PTR [rsp+0x50]
    67ec:	addsd  xmm0,QWORD PTR [rip+0x36b8c]        # 3d380 <_IO_stdin_used+0x380>
    67f4:	cvtsi2sd xmm1,DWORD PTR [rax+rcx*4]
    67f9:	comisd xmm1,xmm0
    67fd:	jae    68e3 <P7ViterbiTrace+0x7d3>
    6803:	mov    rdx,QWORD PTR [rdi+0x8]
    6807:	movsxd rax,ebp
    680a:	mov    BYTE PTR [rdx+rax*1],0x6
    680e:	jmp    62c7 <P7ViterbiTrace+0x1b7>
    6813:	nop    DWORD PTR [rax+rax*1+0x0]
    6818:	call   20af0 <P7FreeTrace>
    681d:	mov    rax,QWORD PTR [rsp+0x40]
    6822:	mov    QWORD PTR [rax],0x0
    6829:	jmp    6244 <P7ViterbiTrace+0x134>
    682e:	xchg   ax,ax
    6830:	mov    esi,DWORD PTR [r15+0x88]
    6837:	mov    rdi,QWORD PTR [rsp+0x50]
    683c:	cmp    esi,ecx
    683e:	jle    649f <P7ViterbiTrace+0x38f>
    6844:	movsxd rax,ebp
    6847:	lea    r8d,[rsi-0x1]
    684b:	add    ebp,esi
    684d:	mov    DWORD PTR [rsp+0x38],r13d
    6852:	lea    rdx,[rax+0x1]
    6856:	sub    r8d,ecx
    6859:	mov    DWORD PTR [rsp+0x48],ebx
    685d:	mov    r13d,ebp
    6860:	add    r8,rdx
    6863:	mov    ebx,r12d
    6866:	mov    DWORD PTR [rsp+0x4c],ecx
    686a:	mov    r12,rdx
    686d:	mov    rbp,r8
    6870:	jmp    6884 <P7ViterbiTrace+0x774>
    6872:	nop    WORD PTR [rax+rax*1+0x0]
    6878:	mov    rax,r12
    687b:	cmp    r12,rbp
    687e:	je     68c9 <P7ViterbiTrace+0x7b9>
    6880:	add    r12,0x1
    6884:	mov    rdx,QWORD PTR [rdi+0x8]
    6888:	mov    r9d,r13d
    688b:	sub    r9d,eax
    688e:	mov    BYTE PTR [rdx+rax*1],0x2
    6892:	mov    rdi,QWORD PTR [rsp+0x50]
    6897:	mov    rdx,QWORD PTR [rdi+0x10]
    689b:	mov    DWORD PTR [rdx+rax*4],r9d
    689f:	mov    rdx,QWORD PTR [rdi+0x18]
    68a3:	mov    DWORD PTR [rdx+rax*4],0x0
    68aa:	add    eax,0x1
    68ad:	cmp    eax,ebx
    68af:	jne    6878 <P7ViterbiTrace+0x768>
    68b1:	add    ebx,DWORD PTR [rsp+0x24]
    68b5:	mov    esi,ebx
    68b7:	call   20a70 <P7ReallocTrace>
    68bc:	mov    rdi,QWORD PTR [rsp+0x50]
    68c1:	mov    rax,r12
    68c4:	cmp    r12,rbp
    68c7:	jne    6880 <P7ViterbiTrace+0x770>
    68c9:	mov    ecx,DWORD PTR [rsp+0x4c]
    68cd:	mov    ebp,r13d
    68d0:	mov    r12d,ebx
    68d3:	mov    r13d,DWORD PTR [rsp+0x38]
    68d8:	mov    ebx,DWORD PTR [rsp+0x48]
    68dc:	sub    ebp,ecx
    68de:	jmp    649f <P7ViterbiTrace+0x38f>
    68e3:	test   ebx,ebx
    68e5:	jle    6803 <P7ViterbiTrace+0x6f3>
    68eb:	lea    ecx,[rbp+rbx*1+0x0]
    68ef:	movsxd rdx,ebp
    68f2:	mov    DWORD PTR [rsp+0x38],r13d
    68f7:	mov    DWORD PTR [rsp+0x48],ebp
    68fb:	mov    r13d,ecx
    68fe:	mov    ebp,r12d
    6901:	mov    r12d,ebx
    6904:	mov    DWORD PTR [rsp+0x4c],ebx
    6908:	mov    rbx,rdx
    690b:	jmp    6919 <P7ViterbiTrace+0x809>
    690d:	nop    DWORD PTR [rax]
    6910:	add    rbx,0x1
    6914:	test   r12d,r12d
    6917:	je     6962 <P7ViterbiTrace+0x852>
    6919:	mov    rdx,QWORD PTR [rdi+0x8]
    691d:	mov    esi,r12d
    6920:	sub    r12d,0x1
    6924:	mov    BYTE PTR [rdx+rbx*1],0x2
    6928:	mov    rdi,QWORD PTR [rsp+0x50]
    692d:	mov    rdx,QWORD PTR [rdi+0x10]
    6931:	mov    DWORD PTR [rdx+rbx*4],esi
    6934:	mov    rdx,QWORD PTR [rdi+0x18]
    6938:	mov    DWORD PTR [rdx+rbx*4],0x0
    693f:	mov    edx,r13d
    6942:	sub    edx,r12d
    6945:	cmp    edx,ebp
    6947:	jne    6910 <P7ViterbiTrace+0x800>
    6949:	add    ebp,DWORD PTR [rsp+0x24]
    694d:	add    rbx,0x1
    6951:	mov    esi,ebp
    6953:	call   20a70 <P7ReallocTrace>
    6958:	mov    rdi,QWORD PTR [rsp+0x50]
    695d:	test   r12d,r12d
    6960:	jne    6919 <P7ViterbiTrace+0x809>
    6962:	mov    ebx,DWORD PTR [rsp+0x4c]
    6966:	mov    r12d,ebp
    6969:	mov    ebp,DWORD PTR [rsp+0x48]
    696d:	mov    rdx,QWORD PTR [rdi+0x8]
    6971:	mov    r13d,DWORD PTR [rsp+0x38]
    6976:	add    ebp,ebx
    6978:	xor    ebx,ebx
    697a:	movsxd rax,ebp
    697d:	mov    BYTE PTR [rdx+rax*1],0x6
    6981:	jmp    62c7 <P7ViterbiTrace+0x1b7>
    6986:	call   3570 <__stack_chk_fail@plt>
    698b:	nop    DWORD PTR [rax+rax*1+0x0]

0000000000006990 <P7ParsingViterbi>:
    6990:	endbr64 
    6994:	push   r15
    6996:	mov    r15d,esi
    6999:	push   r14
    699b:	push   r13
    699d:	push   r12
    699f:	lea    r12d,[r15+0x1]
    69a3:	push   rbp
    69a4:	mov    rbp,rdx
    69a7:	movsxd r12,r12d
    69aa:	push   rbx
    69ab:	mov    rbx,rdi
    69ae:	mov    edi,0x1
    69b3:	shl    r12,0x2
    69b7:	sub    rsp,0x108
    69be:	mov    DWORD PTR [rsp+0xd4],esi
    69c5:	mov    esi,DWORD PTR [rdx+0x88]
    69cb:	xor    edx,edx
    69cd:	mov    QWORD PTR [rsp+0xe8],rcx
    69d5:	xor    ecx,ecx
    69d7:	mov    rax,QWORD PTR fs:0x28
    69e0:	mov    QWORD PTR [rsp+0xf8],rax
    69e8:	xor    eax,eax
    69ea:	call   5350 <CreatePlan7Matrix>
    69ef:	mov    esi,DWORD PTR [rbp+0x88]
    69f5:	xor    ecx,ecx
    69f7:	xor    edx,edx
    69f9:	mov    rdi,QWORD PTR [rax+0x8]
    69fd:	mov    r14,QWORD PTR [rax]
    6a00:	mov    QWORD PTR [rsp+0xe0],rax
    6a08:	mov    QWORD PTR [rsp+0x98],rdi
    6a10:	mov    rdi,QWORD PTR [rax+0x10]
    6a14:	mov    rax,QWORD PTR [rax+0x18]
    6a18:	mov    QWORD PTR [rsp+0xb0],r14
    6a20:	mov    QWORD PTR [rsp+0xa0],rdi
    6a28:	mov    edi,0x1
    6a2d:	mov    QWORD PTR [rsp+0xa8],rax
    6a35:	call   5350 <CreatePlan7Matrix>
    6a3a:	mov    rdx,r12
    6a3d:	mov    esi,0x43b
    6a42:	mov    rdi,QWORD PTR [rax]
    6a45:	mov    r13,QWORD PTR [rax+0x8]
    6a49:	mov    QWORD PTR [rsp+0xd8],rax
    6a51:	mov    QWORD PTR [rsp+0x90],rdi
    6a59:	mov    rdi,QWORD PTR [rax+0x10]
    6a5d:	mov    rax,QWORD PTR [rax+0x18]
    6a61:	mov    QWORD PTR [rsp+0x70],rdi
    6a66:	lea    rdi,[rip+0x36753]        # 3d1c0 <_IO_stdin_used+0x1c0>
    6a6d:	mov    QWORD PTR [rsp+0x28],rax
    6a72:	call   36810 <sre_malloc>
    6a77:	lea    rdi,[rip+0x36742]        # 3d1c0 <_IO_stdin_used+0x1c0>
    6a7e:	mov    rdx,r12
    6a81:	mov    esi,0x43c
    6a86:	mov    r15,rax
    6a89:	mov    QWORD PTR [rsp+0xb8],rax
    6a91:	call   36810 <sre_malloc>
    6a96:	mov    rdi,QWORD PTR [r14]
    6a99:	mov    rcx,rax
    6a9c:	mov    QWORD PTR [rsp+0xc0],rax
    6aa4:	mov    DWORD PTR [rdi+0x10],0x0
    6aab:	mov    eax,DWORD PTR [rbp+0x150]
    6ab1:	mov    QWORD PTR [rsp+0x20],rdi
    6ab6:	mov    DWORD PTR [rdi],eax
    6ab8:	movabs rax,0xc521974fc521974f
    6ac2:	mov    DWORD PTR [r15],0x0
    6ac9:	mov    QWORD PTR [rdi+0x4],rax
    6acd:	mov    DWORD PTR [rdi+0xc],0xc521974f
    6ad4:	mov    DWORD PTR [rcx],0xffffffff
    6ada:	mov    ecx,DWORD PTR [rbp+0x88]
    6ae0:	test   ecx,ecx
    6ae2:	js     6b31 <P7ParsingViterbi+0x1a1>
    6ae4:	mov    rax,QWORD PTR [rsp+0xa8]
    6aec:	mov    rsi,QWORD PTR [rax]
    6aef:	mov    rax,QWORD PTR [rsp+0xa0]
    6af7:	mov    rcx,QWORD PTR [rax]
    6afa:	mov    rax,QWORD PTR [rsp+0x98]
    6b02:	mov    rdx,QWORD PTR [rax]
    6b05:	xor    eax,eax
    6b07:	nop    WORD PTR [rax+rax*1+0x0]
    6b10:	mov    DWORD PTR [rsi+rax*4],0xc521974f
    6b17:	mov    DWORD PTR [rcx+rax*4],0xc521974f
    6b1e:	mov    DWORD PTR [rdx+rax*4],0xc521974f
    6b25:	add    rax,0x1
    6b29:	cmp    DWORD PTR [rbp+0x88],eax
    6b2f:	jge    6b10 <P7ParsingViterbi+0x180>
    6b31:	mov    eax,DWORD PTR [rsp+0xd4]
    6b38:	test   eax,eax
    6b3a:	jle    70f7 <P7ParsingViterbi+0x767>
    6b40:	mov    QWORD PTR [rsp+0x58],0x0
    6b49:	add    rbx,0x1
    6b4d:	sub    eax,0x1
    6b50:	mov    QWORD PTR [rsp+0x8],rbx
    6b55:	mov    QWORD PTR [rsp+0xc8],rax
    6b5d:	nop    DWORD PTR [rax]
    6b60:	mov    rbx,QWORD PTR [rsp+0x58]
    6b65:	mov    rcx,QWORD PTR [rsp+0xa8]
    6b6d:	lea    edi,[rbx+0x1]
    6b70:	and    ebx,0x1
    6b73:	mov    eax,edi
    6b75:	mov    DWORD PTR [rsp+0xd0],edi
    6b7c:	and    eax,0x1
    6b7f:	mov    QWORD PTR [rsp+0x88],rbx
    6b87:	mov    r8,QWORD PTR [rcx+rax*8]
    6b8b:	mov    rcx,QWORD PTR [rsp+0xa0]
    6b93:	mov    QWORD PTR [rsp+0x80],rax
    6b9b:	lea    rdi,[rax*8+0x0]
    6ba3:	mov    r9,QWORD PTR [rcx+rax*8]
    6ba7:	mov    rcx,QWORD PTR [rsp+0x98]
    6baf:	mov    DWORD PTR [r8],0xc521974f
    6bb6:	mov    rcx,QWORD PTR [rcx+rax*8]
    6bba:	mov    DWORD PTR [r9],0xc521974f
    6bc1:	lea    rax,[rbx*8+0x0]
    6bc9:	mov    DWORD PTR [rcx],0xc521974f
    6bcf:	mov    edx,DWORD PTR [rbp+0x88]
    6bd5:	test   edx,edx
    6bd7:	jle    6ec8 <P7ParsingViterbi+0x538>
    6bdd:	mov    rbx,QWORD PTR [rsp+0x88]
    6be5:	mov    rdx,QWORD PTR [rsp+0x98]
    6bed:	mov    r10,QWORD PTR [rbp+0x138]
    6bf4:	mov    r14,QWORD PTR [rbp+0x170]
    6bfb:	mov    rdx,QWORD PTR [rdx+rbx*8]
    6bff:	mov    r12,QWORD PTR [r10+0x28]
    6c03:	mov    r11,QWORD PTR [r10+0x30]
    6c07:	mov    QWORD PTR [rsp+0x50],r10
    6c0c:	mov    QWORD PTR [rsp+0x10],rdx
    6c11:	mov    rdx,QWORD PTR [r10]
    6c14:	mov    QWORD PTR [rsp+0x30],rdx
    6c19:	lea    rdx,[r13+rax*1+0x0]
    6c1e:	mov    QWORD PTR [rsp+0x60],rdx
    6c23:	mov    rdx,QWORD PTR [rsp+0xa0]
    6c2b:	mov    rdx,QWORD PTR [rdx+rbx*8]
    6c2f:	mov    QWORD PTR [rsp+0x18],rdx
    6c34:	mov    rdx,QWORD PTR [r10+0x18]
    6c38:	mov    QWORD PTR [rsp+0x38],rdx
    6c3d:	mov    rdx,QWORD PTR [rsp+0x70]
    6c42:	add    rdx,rax
    6c45:	add    rax,QWORD PTR [rsp+0x28]
    6c4a:	mov    QWORD PTR [rsp+0x68],rdx
    6c4f:	mov    rdx,QWORD PTR [rsp+0xa8]
    6c57:	mov    QWORD PTR [rsp+0x78],rax
    6c5c:	mov    rax,QWORD PTR [rbp+0x140]
    6c63:	mov    rbx,QWORD PTR [rdx+rbx*8]
    6c67:	mov    QWORD PTR [rsp+0x48],rax
    6c6c:	mov    eax,0x1
    6c71:	mov    QWORD PTR [rsp+0x40],rbx
    6c76:	mov    rbx,QWORD PTR [r10+0x10]
    6c7a:	jmp    6c96 <P7ParsingViterbi+0x306>
    6c7c:	nop    DWORD PTR [rax+0x0]
    6c80:	add    DWORD PTR [r9+rax*4],edx
    6c84:	mov    esi,DWORD PTR [rbp+0x88]
    6c8a:	add    rax,0x1
    6c8e:	cmp    esi,eax
    6c90:	jl     6ec8 <P7ParsingViterbi+0x538>
    6c96:	mov    rsi,QWORD PTR [rsp+0x30]
    6c9b:	mov    DWORD PTR [rcx+rax*4],0xc521974f
    6ca2:	lea    rdx,[rax*4+0x0]
    6caa:	mov    r15d,DWORD PTR [rsi+rax*4-0x4]
    6caf:	mov    rsi,QWORD PTR [rsp+0x10]
    6cb4:	add    r15d,DWORD PTR [rsi+rax*4-0x4]
    6cb9:	mov    esi,0xc521974f
    6cbe:	cmp    r15d,0xc5219750
    6cc5:	jl     6ce4 <P7ParsingViterbi+0x354>
    6cc7:	mov    rsi,QWORD PTR [rsp+0x60]
    6ccc:	mov    DWORD PTR [rcx+rax*4],r15d
    6cd0:	mov    rsi,QWORD PTR [rsi]
    6cd3:	mov    r15d,DWORD PTR [rsi+rdx*1-0x4]
    6cd8:	mov    rsi,QWORD PTR [r13+rdi*1+0x0]
    6cdd:	mov    DWORD PTR [rsi+rax*4],r15d
    6ce1:	mov    esi,DWORD PTR [rcx+rax*4]
    6ce4:	mov    r15,QWORD PTR [rsp+0x38]
    6ce9:	mov    r10,QWORD PTR [rsp+0x18]
    6cee:	mov    r15d,DWORD PTR [r15+rax*4-0x4]
    6cf3:	add    r15d,DWORD PTR [r10+rax*4-0x4]
    6cf8:	cmp    r15d,esi
    6cfb:	jle    6d1a <P7ParsingViterbi+0x38a>
    6cfd:	mov    rsi,QWORD PTR [rsp+0x68]
    6d02:	mov    DWORD PTR [rcx+rax*4],r15d
    6d06:	mov    rsi,QWORD PTR [rsi]
    6d09:	mov    r15d,DWORD PTR [rsi+rdx*1-0x4]
    6d0e:	mov    rsi,QWORD PTR [r13+rdi*1+0x0]
    6d13:	mov    DWORD PTR [rsi+rdx*1],r15d
    6d17:	mov    esi,DWORD PTR [rcx+rax*4]
    6d1a:	mov    r10,QWORD PTR [rsp+0x20]
    6d1f:	mov    r15d,DWORD PTR [r14+rax*4]
    6d23:	add    r15d,DWORD PTR [r10]
    6d26:	cmp    r15d,esi
    6d29:	jle    6d40 <P7ParsingViterbi+0x3b0>
    6d2b:	mov    rsi,QWORD PTR [r13+rdi*1+0x0]
    6d30:	mov    r10d,DWORD PTR [rsp+0x58]
    6d35:	mov    DWORD PTR [rcx+rax*4],r15d
    6d39:	mov    DWORD PTR [rsi+rdx*1],r10d
    6d3d:	mov    esi,DWORD PTR [rcx+rax*4]
    6d40:	mov    r10,QWORD PTR [rsp+0x40]
    6d45:	mov    r15d,DWORD PTR [r12+rax*4-0x4]
    6d4a:	add    r15d,DWORD PTR [r10+rax*4-0x4]
    6d4f:	cmp    r15d,esi
    6d52:	jle    6d6e <P7ParsingViterbi+0x3de>
    6d54:	mov    rsi,QWORD PTR [rsp+0x78]
    6d59:	mov    DWORD PTR [rcx+rax*4],r15d
    6d5d:	mov    rsi,QWORD PTR [rsi]
    6d60:	mov    r15d,DWORD PTR [rsi+rdx*1-0x4]
    6d65:	mov    rsi,QWORD PTR [r13+rdi*1+0x0]
    6d6a:	mov    DWORD PTR [rsi+rdx*1],r15d
    6d6e:	mov    rsi,QWORD PTR [rsp+0x8]
    6d73:	mov    r10,QWORD PTR [rsp+0x48]
    6d78:	movsx  rsi,BYTE PTR [rsi]
    6d7c:	mov    rsi,QWORD PTR [r10+rsi*8]
    6d80:	mov    esi,DWORD PTR [rsi+rdx*1]
    6d83:	cmp    esi,0xc521974f
    6d89:	je     6d8e <P7ParsingViterbi+0x3fe>
    6d8b:	add    esi,DWORD PTR [rcx+rax*4]
    6d8e:	mov    DWORD PTR [rcx+rax*4],esi
    6d91:	mov    r15d,0xc521974f
    6d97:	mov    DWORD PTR [r8+rax*4],0xc521974f
    6d9f:	mov    esi,DWORD PTR [rbx+rax*4-0x4]
    6da3:	add    esi,DWORD PTR [rcx+rax*4-0x4]
    6da7:	cmp    esi,0xc5219750
    6dad:	jl     6dce <P7ParsingViterbi+0x43e>
    6daf:	mov    DWORD PTR [r8+rax*4],esi
    6db3:	mov    rsi,QWORD PTR [r13+rdi*1+0x0]
    6db8:	mov    r15d,DWORD PTR [rsi+rdx*1-0x4]
    6dbd:	mov    rsi,QWORD PTR [rsp+0x28]
    6dc2:	mov    rsi,QWORD PTR [rsi+rdi*1]
    6dc6:	mov    DWORD PTR [rsi+rdx*1],r15d
    6dca:	mov    r15d,DWORD PTR [r8+rax*4]
    6dce:	mov    esi,DWORD PTR [r11+rax*4-0x4]
    6dd3:	add    esi,DWORD PTR [r8+rax*4-0x4]
    6dd8:	cmp    esi,r15d
    6ddb:	jle    6df3 <P7ParsingViterbi+0x463>
    6ddd:	mov    DWORD PTR [r8+rax*4],esi
    6de1:	mov    rsi,QWORD PTR [rsp+0x28]
    6de6:	mov    rsi,QWORD PTR [rsi+rdi*1]
    6dea:	mov    r15d,DWORD PTR [rsi+rdx*1-0x4]
    6def:	mov    DWORD PTR [rsi+rdx*1],r15d
    6df3:	mov    esi,DWORD PTR [rbp+0x88]
    6df9:	cmp    esi,eax
    6dfb:	jle    6c8a <P7ParsingViterbi+0x2fa>
    6e01:	mov    rsi,QWORD PTR [rsp+0x50]
    6e06:	mov    r10,QWORD PTR [rsp+0x10]
    6e0b:	mov    DWORD PTR [r9+rax*4],0xc521974f
    6e13:	mov    rsi,QWORD PTR [rsi+0x8]
    6e17:	mov    r15d,DWORD PTR [r10+rax*4]
    6e1b:	add    r15d,DWORD PTR [rsi+rdx*1]
    6e1f:	mov    esi,r15d
    6e22:	mov    r15d,0xc521974f
    6e28:	cmp    esi,0xc5219750
    6e2e:	jl     6e51 <P7ParsingViterbi+0x4c1>
    6e30:	mov    DWORD PTR [r9+rax*4],esi
    6e34:	mov    rsi,QWORD PTR [rsp+0x60]
    6e39:	mov    rsi,QWORD PTR [rsi]
    6e3c:	mov    r15d,DWORD PTR [rsi+rdx*1]
    6e40:	mov    rsi,QWORD PTR [rsp+0x70]
    6e45:	mov    rsi,QWORD PTR [rsi+rdi*1]
    6e49:	mov    DWORD PTR [rsi+rdx*1],r15d
    6e4d:	mov    r15d,DWORD PTR [r9+rax*4]
    6e51:	mov    r10,QWORD PTR [rsp+0x50]
    6e56:	mov    rsi,QWORD PTR [rsp+0x18]
    6e5b:	mov    r10,QWORD PTR [r10+0x20]
    6e5f:	mov    esi,DWORD PTR [rsi+rax*4]
    6e62:	add    esi,DWORD PTR [r10+rdx*1]
    6e66:	cmp    esi,r15d
    6e69:	jle    6e88 <P7ParsingViterbi+0x4f8>
    6e6b:	mov    DWORD PTR [r9+rax*4],esi
    6e6f:	mov    rsi,QWORD PTR [rsp+0x68]
    6e74:	mov    rsi,QWORD PTR [rsi]
    6e77:	mov    r15d,DWORD PTR [rsi+rdx*1]
    6e7b:	mov    rsi,QWORD PTR [rsp+0x70]
    6e80:	mov    rsi,QWORD PTR [rsi+rdi*1]
    6e84:	mov    DWORD PTR [rsi+rdx*1],r15d
    6e88:	mov    rsi,QWORD PTR [rsp+0x8]
    6e8d:	movsx  r15,BYTE PTR [rsi]
    6e91:	mov    rsi,QWORD PTR [rbp+0x148]
    6e98:	mov    rsi,QWORD PTR [rsi+r15*8]
    6e9c:	mov    edx,DWORD PTR [rsi+rdx*1]
    6e9f:	cmp    edx,0xc521974f
    6ea5:	jne    6c80 <P7ParsingViterbi+0x2f0>
    6eab:	mov    DWORD PTR [r9+rax*4],0xc521974f
    6eb3:	mov    esi,DWORD PTR [rbp+0x88]
    6eb9:	add    rax,0x1
    6ebd:	cmp    esi,eax
    6ebf:	jge    6c96 <P7ParsingViterbi+0x306>
    6ec5:	nop    DWORD PTR [rax]
    6ec8:	mov    rax,QWORD PTR [rsp+0xb0]
    6ed0:	mov    rbx,QWORD PTR [rsp+0x20]
    6ed5:	lea    r10,[rax+rdi*1]
    6ed9:	mov    rsi,QWORD PTR [r10]
    6edc:	mov    DWORD PTR [rsi+0x10],0xc521974f
    6ee3:	mov    eax,DWORD PTR [rbp+0x154]
    6ee9:	add    eax,DWORD PTR [rbx+0x10]
    6eec:	mov    ebx,0xc521974f
    6ef1:	mov    DWORD PTR [rsi+0x4],0xc521974f
    6ef8:	cmp    eax,0xc521974f
    6efd:	cmovle eax,ebx
    6f00:	mov    DWORD PTR [rsi+0x10],eax
    6f03:	mov    eax,DWORD PTR [rbp+0x88]
    6f09:	test   eax,eax
    6f0b:	jle    6f5c <P7ParsingViterbi+0x5cc>
    6f0d:	mov    rbx,QWORD PTR [rsp+0x58]
    6f12:	mov    eax,0x1
    6f17:	mov    r9,QWORD PTR [rbp+0x178]
    6f1e:	mov    r8d,0xc521974f
    6f24:	mov    r11,QWORD PTR [rsp+0xc0]
    6f2c:	jmp    6f34 <P7ParsingViterbi+0x5a4>
    6f2e:	xchg   ax,ax
    6f30:	mov    r8d,DWORD PTR [rsi+0x4]
    6f34:	mov    edx,DWORD PTR [r9+rax*4]
    6f38:	add    edx,DWORD PTR [rcx+rax*4]
    6f3b:	cmp    edx,r8d
    6f3e:	jle    6f50 <P7ParsingViterbi+0x5c0>
    6f40:	mov    DWORD PTR [rsi+0x4],edx
    6f43:	mov    rdx,QWORD PTR [r13+rdi*1+0x0]
    6f48:	mov    edx,DWORD PTR [rdx+rax*4]
    6f4b:	mov    DWORD PTR [r11+rbx*4+0x4],edx
    6f50:	add    rax,0x1
    6f54:	cmp    DWORD PTR [rbp+0x88],eax
    6f5a:	jge    6f30 <P7ParsingViterbi+0x5a0>
    6f5c:	mov    rbx,QWORD PTR [rsp+0x20]
    6f61:	mov    DWORD PTR [rsi+0xc],0xc521974f
    6f68:	mov    edx,0xc521974f
    6f6d:	mov    eax,DWORD PTR [rbp+0x16c]
    6f73:	add    eax,DWORD PTR [rbx+0xc]
    6f76:	cmp    eax,0xc5219750
    6f7b:	jl     6fa9 <P7ParsingViterbi+0x619>
    6f7d:	mov    DWORD PTR [rsi+0xc],eax
    6f80:	mov    rbx,QWORD PTR [rsp+0x90]
    6f88:	mov    rax,QWORD PTR [rsp+0x88]
    6f90:	mov    rax,QWORD PTR [rbx+rax*8]
    6f94:	mov    edx,DWORD PTR [rax+0xc]
    6f97:	mov    rax,QWORD PTR [rsp+0x80]
    6f9f:	mov    rax,QWORD PTR [rbx+rax*8]
    6fa3:	mov    DWORD PTR [rax+0xc],edx
    6fa6:	mov    edx,DWORD PTR [rsi+0xc]
    6fa9:	mov    eax,DWORD PTR [rbp+0x15c]
    6faf:	add    eax,DWORD PTR [rsi+0x4]
    6fb2:	cmp    eax,edx
    6fb4:	jle    6fd7 <P7ParsingViterbi+0x647>
    6fb6:	mov    DWORD PTR [rsi+0xc],eax
    6fb9:	mov    rbx,QWORD PTR [rsp+0x80]
    6fc1:	mov    rax,QWORD PTR [rsp+0x90]
    6fc9:	mov    edi,DWORD PTR [rsp+0xd0]
    6fd0:	mov    rax,QWORD PTR [rax+rbx*8]
    6fd4:	mov    DWORD PTR [rax+0xc],edi
    6fd7:	mov    DWORD PTR [rsi],0xc521974f
    6fdd:	mov    eax,DWORD PTR [rbp+0x150]
    6fe3:	mov    edx,0xc521974f
    6fe8:	add    eax,DWORD PTR [rsi+0x10]
    6feb:	cmp    eax,0xc5219750
    6ff0:	jl     700b <P7ParsingViterbi+0x67b>
    6ff2:	mov    DWORD PTR [rsi],eax
    6ff4:	mov    rbx,QWORD PTR [rsp+0x58]
    6ff9:	mov    rax,QWORD PTR [rsp+0xb8]
    7001:	mov    DWORD PTR [rax+rbx*4+0x4],0x0
    7009:	mov    edx,DWORD PTR [rsi]
    700b:	mov    eax,DWORD PTR [rbp+0x168]
    7011:	add    eax,DWORD PTR [rsi+0xc]
    7014:	cmp    eax,edx
    7016:	jle    7042 <P7ParsingViterbi+0x6b2>
    7018:	mov    DWORD PTR [rsi],eax
    701a:	mov    rdi,QWORD PTR [rsp+0x80]
    7022:	mov    rax,QWORD PTR [rsp+0x90]
    702a:	mov    rbx,QWORD PTR [rsp+0xb8]
    7032:	mov    rax,QWORD PTR [rax+rdi*8]
    7036:	mov    rdi,QWORD PTR [rsp+0x58]
    703b:	mov    eax,DWORD PTR [rax+0xc]
    703e:	mov    DWORD PTR [rbx+rdi*4+0x4],eax
    7042:	mov    rbx,QWORD PTR [rsp+0x20]
    7047:	mov    DWORD PTR [rsi+0x8],0xc521974f
    704e:	mov    edx,0xc521974f
    7053:	mov    eax,DWORD PTR [rbp+0x164]
    7059:	add    eax,DWORD PTR [rbx+0x8]
    705c:	cmp    eax,0xc5219750
    7061:	jl     708f <P7ParsingViterbi+0x6ff>
    7063:	mov    DWORD PTR [rsi+0x8],eax
    7066:	mov    rdi,QWORD PTR [rsp+0x90]
    706e:	mov    rax,QWORD PTR [rsp+0x88]
    7076:	mov    rax,QWORD PTR [rdi+rax*8]
    707a:	mov    edx,DWORD PTR [rax+0x8]
    707d:	mov    rax,QWORD PTR [rsp+0x80]
    7085:	mov    rax,QWORD PTR [rdi+rax*8]
    7089:	mov    DWORD PTR [rax+0x8],edx
    708c:	mov    edx,DWORD PTR [rsi+0x8]
    708f:	mov    eax,DWORD PTR [rbp+0x158]
    7095:	add    eax,DWORD PTR [rsi+0x4]
    7098:	cmp    eax,edx
    709a:	jle    70bd <P7ParsingViterbi+0x72d>
    709c:	mov    DWORD PTR [rsi+0x8],eax
    709f:	mov    rbx,QWORD PTR [rsp+0x80]
    70a7:	mov    rax,QWORD PTR [rsp+0x90]
    70af:	mov    edi,DWORD PTR [rsp+0xd0]
    70b6:	mov    rax,QWORD PTR [rax+rbx*8]
    70ba:	mov    DWORD PTR [rax+0x8],edi
    70bd:	mov    rbx,QWORD PTR [rsp+0x58]
    70c2:	add    QWORD PTR [rsp+0x8],0x1
    70c8:	lea    rax,[rbx+0x1]
    70cc:	cmp    QWORD PTR [rsp+0xc8],rbx
    70d4:	je     7100 <P7ParsingViterbi+0x770>
    70d6:	mov    rdi,QWORD PTR [rsp+0xb0]
    70de:	mov    rdx,rax
    70e1:	mov    QWORD PTR [rsp+0x58],rax
    70e6:	and    edx,0x1
    70e9:	mov    rdi,QWORD PTR [rdi+rdx*8]
    70ed:	mov    QWORD PTR [rsp+0x20],rdi
    70f2:	jmp    6b60 <P7ParsingViterbi+0x1d0>
    70f7:	mov    r10,QWORD PTR [rsp+0xb0]
    70ff:	nop
    7100:	mov    rax,QWORD PTR [r10]
    7103:	mov    edi,0x2
    7108:	lea    rsi,[rsp+0xf0]
    7110:	mov    ebp,DWORD PTR [rbp+0x160]
    7116:	add    ebp,DWORD PTR [rax+0x8]
    7119:	call   209f0 <P7AllocTrace>
    711e:	mov    rax,QWORD PTR [rsp+0xf0]
    7126:	mov    rbx,QWORD PTR [rsp+0x90]
    712e:	mov    rax,QWORD PTR [rax+0x8]
    7132:	mov    BYTE PTR [rax],0x9
    7135:	mov    rdi,QWORD PTR [rsp+0xf0]
    713d:	mov    rax,QWORD PTR [rdi+0x18]
    7141:	mov    DWORD PTR [rax],0x0
    7147:	mov    eax,DWORD PTR [rsp+0xd4]
    714e:	mov    edx,eax
    7150:	shr    edx,0x1f
    7153:	add    eax,edx
    7155:	and    eax,0x1
    7158:	sub    eax,edx
    715a:	cdqe   
    715c:	mov    rax,QWORD PTR [rbx+rax*8]
    7160:	movsxd r12,DWORD PTR [rax+0x8]
    7164:	test   r12d,r12d
    7167:	jle    7282 <P7ParsingViterbi+0x8f2>
    716d:	mov    r13,QWORD PTR [rsp+0xb8]
    7175:	mov    r14,QWORD PTR [rsp+0xc0]
    717d:	mov    ebx,0x2
    7182:	nop    WORD PTR [rax+rax*1+0x0]
    7188:	lea    esi,[rbx+0x2]
    718b:	call   20a70 <P7ReallocTrace>
    7190:	mov    rax,QWORD PTR [rsp+0xf0]
    7198:	mov    ecx,ebx
    719a:	mov    rax,QWORD PTR [rax+0x8]
    719e:	mov    BYTE PTR [rax+rbx*1-0x1],0x7
    71a3:	mov    rdx,QWORD PTR [rsp+0xf0]
    71ab:	mov    rax,QWORD PTR [rdx+0x18]
    71af:	mov    rdx,QWORD PTR [rdx+0x8]
    71b3:	mov    DWORD PTR [rax+rbx*4-0x4],r12d
    71b8:	movsxd rax,DWORD PTR [r14+r12*4]
    71bc:	mov    BYTE PTR [rdx+rbx*1],0x6
    71c0:	mov    rdi,QWORD PTR [rsp+0xf0]
    71c8:	mov    rdx,QWORD PTR [rdi+0x18]
    71cc:	mov    DWORD PTR [rdx+rbx*4],eax
    71cf:	movsxd r12,DWORD PTR [r13+rax*4+0x0]
    71d4:	add    rbx,0x2
    71d8:	test   r12d,r12d
    71db:	jg     7188 <P7ParsingViterbi+0x7f8>
    71dd:	lea    eax,[rcx+0x1]
    71e0:	add    ecx,0x2
    71e3:	cdqe   
    71e5:	lea    rdx,[rax*4+0x0]
    71ed:	mov    rsi,QWORD PTR [rdi+0x8]
    71f1:	mov    BYTE PTR [rsi+rax*1],0x4
    71f5:	mov    rdi,QWORD PTR [rsp+0xf0]
    71fd:	mov    rax,QWORD PTR [rdi+0x18]
    7201:	mov    DWORD PTR [rax+rdx*1],0x0
    7208:	mov    DWORD PTR [rdi],ecx
    720a:	call   20bf0 <P7ReverseTrace>
    720f:	mov    rdi,QWORD PTR [rsp+0xe0]
    7217:	call   5810 <FreePlan7Matrix>
    721c:	mov    rdi,QWORD PTR [rsp+0xd8]
    7224:	call   5810 <FreePlan7Matrix>
    7229:	mov    rdi,QWORD PTR [rsp+0xb8]
    7231:	call   3460 <free@plt>
    7236:	mov    rdi,QWORD PTR [rsp+0xc0]
    723e:	call   3460 <free@plt>
    7243:	mov    rax,QWORD PTR [rsp+0xf0]
    724b:	mov    rbx,QWORD PTR [rsp+0xe8]
    7253:	mov    edi,ebp
    7255:	mov    QWORD PTR [rbx],rax
    7258:	call   17820 <Scorify>
    725d:	mov    rax,QWORD PTR [rsp+0xf8]
    7265:	xor    rax,QWORD PTR fs:0x28
    726e:	jne    7296 <P7ParsingViterbi+0x906>
    7270:	add    rsp,0x108
    7277:	pop    rbx
    7278:	pop    rbp
    7279:	pop    r12
    727b:	pop    r13
    727d:	pop    r14
    727f:	pop    r15
    7281:	ret    
    7282:	mov    ecx,0x2
    7287:	mov    edx,0x4
    728c:	mov    eax,0x1
    7291:	jmp    71ed <P7ParsingViterbi+0x85d>
    7296:	call   3570 <__stack_chk_fail@plt>
    729b:	nop    DWORD PTR [rax+rax*1+0x0]

00000000000072a0 <P7WeeViterbi>:
    72a0:	endbr64 
    72a4:	push   r15
    72a6:	push   r14
    72a8:	mov    r14d,esi
    72ab:	push   r13
    72ad:	mov    r13,rdx
    72b0:	push   r12
    72b2:	lea    r12d,[rsi+0x1]
    72b6:	push   rbp
    72b7:	movsxd r12,r12d
    72ba:	push   rbx
    72bb:	lea    rbx,[r12*4+0x0]
    72c3:	mov    rdx,rbx
    72c6:	sub    rsp,0x148
    72cd:	mov    QWORD PTR [rsp+0x120],rcx
    72d5:	mov    QWORD PTR [rsp+0x18],rdi
    72da:	lea    rdi,[rip+0x35edf]        # 3d1c0 <_IO_stdin_used+0x1c0>
    72e1:	mov    DWORD PTR [rsp+0x114],esi
    72e8:	mov    esi,0x502
    72ed:	mov    rax,QWORD PTR fs:0x28
    72f6:	mov    QWORD PTR [rsp+0x138],rax
    72fe:	xor    eax,eax
    7300:	call   36810 <sre_malloc>
    7305:	mov    rdx,r12
    7308:	mov    esi,0x503
    730d:	lea    rdi,[rip+0x35eac]        # 3d1c0 <_IO_stdin_used+0x1c0>
    7314:	mov    r15,rax
    7317:	mov    QWORD PTR [rsp+0xd8],rax
    731f:	call   36810 <sre_malloc>
    7324:	mov    rdx,rbx
    7327:	mov    esi,0x504
    732c:	lea    rdi,[rip+0x35e8d]        # 3d1c0 <_IO_stdin_used+0x1c0>
    7333:	mov    rbp,rax
    7336:	mov    QWORD PTR [rsp+0xd0],rax
    733e:	call   36810 <sre_malloc>
    7343:	mov    rdx,rbx
    7346:	mov    esi,0x505
    734b:	lea    rdi,[rip+0x35e6e]        # 3d1c0 <_IO_stdin_used+0x1c0>
    7352:	mov    r12,rax
    7355:	mov    QWORD PTR [rsp+0xe0],rax
    735d:	call   36810 <sre_malloc>
    7362:	mov    DWORD PTR [rsp+0x5c],0x0
    736a:	pxor   xmm2,xmm2
    736e:	mov    DWORD PTR [rax],0x1
    7374:	mov    QWORD PTR [rsp+0xe8],rax
    737c:	lea    rax,[r15+rbx*1-0x4]
    7381:	mov    DWORD PTR [r12],r14d
    7385:	mov    rbx,rax
    7388:	mov    DWORD PTR [r15+0x4],0x1
    7390:	mov    QWORD PTR [rsp+0x128],rax
    7398:	mov    eax,DWORD PTR [r13+0x88]
    739f:	movss  DWORD PTR [rsp+0x110],xmm2
    73a8:	mov    DWORD PTR [rbx],eax
    73aa:	movsxd rax,r14d
    73ad:	mov    r14d,0xc521974f
    73b3:	add    rax,rbp
    73b6:	mov    BYTE PTR [rbp+0x1],0x4
    73ba:	mov    QWORD PTR [rsp+0x118],rax
    73c2:	mov    BYTE PTR [rax],0x9
    73c5:	nop    DWORD PTR [rax]
    73c8:	movsxd rax,DWORD PTR [rsp+0x5c]
    73cd:	mov    rbx,QWORD PTR [rsp+0xe8]
    73d5:	mov    r15,QWORD PTR [rsp+0xd8]
    73dd:	mov    rcx,QWORD PTR [rsp+0xd0]
    73e5:	mov    r9,rax
    73e8:	shl    rax,0x2
    73ec:	add    rbx,rax
    73ef:	add    rax,QWORD PTR [rsp+0xe0]
    73f7:	movsxd rdx,DWORD PTR [rbx]
    73fa:	mov    QWORD PTR [rsp+0xf8],rbx
    7402:	mov    QWORD PTR [rsp+0x100],rax
    740a:	lea    rbx,[r15+rdx*4]
    740e:	mov    rdi,rdx
    7411:	mov    DWORD PTR [rsp+0x64],edx
    7415:	add    rdx,rcx
    7418:	mov    QWORD PTR [rsp+0x68],rbx
    741d:	mov    ebx,DWORD PTR [rbx]
    741f:	movzx  r11d,BYTE PTR [rdx]
    7423:	mov    QWORD PTR [rsp+0x70],rdx
    7428:	mov    DWORD PTR [rsp+0x8],ebx
    742c:	movsxd rbx,DWORD PTR [rax]
    742f:	mov    BYTE PTR [rsp+0x63],r11b
    7434:	lea    rdx,[r15+rbx*4]
    7438:	mov    rax,rbx
    743b:	mov    DWORD PTR [rsp+0x28],ebx
    743f:	mov    esi,DWORD PTR [rdx]
    7441:	mov    QWORD PTR [rsp+0x108],rbx
    7449:	sub    eax,edi
    744b:	mov    DWORD PTR [rsp],esi
    744e:	mov    rsi,rcx
    7451:	add    rsi,rbx
    7454:	movzx  ebx,BYTE PTR [rsi]
    7457:	mov    BYTE PTR [rsp+0x62],bl
    745b:	lea    ebx,[r9-0x1]
    745f:	mov    DWORD PTR [rsp+0xf0],ebx
    7466:	mov    ebx,eax
    7468:	shr    eax,0x1f
    746b:	add    eax,ebx
    746d:	sar    eax,1
    746f:	add    eax,edi
    7471:	mov    DWORD PTR [rsp+0x10],eax
    7475:	cmp    ebx,0x1
    7478:	je     87a0 <P7WeeViterbi+0x1500>
    747e:	cdqe   
    7480:	xor    r12d,r12d
    7483:	lea    rbx,[r15+rax*4]
    7487:	add    rax,rcx
    748a:	mov    QWORD PTR [rsp+0x68],rbx
    748f:	mov    ebx,0x1
    7494:	mov    QWORD PTR [rsp+0x70],rax
    7499:	cmp    r11b,0x4
    749d:	je     74be <P7WeeViterbi+0x21e>
    749f:	mov    ebx,DWORD PTR [rsp+0x64]
    74a3:	mov    eax,ebx
    74a5:	shr    eax,0x1f
    74a8:	lea    ecx,[rbx+rax*1]
    74ab:	add    ebx,0x1
    74ae:	and    ecx,0x1
    74b1:	sub    ecx,eax
    74b3:	movsxd rcx,ecx
    74b6:	lea    r12,[rcx*8+0x0]
    74be:	mov    esi,DWORD PTR [r13+0x88]
    74c5:	xor    ecx,ecx
    74c7:	xor    edx,edx
    74c9:	mov    edi,0x1
    74ce:	movabs r15,0xc521974fc521974f
    74d8:	call   5350 <CreatePlan7Matrix>
    74dd:	mov    r11d,DWORD PTR [rsp+0x8]
    74e2:	mov    r9d,DWORD PTR [rsp]
    74e6:	mov    rcx,QWORD PTR [rax]
    74e9:	mov    rdx,QWORD PTR [rax+0x8]
    74ed:	mov    QWORD PTR [rsp+0x50],rax
    74f2:	mov    rdi,QWORD PTR [rax+0x10]
    74f6:	mov    rax,QWORD PTR [rax+0x18]
    74fa:	lea    rbp,[rcx+r12*1]
    74fe:	mov    QWORD PTR [rsp+0x40],rcx
    7503:	mov    rcx,QWORD PTR [rbp+0x0]
    7507:	mov    QWORD PTR [rsp+0x30],rdx
    750c:	mov    QWORD PTR [rsp+0x20],rdi
    7511:	mov    QWORD PTR [rsp+0x38],rax
    7516:	mov    rsi,rcx
    7519:	mov    DWORD PTR [rcx+0x10],0xc521974f
    7520:	mov    QWORD PTR [rcx],r15
    7523:	mov    DWORD PTR [rcx+0x8],0xc521974f
    752a:	cmp    r11d,r9d
    752d:	jg     755f <P7WeeViterbi+0x2bf>
    752f:	mov    rdi,QWORD PTR [rdi+r12*1]
    7533:	mov    rdx,QWORD PTR [rdx+r12*1]
    7537:	mov    r8,QWORD PTR [rax+r12*1]
    753b:	movsxd rax,r11d
    753e:	xchg   ax,ax
    7540:	mov    DWORD PTR [r8+rax*4],0xc521974f
    7548:	mov    DWORD PTR [rdi+rax*4],0xc521974f
    754f:	mov    DWORD PTR [rdx+rax*4],0xc521974f
    7556:	add    rax,0x1
    755a:	cmp    DWORD PTR [rsp],eax
    755d:	jge    7540 <P7WeeViterbi+0x2a0>
    755f:	movzx  eax,BYTE PTR [rsp+0x63]
    7564:	cmp    al,0x8
    7566:	ja     8c10 <P7WeeViterbi+0x1970>
    756c:	lea    rdx,[rip+0x35d69]        # 3d2dc <_IO_stdin_used+0x2dc>
    7573:	movsxd rax,DWORD PTR [rdx+rax*4]
    7577:	add    rax,rdx
    757a:	notrack jmp rax
    757d:	nop    DWORD PTR [rax]
    7580:	mov    DWORD PTR [rcx+0x10],0x0
    7587:	mov    eax,DWORD PTR [rcx+0x4]
    758a:	xor    edx,edx
    758c:	mov    DWORD PTR [rsi],0xc521974f
    7592:	add    edx,DWORD PTR [r13+0x150]
    7599:	cmp    edx,0xc521974f
    759f:	mov    DWORD PTR [rsi+0x8],0xc521974f
    75a6:	cmovle edx,r14d
    75aa:	mov    DWORD PTR [rsi],edx
    75ac:	add    eax,DWORD PTR [r13+0x158]
    75b3:	cmp    eax,0xc521974f
    75b8:	cmovle eax,r14d
    75bc:	mov    DWORD PTR [rsi+0x8],eax
    75bf:	cmp    DWORD PTR [rsp+0x10],ebx
    75c3:	jl     7a05 <P7WeeViterbi+0x765>
    75c9:	movsxd rax,DWORD PTR [rsp+0x8]
    75ce:	movsxd rbx,ebx
    75d1:	mov    QWORD PTR [rsp+0xb0],rax
    75d9:	lea    r10,[rax*4+0x0]
    75e1:	lea    eax,[rax+0x1]
    75e4:	mov    DWORD PTR [rsp+0xc4],eax
    75eb:	cdqe   
    75ed:	mov    QWORD PTR [rsp+0xc8],rax
    75f5:	shl    rax,0x2
    75f9:	mov    QWORD PTR [rsp+0xb8],rax
    7601:	nop    DWORD PTR [rax+0x0]
    7608:	mov    edx,ebx
    760a:	mov    rdi,QWORD PTR [rsp+0x38]
    760f:	mov    r11,QWORD PTR [rsp+0x30]
    7614:	mov    esi,ebx
    7616:	shr    edx,0x1f
    7619:	not    esi
    761b:	lea    eax,[rdx+rbx*1]
    761e:	and    esi,0x1
    7621:	and    eax,0x1
    7624:	sub    eax,edx
    7626:	lea    rdx,[rsi*8+0x0]
    762e:	cdqe   
    7630:	mov    r8,QWORD PTR [rdi+rax*8]
    7634:	mov    r12,QWORD PTR [r11+rax*8]
    7638:	mov    QWORD PTR [rsp+0x98],rax
    7640:	mov    rdi,QWORD PTR [rsp+0x20]
    7645:	lea    rcx,[r12+r10*1]
    7649:	mov    DWORD PTR [r8+r10*1],0xc521974f
    7651:	mov    r9,QWORD PTR [rdi+rax*8]
    7655:	mov    eax,DWORD PTR [rsp+0x8]
    7659:	lea    rdi,[r9+r10*1]
    765d:	mov    DWORD PTR [rdi],0xc521974f
    7663:	mov    DWORD PTR [rcx],0xc521974f
    7669:	cmp    eax,DWORD PTR [r13+0x88]
    7670:	jge    76e0 <P7WeeViterbi+0x440>
    7672:	mov    rbp,QWORD PTR [r13+0x138]
    7679:	mov    r11,QWORD PTR [r11+rsi*8]
    767d:	mov    rax,QWORD PTR [rbp+0x8]
    7681:	mov    eax,DWORD PTR [rax+r10*1]
    7685:	add    eax,DWORD PTR [r11+r10*1]
    7689:	mov    r11d,eax
    768c:	cmp    eax,0xc5219750
    7691:	jge    7696 <P7WeeViterbi+0x3f6>
    7693:	mov    r11d,DWORD PTR [rdi]
    7696:	mov    rax,QWORD PTR [rsp+0x20]
    769b:	mov    DWORD PTR [rdi],r11d
    769e:	mov    r15,QWORD PTR [rax+rsi*8]
    76a2:	mov    rax,QWORD PTR [rbp+0x20]
    76a6:	mov    eax,DWORD PTR [rax+r10*1]
    76aa:	add    eax,DWORD PTR [r15+r10*1]
    76ae:	cmp    eax,r11d
    76b1:	mov    r15,QWORD PTR [rsp+0x18]
    76b6:	cmovl  eax,r11d
    76ba:	mov    DWORD PTR [rdi],eax
    76bc:	movsx  rbp,BYTE PTR [r15+rbx*1]
    76c1:	mov    r11,QWORD PTR [r13+0x148]
    76c8:	mov    r11,QWORD PTR [r11+rbp*8]
    76cc:	mov    r11d,DWORD PTR [r11+r10*1]
    76d0:	add    eax,r11d
    76d3:	cmp    r11d,0xc521974f
    76da:	cmove  eax,r14d
    76de:	mov    DWORD PTR [rdi],eax
    76e0:	mov    rax,QWORD PTR [rsp+0x40]
    76e5:	mov    r15,QWORD PTR [rax+rsi*8]
    76e9:	mov    rax,QWORD PTR [r13+0x170]
    76f0:	mov    rdi,rax
    76f3:	mov    QWORD PTR [rsp+0x48],rax
    76f8:	mov    eax,DWORD PTR [r15]
    76fb:	add    eax,DWORD PTR [rdi+r10*1]
    76ff:	cmp    eax,0xc5219750
    7704:	jge    7708 <P7WeeViterbi+0x468>
    7706:	mov    eax,DWORD PTR [rcx]
    7708:	mov    rsi,QWORD PTR [rsp+0x18]
    770d:	mov    DWORD PTR [rcx],eax
    770f:	mov    rdi,QWORD PTR [r13+0x140]
    7716:	movsx  rsi,BYTE PTR [rsi+rbx*1]
    771b:	mov    QWORD PTR [rsp+0x78],rdi
    7720:	mov    rsi,QWORD PTR [rdi+rsi*8]
    7724:	mov    esi,DWORD PTR [rsi+r10*1]
    7728:	add    eax,esi
    772a:	cmp    esi,0xc521974f
    7730:	cmovne esi,eax
    7733:	mov    DWORD PTR [rcx],esi
    7735:	mov    ecx,DWORD PTR [rsp+0xc4]
    773c:	cmp    DWORD PTR [rsp],ecx
    773f:	jl     7933 <P7WeeViterbi+0x693>
    7745:	mov    rax,QWORD PTR [rsp+0x30]
    774a:	mov    rcx,QWORD PTR [rsp+0xb8]
    7752:	mov    QWORD PTR [rsp+0xa8],r12
    775a:	mov    QWORD PTR [rsp+0xa0],r10
    7762:	add    rax,rdx
    7765:	add    rcx,r12
    7768:	mov    QWORD PTR [rsp+0x80],rax
    7770:	mov    rax,QWORD PTR [rsp+0x20]
    7775:	add    rax,rdx
    7778:	add    rdx,QWORD PTR [rsp+0x38]
    777d:	mov    QWORD PTR [rsp+0x90],rdx
    7785:	mov    QWORD PTR [rsp+0x88],rax
    778d:	mov    rax,QWORD PTR [rsp+0xc8]
    7795:	nop    DWORD PTR [rax]
    7798:	mov    rsi,QWORD PTR [rsp+0x80]
    77a0:	lea    rdx,[rax*4+0x0]
    77a8:	mov    DWORD PTR [rcx],0xc521974f
    77ae:	mov    DWORD PTR [rsp+0xf4],eax
    77b5:	mov    rbp,QWORD PTR [rsi]
    77b8:	mov    rsi,QWORD PTR [r13+0x138]
    77bf:	mov    r10,QWORD PTR [rsi]
    77c2:	mov    edi,DWORD PTR [rbp+rdx*1-0x4]
    77c6:	add    edi,DWORD PTR [r10+rdx*1-0x4]
    77cb:	cmp    edi,0xc521974f
    77d1:	cmovle edi,r14d
    77d5:	mov    DWORD PTR [rcx],edi
    77d7:	mov    r10d,edi
    77da:	mov    rdi,QWORD PTR [rsp+0x88]
    77e2:	mov    r12,QWORD PTR [rsi+0x18]
    77e6:	mov    r11,QWORD PTR [rdi]
    77e9:	mov    edi,DWORD PTR [r11+rdx*1-0x4]
    77ee:	add    edi,DWORD PTR [r12+rdx*1-0x4]
    77f3:	cmp    edi,r10d
    77f6:	cmovl  edi,r10d
    77fa:	mov    r10,QWORD PTR [rsp+0x48]
    77ff:	mov    DWORD PTR [rcx],edi
    7801:	mov    r10d,DWORD PTR [r10+rax*4]
    7805:	add    r10d,DWORD PTR [r15]
    7808:	cmp    r10d,edi
    780b:	cmovl  r10d,edi
    780f:	mov    rdi,QWORD PTR [rsp+0x90]
    7817:	mov    DWORD PTR [rcx],r10d
    781a:	mov    r12,QWORD PTR [rdi]
    781d:	mov    rdi,QWORD PTR [rsi+0x28]
    7821:	mov    edi,DWORD PTR [rdi+rdx*1-0x4]
    7825:	add    edi,DWORD PTR [r12+rdx*1-0x4]
    782a:	cmp    edi,r10d
    782d:	mov    r12,QWORD PTR [rsp+0x78]
    7832:	cmovl  edi,r10d
    7836:	mov    r10,QWORD PTR [rsp+0x18]
    783b:	mov    DWORD PTR [rcx],edi
    783d:	movsx  r10,BYTE PTR [r10+rbx*1]
    7842:	mov    r10,QWORD PTR [r12+r10*8]
    7846:	mov    r10d,DWORD PTR [r10+rax*4]
    784a:	add    edi,r10d
    784d:	cmp    r10d,0xc521974f
    7854:	cmovne r10d,edi
    7858:	mov    DWORD PTR [rcx],r10d
    785b:	mov    DWORD PTR [r8+rax*4],0xc521974f
    7863:	cmp    DWORD PTR [r13+0x88],eax
    786a:	jle    78a2 <P7WeeViterbi+0x602>
    786c:	mov    rdi,QWORD PTR [rsi+0x10]
    7870:	mov    r10d,DWORD PTR [rcx-0x4]
    7874:	add    r10d,DWORD PTR [rdi+rdx*1-0x4]
    7879:	cmp    r10d,0xc521974f
    7880:	mov    edi,r10d
    7883:	mov    r10d,DWORD PTR [r8+rax*4-0x4]
    7888:	cmovle edi,r14d
    788c:	mov    DWORD PTR [r8+rax*4],edi
    7890:	mov    r12,QWORD PTR [rsi+0x30]
    7894:	add    r10d,DWORD PTR [r12+rdx*1-0x4]
    7899:	cmp    r10d,edi
    789c:	jle    78a2 <P7WeeViterbi+0x602>
    789e:	mov    DWORD PTR [r8+rax*4],r10d
    78a2:	mov    DWORD PTR [r9+rax*4],0xc521974f
    78aa:	cmp    DWORD PTR [r13+0x88],eax
    78b1:	jle    7912 <P7WeeViterbi+0x672>
    78b3:	mov    rdi,QWORD PTR [rsi+0x8]
    78b7:	mov    r10d,DWORD PTR [rbp+rdx*1+0x0]
    78bc:	add    r10d,DWORD PTR [rdi+rdx*1]
    78c0:	cmp    r10d,0xc521974f
    78c7:	mov    edi,r10d
    78ca:	cmovle edi,r14d
    78ce:	mov    DWORD PTR [r9+rax*4],edi
    78d2:	mov    rsi,QWORD PTR [rsi+0x20]
    78d6:	mov    r10d,DWORD PTR [r11+rdx*1]
    78da:	add    r10d,DWORD PTR [rsi+rdx*1]
    78de:	mov    rsi,QWORD PTR [rsp+0x18]
    78e3:	cmp    r10d,edi
    78e6:	cmovl  r10d,edi
    78ea:	mov    DWORD PTR [r9+rax*4],r10d
    78ee:	movsx  rdi,BYTE PTR [rsi+rbx*1]
    78f3:	mov    rsi,QWORD PTR [r13+0x148]
    78fa:	mov    rsi,QWORD PTR [rsi+rdi*8]
    78fe:	mov    edx,DWORD PTR [rsi+rdx*1]
    7901:	add    r10d,edx
    7904:	cmp    edx,0xc521974f
    790a:	cmove  r10d,r14d
    790e:	mov    DWORD PTR [r9+rax*4],r10d
    7912:	add    rax,0x1
    7916:	add    rcx,0x4
    791a:	cmp    DWORD PTR [rsp],eax
    791d:	jge    7798 <P7WeeViterbi+0x4f8>
    7923:	mov    r10,QWORD PTR [rsp+0xa0]
    792b:	mov    r12,QWORD PTR [rsp+0xa8]
    7933:	mov    rax,QWORD PTR [rsp+0x40]
    7938:	mov    r9d,DWORD PTR [rsp]
    793c:	mov    ecx,0xc521974f
    7941:	mov    rdi,QWORD PTR [rsp+0x98]
    7949:	mov    rsi,QWORD PTR [rsp+0xb0]
    7951:	mov    rdx,QWORD PTR [rax+rdi*8]
    7955:	mov    DWORD PTR [rdx+0x10],0xc521974f
    795c:	mov    eax,DWORD PTR [r13+0x154]
    7963:	add    eax,DWORD PTR [r15+0x10]
    7967:	mov    DWORD PTR [rdx+0x4],0xc521974f
    796e:	cmp    eax,0xc521974f
    7973:	cmovle eax,r14d
    7977:	mov    DWORD PTR [rdx+0x10],eax
    797a:	cmp    DWORD PTR [rsp+0x8],r9d
    797f:	jle    79a9 <P7WeeViterbi+0x709>
    7981:	jmp    79b2 <P7WeeViterbi+0x712>
    7983:	nop    DWORD PTR [rax+rax*1+0x0]
    7988:	mov    r8,QWORD PTR [r13+0x178]
    798f:	mov    edi,DWORD PTR [r12+rsi*4]
    7993:	add    edi,DWORD PTR [r8+rsi*4]
    7997:	cmp    edi,ecx
    7999:	jle    79a0 <P7WeeViterbi+0x700>
    799b:	mov    DWORD PTR [rdx+0x4],edi
    799e:	mov    ecx,edi
    79a0:	add    rsi,0x1
    79a4:	cmp    DWORD PTR [rsp],esi
    79a7:	jl     79b2 <P7WeeViterbi+0x712>
    79a9:	cmp    DWORD PTR [r13+0x88],esi
    79b0:	jge    7988 <P7WeeViterbi+0x6e8>
    79b2:	mov    DWORD PTR [rdx],0xc521974f
    79b8:	add    eax,DWORD PTR [r13+0x150]
    79bf:	cmp    eax,0xc521974f
    79c4:	mov    DWORD PTR [rdx+0x8],0xc521974f
    79cb:	cmovle eax,r14d
    79cf:	mov    DWORD PTR [rdx],eax
    79d1:	mov    eax,DWORD PTR [r13+0x164]
    79d8:	add    eax,DWORD PTR [r15+0x8]
    79dc:	cmp    eax,0xc521974f
    79e1:	cmovle eax,r14d
    79e5:	mov    DWORD PTR [rdx+0x8],eax
    79e8:	add    ecx,DWORD PTR [r13+0x158]
    79ef:	cmp    ecx,eax
    79f1:	cmovl  ecx,eax
    79f4:	add    rbx,0x1
    79f8:	mov    DWORD PTR [rdx+0x8],ecx
    79fb:	cmp    DWORD PTR [rsp+0x10],ebx
    79ff:	jge    7608 <P7WeeViterbi+0x368>
    7a05:	mov    esi,DWORD PTR [r13+0x88]
    7a0c:	xor    ecx,ecx
    7a0e:	xor    edx,edx
    7a10:	mov    edi,0x1
    7a15:	call   5350 <CreatePlan7Matrix>
    7a1a:	mov    ebx,DWORD PTR [rsp+0x28]
    7a1e:	mov    rcx,QWORD PTR [rax]
    7a21:	mov    r15,rax
    7a24:	mov    rax,QWORD PTR [rax+0x8]
    7a28:	mov    QWORD PTR [rsp+0x20],rax
    7a2d:	mov    rax,QWORD PTR [r15+0x10]
    7a31:	mov    QWORD PTR [rsp+0xa0],rcx
    7a39:	mov    QWORD PTR [rsp+0x30],rax
    7a3e:	mov    rax,QWORD PTR [r15+0x18]
    7a42:	mov    QWORD PTR [rsp+0x48],rax
    7a47:	mov    eax,ebx
    7a49:	shr    eax,0x1f
    7a4c:	lea    edx,[rbx+rax*1]
    7a4f:	and    edx,0x1
    7a52:	sub    edx,eax
    7a54:	movabs rax,0xc521974fc521974f
    7a5e:	movsxd rdx,edx
    7a61:	mov    rcx,QWORD PTR [rcx+rdx*8]
    7a65:	mov    QWORD PTR [rcx],rax
    7a68:	mov    eax,DWORD PTR [rsp]
    7a6b:	mov    DWORD PTR [rcx+0x10],0xc521974f
    7a72:	mov    DWORD PTR [rcx+0x8],0xc521974f
    7a79:	lea    edi,[rax+0x1]
    7a7c:	cmp    DWORD PTR [rsp+0x8],edi
    7a80:	jg     7ad4 <P7WeeViterbi+0x834>
    7a82:	mov    rax,QWORD PTR [rsp+0x48]
    7a87:	movsxd rsi,DWORD PTR [rsp+0x8]
    7a8c:	mov    r10,QWORD PTR [rax+rdx*8]
    7a90:	mov    rax,QWORD PTR [rsp+0x30]
    7a95:	sub    edi,esi
    7a97:	mov    r9,QWORD PTR [rax+rdx*8]
    7a9b:	mov    rax,QWORD PTR [rsp+0x20]
    7aa0:	mov    r8,QWORD PTR [rax+rdx*8]
    7aa4:	lea    rax,[rsi+0x1]
    7aa8:	add    rdi,rax
    7aab:	jmp    7ab4 <P7WeeViterbi+0x814>
    7aad:	nop    DWORD PTR [rax]
    7ab0:	add    rax,0x1
    7ab4:	mov    DWORD PTR [r10+rsi*4],0xc521974f
    7abc:	mov    DWORD PTR [r9+rsi*4],0xc521974f
    7ac4:	mov    DWORD PTR [r8+rsi*4],0xc521974f
    7acc:	mov    rsi,rax
    7acf:	cmp    rdi,rax
    7ad2:	jne    7ab0 <P7WeeViterbi+0x810>
    7ad4:	mov    eax,DWORD PTR [rsp+0x28]
    7ad8:	mov    r9,QWORD PTR [rsp+0x48]
    7add:	movsxd rsi,DWORD PTR [rsp]
    7ae1:	not    eax
    7ae3:	and    eax,0x1
    7ae6:	lea    rdi,[rsi+0x1]
    7aea:	mov    r8,QWORD PTR [r9+rax*8]
    7aee:	mov    r9,QWORD PTR [rsp+0x30]
    7af3:	lea    rbx,[rdi*4+0x0]
    7afb:	mov    DWORD PTR [r8+rdi*4],0xc521974f
    7b03:	mov    r8,QWORD PTR [r9+rax*8]
    7b07:	mov    r9,QWORD PTR [rsp+0x20]
    7b0c:	mov    DWORD PTR [r8+rdi*4],0xc521974f
    7b14:	mov    rax,QWORD PTR [r9+rax*8]
    7b18:	mov    DWORD PTR [rax+rdi*4],0xc521974f
    7b1f:	movzx  eax,BYTE PTR [rsp+0x62]
    7b24:	cmp    al,0x9
    7b26:	ja     7b40 <P7WeeViterbi+0x8a0>
    7b28:	lea    rdi,[rip+0x357d1]        # 3d300 <_IO_stdin_used+0x300>
    7b2f:	movsxd rax,DWORD PTR [rdi+rax*4]
    7b33:	add    rax,rdi
    7b36:	notrack jmp rax
    7b39:	nop    DWORD PTR [rax+0x0]
    7b40:	movsx  edi,BYTE PTR [rsp+0x62]
    7b45:	call   b100 <Statetype>
    7b4a:	lea    rdi,[rip+0x3570f]        # 3d260 <_IO_stdin_used+0x260>
    7b51:	mov    rsi,rax
    7b54:	xor    eax,eax
    7b56:	call   317f0 <Die>
    7b5b:	nop    DWORD PTR [rax+rax*1+0x0]
    7b60:	sub    rbx,0x4
    7b64:	mov    eax,DWORD PTR [rsp+0x28]
    7b68:	mov    QWORD PTR [rsp+0x90],rbx
    7b70:	mov    ebx,DWORD PTR [rsp+0x8]
    7b74:	sub    eax,0x1
    7b77:	sub    ebx,0x1
    7b7a:	movsxd rbp,eax
    7b7d:	mov    DWORD PTR [rsp+0x98],ebx
    7b84:	cmp    DWORD PTR [rsp+0x10],eax
    7b88:	jg     80c6 <P7WeeViterbi+0xe26>
    7b8e:	mov    QWORD PTR [rsp+0xa8],r15
    7b96:	nop    WORD PTR cs:[rax+rax*1+0x0]
    7ba0:	mov    edx,ebp
    7ba2:	mov    ecx,ebp
    7ba4:	mov    rbx,QWORD PTR [rsp+0xa0]
    7bac:	mov    esi,DWORD PTR [rsp]
    7baf:	shr    edx,0x1f
    7bb2:	not    ecx
    7bb4:	lea    eax,[rdx+rbp*1]
    7bb7:	and    ecx,0x1
    7bba:	and    eax,0x1
    7bbd:	mov    r9,QWORD PTR [rbx+rcx*8]
    7bc1:	sub    eax,edx
    7bc3:	cdqe   
    7bc5:	mov    rdx,QWORD PTR [rbx+rax*8]
    7bc9:	lea    r8,[rax*8+0x0]
    7bd1:	mov    ebx,DWORD PTR [rsp+0x8]
    7bd5:	lea    rax,[rcx*8+0x0]
    7bdd:	mov    QWORD PTR [rsp+0x78],rax
    7be2:	mov    DWORD PTR [rdx+0x8],0xc521974f
    7be9:	mov    eax,DWORD PTR [r13+0x164]
    7bf0:	add    eax,DWORD PTR [r9+0x8]
    7bf4:	mov    DWORD PTR [rdx],0xc521974f
    7bfa:	cmp    eax,0xc521974f
    7bff:	cmovle eax,r14d
    7c03:	mov    DWORD PTR [rdx+0x8],eax
    7c06:	cmp    ebx,esi
    7c08:	jg     8698 <P7WeeViterbi+0x13f8>
    7c0e:	mov    rsi,QWORD PTR [rsp+0x20]
    7c13:	mov    r10,QWORD PTR [r13+0x170]
    7c1a:	mov    r11,QWORD PTR [rsi+rcx*8]
    7c1e:	movsxd rsi,ebx
    7c21:	mov    ecx,0xc521974f
    7c26:	nop    WORD PTR cs:[rax+rax*1+0x0]
    7c30:	mov    edi,DWORD PTR [r10+rsi*4]
    7c34:	add    edi,DWORD PTR [r11+rsi*4]
    7c38:	cmp    edi,ecx
    7c3a:	jle    7c40 <P7WeeViterbi+0x9a0>
    7c3c:	mov    DWORD PTR [rdx],edi
    7c3e:	mov    ecx,edi
    7c40:	add    rsi,0x1
    7c44:	cmp    DWORD PTR [rsp],esi
    7c47:	jge    7c30 <P7WeeViterbi+0x990>
    7c49:	mov    DWORD PTR [rdx+0x4],0xc521974f
    7c50:	add    eax,DWORD PTR [r13+0x158]
    7c57:	cmp    eax,0xc521974f
    7c5c:	mov    DWORD PTR [rdx+0x10],0xc521974f
    7c63:	mov    ebx,DWORD PTR [rsp]
    7c66:	cmovle eax,r14d
    7c6a:	mov    DWORD PTR [rdx+0x4],eax
    7c6d:	add    ecx,DWORD PTR [r13+0x150]
    7c74:	cmp    ecx,0xc521974f
    7c7a:	cmovle ecx,r14d
    7c7e:	mov    DWORD PTR [rdx+0x10],ecx
    7c81:	mov    eax,DWORD PTR [r13+0x154]
    7c88:	add    eax,DWORD PTR [r9+0x10]
    7c8c:	cmp    eax,ecx
    7c8e:	cmovge ecx,eax
    7c91:	mov    DWORD PTR [rdx+0x10],ecx
    7c94:	cmp    DWORD PTR [rsp+0x8],ebx
    7c98:	jg     80b0 <P7WeeViterbi+0xe10>
    7c9e:	mov    rax,QWORD PTR [rsp+0x20]
    7ca3:	mov    r10d,DWORD PTR [rsp]
    7ca7:	mov    DWORD PTR [rsp+0x88],ebp
    7cae:	mov    QWORD PTR [rsp+0x40],rdx
    7cb3:	add    rax,r8
    7cb6:	mov    QWORD PTR [rsp+0x80],rax
    7cbe:	mov    rax,QWORD PTR [rsp+0x48]
    7cc3:	lea    r15,[rax+r8*1]
    7cc7:	add    r8,QWORD PTR [rsp+0x30]
    7ccc:	mov    rax,QWORD PTR [rsp+0x90]
    7cd4:	mov    QWORD PTR [rsp+0x38],r8
    7cd9:	jmp    7e46 <P7WeeViterbi+0xba6>
    7cde:	xchg   ax,ax
    7ce0:	mov    rdi,QWORD PTR [r13+0x178]
    7ce7:	mov    rbx,QWORD PTR [rsp+0x40]
    7cec:	mov    DWORD PTR [rcx],0xc521974f
    7cf2:	lea    r9,[rax+0x4]
    7cf6:	mov    r12,QWORD PTR [rsp+0x78]
    7cfb:	mov    esi,DWORD PTR [rbx+0x4]
    7cfe:	add    esi,DWORD PTR [rdi+rax*1]
    7d01:	cmp    esi,0xc521974f
    7d07:	mov    rbx,QWORD PTR [rsp+0x20]
    7d0c:	cmovle esi,r14d
    7d10:	mov    DWORD PTR [rcx],esi
    7d12:	mov    rdi,QWORD PTR [r13+0x138]
    7d19:	mov    r8d,esi
    7d1c:	mov    r11,QWORD PTR [rbx+r12*1]
    7d20:	mov    rbx,QWORD PTR [rdi]
    7d23:	add    r11,r9
    7d26:	mov    esi,DWORD PTR [r11]
    7d29:	add    esi,DWORD PTR [rbx+rax*1]
    7d2c:	cmp    esi,r8d
    7d2f:	cmovl  esi,r8d
    7d33:	mov    r8,QWORD PTR [rsp+0x30]
    7d38:	mov    DWORD PTR [rcx],esi
    7d3a:	mov    rbx,QWORD PTR [r8+r12*1]
    7d3e:	mov    r8,QWORD PTR [rdi+0x8]
    7d42:	add    rbx,rax
    7d45:	mov    r12d,DWORD PTR [rbx]
    7d48:	add    r12d,DWORD PTR [r8+rax*1]
    7d4c:	cmp    r12d,esi
    7d4f:	cmovge esi,r12d
    7d53:	mov    DWORD PTR [rcx],esi
    7d55:	mov    r8,QWORD PTR [r15]
    7d58:	mov    rdx,QWORD PTR [rdi+0x10]
    7d5c:	add    r9,r8
    7d5f:	mov    r12d,DWORD PTR [r9]
    7d62:	add    r12d,DWORD PTR [rdx+rax*1]
    7d66:	cmp    r12d,esi
    7d69:	cmovge esi,r12d
    7d6d:	mov    DWORD PTR [rcx],esi
    7d6f:	cmp    DWORD PTR [rsp+0x10],ebp
    7d73:	je     7d90 <P7WeeViterbi+0xaf0>
    7d75:	mov    rdx,QWORD PTR [rsp+0x18]
    7d7a:	movsx  r12,BYTE PTR [rdx+rbp*1]
    7d7f:	mov    rdx,QWORD PTR [r13+0x140]
    7d86:	mov    r12,QWORD PTR [rdx+r12*8]
    7d8a:	add    esi,DWORD PTR [r12+rax*1]
    7d8e:	mov    DWORD PTR [rcx],esi
    7d90:	mov    rsi,QWORD PTR [rdi+0x28]
    7d94:	add    r8,rax
    7d97:	mov    edx,DWORD PTR [rsp+0x88]
    7d9e:	mov    DWORD PTR [r8],0xc521974f
    7da5:	mov    ecx,DWORD PTR [r11]
    7da8:	add    ecx,DWORD PTR [rsi+rax*1]
    7dab:	cmp    ecx,0xc521974f
    7db1:	cmovle ecx,r14d
    7db5:	mov    DWORD PTR [r8],ecx
    7db8:	mov    rsi,QWORD PTR [rdi+0x30]
    7dbc:	mov    r9d,DWORD PTR [r9]
    7dbf:	add    r9d,DWORD PTR [rsi+rax*1]
    7dc3:	mov    rsi,QWORD PTR [rsp+0x38]
    7dc8:	cmp    r9d,ecx
    7dcb:	cmovl  r9d,ecx
    7dcf:	mov    DWORD PTR [r8],r9d
    7dd2:	mov    rcx,QWORD PTR [rsi]
    7dd5:	mov    rsi,QWORD PTR [rdi+0x18]
    7dd9:	add    rcx,rax
    7ddc:	mov    DWORD PTR [rcx],0xc521974f
    7de2:	mov    r8d,DWORD PTR [r11]
    7de5:	add    r8d,DWORD PTR [rsi+rax*1]
    7de9:	cmp    r8d,0xc521974f
    7df0:	mov    esi,r8d
    7df3:	cmovle esi,r14d
    7df7:	mov    DWORD PTR [rcx],esi
    7df9:	mov    rdi,QWORD PTR [rdi+0x20]
    7dfd:	mov    r8d,DWORD PTR [rbx]
    7e00:	add    r8d,DWORD PTR [rdi+rax*1]
    7e04:	cmp    r8d,esi
    7e07:	cmovl  r8d,esi
    7e0b:	mov    DWORD PTR [rcx],r8d
    7e0e:	cmp    DWORD PTR [rsp+0x10],edx
    7e12:	je     7e30 <P7WeeViterbi+0xb90>
    7e14:	mov    rbx,QWORD PTR [rsp+0x18]
    7e19:	mov    rsi,QWORD PTR [r13+0x148]
    7e20:	movsx  rdi,BYTE PTR [rbx+rbp*1]
    7e25:	mov    rsi,QWORD PTR [rsi+rdi*8]
    7e29:	add    r8d,DWORD PTR [rsi+rax*1]
    7e2d:	mov    DWORD PTR [rcx],r8d
    7e30:	sub    r10d,0x1
    7e34:	sub    rax,0x4
    7e38:	cmp    r10d,DWORD PTR [rsp+0x98]
    7e40:	je     80b0 <P7WeeViterbi+0xe10>
    7e46:	mov    rbx,QWORD PTR [rsp+0x80]
    7e4e:	mov    rcx,QWORD PTR [rbx]
    7e51:	add    rcx,rax
    7e54:	cmp    DWORD PTR [r13+0x88],r10d
    7e5b:	jne    7ce0 <P7WeeViterbi+0xa40>
    7e61:	mov    rbx,QWORD PTR [rsp+0x40]
    7e66:	mov    esi,DWORD PTR [rbx+0x4]
    7e69:	mov    rbx,QWORD PTR [rsp+0x38]
    7e6e:	mov    DWORD PTR [rcx],esi
    7e70:	mov    rsi,QWORD PTR [r15]
    7e73:	mov    DWORD PTR [rsi+rax*1],0xc521974f
    7e7a:	mov    rsi,QWORD PTR [rbx]
    7e7d:	mov    DWORD PTR [rsi+rax*1],0xc521974f
    7e84:	cmp    DWORD PTR [rsp+0x10],ebp
    7e88:	je     7e30 <P7WeeViterbi+0xb90>
    7e8a:	mov    rbx,QWORD PTR [rsp+0x18]
    7e8f:	mov    rsi,QWORD PTR [r13+0x140]
    7e96:	movsx  rdi,BYTE PTR [rbx+rbp*1]
    7e9b:	mov    rsi,QWORD PTR [rsi+rdi*8]
    7e9f:	mov    esi,DWORD PTR [rsi+rax*1]
    7ea2:	add    DWORD PTR [rcx],esi
    7ea4:	jmp    7e30 <P7WeeViterbi+0xb90>
    7ea6:	nop    WORD PTR cs:[rax+rax*1+0x0]
    7eb0:	mov    rax,QWORD PTR [rsp+0x30]
    7eb5:	movsxd r11,DWORD PTR [rsp+0x8]
    7eba:	lea    r9,[rax+r12*1]
    7ebe:	mov    rax,r11
    7ec1:	mov    rdx,QWORD PTR [r9]
    7ec4:	add    eax,0x1
    7ec7:	mov    DWORD PTR [rdx+r11*4],0x0
    7ecf:	cmp    DWORD PTR [rsp],eax
    7ed2:	jl     7f49 <P7WeeViterbi+0xca9>
    7ed4:	mov    esi,DWORD PTR [rsp]
    7ed7:	mov    rcx,QWORD PTR [rsp+0x38]
    7edc:	cdqe   
    7ede:	shl    rax,0x2
    7ee2:	sub    esi,0x1
    7ee5:	sub    esi,DWORD PTR [rsp+0x8]
    7ee9:	add    rcx,r12
    7eec:	lea    r10,[r11+rsi*1+0x2]
    7ef1:	shl    r10,0x2
    7ef5:	nop    DWORD PTR [rax]
    7ef8:	mov    r8,QWORD PTR [r13+0x138]
    7eff:	mov    rsi,QWORD PTR [rcx]
    7f02:	mov    r12,QWORD PTR [r8+0x10]
    7f06:	lea    rdi,[rsi+rax*1]
    7f0a:	mov    DWORD PTR [rdi],0xc521974f
    7f10:	mov    edx,DWORD PTR [rdx+rax*1-0x4]
    7f14:	add    edx,DWORD PTR [r12+rax*1-0x4]
    7f19:	cmp    edx,0xc521974f
    7f1f:	cmovle edx,r14d
    7f23:	mov    DWORD PTR [rdi],edx
    7f25:	mov    r8,QWORD PTR [r8+0x30]
    7f29:	mov    esi,DWORD PTR [rsi+rax*1-0x4]
    7f2d:	add    esi,DWORD PTR [r8+rax*1-0x4]
    7f32:	cmp    esi,edx
    7f34:	cmovge edx,esi
    7f37:	add    rax,0x4
    7f3b:	mov    DWORD PTR [rdi],edx
    7f3d:	mov    rdx,QWORD PTR [r9]
    7f40:	cmp    r10,rax
    7f43:	jne    7ef8 <P7WeeViterbi+0xc58>
    7f45:	mov    rcx,QWORD PTR [rbp+0x0]
    7f49:	mov    rdi,QWORD PTR [r13+0x178]
    7f50:	mov    DWORD PTR [rcx+0x4],0xc521974f
    7f57:	mov    rsi,rcx
    7f5a:	mov    eax,DWORD PTR [rdx+r11*4]
    7f5e:	mov    edx,DWORD PTR [rcx+0x10]
    7f61:	add    eax,DWORD PTR [rdi+r11*4]
    7f65:	cmp    eax,0xc5219750
    7f6a:	jl     8818 <P7WeeViterbi+0x1578>
    7f70:	mov    DWORD PTR [rcx+0x4],eax
    7f73:	jmp    758c <P7WeeViterbi+0x2ec>
    7f78:	nop    DWORD PTR [rax+rax*1+0x0]
    7f80:	mov    rdi,QWORD PTR [rsp+0x20]
    7f85:	movsxd rax,DWORD PTR [rsp+0x8]
    7f8a:	mov    rdx,QWORD PTR [rdi+r12*1]
    7f8e:	mov    DWORD PTR [rdx+rax*4],0x0
    7f95:	mov    edx,DWORD PTR [rcx+0x10]
    7f98:	mov    eax,DWORD PTR [rcx+0x4]
    7f9b:	jmp    758c <P7WeeViterbi+0x2ec>
    7fa0:	mov    edx,DWORD PTR [rcx+0x10]
    7fa3:	mov    eax,DWORD PTR [rcx+0x4]
    7fa6:	mov    DWORD PTR [rcx+0x8],0x0
    7fad:	jmp    758c <P7WeeViterbi+0x2ec>
    7fb2:	nop    WORD PTR [rax+rax*1+0x0]
    7fb8:	mov    eax,DWORD PTR [r13+0x160]
    7fbf:	mov    r9d,DWORD PTR [rsp]
    7fc3:	mov    DWORD PTR [rcx+0x8],eax
    7fc6:	add    eax,DWORD PTR [r13+0x158]
    7fcd:	mov    DWORD PTR [rcx+0x4],eax
    7fd0:	cmp    DWORD PTR [rsp+0x8],r9d
    7fd5:	jg     7b60 <P7WeeViterbi+0x8c0>
    7fdb:	mov    rdi,QWORD PTR [rsp+0x20]
    7fe0:	mov    r8d,DWORD PTR [rsp]
    7fe4:	sub    r8d,DWORD PTR [rsp+0x8]
    7fe9:	mov    r10,QWORD PTR [r13+0x178]
    7ff0:	sub    rsi,r8
    7ff3:	mov    rdi,QWORD PTR [rdi+rdx*8]
    7ff7:	mov    ebp,DWORD PTR [rsp+0x10]
    7ffb:	lea    rdx,[rbx-0x4]
    7fff:	mov    r11,QWORD PTR [rsp+0x108]
    8007:	mov    r12,QWORD PTR [rsp+0x18]
    800c:	shl    rsi,0x2
    8010:	jmp    801e <P7WeeViterbi+0xd7e>
    8012:	nop    WORD PTR [rax+rax*1+0x0]
    8018:	mov    eax,DWORD PTR [rcx+0x4]
    801b:	mov    rdx,r8
    801e:	add    eax,DWORD PTR [r10+rdx*1]
    8022:	mov    DWORD PTR [rdi+rdx*1],eax
    8025:	cmp    DWORD PTR [rsp+0x28],ebp
    8029:	je     8042 <P7WeeViterbi+0xda2>
    802b:	movsx  r9,BYTE PTR [r12+r11*1]
    8030:	mov    r8,QWORD PTR [r13+0x140]
    8037:	mov    r8,QWORD PTR [r8+r9*8]
    803b:	add    eax,DWORD PTR [r8+rdx*1]
    803f:	mov    DWORD PTR [rdi+rdx*1],eax
    8042:	lea    r8,[rdx-0x4]
    8046:	cmp    rsi,rdx
    8049:	jne    8018 <P7WeeViterbi+0xd78>
    804b:	jmp    7b60 <P7WeeViterbi+0x8c0>
    8050:	mov    DWORD PTR [rcx+0x8],0x0
    8057:	jmp    7b60 <P7WeeViterbi+0x8c0>
    805c:	nop    DWORD PTR [rax+0x0]
    8060:	mov    DWORD PTR [rcx+0x10],0x0
    8067:	jmp    7b60 <P7WeeViterbi+0x8c0>
    806c:	nop    DWORD PTR [rax+0x0]
    8070:	mov    rax,QWORD PTR [rsp+0x30]
    8075:	mov    rax,QWORD PTR [rax+rdx*8]
    8079:	mov    DWORD PTR [rax+rbx*1-0x4],0x0
    8081:	jmp    7b60 <P7WeeViterbi+0x8c0>
    8086:	nop    WORD PTR cs:[rax+rax*1+0x0]
    8090:	mov    rax,QWORD PTR [rsp+0x20]
    8095:	mov    rax,QWORD PTR [rax+rdx*8]
    8099:	mov    DWORD PTR [rax+rbx*1-0x4],0x0
    80a1:	jmp    7b60 <P7WeeViterbi+0x8c0>
    80a6:	nop    WORD PTR cs:[rax+rax*1+0x0]
    80b0:	sub    rbp,0x1
    80b4:	cmp    DWORD PTR [rsp+0x10],ebp
    80b8:	jle    7ba0 <P7WeeViterbi+0x900>
    80be:	mov    r15,QWORD PTR [rsp+0xa8]
    80c6:	mov    ebx,DWORD PTR [rsp+0x10]
    80ca:	mov    ebp,0xc521974f
    80cf:	mov    eax,ebx
    80d1:	shr    eax,0x1f
    80d4:	lea    edx,[rbx+rax*1]
    80d7:	mov    ebx,DWORD PTR [rsp]
    80da:	and    edx,0x1
    80dd:	sub    edx,eax
    80df:	movsxd rdx,edx
    80e2:	cmp    DWORD PTR [rsp+0x8],ebx
    80e6:	jg     8174 <P7WeeViterbi+0xed4>
    80ec:	mov    rbx,QWORD PTR [rsp+0x50]
    80f1:	mov    r12d,DWORD PTR [rsp]
    80f5:	mov    ebp,0xc521974f
    80fa:	mov    r10d,DWORD PTR [rsp+0xc0]
    8102:	movzx  r11d,BYTE PTR [rsp+0x5b]
    8108:	mov    rax,QWORD PTR [rbx+0x8]
    810c:	mov    r9,QWORD PTR [rax+rdx*8]
    8110:	mov    rax,QWORD PTR [r15+0x8]
    8114:	mov    r8,QWORD PTR [rax+rdx*8]
    8118:	mov    rax,QWORD PTR [rbx+0x10]
    811c:	mov    rdi,QWORD PTR [rax+rdx*8]
    8120:	mov    rax,QWORD PTR [r15+0x10]
    8124:	mov    rsi,QWORD PTR [rax+rdx*8]
    8128:	movsxd rax,DWORD PTR [rsp+0x8]
    812d:	nop    DWORD PTR [rax]
    8130:	mov    ecx,DWORD PTR [r8+rax*4]
    8134:	add    ecx,DWORD PTR [r9+rax*4]
    8138:	mov    ebx,eax
    813a:	cmp    ecx,ebp
    813c:	jle    8149 <P7WeeViterbi+0xea9>
    813e:	mov    ebp,ecx
    8140:	mov    r10d,eax
    8143:	mov    r11d,0x1
    8149:	mov    ecx,DWORD PTR [rsi+rax*4]
    814c:	add    ecx,DWORD PTR [rdi+rax*4]
    814f:	cmp    ecx,ebp
    8151:	jle    815e <P7WeeViterbi+0xebe>
    8153:	mov    ebp,ecx
    8155:	mov    r10d,ebx
    8158:	mov    r11d,0x3
    815e:	add    rax,0x1
    8162:	cmp    r12d,eax
    8165:	jge    8130 <P7WeeViterbi+0xe90>
    8167:	mov    DWORD PTR [rsp+0xc0],r10d
    816f:	mov    BYTE PTR [rsp+0x5b],r11b
    8174:	mov    rax,QWORD PTR [rsp+0x50]
    8179:	mov    rcx,QWORD PTR [r15]
    817c:	mov    rax,QWORD PTR [rax]
    817f:	mov    rcx,QWORD PTR [rcx+rdx*8]
    8183:	mov    rax,QWORD PTR [rax+rdx*8]
    8187:	mov    edx,DWORD PTR [rcx+0x10]
    818a:	add    edx,DWORD PTR [rax+0x10]
    818d:	cmp    edx,ebp
    818f:	jle    81a3 <P7WeeViterbi+0xf03>
    8191:	mov    BYTE PTR [rsp+0x5b],0x5
    8196:	mov    ebp,edx
    8198:	mov    DWORD PTR [rsp+0xc0],0x1
    81a3:	mov    r12d,DWORD PTR [rcx+0x8]
    81a7:	add    r12d,DWORD PTR [rax+0x8]
    81ab:	cmp    r12d,ebp
    81ae:	jle    86a8 <P7WeeViterbi+0x1408>
    81b4:	mov    rdi,QWORD PTR [rsp+0x50]
    81b9:	mov    ebx,DWORD PTR [r13+0x88]
    81c0:	call   5810 <FreePlan7Matrix>
    81c5:	mov    rdi,r15
    81c8:	call   5810 <FreePlan7Matrix>
    81cd:	mov    edi,r12d
    81d0:	call   17820 <Scorify>
    81d5:	mov    rax,QWORD PTR [rsp+0x68]
    81da:	cmp    BYTE PTR [rsp+0x63],0x4
    81df:	mov    BYTE PTR [rsp+0x5b],0x8
    81e4:	sete   dl
    81e7:	cmp    BYTE PTR [rsp+0x62],0x9
    81ec:	mov    DWORD PTR [rax],ebx
    81ee:	mov    rax,QWORD PTR [rsp+0x70]
    81f3:	mov    ecx,edx
    81f5:	mov    BYTE PTR [rax],0x8
    81f8:	sete   al
    81fb:	and    cl,al
    81fd:	je     820c <P7WeeViterbi+0xf6c>
    81ff:	movss  DWORD PTR [rsp+0x110],xmm0
    8208:	mov    eax,ecx
    820a:	mov    edx,ecx
    820c:	mov    ecx,DWORD PTR [rsp+0x10]
    8210:	sub    ecx,DWORD PTR [rsp+0x64]
    8214:	cmp    ecx,0x1
    8217:	jle    87e0 <P7WeeViterbi+0x1540>
    821d:	mov    rbx,QWORD PTR [rsp+0xf8]
    8225:	mov    ecx,DWORD PTR [rsp+0x64]
    8229:	mov    DWORD PTR [rbx],ecx
    822b:	mov    rbx,QWORD PTR [rsp+0x100]
    8233:	mov    ecx,DWORD PTR [rsp+0x10]
    8237:	mov    DWORD PTR [rbx],ecx
    8239:	mov    ebx,DWORD PTR [rsp+0x5c]
    823d:	mov    DWORD PTR [rsp+0xf0],ebx
    8244:	cmp    BYTE PTR [rsp+0x5b],0x8
    8249:	jne    8709 <P7WeeViterbi+0x1469>
    824f:	movsxd rax,DWORD PTR [rsp+0x10]
    8254:	cmp    DWORD PTR [rsp+0x28],eax
    8258:	jl     8286 <P7WeeViterbi+0xfe6>
    825a:	mov    rcx,QWORD PTR [rsp+0xd8]
    8262:	mov    rsi,QWORD PTR [rsp+0xd0]
    826a:	mov    edi,DWORD PTR [rsp+0x28]
    826e:	xchg   ax,ax
    8270:	mov    edx,DWORD PTR [r13+0x88]
    8277:	mov    DWORD PTR [rcx+rax*4],edx
    827a:	mov    BYTE PTR [rsi+rax*1],0x8
    827e:	add    rax,0x1
    8282:	cmp    edi,eax
    8284:	jge    8270 <P7WeeViterbi+0xfd0>
    8286:	mov    eax,DWORD PTR [rsp+0xf0]
    828d:	mov    DWORD PTR [rsp+0x5c],eax
    8291:	nop    DWORD PTR [rax+0x0]
    8298:	cmp    DWORD PTR [rsp+0x5c],0xffffffff
    829d:	jne    73c8 <P7WeeViterbi+0x128>
    82a3:	mov    eax,DWORD PTR [rsp+0x114]
    82aa:	lea    edi,[rax+0x6]
    82ad:	cmp    eax,0x1
    82b0:	jle    8328 <P7WeeViterbi+0x1088>
    82b2:	lea    ecx,[rax-0x2]
    82b5:	mov    r8,QWORD PTR [rsp+0xd8]
    82bd:	mov    rsi,QWORD PTR [rsp+0xd0]
    82c5:	mov    eax,0x2
    82ca:	add    rcx,0x3
    82ce:	jmp    82f1 <P7WeeViterbi+0x1051>
    82d0:	cmp    dl,0x5
    82d3:	jne    82e8 <P7WeeViterbi+0x1048>
    82d5:	cmp    BYTE PTR [rsi+rax*1],0x1
    82d9:	jne    82e8 <P7WeeViterbi+0x1048>
    82db:	mov    edx,DWORD PTR [r8+rax*4]
    82df:	lea    edi,[rdi+rdx*1-0x1]
    82e3:	nop    DWORD PTR [rax+rax*1+0x0]
    82e8:	add    rax,0x1
    82ec:	cmp    rcx,rax
    82ef:	je     8328 <P7WeeViterbi+0x1088>
    82f1:	movzx  edx,BYTE PTR [rsi+rax*1-0x1]
    82f6:	cmp    dl,0x1
    82f9:	jne    82d0 <P7WeeViterbi+0x1030>
    82fb:	movzx  edx,BYTE PTR [rsi+rax*1]
    82ff:	cmp    dl,0x1
    8302:	je     88e8 <P7WeeViterbi+0x1648>
    8308:	cmp    dl,0x8
    830b:	jne    82e8 <P7WeeViterbi+0x1048>
    830d:	add    edi,DWORD PTR [r13+0x88]
    8314:	sub    edi,DWORD PTR [r8+rax*4-0x4]
    8319:	add    rax,0x1
    831d:	cmp    rcx,rax
    8320:	jne    82f1 <P7WeeViterbi+0x1051>
    8322:	nop    WORD PTR [rax+rax*1+0x0]
    8328:	mov    rax,QWORD PTR [rsp+0xd0]
    8330:	cmp    BYTE PTR [rax+0x1],0x1
    8334:	jne    8345 <P7WeeViterbi+0x10a5>
    8336:	mov    rax,QWORD PTR [rsp+0xd8]
    833e:	mov    eax,DWORD PTR [rax+0x4]
    8341:	lea    edi,[rdi+rax*1-0x1]
    8345:	mov    rax,QWORD PTR [rsp+0x118]
    834d:	cmp    BYTE PTR [rax],0x1
    8350:	jne    8363 <P7WeeViterbi+0x10c3>
    8352:	mov    rax,QWORD PTR [rsp+0x128]
    835a:	add    edi,DWORD PTR [r13+0x88]
    8361:	sub    edi,DWORD PTR [rax]
    8363:	lea    rsi,[rsp+0x130]
    836b:	call   209f0 <P7AllocTrace>
    8370:	mov    rax,QWORD PTR [rsp+0x130]
    8378:	mov    ebx,DWORD PTR [rsp+0x114]
    837f:	mov    rax,QWORD PTR [rax+0x8]
    8383:	mov    BYTE PTR [rax],0x4
    8386:	mov    rax,QWORD PTR [rsp+0x130]
    838e:	mov    rdx,QWORD PTR [rax+0x10]
    8392:	mov    DWORD PTR [rdx],0x0
    8398:	mov    rdx,QWORD PTR [rax+0x18]
    839c:	mov    rax,QWORD PTR [rax+0x8]
    83a0:	mov    DWORD PTR [rdx],0x0
    83a6:	mov    BYTE PTR [rax+0x1],0x5
    83aa:	mov    rax,QWORD PTR [rsp+0x130]
    83b2:	mov    rdx,QWORD PTR [rax+0x10]
    83b6:	mov    DWORD PTR [rdx+0x4],0x0
    83bd:	mov    rdx,QWORD PTR [rax+0x18]
    83c1:	mov    DWORD PTR [rdx+0x4],0x0
    83c8:	test   ebx,ebx
    83ca:	jle    8b82 <P7WeeViterbi+0x18e2>
    83d0:	lea    ecx,[rbx-0x1]
    83d3:	mov    r10,r13
    83d6:	mov    ebx,0x1
    83db:	mov    r11d,0x2
    83e1:	mov    r9,QWORD PTR [rsp+0xd8]
    83e9:	mov    r8,QWORD PTR [rsp+0xd0]
    83f1:	add    rcx,0x2
    83f5:	mov    r14d,r11d
    83f8:	jmp    8451 <P7WeeViterbi+0x11b1>
    83fa:	nop    WORD PTR [rax+rax*1+0x0]
    8400:	cmp    dil,0x3
    8404:	jne    88a0 <P7WeeViterbi+0x1600>
    840a:	mov    rax,QWORD PTR [rsp+0x130]
    8412:	mov    rax,QWORD PTR [rax+0x8]
    8416:	mov    BYTE PTR [rax+rbp*1],0x3
    841a:	mov    rax,QWORD PTR [rsp+0x130]
    8422:	mov    esi,DWORD PTR [r9+rbx*4]
    8426:	mov    rdx,QWORD PTR [rax+0x10]
    842a:	mov    DWORD PTR [rdx+r12*1],esi
    842e:	mov    rax,QWORD PTR [rax+0x18]
    8432:	lea    edx,[r14+0x2]
    8436:	movsxd rbp,r15d
    8439:	mov    r14d,r15d
    843c:	mov    DWORD PTR [rax+r12*1],ebx
    8440:	add    r12,0x4
    8444:	add    rbx,0x1
    8448:	cmp    rcx,rbx
    844b:	je     85f0 <P7WeeViterbi+0x1350>
    8451:	movsx  edi,BYTE PTR [r8+rbx*1]
    8456:	movsxd rbp,r14d
    8459:	lea    r15d,[r14+0x1]
    845d:	mov    esi,ebx
    845f:	lea    r12,[rbp*4+0x0]
    8467:	mov    r13d,r15d
    846a:	cmp    dil,0x5
    846e:	je     8860 <P7WeeViterbi+0x15c0>
    8474:	jg     8828 <P7WeeViterbi+0x1588>
    847a:	cmp    dil,0x1
    847e:	jne    8400 <P7WeeViterbi+0x1160>
    8480:	mov    rax,QWORD PTR [rsp+0x130]
    8488:	lea    rdi,[r12+0x4]
    848d:	lea    edx,[r14+0x2]
    8491:	mov    rax,QWORD PTR [rax+0x8]
    8495:	movzx  r11d,BYTE PTR [rax+rbp*1-0x1]
    849b:	add    rax,rbp
    849e:	movsxd rbp,r15d
    84a1:	cmp    r11b,0x5
    84a5:	je     8a20 <P7WeeViterbi+0x1780>
    84ab:	mov    BYTE PTR [rax],0x1
    84ae:	mov    rax,QWORD PTR [rsp+0x130]
    84b6:	mov    r14d,DWORD PTR [r9+rbx*4]
    84ba:	mov    r11,QWORD PTR [rax+0x10]
    84be:	mov    DWORD PTR [r11+r12*1],r14d
    84c2:	mov    r11,QWORD PTR [rax+0x18]
    84c6:	mov    DWORD PTR [r11+r12*1],esi
    84ca:	cmp    DWORD PTR [rsp+0x114],ebx
    84d1:	jle    8970 <P7WeeViterbi+0x16d0>
    84d7:	movzx  esi,BYTE PTR [r8+rbx*1+0x1]
    84dd:	cmp    sil,0x1
    84e1:	je     8990 <P7WeeViterbi+0x16f0>
    84e7:	mov    r12,rdi
    84ea:	mov    r14d,r13d
    84ed:	cmp    sil,0x8
    84f1:	jne    8444 <P7WeeViterbi+0x11a4>
    84f7:	movsxd rsi,DWORD PTR [r9+rbx*4-0x4]
    84fc:	mov    rax,QWORD PTR [r10+0xd8]
    8503:	mov    DWORD PTR [rsp+0x20],edx
    8507:	movss  xmm1,DWORD PTR [rip+0x34e8d]        # 3d39c <_IO_stdin_used+0x39c>
    850f:	mov    QWORD PTR [rsp+0x18],rcx
    8514:	movss  xmm0,DWORD PTR [rax+rsi*4]
    8519:	mov    QWORD PTR [rsp+0x10],r8
    851e:	mov    QWORD PTR [rsp+0x8],r9
    8523:	mov    QWORD PTR [rsp],r10
    8527:	call   17710 <Prob2Score>
    852c:	mov    r9,QWORD PTR [rsp+0x8]
    8531:	mov    r10,QWORD PTR [rsp]
    8535:	pxor   xmm0,xmm0
    8539:	cvtsi2sd xmm0,eax
    853d:	pxor   xmm1,xmm1
    8541:	mov    r8,QWORD PTR [rsp+0x10]
    8546:	addsd  xmm0,QWORD PTR [rip+0x34e32]        # 3d380 <_IO_stdin_used+0x380>
    854e:	movsxd rsi,DWORD PTR [r9+rbx*4-0x4]
    8553:	mov    rax,QWORD PTR [r10+0x178]
    855a:	mov    rcx,QWORD PTR [rsp+0x18]
    855f:	mov    edx,DWORD PTR [rsp+0x20]
    8563:	cvtsi2sd xmm1,DWORD PTR [rax+rsi*4]
    8568:	mov    rsi,QWORD PTR [rsp+0x130]
    8570:	comisd xmm1,xmm0
    8574:	jae    8b10 <P7WeeViterbi+0x1870>
    857a:	mov    rax,QWORD PTR [rsi+0x8]
    857e:	movsxd rdx,edx
    8581:	lea    r14d,[r13+0x2]
    8585:	add    rbx,0x1
    8589:	mov    BYTE PTR [rax+rbp*1],0x7
    858d:	mov    rax,QWORD PTR [rsp+0x130]
    8595:	movsxd rbp,r14d
    8598:	mov    rsi,QWORD PTR [rax+0x10]
    859c:	mov    DWORD PTR [rsi+r12*1],0x0
    85a4:	mov    rsi,QWORD PTR [rax+0x18]
    85a8:	mov    rax,QWORD PTR [rax+0x8]
    85ac:	mov    DWORD PTR [rsi+r12*1],0x0
    85b4:	lea    r12,[rbp*4+0x0]
    85bc:	mov    BYTE PTR [rax+rdx*1],0x8
    85c0:	mov    rax,QWORD PTR [rsp+0x130]
    85c8:	mov    rsi,QWORD PTR [rax+0x10]
    85cc:	mov    rax,QWORD PTR [rax+0x18]
    85d0:	mov    DWORD PTR [rsi+rdx*4],0x0
    85d7:	mov    DWORD PTR [rax+rdx*4],0x0
    85de:	lea    edx,[r13+0x3]
    85e2:	cmp    rcx,rbx
    85e5:	jne    8451 <P7WeeViterbi+0x11b1>
    85eb:	nop    DWORD PTR [rax+rax*1+0x0]
    85f0:	mov    rax,QWORD PTR [rsp+0x130]
    85f8:	mov    rax,QWORD PTR [rax+0x8]
    85fc:	mov    rbx,QWORD PTR [rsp+0x120]
    8604:	mov    rdi,QWORD PTR [rsp+0xd8]
    860c:	mov    BYTE PTR [rax+rbp*1],0x9
    8610:	mov    rax,QWORD PTR [rsp+0x130]
    8618:	mov    rcx,QWORD PTR [rax+0x10]
    861c:	mov    DWORD PTR [rcx+r12*1],0x0
    8624:	mov    rcx,QWORD PTR [rax+0x18]
    8628:	mov    DWORD PTR [rcx+r12*1],0x0
    8630:	mov    DWORD PTR [rax],edx
    8632:	mov    QWORD PTR [rbx],rax
    8635:	call   3460 <free@plt>
    863a:	mov    rdi,QWORD PTR [rsp+0xd0]
    8642:	call   3460 <free@plt>
    8647:	mov    rdi,QWORD PTR [rsp+0xe8]
    864f:	call   3460 <free@plt>
    8654:	mov    rdi,QWORD PTR [rsp+0xe0]
    865c:	call   3460 <free@plt>
    8661:	mov    rax,QWORD PTR [rsp+0x138]
    8669:	xor    rax,QWORD PTR fs:0x28
    8672:	jne    8c3a <P7WeeViterbi+0x199a>
    8678:	movss  xmm0,DWORD PTR [rsp+0x110]
    8681:	add    rsp,0x148
    8688:	pop    rbx
    8689:	pop    rbp
    868a:	pop    r12
    868c:	pop    r13
    868e:	pop    r14
    8690:	pop    r15
    8692:	ret    
    8693:	nop    DWORD PTR [rax+rax*1+0x0]
    8698:	mov    ecx,0xc521974f
    869d:	jmp    7c49 <P7WeeViterbi+0x9a9>
    86a2:	nop    WORD PTR [rax+rax*1+0x0]
    86a8:	mov    rdi,QWORD PTR [rsp+0x50]
    86ad:	call   5810 <FreePlan7Matrix>
    86b2:	mov    rdi,r15
    86b5:	call   5810 <FreePlan7Matrix>
    86ba:	mov    edi,ebp
    86bc:	call   17820 <Scorify>
    86c1:	mov    rax,QWORD PTR [rsp+0x68]
    86c6:	cmp    BYTE PTR [rsp+0x63],0x4
    86cb:	mov    ebx,DWORD PTR [rsp+0xc0]
    86d2:	sete   dl
    86d5:	cmp    BYTE PTR [rsp+0x62],0x9
    86da:	mov    ecx,edx
    86dc:	mov    DWORD PTR [rax],ebx
    86de:	mov    rax,QWORD PTR [rsp+0x70]
    86e3:	movzx  ebx,BYTE PTR [rsp+0x5b]
    86e8:	mov    BYTE PTR [rax],bl
    86ea:	sete   al
    86ed:	and    cl,al
    86ef:	je     86fe <P7WeeViterbi+0x145e>
    86f1:	movss  DWORD PTR [rsp+0x110],xmm0
    86fa:	mov    eax,ecx
    86fc:	mov    edx,ecx
    86fe:	cmp    BYTE PTR [rsp+0x5b],0x5
    8703:	jne    820c <P7WeeViterbi+0xf6c>
    8709:	mov    edx,DWORD PTR [rsp+0x28]
    870d:	sub    edx,DWORD PTR [rsp+0x10]
    8711:	cmp    edx,0x1
    8714:	jle    87f8 <P7WeeViterbi+0x1558>
    871a:	mov    eax,DWORD PTR [rsp+0xf0]
    8721:	mov    rbx,QWORD PTR [rsp+0xe8]
    8729:	mov    ecx,DWORD PTR [rsp+0x10]
    872d:	add    eax,0x1
    8730:	mov    DWORD PTR [rsp+0x5c],eax
    8734:	cdqe   
    8736:	mov    DWORD PTR [rbx+rax*4],ecx
    8739:	mov    rbx,QWORD PTR [rsp+0xe0]
    8741:	mov    ecx,DWORD PTR [rsp+0x28]
    8745:	mov    DWORD PTR [rbx+rax*4],ecx
    8748:	cmp    BYTE PTR [rsp+0x5b],0x5
    874d:	jne    8298 <P7WeeViterbi+0xff8>
    8753:	movsxd rax,DWORD PTR [rsp+0x10]
    8758:	cmp    DWORD PTR [rsp+0x64],eax
    875c:	jg     8298 <P7WeeViterbi+0xff8>
    8762:	mov    rdx,QWORD PTR [rsp+0xd8]
    876a:	mov    rcx,QWORD PTR [rsp+0xd0]
    8772:	mov    esi,DWORD PTR [rsp+0x64]
    8776:	nop    WORD PTR cs:[rax+rax*1+0x0]
    8780:	mov    DWORD PTR [rdx+rax*4],0x1
    8787:	mov    BYTE PTR [rcx+rax*1],0x5
    878b:	sub    rax,0x1
    878f:	cmp    esi,eax
    8791:	jle    8780 <P7WeeViterbi+0x14e0>
    8793:	jmp    8298 <P7WeeViterbi+0xff8>
    8798:	nop    DWORD PTR [rax+rax*1+0x0]
    87a0:	cmp    BYTE PTR [rsp+0x63],0x4
    87a5:	je     8900 <P7WeeViterbi+0x1660>
    87ab:	cmp    BYTE PTR [rsp+0x62],0x9
    87b0:	je     8938 <P7WeeViterbi+0x1698>
    87b6:	movsxd rax,DWORD PTR [rsp+0x10]
    87bb:	mov    rbx,QWORD PTR [rsp+0xd8]
    87c3:	lea    rbx,[rbx+rax*4]
    87c7:	add    rax,QWORD PTR [rsp+0xd0]
    87cf:	mov    QWORD PTR [rsp+0x68],rbx
    87d4:	mov    QWORD PTR [rsp+0x70],rax
    87d9:	jmp    749f <P7WeeViterbi+0x1ff>
    87de:	xchg   ax,ax
    87e0:	jne    8244 <P7WeeViterbi+0xfa4>
    87e6:	test   dl,dl
    87e8:	je     8244 <P7WeeViterbi+0xfa4>
    87ee:	jmp    821d <P7WeeViterbi+0xf7d>
    87f3:	nop    DWORD PTR [rax+rax*1+0x0]
    87f8:	jne    8802 <P7WeeViterbi+0x1562>
    87fa:	test   al,al
    87fc:	jne    871a <P7WeeViterbi+0x147a>
    8802:	mov    eax,DWORD PTR [rsp+0xf0]
    8809:	mov    DWORD PTR [rsp+0x5c],eax
    880d:	jmp    8748 <P7WeeViterbi+0x14a8>
    8812:	nop    WORD PTR [rax+rax*1+0x0]
    8818:	mov    eax,0xc521974f
    881d:	jmp    758c <P7WeeViterbi+0x2ec>
    8822:	nop    WORD PTR [rax+rax*1+0x0]
    8828:	cmp    dil,0x8
    882c:	jne    88a0 <P7WeeViterbi+0x1600>
    882e:	mov    rax,QWORD PTR [rsp+0x130]
    8836:	mov    rax,QWORD PTR [rax+0x8]
    883a:	mov    BYTE PTR [rax+rbp*1],0x8
    883e:	mov    rax,QWORD PTR [rsp+0x130]
    8846:	mov    rdx,QWORD PTR [rax+0x10]
    884a:	mov    DWORD PTR [rdx+r12*1],0x0
    8852:	jmp    842e <P7WeeViterbi+0x118e>
    8857:	nop    WORD PTR [rax+rax*1+0x0]
    8860:	mov    rax,QWORD PTR [rsp+0x130]
    8868:	add    r12,0x4
    886c:	mov    rax,QWORD PTR [rax+0x8]
    8870:	mov    BYTE PTR [rax+rbp*1],0x5
    8874:	mov    rax,QWORD PTR [rsp+0x130]
    887c:	mov    rdx,QWORD PTR [rax+0x10]
    8880:	mov    rax,QWORD PTR [rax+0x18]
    8884:	mov    DWORD PTR [rdx+rbp*4],0x0
    888b:	lea    edx,[r14+0x2]
    888f:	mov    r14d,r15d
    8892:	mov    DWORD PTR [rax+rbp*4],ebx
    8895:	movsxd rbp,r15d
    8898:	jmp    8444 <P7WeeViterbi+0x11a4>
    889d:	nop    DWORD PTR [rax]
    88a0:	mov    QWORD PTR [rsp+0x18],r10
    88a5:	mov    QWORD PTR [rsp+0x10],rcx
    88aa:	mov    QWORD PTR [rsp+0x8],r8
    88af:	mov    QWORD PTR [rsp],r9
    88b3:	call   b100 <Statetype>
    88b8:	lea    rdi,[rip+0x34936]        # 3d1f5 <_IO_stdin_used+0x1f5>
    88bf:	mov    rsi,rax
    88c2:	xor    eax,eax
    88c4:	call   317f0 <Die>
    88c9:	mov    r10,QWORD PTR [rsp+0x18]
    88ce:	mov    r9,QWORD PTR [rsp]
    88d2:	mov    edx,r15d
    88d5:	mov    rcx,QWORD PTR [rsp+0x10]
    88da:	mov    r8,QWORD PTR [rsp+0x8]
    88df:	jmp    8444 <P7WeeViterbi+0x11a4>
    88e4:	nop    DWORD PTR [rax+0x0]
    88e8:	mov    edx,DWORD PTR [r8+rax*4]
    88ec:	sub    edx,DWORD PTR [r8+rax*4-0x4]
    88f1:	lea    edi,[rdi+rdx*1-0x1]
    88f5:	jmp    82e8 <P7WeeViterbi+0x1048>
    88fa:	nop    WORD PTR [rax+rax*1+0x0]
    8900:	movzx  eax,BYTE PTR [rsp+0x62]
    8905:	cmp    al,0x9
    8907:	mov    eax,DWORD PTR [rsp+0x28]
    890b:	cmovne rsi,QWORD PTR [rsp+0x70]
    8911:	cmovne rdx,QWORD PTR [rsp+0x68]
    8917:	cmovne eax,DWORD PTR [rsp+0x64]
    891c:	xor    r12d,r12d
    891f:	mov    QWORD PTR [rsp+0x70],rsi
    8924:	mov    QWORD PTR [rsp+0x68],rdx
    8929:	mov    DWORD PTR [rsp+0x10],eax
    892d:	jmp    74be <P7WeeViterbi+0x21e>
    8932:	nop    WORD PTR [rax+rax*1+0x0]
    8938:	mov    ebx,DWORD PTR [rsp+0x64]
    893c:	mov    QWORD PTR [rsp+0x70],rsi
    8941:	mov    QWORD PTR [rsp+0x68],rdx
    8946:	mov    eax,ebx
    8948:	shr    eax,0x1f
    894b:	lea    ecx,[rbx+rax*1]
    894e:	add    ebx,0x1
    8951:	and    ecx,0x1
    8954:	sub    ecx,eax
    8956:	mov    eax,DWORD PTR [rsp+0x28]
    895a:	movsxd rcx,ecx
    895d:	mov    DWORD PTR [rsp+0x10],eax
    8961:	lea    r12,[rcx*8+0x0]
    8969:	jmp    74be <P7WeeViterbi+0x21e>
    896e:	xchg   ax,ax
    8970:	je     8980 <P7WeeViterbi+0x16e0>
    8972:	movzx  esi,BYTE PTR [r8+rbx*1+0x1]
    8978:	jmp    84e7 <P7WeeViterbi+0x1247>
    897d:	nop    DWORD PTR [rax]
    8980:	mov    r12,rdi
    8983:	jmp    84f7 <P7WeeViterbi+0x1257>
    8988:	nop    DWORD PTR [rax+rax*1+0x0]
    8990:	mov    r11d,DWORD PTR [r9+rbx*4+0x4]
    8995:	mov    esi,DWORD PTR [r9+rbx*4]
    8999:	mov    r12,rdi
    899c:	mov    r14d,r13d
    899f:	mov    r15d,r11d
    89a2:	sub    r15d,esi
    89a5:	cmp    r15d,0x1
    89a9:	jle    8444 <P7WeeViterbi+0x11a4>
    89af:	lea    edi,[rsi+0x1]
    89b2:	cmp    r11d,edi
    89b5:	jle    8444 <P7WeeViterbi+0x11a4>
    89bb:	movsxd rdx,r13d
    89be:	sub    r13d,esi
    89c1:	nop    DWORD PTR [rax+0x0]
    89c8:	mov    rax,QWORD PTR [rax+0x8]
    89cc:	lea    r11d,[r13+rdi*1+0x0]
    89d1:	mov    BYTE PTR [rax+rdx*1],0x2
    89d5:	mov    rax,QWORD PTR [rsp+0x130]
    89dd:	mov    rsi,QWORD PTR [rax+0x10]
    89e1:	mov    DWORD PTR [rsi+rdx*4],edi
    89e4:	mov    rsi,QWORD PTR [rax+0x18]
    89e8:	add    edi,0x1
    89eb:	mov    DWORD PTR [rsi+rdx*4],0x0
    89f2:	add    rdx,0x1
    89f6:	cmp    DWORD PTR [r9+rbx*4+0x4],edi
    89fb:	jg     89c8 <P7WeeViterbi+0x1728>
    89fd:	movsxd rbp,r11d
    8a00:	movzx  esi,BYTE PTR [r8+rbx*1+0x1]
    8a06:	lea    edx,[r11+0x1]
    8a0a:	mov    r13d,r11d
    8a0d:	lea    rdi,[rbp*4+0x0]
    8a15:	jmp    84e7 <P7WeeViterbi+0x1247>
    8a1a:	nop    WORD PTR [rax+rax*1+0x0]
    8a20:	mov    BYTE PTR [rax],0x6
    8a23:	mov    rax,QWORD PTR [rsp+0x130]
    8a2b:	add    r14d,0x3
    8a2f:	movss  xmm1,DWORD PTR [r10+0x130]
    8a38:	mov    DWORD PTR [rsp+0x30],edx
    8a3c:	mov    r11,QWORD PTR [rax+0x10]
    8a40:	mov    rax,QWORD PTR [rax+0x18]
    8a44:	mov    QWORD PTR [rsp+0x28],rcx
    8a49:	mov    QWORD PTR [rsp+0x20],r8
    8a4e:	mov    DWORD PTR [r11+r12*1],0x0
    8a56:	mov    DWORD PTR [rax+r12*1],0x0
    8a5e:	mov    rax,QWORD PTR [r10+0xd0]
    8a65:	movsxd r11,DWORD PTR [r9+rbx*4]
    8a69:	mov    QWORD PTR [rsp+0x18],rdi
    8a6e:	mov    QWORD PTR [rsp+0x8],r9
    8a73:	movss  xmm0,DWORD PTR [rax+r11*4]
    8a79:	mov    QWORD PTR [rsp],r10
    8a7d:	mov    DWORD PTR [rsp+0x10],ebx
    8a81:	call   17710 <Prob2Score>
    8a86:	mov    r9,QWORD PTR [rsp+0x8]
    8a8b:	mov    r10,QWORD PTR [rsp]
    8a8f:	pxor   xmm0,xmm0
    8a93:	cvtsi2sd xmm0,eax
    8a97:	lea    rcx,[r12+0x8]
    8a9c:	pxor   xmm1,xmm1
    8aa0:	movsxd r11,DWORD PTR [rsp+0x30]
    8aa5:	mov    r13d,DWORD PTR [r9+rbx*4]
    8aa9:	mov    esi,DWORD PTR [rsp+0x10]
    8aad:	mov    QWORD PTR [rsp+0x8],rcx
    8ab2:	mov    rax,QWORD PTR [r10+0x170]
    8ab9:	addsd  xmm0,QWORD PTR [rip+0x348bf]        # 3d380 <_IO_stdin_used+0x380>
    8ac1:	mov    rdx,r11
    8ac4:	movsxd r12,r13d
    8ac7:	mov    rdi,QWORD PTR [rsp+0x18]
    8acc:	mov    r8,QWORD PTR [rsp+0x20]
    8ad1:	cvtsi2sd xmm1,DWORD PTR [rax+r12*4]
    8ad7:	mov    rcx,QWORD PTR [rsp+0x28]
    8adc:	mov    rax,QWORD PTR [rsp+0x130]
    8ae4:	comisd xmm1,xmm0
    8ae8:	jae    8b97 <P7WeeViterbi+0x18f7>
    8aee:	add    rbp,QWORD PTR [rax+0x8]
    8af2:	mov    rax,rbp
    8af5:	mov    r13d,edx
    8af8:	mov    r12,rdi
    8afb:	mov    rbp,r11
    8afe:	mov    rdi,QWORD PTR [rsp+0x8]
    8b03:	mov    edx,r14d
    8b06:	jmp    84ab <P7WeeViterbi+0x120b>
    8b0b:	nop    DWORD PTR [rax+rax*1+0x0]
    8b10:	mov    edi,DWORD PTR [r9+rbx*4]
    8b14:	mov    rsi,QWORD PTR [rsp+0x130]
    8b1c:	lea    eax,[rdi+0x1]
    8b1f:	cmp    eax,DWORD PTR [r10+0x88]
    8b26:	jg     857a <P7WeeViterbi+0x12da>
    8b2c:	mov    r11d,r13d
    8b2f:	movsxd rdx,r13d
    8b32:	sub    r11d,edi
    8b35:	nop    DWORD PTR [rax]
    8b38:	mov    rsi,QWORD PTR [rsi+0x8]
    8b3c:	lea    r13d,[r11+rax*1]
    8b40:	mov    BYTE PTR [rsi+rdx*1],0x2
    8b44:	mov    rsi,QWORD PTR [rsp+0x130]
    8b4c:	mov    rdi,QWORD PTR [rsi+0x10]
    8b50:	mov    DWORD PTR [rdi+rdx*4],eax
    8b53:	mov    rdi,QWORD PTR [rsi+0x18]
    8b57:	add    eax,0x1
    8b5a:	mov    DWORD PTR [rdi+rdx*4],0x0
    8b61:	add    rdx,0x1
    8b65:	cmp    DWORD PTR [r10+0x88],eax
    8b6c:	jge    8b38 <P7WeeViterbi+0x1898>
    8b6e:	movsxd rbp,r13d
    8b71:	lea    edx,[r13+0x1]
    8b75:	lea    r12,[rbp*4+0x0]
    8b7d:	jmp    857a <P7WeeViterbi+0x12da>
    8b82:	mov    edx,0x3
    8b87:	mov    r12d,0x8
    8b8d:	mov    ebp,0x2
    8b92:	jmp    85f8 <P7WeeViterbi+0x1358>
    8b97:	mov    rax,QWORD PTR [rax+0x8]
    8b9b:	mov    r12d,0x1
    8ba1:	cmp    r13d,0x1
    8ba5:	jg     8bb4 <P7WeeViterbi+0x1914>
    8ba7:	jmp    8c08 <P7WeeViterbi+0x1968>
    8ba9:	nop    DWORD PTR [rax+0x0]
    8bb0:	mov    rax,QWORD PTR [r11+0x8]
    8bb4:	mov    BYTE PTR [rax+rbp*1],0x2
    8bb8:	mov    r11,QWORD PTR [rsp+0x130]
    8bc0:	lea    edx,[r15+r12*1]
    8bc4:	mov    rax,QWORD PTR [r11+0x10]
    8bc8:	mov    DWORD PTR [rax+rbp*4],r12d
    8bcc:	mov    rax,QWORD PTR [r11+0x18]
    8bd0:	add    r12d,0x1
    8bd4:	mov    DWORD PTR [rax+rbp*4],0x0
    8bdb:	add    rbp,0x1
    8bdf:	cmp    DWORD PTR [r9+rbx*4],r12d
    8be3:	jg     8bb0 <P7WeeViterbi+0x1910>
    8be5:	movsxd rax,edx
    8be8:	lea    r13d,[rdx+0x1]
    8bec:	add    edx,0x2
    8bef:	lea    r12,[rax*4+0x0]
    8bf7:	movsxd rbp,r13d
    8bfa:	add    rax,QWORD PTR [r11+0x8]
    8bfe:	lea    rdi,[r12+0x4]
    8c03:	jmp    84ab <P7WeeViterbi+0x120b>
    8c08:	add    rax,rbp
    8c0b:	jmp    8af5 <P7WeeViterbi+0x1855>
    8c10:	movsx  edi,BYTE PTR [rsp+0x63]
    8c15:	call   b100 <Statetype>
    8c1a:	lea    rdi,[rip+0x3463f]        # 3d260 <_IO_stdin_used+0x260>
    8c21:	mov    rsi,rax
    8c24:	xor    eax,eax
    8c26:	call   317f0 <Die>
    8c2b:	mov    rsi,QWORD PTR [rbp+0x0]
    8c2f:	mov    edx,DWORD PTR [rsi+0x10]
    8c32:	mov    eax,DWORD PTR [rsi+0x4]
    8c35:	jmp    758c <P7WeeViterbi+0x2ec>
    8c3a:	call   3570 <__stack_chk_fail@plt>
    8c3f:	nop

0000000000008c40 <P7SmallViterbi>:
    8c40:	endbr64 
    8c44:	push   r15
    8c46:	mov    r15,rdx
    8c49:	push   r14
    8c4b:	push   r13
    8c4d:	push   r12
    8c4f:	push   rbp
    8c50:	push   rbx
    8c51:	mov    rbx,r8
    8c54:	sub    rsp,0x68
    8c58:	mov    QWORD PTR [rsp],rdi
    8c5c:	mov    QWORD PTR [rsp+0x10],rcx
    8c61:	lea    rcx,[rsp+0x48]
    8c66:	mov    DWORD PTR [rsp+0x20],esi
    8c6a:	mov    QWORD PTR [rsp+0x30],r8
    8c6f:	mov    rax,QWORD PTR fs:0x28
    8c78:	mov    QWORD PTR [rsp+0x58],rax
    8c7d:	xor    eax,eax
    8c7f:	call   6990 <P7ParsingViterbi>
    8c84:	mov    rdi,QWORD PTR [rsp+0x48]
    8c89:	movss  DWORD PTR [rsp+0x28],xmm0
    8c8f:	test   rbx,rbx
    8c92:	je     91e7 <P7SmallViterbi+0x5a7>
    8c98:	test   rdi,rdi
    8c9b:	je     91e7 <P7SmallViterbi+0x5a7>
    8ca1:	mov    edx,DWORD PTR [rdi]
    8ca3:	mov    esi,0x3a2
    8ca8:	lea    rdi,[rip+0x34511]        # 3d1c0 <_IO_stdin_used+0x1c0>
    8caf:	mov    eax,edx
    8cb1:	shr    eax,0x1f
    8cb4:	add    eax,edx
    8cb6:	sar    eax,1
    8cb8:	lea    r14d,[rax-0x1]
    8cbc:	mov    DWORD PTR [rsp+0x24],eax
    8cc0:	mov    ebx,eax
    8cc2:	movsxd rax,r14d
    8cc5:	mov    DWORD PTR [rsp+0x2c],r14d
    8cca:	lea    rdx,[rax*8+0x0]
    8cd2:	mov    QWORD PTR [rsp+0x38],rax
    8cd7:	call   36810 <sre_malloc>
    8cdc:	mov    QWORD PTR [rsp+0x18],rax
    8ce1:	test   r14d,r14d
    8ce4:	jle    9202 <P7SmallViterbi+0x5c2>
    8cea:	mov    rbp,rax
    8ced:	lea    eax,[rbx-0x2]
    8cf0:	mov    r14d,0x8
    8cf6:	xor    ebx,ebx
    8cf8:	lea    rax,[rax*8+0x10]
    8d00:	mov    r13,rbp
    8d03:	movsd  xmm3,QWORD PTR [rip+0x34655]        # 3d360 <_IO_stdin_used+0x360>
    8d0b:	mov    ebp,ebx
    8d0d:	mov    QWORD PTR [rsp+0x8],rax
    8d12:	mov    rbx,r14
    8d15:	xor    r12d,r12d
    8d18:	mov    r14,r15
    8d1b:	jmp    8d5a <P7SmallViterbi+0x11a>
    8d1d:	nop    DWORD PTR [rax]
    8d20:	mov    rcx,r13
    8d23:	mov    rdx,r14
    8d26:	mov    esi,r15d
    8d29:	call   72a0 <P7WeeViterbi>
    8d2e:	mov    rax,QWORD PTR [rip+0x3462b]        # 3d360 <_IO_stdin_used+0x360>
    8d35:	movq   xmm3,rax
    8d3a:	mov    rcx,QWORD PTR [r13+0x0]
    8d3e:	add    r12d,r15d
    8d41:	add    rbx,0x8
    8d45:	add    r13,0x8
    8d49:	mov    ecx,DWORD PTR [rcx]
    8d4b:	lea    ebp,[rbp+rcx*1-0x4]
    8d4f:	cmp    QWORD PTR [rsp+0x8],rbx
    8d54:	je     8e38 <P7SmallViterbi+0x1f8>
    8d5a:	mov    rcx,QWORD PTR [rsp+0x48]
    8d5f:	pxor   xmm2,xmm2
    8d63:	pxor   xmm1,xmm1
    8d67:	mov    eax,DWORD PTR [r14+0x88]
    8d6e:	movsd  xmm0,QWORD PTR [rip+0x345e2]        # 3d358 <_IO_stdin_used+0x358>
    8d76:	mov    rcx,QWORD PTR [rcx+0x18]
    8d7a:	movsxd rdi,DWORD PTR [rcx+rbx*1-0x4]
    8d7f:	mov    r15d,DWORD PTR [rcx+rbx*1]
    8d83:	sub    r15d,edi
    8d86:	add    rdi,QWORD PTR [rsp]
    8d8a:	lea    ecx,[r15+0x1]
    8d8e:	cvtsi2ss xmm2,ecx
    8d92:	lea    ecx,[rax+0x2]
    8d95:	cvtsi2ss xmm1,ecx
    8d99:	cvtss2sd xmm2,xmm2
    8d9d:	mulsd  xmm0,xmm2
    8da1:	cvtss2sd xmm1,xmm1
    8da5:	mulsd  xmm1,xmm0
    8da9:	movapd xmm0,xmm2
    8dad:	mulsd  xmm0,xmm3
    8db1:	mulsd  xmm0,QWORD PTR [rip+0x345b7]        # 3d370 <_IO_stdin_used+0x370>
    8db9:	mulsd  xmm1,xmm3
    8dbd:	addsd  xmm1,QWORD PTR [rip+0x345a3]        # 3d368 <_IO_stdin_used+0x368>
    8dc5:	cvtsd2ss xmm1,xmm1
    8dc9:	cvtss2sd xmm1,xmm1
    8dcd:	addsd  xmm1,xmm0
    8dd1:	movsd  xmm0,QWORD PTR [rip+0x3459f]        # 3d378 <_IO_stdin_used+0x378>
    8dd9:	mulsd  xmm0,xmm2
    8ddd:	cvtsd2ss xmm1,xmm1
    8de1:	movapd xmm2,xmm0
    8de5:	pxor   xmm0,xmm0
    8de9:	mulsd  xmm2,xmm3
    8ded:	cvtss2sd xmm0,xmm1
    8df1:	addsd  xmm0,xmm2
    8df5:	cvtsd2ss xmm0,xmm0
    8df9:	mulss  xmm0,DWORD PTR [rip+0x34597]        # 3d398 <_IO_stdin_used+0x398>
    8e01:	cvttss2si ecx,xmm0
    8e05:	cmp    ecx,0x3e8
    8e0b:	jg     8d20 <P7SmallViterbi+0xe0>
    8e11:	mov    rcx,QWORD PTR [rsp+0x10]
    8e16:	mov    r8,r13
    8e19:	mov    rdx,r14
    8e1c:	mov    esi,r15d
    8e1f:	call   ec90 <P7Viterbi>
    8e24:	mov    rax,QWORD PTR [rip+0x34535]        # 3d360 <_IO_stdin_used+0x360>
    8e2b:	movq   xmm3,rax
    8e30:	jmp    8d3a <P7SmallViterbi+0xfa>
    8e35:	nop    DWORD PTR [rax]
    8e38:	mov    eax,DWORD PTR [rsp+0x20]
    8e3c:	mov    ebx,ebp
    8e3e:	sub    eax,r12d
    8e41:	mov    esi,DWORD PTR [rsp+0x24]
    8e45:	lea    r12d,[rax+rsi*1+0x2]
    8e4a:	lea    rsi,[rsp+0x50]
    8e4f:	add    r12d,ebx
    8e52:	mov    edi,r12d
    8e55:	call   209f0 <P7AllocTrace>
    8e5a:	mov    rax,QWORD PTR [rsp+0x50]
    8e5f:	mov    DWORD PTR [rax],r12d
    8e62:	mov    rax,QWORD PTR [rax+0x8]
    8e66:	mov    BYTE PTR [rax],0x4
    8e69:	mov    rax,QWORD PTR [rsp+0x50]
    8e6e:	mov    rdx,QWORD PTR [rax+0x10]
    8e72:	mov    DWORD PTR [rdx],0x0
    8e78:	mov    rdx,QWORD PTR [rax+0x18]
    8e7c:	mov    rax,QWORD PTR [rax+0x8]
    8e80:	mov    DWORD PTR [rdx],0x0
    8e86:	mov    BYTE PTR [rax+0x1],0x5
    8e8a:	mov    rax,QWORD PTR [rsp+0x50]
    8e8f:	mov    rsi,QWORD PTR [rsp+0x48]
    8e94:	mov    rdx,QWORD PTR [rax+0x10]
    8e98:	mov    DWORD PTR [rdx+0x4],0x0
    8e9f:	mov    rdx,QWORD PTR [rax+0x18]
    8ea3:	mov    DWORD PTR [rdx+0x4],0x0
    8eaa:	mov    rdx,QWORD PTR [rsi+0x18]
    8eae:	mov    r9d,DWORD PTR [rdx+0x4]
    8eb2:	test   r9d,r9d
    8eb5:	jle    91ee <P7SmallViterbi+0x5ae>
    8ebb:	mov    ecx,0x2
    8ec0:	mov    edx,0x1
    8ec5:	nop    DWORD PTR [rax]
    8ec8:	mov    rax,QWORD PTR [rax+0x8]
    8ecc:	lea    edi,[rdx+0x2]
    8ecf:	mov    BYTE PTR [rax+rcx*1],0x5
    8ed3:	mov    rax,QWORD PTR [rsp+0x50]
    8ed8:	mov    rsi,QWORD PTR [rax+0x10]
    8edc:	mov    DWORD PTR [rsi+rcx*4],0x0
    8ee3:	mov    rsi,QWORD PTR [rax+0x18]
    8ee7:	mov    DWORD PTR [rsi+rcx*4],edx
    8eea:	mov    rsi,QWORD PTR [rsp+0x48]
    8eef:	add    edx,0x1
    8ef2:	add    rcx,0x1
    8ef6:	mov    r8,QWORD PTR [rsi+0x18]
    8efa:	cmp    DWORD PTR [r8+0x4],edx
    8efe:	jge    8ec8 <P7SmallViterbi+0x288>
    8f00:	movsxd rdx,edi
    8f03:	lea    rcx,[rdx*4+0x0]
    8f0b:	mov    r8d,DWORD PTR [rsp+0x2c]
    8f10:	test   r8d,r8d
    8f13:	jle    90db <P7SmallViterbi+0x49b>
    8f19:	mov    ebx,DWORD PTR [rsp+0x24]
    8f1d:	mov    edx,0x8
    8f22:	mov    r13d,0x4
    8f28:	xor    r11d,r11d
    8f2b:	lea    r14d,[rbx-0x2]
    8f2f:	mov    rbx,QWORD PTR [rsp+0x18]
    8f34:	mov    r12,r14
    8f37:	sub    rdx,rbx
    8f3a:	mov    r8,rbx
    8f3d:	sub    r13,rbx
    8f40:	mov    rbp,rdx
    8f43:	mov    edx,0xc
    8f48:	sub    rdx,rbx
    8f4b:	mov    r15,rdx
    8f4e:	xchg   ax,ax
    8f50:	mov    rcx,QWORD PTR [r8]
    8f53:	mov    r9d,edi
    8f56:	cmp    DWORD PTR [rcx],0x4
    8f59:	jle    8fe8 <P7SmallViterbi+0x3a8>
    8f5f:	lea    rbx,[r13+r8*1+0x0]
    8f64:	movsxd rsi,edi
    8f67:	lea    r10d,[rdi-0x1]
    8f6b:	mov    edx,0x2
    8f70:	jmp    8fa2 <P7SmallViterbi+0x362>
    8f72:	nop    WORD PTR [rax+rax*1+0x0]
    8f78:	mov    r9,QWORD PTR [rsp+0x48]
    8f7d:	mov    r9,QWORD PTR [r9+0x18]
    8f81:	add    edi,DWORD PTR [r9+rbx*1]
    8f85:	mov    r9,QWORD PTR [rax+0x18]
    8f89:	mov    DWORD PTR [r9+rsi*4],edi
    8f8d:	mov    edi,DWORD PTR [rcx]
    8f8f:	lea    r9d,[r10+rdx*1]
    8f93:	add    rdx,0x1
    8f97:	add    rsi,0x1
    8f9b:	sub    edi,0x2
    8f9e:	cmp    edi,edx
    8fa0:	jle    8fe8 <P7SmallViterbi+0x3a8>
    8fa2:	mov    rcx,QWORD PTR [rcx+0x8]
    8fa6:	mov    rax,QWORD PTR [rax+0x8]
    8faa:	movzx  ecx,BYTE PTR [rcx+rdx*1]
    8fae:	mov    BYTE PTR [rax+rsi*1],cl
    8fb1:	mov    rcx,QWORD PTR [r8]
    8fb4:	mov    rax,QWORD PTR [rsp+0x50]
    8fb9:	mov    rdi,QWORD PTR [rcx+0x10]
    8fbd:	mov    r9d,DWORD PTR [rdi+rdx*4]
    8fc1:	mov    rdi,QWORD PTR [rax+0x10]
    8fc5:	mov    DWORD PTR [rdi+rsi*4],r9d
    8fc9:	mov    rdi,QWORD PTR [rcx+0x18]
    8fcd:	mov    edi,DWORD PTR [rdi+rdx*4]
    8fd0:	test   edi,edi
    8fd2:	jg     8f78 <P7SmallViterbi+0x338>
    8fd4:	mov    rdi,QWORD PTR [rax+0x18]
    8fd8:	mov    DWORD PTR [rdi+rsi*4],0x0
    8fdf:	jmp    8f8d <P7SmallViterbi+0x34d>
    8fe1:	nop    DWORD PTR [rax+0x0]
    8fe8:	mov    rbx,QWORD PTR [rax+0x8]
    8fec:	movsxd rdx,r9d
    8fef:	lea    edi,[r9+0x1]
    8ff3:	add    rbx,rdx
    8ff6:	cmp    r12d,r11d
    8ff9:	je     90a0 <P7SmallViterbi+0x460>
    8fff:	mov    BYTE PTR [rbx],0xa
    9002:	mov    rax,QWORD PTR [rsp+0x50]
    9007:	lea    r10,[r15+r8*1]
    900b:	mov    rcx,QWORD PTR [rax+0x10]
    900f:	mov    DWORD PTR [rcx+rdx*4],0x0
    9016:	mov    rcx,QWORD PTR [rax+0x18]
    901a:	mov    DWORD PTR [rcx+rdx*4],0x0
    9021:	mov    rdx,QWORD PTR [rsp+0x48]
    9026:	movsxd rcx,edi
    9029:	mov    QWORD PTR [rsp],rcx
    902d:	mov    ecx,0x1
    9032:	mov    rsi,QWORD PTR [rdx+0x18]
    9036:	lea    rdx,[rsi+r8*1]
    903a:	mov    ebx,DWORD PTR [rdx+rbp*1]
    903d:	sub    ecx,ebx
    903f:	lea    edx,[rbx+0x1]
    9042:	add    r9d,ecx
    9045:	mov    rcx,QWORD PTR [rsp]
    9049:	cmp    DWORD PTR [rsi+r10*1],edx
    904d:	jl     9089 <P7SmallViterbi+0x449>
    904f:	nop
    9050:	mov    rax,QWORD PTR [rax+0x8]
    9054:	lea    edi,[r9+rdx*1]
    9058:	mov    BYTE PTR [rax+rcx*1],0xa
    905c:	mov    rax,QWORD PTR [rsp+0x50]
    9061:	mov    rsi,QWORD PTR [rax+0x10]
    9065:	mov    DWORD PTR [rsi+rcx*4],0x0
    906c:	mov    rsi,QWORD PTR [rax+0x18]
    9070:	mov    DWORD PTR [rsi+rcx*4],edx
    9073:	mov    rsi,QWORD PTR [rsp+0x48]
    9078:	add    edx,0x1
    907b:	add    rcx,0x1
    907f:	mov    rsi,QWORD PTR [rsi+0x18]
    9083:	cmp    DWORD PTR [rsi+r10*1],edx
    9087:	jge    9050 <P7SmallViterbi+0x410>
    9089:	lea    rdx,[r11+0x1]
    908d:	add    r8,0x8
    9091:	cmp    r14,r11
    9094:	je     90cb <P7SmallViterbi+0x48b>
    9096:	mov    r11,rdx
    9099:	jmp    8f50 <P7SmallViterbi+0x310>
    909e:	xchg   ax,ax
    90a0:	mov    BYTE PTR [rbx],0x8
    90a3:	mov    rax,QWORD PTR [rsp+0x50]
    90a8:	add    r8,0x8
    90ac:	mov    rcx,QWORD PTR [rax+0x10]
    90b0:	mov    DWORD PTR [rcx+rdx*4],0x0
    90b7:	mov    rcx,QWORD PTR [rax+0x18]
    90bb:	mov    DWORD PTR [rcx+rdx*4],0x0
    90c2:	lea    rdx,[r11+0x1]
    90c6:	cmp    r14,r11
    90c9:	jne    9096 <P7SmallViterbi+0x456>
    90cb:	movsxd rdx,edi
    90ce:	mov    rsi,QWORD PTR [rsp+0x48]
    90d3:	lea    rcx,[rdx*4+0x0]
    90db:	mov    rbx,QWORD PTR [rsp+0x38]
    90e0:	mov    rsi,QWORD PTR [rsi+0x18]
    90e4:	mov    r10d,DWORD PTR [rsi+rbx*8]
    90e8:	mov    ebx,DWORD PTR [rsp+0x20]
    90ec:	cmp    r10d,ebx
    90ef:	jge    9150 <P7SmallViterbi+0x510>
    90f1:	lea    ecx,[rbx-0x1]
    90f4:	movsxd rdx,edi
    90f7:	lea    r8d,[r10+0x1]
    90fb:	sub    ecx,r10d
    90fe:	sub    r8d,edi
    9101:	lea    r9,[rdx+rcx*1+0x1]
    9106:	nop    WORD PTR cs:[rax+rax*1+0x0]
    9110:	mov    rax,QWORD PTR [rax+0x8]
    9114:	lea    esi,[r8+rdx*1]
    9118:	mov    BYTE PTR [rax+rdx*1],0x8
    911c:	mov    rax,QWORD PTR [rsp+0x50]
    9121:	mov    rcx,QWORD PTR [rax+0x10]
    9125:	mov    DWORD PTR [rcx+rdx*4],0x0
    912c:	mov    rcx,QWORD PTR [rax+0x18]
    9130:	mov    DWORD PTR [rcx+rdx*4],esi
    9133:	add    rdx,0x1
    9137:	cmp    r9,rdx
    913a:	jne    9110 <P7SmallViterbi+0x4d0>
    913c:	mov    ebx,DWORD PTR [rsp+0x20]
    9140:	sub    ebx,r10d
    9143:	add    edi,ebx
    9145:	movsxd rdx,edi
    9148:	lea    rcx,[rdx*4+0x0]
    9150:	mov    rax,QWORD PTR [rax+0x8]
    9154:	mov    BYTE PTR [rax+rdx*1],0x9
    9158:	mov    rax,QWORD PTR [rsp+0x50]
    915d:	mov    rdx,QWORD PTR [rax+0x10]
    9161:	mov    rax,QWORD PTR [rax+0x18]
    9165:	mov    DWORD PTR [rdx+rcx*1],0x0
    916c:	mov    DWORD PTR [rax+rcx*1],0x0
    9173:	mov    eax,DWORD PTR [rsp+0x2c]
    9177:	test   eax,eax
    9179:	jle    91a1 <P7SmallViterbi+0x561>
    917b:	mov    eax,DWORD PTR [rsp+0x24]
    917f:	mov    rsi,QWORD PTR [rsp+0x18]
    9184:	sub    eax,0x2
    9187:	mov    rbx,rsi
    918a:	lea    r12,[rsi+rax*8+0x8]
    918f:	nop
    9190:	mov    rdi,QWORD PTR [rbx]
    9193:	add    rbx,0x8
    9197:	call   20af0 <P7FreeTrace>
    919c:	cmp    r12,rbx
    919f:	jne    9190 <P7SmallViterbi+0x550>
    91a1:	mov    rdi,QWORD PTR [rsp+0x18]
    91a6:	call   3460 <free@plt>
    91ab:	mov    rdi,QWORD PTR [rsp+0x48]
    91b0:	call   20af0 <P7FreeTrace>
    91b5:	mov    rax,QWORD PTR [rsp+0x50]
    91ba:	mov    rbx,QWORD PTR [rsp+0x30]
    91bf:	mov    QWORD PTR [rbx],rax
    91c2:	mov    rax,QWORD PTR [rsp+0x58]
    91c7:	xor    rax,QWORD PTR fs:0x28
    91d0:	jne    920d <P7SmallViterbi+0x5cd>
    91d2:	movss  xmm0,DWORD PTR [rsp+0x28]
    91d8:	add    rsp,0x68
    91dc:	pop    rbx
    91dd:	pop    rbp
    91de:	pop    r12
    91e0:	pop    r13
    91e2:	pop    r14
    91e4:	pop    r15
    91e6:	ret    
    91e7:	call   20af0 <P7FreeTrace>
    91ec:	jmp    91c2 <P7SmallViterbi+0x582>
    91ee:	mov    ecx,0x8
    91f3:	mov    edx,0x2
    91f8:	mov    edi,0x2
    91fd:	jmp    8f0b <P7SmallViterbi+0x2cb>
    9202:	mov    eax,DWORD PTR [rsp+0x20]
    9206:	xor    ebx,ebx
    9208:	jmp    8e41 <P7SmallViterbi+0x201>
    920d:	call   3570 <__stack_chk_fail@plt>
    9212:	data16 nop WORD PTR cs:[rax+rax*1+0x0]
    921d:	nop    DWORD PTR [rax]

0000000000009220 <Plan7ESTViterbi>:
    9220:	endbr64 
    9224:	push   r15
    9226:	push   r14
    9228:	mov    r14,rdx
    922b:	push   r13
    922d:	push   r12
    922f:	push   rbp
    9230:	push   rbx
    9231:	mov    rbx,rdi
    9234:	mov    edi,esi
    9236:	sub    rsp,0x78
    923a:	mov    DWORD PTR [rsp+0x5c],esi
    923e:	mov    esi,DWORD PTR [rdx+0x88]
    9244:	xor    edx,edx
    9246:	mov    QWORD PTR [rsp+0x60],rcx
    924b:	xor    ecx,ecx
    924d:	mov    DWORD PTR [rsp],r11d
    9251:	call   5350 <CreatePlan7Matrix>
    9256:	mov    r11d,DWORD PTR [rsp]
    925a:	mov    rdi,QWORD PTR [rax]
    925d:	mov    rdx,QWORD PTR [rax+0x8]
    9261:	mov    QWORD PTR [rsp+0x68],rax
    9266:	mov    rcx,QWORD PTR [rax+0x10]
    926a:	mov    rsi,QWORD PTR [rax+0x18]
    926e:	mov    r10,QWORD PTR [rdi]
    9271:	mov    QWORD PTR [rsp+0x50],rdi
    9276:	mov    DWORD PTR [r10+0x10],0x0
    927e:	mov    eax,DWORD PTR [r14+0x150]
    9285:	mov    DWORD PTR [r10+0xc],0xc521974f
    928d:	mov    DWORD PTR [r10],eax
    9290:	movabs rax,0xc521974fc521974f
    929a:	mov    QWORD PTR [r10+0x4],rax
    929e:	mov    r8d,DWORD PTR [r14+0x88]
    92a5:	test   r8d,r8d
    92a8:	js     98f6 <Plan7ESTViterbi+0x6d6>
    92ae:	mov    r9,QWORD PTR [rsi]
    92b1:	mov    r8,QWORD PTR [rcx]
    92b4:	xor    eax,eax
    92b6:	mov    rdi,QWORD PTR [rdx]
    92b9:	nop    DWORD PTR [rax+0x0]
    92c0:	mov    DWORD PTR [r9+rax*4],0xc521974f
    92c8:	mov    DWORD PTR [r8+rax*4],0xc521974f
    92d0:	mov    DWORD PTR [rdi+rax*4],0xc521974f
    92d7:	add    rax,0x1
    92db:	cmp    DWORD PTR [r14+0x88],eax
    92e2:	jge    92c0 <Plan7ESTViterbi+0xa0>
    92e4:	mov    eax,DWORD PTR [r10+0x10]
    92e8:	mov    rdi,QWORD PTR [rsp+0x50]
    92ed:	add    eax,DWORD PTR [r14+0x154]
    92f4:	mov    rdi,QWORD PTR [rdi+0x8]
    92f8:	mov    DWORD PTR [rdi+0x10],eax
    92fb:	add    eax,DWORD PTR [r14+0x150]
    9302:	mov    DWORD PTR [rdi],eax
    9304:	movabs rax,0xc521974fc521974f
    930e:	mov    QWORD PTR [r10+0x4],rax
    9312:	mov    DWORD PTR [r10+0xc],0xc521974f
    931a:	mov    edi,DWORD PTR [r14+0x88]
    9321:	test   edi,edi
    9323:	js     9354 <Plan7ESTViterbi+0x134>
    9325:	mov    r9,QWORD PTR [rsi]
    9328:	mov    r8,QWORD PTR [rcx]
    932b:	xor    eax,eax
    932d:	mov    rdi,QWORD PTR [rdx]
    9330:	mov    DWORD PTR [r9+rax*4],0xc521974f
    9338:	mov    DWORD PTR [r8+rax*4],0xc521974f
    9340:	mov    DWORD PTR [rdi+rax*4],0xc521974f
    9347:	add    rax,0x1
    934b:	cmp    DWORD PTR [r14+0x88],eax
    9352:	jge    9330 <Plan7ESTViterbi+0x110>
    9354:	cmp    DWORD PTR [rsp+0x5c],0x1
    9359:	jle    98a8 <Plan7ESTViterbi+0x688>
    935f:	mov    rax,QWORD PTR [rsi+0x10]
    9363:	mov    r13,QWORD PTR [rcx+0x10]
    9367:	mov    r12,rcx
    936a:	mov    r15,rdx
    936d:	mov    DWORD PTR [rsp],0x2
    9374:	mov    DWORD PTR [rax],0xc521974f
    937a:	mov    rbp,r13
    937d:	mov    QWORD PTR [rsp+0x38],rax
    9382:	mov    rax,QWORD PTR [rdx+0x10]
    9386:	mov    DWORD PTR [r13+0x0],0xc521974f
    938e:	mov    QWORD PTR [rsp+0x40],rax
    9393:	mov    DWORD PTR [rax],0xc521974f
    9399:	lea    rax,[rbx+0x1]
    939d:	mov    rbx,QWORD PTR [rsp+0x50]
    93a2:	mov    QWORD PTR [rsp+0x48],rax
    93a7:	mov    eax,DWORD PTR [rsp+0x5c]
    93ab:	mov    r13,rbx
    93ae:	mov    rbx,rsi
    93b1:	add    eax,0x1
    93b4:	mov    DWORD PTR [rsp+0x58],eax
    93b8:	nop    DWORD PTR [rax+rax*1+0x0]
    93c0:	mov    edx,DWORD PTR [r14+0x88]
    93c7:	test   edx,edx
    93c9:	jle    9768 <Plan7ESTViterbi+0x548>
    93cf:	movsxd r11,r11d
    93d2:	mov    QWORD PTR [rsp+0x8],r13
    93d7:	mov    r13,rbx
    93da:	lea    rax,[r11*8+0x0]
    93e2:	mov    DWORD PTR [rsp+0x4],0x1
    93ea:	mov    QWORD PTR [rsp+0x20],rax
    93ef:	mov    rax,QWORD PTR [rsp+0x40]
    93f4:	lea    rcx,[rax+0x4]
    93f8:	mov    eax,0x4
    93fd:	jmp    95c2 <Plan7ESTViterbi+0x3a2>
    9402:	nop    WORD PTR [rax+rax*1+0x0]
    9408:	mov    r9,QWORD PTR [r15-0x10]
    940c:	mov    rbx,QWORD PTR [rsp+0x28]
    9411:	mov    r8d,DWORD PTR [r14+0x1bc]
    9418:	mov    edi,DWORD PTR [rbx]
    941a:	add    edi,DWORD PTR [r9+rsi*1]
    941e:	mov    r9d,DWORD PTR [rcx]
    9421:	add    edi,r8d
    9424:	cmp    r9d,edi
    9427:	jge    9435 <Plan7ESTViterbi+0x215>
    9429:	mov    DWORD PTR [rcx],edi
    942b:	mov    r8d,DWORD PTR [r14+0x1bc]
    9432:	mov    r9d,edi
    9435:	mov    rbx,QWORD PTR [rsp+0x30]
    943a:	mov    edi,DWORD PTR [rbx]
    943c:	mov    rbx,QWORD PTR [r12-0x10]
    9441:	add    edi,DWORD PTR [rbx+rsi*1]
    9444:	add    edi,r8d
    9447:	cmp    edi,r9d
    944a:	jle    9458 <Plan7ESTViterbi+0x238>
    944c:	mov    DWORD PTR [rcx],edi
    944e:	mov    r8d,DWORD PTR [r14+0x1bc]
    9455:	mov    r9d,edi
    9458:	mov    rbx,QWORD PTR [rsp+0x8]
    945d:	mov    edi,DWORD PTR [r11]
    9460:	mov    rbx,QWORD PTR [rbx-0x10]
    9464:	add    edi,DWORD PTR [rbx]
    9466:	add    edi,r8d
    9469:	cmp    edi,r9d
    946c:	jle    947a <Plan7ESTViterbi+0x25a>
    946e:	mov    DWORD PTR [rcx],edi
    9470:	mov    r8d,DWORD PTR [r14+0x1bc]
    9477:	mov    r9d,edi
    947a:	mov    r11,QWORD PTR [r13-0x10]
    947e:	mov    edi,DWORD PTR [r10]
    9481:	add    edi,DWORD PTR [r11+rsi*1]
    9485:	add    r8d,edi
    9488:	cmp    r8d,r9d
    948b:	jle    971a <Plan7ESTViterbi+0x4fa>
    9491:	mov    rdi,QWORD PTR [rdx+0x10]
    9495:	mov    rbx,QWORD PTR [rsp+0x38]
    949a:	mov    DWORD PTR [rcx],r8d
    949d:	mov    r8d,DWORD PTR [rcx-0x4]
    94a1:	add    r8d,DWORD PTR [rdi+rsi*1]
    94a5:	mov    r9d,DWORD PTR [rbx+rax*1-0x4]
    94aa:	mov    DWORD PTR [rbx+rax*1],r8d
    94ae:	mov    edi,r8d
    94b1:	mov    r8,QWORD PTR [rdx+0x30]
    94b5:	add    r9d,DWORD PTR [r8+rsi*1]
    94b9:	cmp    edi,r9d
    94bc:	jge    94c7 <Plan7ESTViterbi+0x2a7>
    94be:	mov    rbx,QWORD PTR [rsp+0x38]
    94c3:	mov    DWORD PTR [rbx+rax*1],r9d
    94c7:	mov    rdi,QWORD PTR [r15-0x8]
    94cb:	mov    rsi,QWORD PTR [rdx+0x8]
    94cf:	mov    r8,QWORD PTR [r12-0x8]
    94d4:	mov    rbx,QWORD PTR [rsp+0x20]
    94d9:	mov    esi,DWORD PTR [rsi+rax*1]
    94dc:	add    esi,DWORD PTR [rdi+rax*1]
    94df:	mov    DWORD PTR [rbp+rax*1+0x0],esi
    94e3:	mov    edi,esi
    94e5:	mov    rsi,QWORD PTR [rdx+0x20]
    94e9:	mov    esi,DWORD PTR [rsi+rax*1]
    94ec:	add    esi,DWORD PTR [r8+rax*1]
    94f0:	cmp    esi,edi
    94f2:	cmovl  esi,edi
    94f5:	mov    DWORD PTR [rbp+rax*1+0x0],esi
    94f9:	mov    rdi,QWORD PTR [r14+0x1b0]
    9500:	mov    rdi,QWORD PTR [rdi+rbx*1]
    9504:	add    esi,DWORD PTR [rdi+rax*1]
    9507:	mov    DWORD PTR [rbp+rax*1+0x0],esi
    950b:	mov    r8,QWORD PTR [rdx+0x8]
    950f:	mov    rbx,QWORD PTR [rsp+0x10]
    9514:	mov    edi,DWORD PTR [r14+0x1b8]
    951b:	mov    r9d,DWORD PTR [rbp+rax*1+0x0]
    9520:	add    r8,rax
    9523:	mov    esi,DWORD PTR [r8]
    9526:	add    esi,DWORD PTR [rbx+rax*1]
    9529:	add    esi,edi
    952b:	cmp    r9d,esi
    952e:	jge    953e <Plan7ESTViterbi+0x31e>
    9530:	mov    DWORD PTR [rbp+rax*1+0x0],esi
    9534:	mov    edi,DWORD PTR [r14+0x1b8]
    953b:	mov    r9d,esi
    953e:	mov    rsi,QWORD PTR [rdx+0x20]
    9542:	mov    rbx,QWORD PTR [rsp+0x18]
    9547:	add    rsi,rax
    954a:	mov    rdx,rsi
    954d:	mov    esi,DWORD PTR [rsi]
    954f:	add    esi,DWORD PTR [rbx+rax*1]
    9552:	add    edi,esi
    9554:	cmp    edi,r9d
    9557:	jle    955d <Plan7ESTViterbi+0x33d>
    9559:	mov    DWORD PTR [rbp+rax*1+0x0],edi
    955d:	cmp    DWORD PTR [rsp],0x4
    9561:	jle    95a4 <Plan7ESTViterbi+0x384>
    9563:	mov    r9,QWORD PTR [r15-0x10]
    9567:	mov    edi,DWORD PTR [r14+0x1bc]
    956e:	mov    esi,DWORD PTR [r8]
    9571:	mov    r8d,DWORD PTR [rbp+rax*1+0x0]
    9576:	add    esi,DWORD PTR [r9+rax*1]
    957a:	add    esi,edi
    957c:	cmp    r8d,esi
    957f:	jge    958f <Plan7ESTViterbi+0x36f>
    9581:	mov    DWORD PTR [rbp+rax*1+0x0],esi
    9585:	mov    edi,DWORD PTR [r14+0x1bc]
    958c:	mov    r8d,esi
    958f:	mov    rsi,QWORD PTR [r12-0x10]
    9594:	mov    edx,DWORD PTR [rdx]
    9596:	add    edx,DWORD PTR [rsi+rax*1]
    9599:	add    edi,edx
    959b:	cmp    edi,r8d
    959e:	jle    95a4 <Plan7ESTViterbi+0x384>
    95a0:	mov    DWORD PTR [rbp+rax*1+0x0],edi
    95a4:	add    DWORD PTR [rsp+0x4],0x1
    95a9:	add    rax,0x4
    95ad:	mov    edx,DWORD PTR [rsp+0x4]
    95b1:	add    rcx,0x4
    95b5:	cmp    DWORD PTR [r14+0x88],edx
    95bc:	jl     9760 <Plan7ESTViterbi+0x540>
    95c2:	mov    rdx,QWORD PTR [r14+0x138]
    95c9:	cmp    DWORD PTR [rsp],0x2
    95cd:	lea    rsi,[rax-0x4]
    95d1:	mov    r11,QWORD PTR [rdx]
    95d4:	mov    r10,QWORD PTR [rdx+0x18]
    95d8:	je     9668 <Plan7ESTViterbi+0x448>
    95de:	mov    rdi,QWORD PTR [r15-0x8]
    95e2:	mov    r8d,DWORD PTR [r11+rax*1-0x4]
    95e7:	mov    rbx,QWORD PTR [rsp+0x8]
    95ec:	mov    r9d,DWORD PTR [rdi+rax*1-0x4]
    95f1:	mov    rdi,QWORD PTR [r12-0x8]
    95f6:	add    r9d,r8d
    95f9:	mov    DWORD PTR [rcx],r9d
    95fc:	mov    r8d,DWORD PTR [r10+rax*1-0x4]
    9601:	add    r8d,DWORD PTR [rdi+rax*1-0x4]
    9606:	cmp    r8d,r9d
    9609:	cmovl  r8d,r9d
    960d:	mov    DWORD PTR [rcx],r8d
    9610:	mov    r9,QWORD PTR [r14+0x170]
    9617:	mov    rdi,QWORD PTR [rbx-0x8]
    961b:	mov    rbx,QWORD PTR [rsp+0x20]
    9620:	mov    edi,DWORD PTR [rdi]
    9622:	add    edi,DWORD PTR [r9+rax*1]
    9626:	cmp    edi,r8d
    9629:	cmovl  edi,r8d
    962d:	mov    DWORD PTR [rcx],edi
    962f:	mov    rdx,QWORD PTR [rdx+0x28]
    9633:	mov    r9,QWORD PTR [r13-0x8]
    9637:	mov    r8d,DWORD PTR [rdx+rax*1-0x4]
    963c:	add    r8d,DWORD PTR [r9+rax*1-0x4]
    9641:	cmp    r8d,edi
    9644:	cmovge edi,r8d
    9648:	mov    DWORD PTR [rcx],edi
    964a:	mov    rdx,QWORD PTR [r14+0x1a8]
    9651:	mov    rdx,QWORD PTR [rdx+rbx*1]
    9655:	add    edi,DWORD PTR [rdx+rax*1]
    9658:	mov    rdx,QWORD PTR [r14+0x138]
    965f:	mov    DWORD PTR [rcx],edi
    9661:	mov    r11,QWORD PTR [rdx]
    9664:	mov    r10,QWORD PTR [rdx+0x18]
    9668:	mov    r8,QWORD PTR [r15]
    966b:	lea    rdi,[r11+rsi*1]
    966f:	mov    r9d,DWORD PTR [r14+0x1b8]
    9676:	mov    QWORD PTR [rsp+0x28],rdi
    967b:	mov    edi,DWORD PTR [rdi]
    967d:	mov    QWORD PTR [rsp+0x10],r8
    9682:	add    edi,DWORD PTR [r8+rsi*1]
    9686:	mov    r8d,DWORD PTR [rcx]
    9689:	add    edi,r9d
    968c:	cmp    r8d,edi
    968f:	jge    969d <Plan7ESTViterbi+0x47d>
    9691:	mov    DWORD PTR [rcx],edi
    9693:	mov    r9d,DWORD PTR [r14+0x1b8]
    969a:	mov    r8d,edi
    969d:	mov    r11,QWORD PTR [r12]
    96a1:	lea    rdi,[r10+rsi*1]
    96a5:	mov    QWORD PTR [rsp+0x30],rdi
    96aa:	mov    edi,DWORD PTR [rdi]
    96ac:	add    edi,DWORD PTR [r11+rsi*1]
    96b0:	mov    QWORD PTR [rsp+0x18],r11
    96b5:	add    edi,r9d
    96b8:	cmp    edi,r8d
    96bb:	jle    96c9 <Plan7ESTViterbi+0x4a9>
    96bd:	mov    DWORD PTR [rcx],edi
    96bf:	mov    r9d,DWORD PTR [r14+0x1b8]
    96c6:	mov    r8d,edi
    96c9:	mov    rbx,QWORD PTR [rsp+0x8]
    96ce:	mov    r11,QWORD PTR [r14+0x170]
    96d5:	mov    r10,QWORD PTR [rbx]
    96d8:	add    r11,rax
    96db:	mov    edi,DWORD PTR [r11]
    96de:	add    edi,DWORD PTR [r10]
    96e1:	add    edi,r9d
    96e4:	cmp    edi,r8d
    96e7:	jle    96f5 <Plan7ESTViterbi+0x4d5>
    96e9:	mov    DWORD PTR [rcx],edi
    96eb:	mov    r9d,DWORD PTR [r14+0x1b8]
    96f2:	mov    r8d,edi
    96f5:	mov    r10,QWORD PTR [rdx+0x28]
    96f9:	mov    rbx,QWORD PTR [r13+0x0]
    96fd:	add    r10,rsi
    9700:	mov    edi,DWORD PTR [r10]
    9703:	add    edi,DWORD PTR [rbx+rsi*1]
    9706:	add    edi,r9d
    9709:	cmp    edi,r8d
    970c:	jle    9710 <Plan7ESTViterbi+0x4f0>
    970e:	mov    DWORD PTR [rcx],edi
    9710:	cmp    DWORD PTR [rsp],0x3
    9714:	jg     9408 <Plan7ESTViterbi+0x1e8>
    971a:	mov    rdi,QWORD PTR [rdx+0x10]
    971e:	mov    r10,QWORD PTR [rsp+0x38]
    9723:	mov    r8d,DWORD PTR [rcx-0x4]
    9727:	add    r8d,DWORD PTR [rdi+rsi*1]
    972b:	mov    r9d,DWORD PTR [r10+rax*1-0x4]
    9730:	mov    DWORD PTR [r10+rax*1],r8d
    9734:	mov    edi,r8d
    9737:	mov    r8,QWORD PTR [rdx+0x30]
    973b:	add    r9d,DWORD PTR [r8+rsi*1]
    973f:	cmp    r9d,edi
    9742:	cmovge edi,r9d
    9746:	cmp    DWORD PTR [rsp],0x2
    974a:	mov    DWORD PTR [r10+rax*1],edi
    974e:	jne    94c7 <Plan7ESTViterbi+0x2a7>
    9754:	jmp    950b <Plan7ESTViterbi+0x2eb>
    9759:	nop    DWORD PTR [rax+0x0]
    9760:	mov    rbx,r13
    9763:	mov    r13,QWORD PTR [rsp+0x8]
    9768:	mov    r8,QWORD PTR [r13+0x8]
    976c:	mov    rsi,QWORD PTR [r13+0x10]
    9770:	mov    edi,DWORD PTR [r14+0x154]
    9777:	mov    rcx,QWORD PTR [rsp+0x38]
    977c:	add    edi,DWORD PTR [r8+0x10]
    9780:	mov    DWORD PTR [rsi+0x10],edi
    9783:	movsxd rax,DWORD PTR [r14+0x88]
    978a:	mov    ecx,DWORD PTR [rcx+rax*4]
    978d:	mov    DWORD PTR [rsi+0x4],ecx
    9790:	mov    eax,DWORD PTR [r14+0x88]
    9797:	test   eax,eax
    9799:	jle    97ce <Plan7ESTViterbi+0x5ae>
    979b:	mov    r9,QWORD PTR [r14+0x178]
    97a2:	mov    r10,QWORD PTR [rsp+0x40]
    97a7:	mov    eax,0x1
    97ac:	nop    DWORD PTR [rax+0x0]
    97b0:	mov    edx,DWORD PTR [r9+rax*4]
    97b4:	add    edx,DWORD PTR [r10+rax*4]
    97b8:	cmp    edx,ecx
    97ba:	jle    97c1 <Plan7ESTViterbi+0x5a1>
    97bc:	mov    DWORD PTR [rsi+0x4],edx
    97bf:	mov    ecx,edx
    97c1:	add    rax,0x1
    97c5:	cmp    DWORD PTR [r14+0x88],eax
    97cc:	jge    97b0 <Plan7ESTViterbi+0x590>
    97ce:	mov    eax,DWORD PTR [r14+0x16c]
    97d5:	add    eax,DWORD PTR [r8+0xc]
    97d9:	mov    DWORD PTR [rsi+0xc],eax
    97dc:	mov    edx,eax
    97de:	mov    eax,DWORD PTR [r14+0x15c]
    97e5:	add    eax,ecx
    97e7:	cmp    eax,edx
    97e9:	cmovl  eax,edx
    97ec:	mov    DWORD PTR [rsi+0xc],eax
    97ef:	add    edi,DWORD PTR [r14+0x150]
    97f6:	mov    DWORD PTR [rsi],edi
    97f8:	add    eax,DWORD PTR [r14+0x168]
    97ff:	cmp    eax,edi
    9801:	cmovl  eax,edi
    9804:	mov    DWORD PTR [rsi],eax
    9806:	mov    eax,DWORD PTR [r14+0x164]
    980d:	add    eax,DWORD PTR [r8+0x8]
    9811:	mov    DWORD PTR [rsi+0x8],eax
    9814:	add    ecx,DWORD PTR [r14+0x158]
    981b:	cmp    ecx,eax
    981d:	cmovl  ecx,eax
    9820:	add    DWORD PTR [rsp],0x1
    9824:	mov    eax,DWORD PTR [rsp]
    9827:	mov    DWORD PTR [rsi+0x8],ecx
    982a:	cmp    eax,DWORD PTR [rsp+0x58]
    982e:	je     98a8 <Plan7ESTViterbi+0x688>
    9830:	mov    rax,QWORD PTR [rbx+0x18]
    9834:	mov    rbp,QWORD PTR [r12+0x18]
    9839:	mov    r11d,0x40
    983f:	mov    rcx,QWORD PTR [rsp+0x48]
    9844:	mov    DWORD PTR [rax],0xc521974f
    984a:	mov    QWORD PTR [rsp+0x38],rax
    984f:	mov    rax,QWORD PTR [r15+0x18]
    9853:	mov    DWORD PTR [rbp+0x0],0xc521974f
    985a:	mov    QWORD PTR [rsp+0x40],rax
    985f:	mov    DWORD PTR [rax],0xc521974f
    9865:	movsx  eax,BYTE PTR [rcx]
    9868:	cmp    al,0x3
    986a:	jg     9888 <Plan7ESTViterbi+0x668>
    986c:	movsx  edx,BYTE PTR [rcx+0x1]
    9870:	cmp    dl,0x3
    9873:	jg     9888 <Plan7ESTViterbi+0x668>
    9875:	movsx  ecx,BYTE PTR [rcx+0x2]
    9879:	cmp    cl,0x3
    987c:	jg     9888 <Plan7ESTViterbi+0x668>
    987e:	lea    eax,[rdx+rax*4]
    9881:	lea    r11d,[rcx+rax*4]
    9885:	nop    DWORD PTR [rax]
    9888:	add    rbx,0x8
    988c:	add    r12,0x8
    9890:	add    r15,0x8
    9894:	add    r13,0x8
    9898:	add    QWORD PTR [rsp+0x48],0x1
    989e:	jmp    93c0 <Plan7ESTViterbi+0x1a0>
    98a3:	nop    DWORD PTR [rax+rax*1+0x0]
    98a8:	movsxd rax,DWORD PTR [rsp+0x5c]
    98ad:	mov    rcx,QWORD PTR [rsp+0x50]
    98b2:	mov    ebp,DWORD PTR [r14+0x160]
    98b9:	mov    rax,QWORD PTR [rcx+rax*8]
    98bd:	add    ebp,DWORD PTR [rax+0x8]
    98c0:	cmp    QWORD PTR [rsp+0x60],0x0
    98c6:	je     98ea <Plan7ESTViterbi+0x6ca>
    98c8:	mov    rax,QWORD PTR [rsp+0x60]
    98cd:	mov    rcx,QWORD PTR [rsp+0x68]
    98d2:	mov    QWORD PTR [rax],rcx
    98d5:	add    rsp,0x78
    98d9:	mov    edi,ebp
    98db:	pop    rbx
    98dc:	pop    rbp
    98dd:	pop    r12
    98df:	pop    r13
    98e1:	pop    r14
    98e3:	pop    r15
    98e5:	jmp    17820 <Scorify>
    98ea:	mov    rdi,QWORD PTR [rsp+0x68]
    98ef:	call   5810 <FreePlan7Matrix>
    98f4:	jmp    98d5 <Plan7ESTViterbi+0x6b5>
    98f6:	xor    eax,eax
    98f8:	jmp    92e8 <Plan7ESTViterbi+0xc8>
    98fd:	nop    DWORD PTR [rax]

0000000000009900 <ShadowTrace>:
    9900:	endbr64 
    9904:	push   r15
    9906:	lea    r15,[rip+0x33a1b]        # 3d328 <_IO_stdin_used+0x328>
    990d:	push   r14
    990f:	mov    r14d,0x8
    9915:	push   r13
    9917:	push   r12
    9919:	push   rbp
    991a:	push   rbx
    991b:	mov    ebx,edx
    991d:	sub    rsp,0x58
    9921:	mov    QWORD PTR [rsp+0x18],rdi
    9926:	mov    QWORD PTR [rsp],rsi
    992a:	lea    rsi,[rsp+0x40]
    992f:	mov    DWORD PTR [rsp+0xc],edx
    9933:	lea    edx,[rdx+rdx*1+0x6]
    9937:	mov    edi,edx
    9939:	mov    rax,QWORD PTR fs:0x28
    9942:	mov    QWORD PTR [rsp+0x48],rax
    9947:	xor    eax,eax
    9949:	mov    DWORD PTR [rsp+0x10],edx
    994d:	call   209f0 <P7AllocTrace>
    9952:	mov    rax,QWORD PTR [rsp+0x40]
    9957:	mov    edx,DWORD PTR [rsp+0x10]
    995b:	xor    r10d,r10d
    995e:	mov    r9,QWORD PTR [rsp+0x18]
    9963:	mov    rax,QWORD PTR [rax+0x8]
    9967:	mov    ebp,edx
    9969:	mov    BYTE PTR [rax],0x9
    996c:	mov    rax,QWORD PTR [rsp+0x40]
    9971:	mov    rcx,QWORD PTR [rax+0x10]
    9975:	mov    rax,QWORD PTR [rax+0x18]
    9979:	mov    DWORD PTR [rcx],0x0
    997f:	mov    ecx,ebx
    9981:	mov    ebx,0x1
    9986:	mov    DWORD PTR [rax],0x0
    998c:	nop    DWORD PTR [rax+0x0]
    9990:	movsxd r12,ebx
    9993:	lea    r8d,[rbx+0x1]
    9997:	lea    r13,[r12*4+0x0]
    999f:	cmp    r14b,0xa
    99a3:	ja     9de0 <ShadowTrace+0x4e0>
    99a9:	movzx  eax,r14b
    99ad:	movsxd rax,DWORD PTR [r15+rax*4]
    99b1:	add    rax,r15
    99b4:	notrack jmp rax
    99b7:	nop    WORD PTR [rax+rax*1+0x0]
    99c0:	mov    rax,QWORD PTR [rsp+0x40]
    99c5:	movsxd r14,ecx
    99c8:	mov    rax,QWORD PTR [rax+0x8]
    99cc:	mov    BYTE PTR [rax+r12*1],0xa
    99d1:	mov    rax,QWORD PTR [r9]
    99d4:	mov    rdi,QWORD PTR [rsp+0x40]
    99d9:	mov    rax,QWORD PTR [rax+r14*8]
    99dd:	movzx  r14d,BYTE PTR [rax+0x3]
    99e2:	mov    rax,QWORD PTR [rdi+0x10]
    99e6:	mov    DWORD PTR [rax+r13*1],0x0
    99ee:	xor    eax,eax
    99f0:	cmp    r14b,0xa
    99f4:	je     9aba <ShadowTrace+0x1ba>
    99fa:	mov    rsi,QWORD PTR [rdi+0x18]
    99fe:	movsxd r12,r8d
    9a01:	mov    DWORD PTR [rsi+r13*1],eax
    9a05:	lea    eax,[rbx+0x2]
    9a08:	add    r13,0x4
    9a0c:	mov    ebx,r8d
    9a0f:	cmp    ebp,ebx
    9a11:	je     9be0 <ShadowTrace+0x2e0>
    9a17:	cmp    r14b,0x4
    9a1b:	jne    9990 <ShadowTrace+0x90>
    9a21:	mov    rdx,QWORD PTR [rsp+0x40]
    9a26:	mov    rdx,QWORD PTR [rdx+0x8]
    9a2a:	mov    BYTE PTR [rdx+r12*1],0x4
    9a2f:	mov    rdi,QWORD PTR [rsp+0x40]
    9a34:	mov    rdx,QWORD PTR [rdi+0x10]
    9a38:	mov    DWORD PTR [rdx+r13*1],0x0
    9a40:	mov    rdx,QWORD PTR [rdi+0x18]
    9a44:	mov    DWORD PTR [rdx+r13*1],0x0
    9a4c:	mov    DWORD PTR [rdi],eax
    9a4e:	call   20bf0 <P7ReverseTrace>
    9a53:	mov    rax,QWORD PTR [rsp+0x40]
    9a58:	mov    rsi,QWORD PTR [rsp+0x48]
    9a5d:	xor    rsi,QWORD PTR fs:0x28
    9a66:	jne    a073 <ShadowTrace+0x773>
    9a6c:	add    rsp,0x58
    9a70:	pop    rbx
    9a71:	pop    rbp
    9a72:	pop    r12
    9a74:	pop    r13
    9a76:	pop    r14
    9a78:	pop    r15
    9a7a:	ret    
    9a7b:	nop    DWORD PTR [rax+rax*1+0x0]
    9a80:	mov    rax,QWORD PTR [rsp+0x40]
    9a85:	movsxd r14,ecx
    9a88:	mov    rax,QWORD PTR [rax+0x8]
    9a8c:	mov    BYTE PTR [rax+r12*1],0x8
    9a91:	mov    rax,QWORD PTR [r9]
    9a94:	mov    rdi,QWORD PTR [rsp+0x40]
    9a99:	mov    rax,QWORD PTR [rax+r14*8]
    9a9d:	movzx  r14d,BYTE PTR [rax+0x2]
    9aa2:	mov    rax,QWORD PTR [rdi+0x10]
    9aa6:	mov    DWORD PTR [rax+r13*1],0x0
    9aae:	xor    eax,eax
    9ab0:	cmp    r14b,0x8
    9ab4:	jne    99fa <ShadowTrace+0xfa>
    9aba:	mov    eax,ecx
    9abc:	sub    ecx,0x1
    9abf:	jmp    99fa <ShadowTrace+0xfa>
    9ac4:	nop    DWORD PTR [rax+0x0]
    9ac8:	mov    rax,QWORD PTR [rsp+0x40]
    9acd:	movsxd r14,ecx
    9ad0:	mov    DWORD PTR [rsp+0x30],r8d
    9ad5:	movss  xmm1,DWORD PTR [rip+0x338bf]        # 3d39c <_IO_stdin_used+0x39c>
    9add:	mov    DWORD PTR [rsp+0x28],ecx
    9ae1:	mov    rax,QWORD PTR [rax+0x8]
    9ae5:	mov    QWORD PTR [rsp+0x20],r9
    9aea:	mov    BYTE PTR [rax+r12*1],0x7
    9aef:	mov    rax,QWORD PTR [rsp+0x40]
    9af4:	mov    rsi,QWORD PTR [rax+0x10]
    9af8:	mov    rax,QWORD PTR [rax+0x18]
    9afc:	mov    DWORD PTR [rsi+r13*1],0x0
    9b04:	mov    DWORD PTR [rax+r13*1],0x0
    9b0c:	mov    rax,QWORD PTR [r9+0x20]
    9b10:	mov    r13,QWORD PTR [rsp]
    9b14:	movsxd r10,DWORD PTR [rax+r14*4]
    9b18:	mov    rax,QWORD PTR [r13+0xd8]
    9b1f:	mov    DWORD PTR [rsp+0x18],r10d
    9b24:	movss  xmm0,DWORD PTR [rax+r10*4]
    9b2a:	mov    QWORD PTR [rsp+0x10],r10
    9b2f:	call   17710 <Prob2Score>
    9b34:	pxor   xmm0,xmm0
    9b38:	mov    r10,QWORD PTR [rsp+0x10]
    9b3d:	pxor   xmm1,xmm1
    9b41:	cvtsi2sd xmm0,eax
    9b45:	mov    rax,QWORD PTR [r13+0x178]
    9b4c:	mov    r11d,DWORD PTR [rsp+0x18]
    9b51:	addsd  xmm0,QWORD PTR [rip+0x33827]        # 3d380 <_IO_stdin_used+0x380>
    9b59:	mov    r9,QWORD PTR [rsp+0x20]
    9b5e:	cvtsi2sd xmm1,DWORD PTR [rax+r10*4]
    9b64:	mov    ecx,DWORD PTR [rsp+0x28]
    9b68:	mov    r8d,DWORD PTR [rsp+0x30]
    9b6d:	comisd xmm1,xmm0
    9b71:	jae    9e30 <ShadowTrace+0x530>
    9b77:	cmp    r8d,ebp
    9b7a:	je     9fd0 <ShadowTrace+0x6d0>
    9b80:	movsxd r12,r8d
    9b83:	mov    rdi,QWORD PTR [rsp+0x40]
    9b88:	add    ebx,0x2
    9b8b:	lea    r13,[r12*4+0x0]
    9b93:	mov    rax,QWORD PTR [rdi+0x8]
    9b97:	mov    BYTE PTR [rax+r12*1],0x1
    9b9c:	mov    rax,QWORD PTR [r9+0x8]
    9ba0:	movsxd r12,ebx
    9ba3:	mov    rdi,QWORD PTR [rsp+0x40]
    9ba8:	mov    rax,QWORD PTR [rax+r14*8]
    9bac:	movzx  r14d,BYTE PTR [rax+r10*1]
    9bb1:	mov    rax,QWORD PTR [rdi+0x10]
    9bb5:	lea    r10d,[r11-0x1]
    9bb9:	mov    DWORD PTR [rax+r13*1],r11d
    9bbd:	mov    rax,QWORD PTR [rdi+0x18]
    9bc1:	mov    DWORD PTR [rax+r13*1],ecx
    9bc5:	lea    r13,[r12*4+0x0]
    9bcd:	lea    eax,[rbx+0x1]
    9bd0:	sub    ecx,0x1
    9bd3:	cmp    ebp,ebx
    9bd5:	jne    9a17 <ShadowTrace+0x117>
    9bdb:	nop    DWORD PTR [rax+rax*1+0x0]
    9be0:	add    ebp,DWORD PTR [rsp+0xc]
    9be4:	mov    rdi,QWORD PTR [rsp+0x40]
    9be9:	mov    DWORD PTR [rsp+0x28],eax
    9bed:	mov    esi,ebp
    9bef:	mov    QWORD PTR [rsp+0x20],r9
    9bf4:	mov    DWORD PTR [rsp+0x18],r10d
    9bf9:	mov    DWORD PTR [rsp+0x10],ecx
    9bfd:	call   20a70 <P7ReallocTrace>
    9c02:	mov    eax,DWORD PTR [rsp+0x28]
    9c06:	mov    r9,QWORD PTR [rsp+0x20]
    9c0b:	mov    r10d,DWORD PTR [rsp+0x18]
    9c10:	mov    ecx,DWORD PTR [rsp+0x10]
    9c14:	jmp    9a17 <ShadowTrace+0x117>
    9c19:	nop    DWORD PTR [rax+0x0]
    9c20:	mov    rsi,QWORD PTR [rsp]
    9c24:	movsxd r14,r10d
    9c27:	mov    QWORD PTR [rsp+0x28],r9
    9c2c:	add    r14,0x1
    9c30:	mov    DWORD PTR [rsp+0x20],ecx
    9c34:	mov    rax,QWORD PTR [rsi+0xd0]
    9c3b:	movss  xmm1,DWORD PTR [rsi+0x130]
    9c43:	mov    DWORD PTR [rsp+0x18],r8d
    9c48:	mov    DWORD PTR [rsp+0x10],r10d
    9c4d:	movss  xmm0,DWORD PTR [rax+r14*4]
    9c53:	call   17710 <Prob2Score>
    9c58:	mov    rsi,QWORD PTR [rsp]
    9c5c:	pxor   xmm0,xmm0
    9c60:	pxor   xmm1,xmm1
    9c64:	cvtsi2sd xmm0,eax
    9c68:	mov    rdi,QWORD PTR [rsp+0x40]
    9c6d:	mov    r10d,DWORD PTR [rsp+0x10]
    9c72:	mov    rax,QWORD PTR [rsi+0x170]
    9c79:	addsd  xmm0,QWORD PTR [rip+0x336ff]        # 3d380 <_IO_stdin_used+0x380>
    9c81:	mov    r8d,DWORD PTR [rsp+0x18]
    9c86:	mov    ecx,DWORD PTR [rsp+0x20]
    9c8a:	cvtsi2sd xmm1,DWORD PTR [rax+r14*4]
    9c90:	mov    r9,QWORD PTR [rsp+0x28]
    9c95:	comisd xmm1,xmm0
    9c99:	jae    9f20 <ShadowTrace+0x620>
    9c9f:	mov    ebx,r8d
    9ca2:	mov    rax,QWORD PTR [rdi+0x8]
    9ca6:	movsxd r14,ecx
    9ca9:	mov    BYTE PTR [rax+r12*1],0x6
    9cae:	mov    rax,QWORD PTR [r9]
    9cb1:	movsxd r12,ebx
    9cb4:	mov    rdi,QWORD PTR [rsp+0x40]
    9cb9:	mov    rax,QWORD PTR [rax+r14*8]
    9cbd:	movzx  r14d,BYTE PTR [rax]
    9cc1:	mov    rax,QWORD PTR [rdi+0x10]
    9cc5:	mov    DWORD PTR [rax+r13*1],0x0
    9ccd:	mov    rax,QWORD PTR [rdi+0x18]
    9cd1:	mov    DWORD PTR [rax+r13*1],0x0
    9cd9:	lea    r13,[r12*4+0x0]
    9ce1:	lea    eax,[rbx+0x1]
    9ce4:	jmp    9a0f <ShadowTrace+0x10f>
    9ce9:	nop    DWORD PTR [rax+0x0]
    9cf0:	mov    rax,QWORD PTR [rsp+0x40]
    9cf5:	movsxd r14,ecx
    9cf8:	mov    rax,QWORD PTR [rax+0x8]
    9cfc:	mov    BYTE PTR [rax+r12*1],0x5
    9d01:	mov    rax,QWORD PTR [r9]
    9d04:	mov    rdi,QWORD PTR [rsp+0x40]
    9d09:	mov    rax,QWORD PTR [rax+r14*8]
    9d0d:	movzx  r14d,BYTE PTR [rax+0x4]
    9d12:	mov    rax,QWORD PTR [rdi+0x10]
    9d16:	mov    DWORD PTR [rax+r13*1],0x0
    9d1e:	xor    eax,eax
    9d20:	cmp    r14b,0x5
    9d24:	jne    99fa <ShadowTrace+0xfa>
    9d2a:	mov    eax,ecx
    9d2c:	sub    ecx,0x1
    9d2f:	jmp    99fa <ShadowTrace+0xfa>
    9d34:	nop    DWORD PTR [rax+0x0]
    9d38:	mov    rax,QWORD PTR [rsp+0x40]
    9d3d:	movsxd rdi,ecx
    9d40:	mov    rax,QWORD PTR [rax+0x8]
    9d44:	mov    BYTE PTR [rax+r12*1],0x3
    9d49:	mov    rsi,QWORD PTR [r9+0x10]
    9d4d:	movsxd rax,r10d
    9d50:	movsxd r12,r8d
    9d53:	mov    rsi,QWORD PTR [rsi+rdi*8]
    9d57:	mov    rdi,QWORD PTR [rsp+0x40]
    9d5c:	movzx  r14d,BYTE PTR [rsi+rax*1]
    9d61:	mov    rax,QWORD PTR [rdi+0x10]
    9d65:	mov    DWORD PTR [rax+r13*1],r10d
    9d69:	mov    rax,QWORD PTR [rdi+0x18]
    9d6d:	mov    DWORD PTR [rax+r13*1],ecx
    9d71:	lea    eax,[rbx+0x2]
    9d74:	add    r13,0x4
    9d78:	sub    ecx,0x1
    9d7b:	mov    ebx,r8d
    9d7e:	jmp    9a0f <ShadowTrace+0x10f>
    9d83:	nop    DWORD PTR [rax+rax*1+0x0]
    9d88:	mov    rax,QWORD PTR [rsp+0x40]
    9d8d:	movsxd r14,ecx
    9d90:	mov    rax,QWORD PTR [rax+0x8]
    9d94:	mov    BYTE PTR [rax+r12*1],0x2
    9d99:	mov    rsi,QWORD PTR [r9+0x18]
    9d9d:	movsxd rax,r10d
    9da0:	movsxd r12,r8d
    9da3:	mov    rdi,QWORD PTR [rsp+0x40]
    9da8:	mov    rsi,QWORD PTR [rsi+r14*8]
    9dac:	movzx  r14d,BYTE PTR [rsi+rax*1]
    9db1:	mov    rax,QWORD PTR [rdi+0x10]
    9db5:	mov    DWORD PTR [rax+r13*1],r10d
    9db9:	mov    rax,QWORD PTR [rdi+0x18]
    9dbd:	sub    r10d,0x1
    9dc1:	mov    DWORD PTR [rax+r13*1],0x0
    9dc9:	lea    eax,[rbx+0x2]
    9dcc:	add    r13,0x4
    9dd0:	mov    ebx,r8d
    9dd3:	jmp    9a0f <ShadowTrace+0x10f>
    9dd8:	nop    DWORD PTR [rax+rax*1+0x0]
    9de0:	movsx  edi,r14b
    9de4:	mov    QWORD PTR [rsp+0x28],r9
    9de9:	mov    DWORD PTR [rsp+0x20],r10d
    9dee:	mov    DWORD PTR [rsp+0x18],ecx
    9df2:	mov    DWORD PTR [rsp+0x10],r8d
    9df7:	call   b100 <Statetype>
    9dfc:	lea    rdi,[rip+0x33485]        # 3d288 <_IO_stdin_used+0x288>
    9e03:	mov    rsi,rax
    9e06:	xor    eax,eax
    9e08:	call   317f0 <Die>
    9e0d:	mov    r8d,DWORD PTR [rsp+0x10]
    9e12:	mov    r9,QWORD PTR [rsp+0x28]
    9e17:	mov    r10d,DWORD PTR [rsp+0x20]
    9e1c:	mov    ecx,DWORD PTR [rsp+0x18]
    9e20:	mov    eax,r8d
    9e23:	jmp    9a0f <ShadowTrace+0x10f>
    9e28:	nop    DWORD PTR [rax+rax*1+0x0]
    9e30:	mov    rax,QWORD PTR [rsp]
    9e34:	mov    eax,DWORD PTR [rax+0x88]
    9e3a:	cmp    r11d,eax
    9e3d:	jge    9b77 <ShadowTrace+0x277>
    9e43:	movsxd r13,r8d
    9e46:	lea    ebx,[rbx+rax*1+0x2]
    9e4a:	mov    DWORD PTR [rsp+0x10],ecx
    9e4e:	mov    rdi,QWORD PTR [rsp+0x40]
    9e53:	mov    QWORD PTR [rsp+0x30],r14
    9e58:	mov    r12,r13
    9e5b:	mov    r14d,ebx
    9e5e:	mov    r13d,r11d
    9e61:	mov    ebx,ebp
    9e63:	mov    DWORD PTR [rsp+0x18],eax
    9e67:	mov    ebp,eax
    9e69:	mov    DWORD PTR [rsp+0x20],r8d
    9e6e:	mov    QWORD PTR [rsp+0x28],r9
    9e73:	mov    QWORD PTR [rsp+0x38],r10
    9e78:	jmp    9e8c <ShadowTrace+0x58c>
    9e7a:	nop    WORD PTR [rax+rax*1+0x0]
    9e80:	sub    ebp,0x1
    9e83:	add    r12,0x1
    9e87:	cmp    r13d,ebp
    9e8a:	je     9ed3 <ShadowTrace+0x5d3>
    9e8c:	mov    rcx,QWORD PTR [rdi+0x8]
    9e90:	mov    BYTE PTR [rcx+r12*1],0x2
    9e95:	mov    rdi,QWORD PTR [rsp+0x40]
    9e9a:	mov    rcx,QWORD PTR [rdi+0x10]
    9e9e:	mov    DWORD PTR [rcx+r12*4],ebp
    9ea2:	mov    rcx,QWORD PTR [rdi+0x18]
    9ea6:	mov    DWORD PTR [rcx+r12*4],0x0
    9eae:	mov    ecx,r14d
    9eb1:	sub    ecx,ebp
    9eb3:	cmp    ebx,ecx
    9eb5:	jne    9e80 <ShadowTrace+0x580>
    9eb7:	add    ebx,DWORD PTR [rsp+0xc]
    9ebb:	sub    ebp,0x1
    9ebe:	add    r12,0x1
    9ec2:	mov    esi,ebx
    9ec4:	call   20a70 <P7ReallocTrace>
    9ec9:	mov    rdi,QWORD PTR [rsp+0x40]
    9ece:	cmp    r13d,ebp
    9ed1:	jne    9e8c <ShadowTrace+0x58c>
    9ed3:	mov    eax,DWORD PTR [rsp+0x18]
    9ed7:	mov    r8d,DWORD PTR [rsp+0x20]
    9edc:	mov    ebp,ebx
    9ede:	mov    r11d,r13d
    9ee1:	mov    ecx,DWORD PTR [rsp+0x10]
    9ee5:	mov    r9,QWORD PTR [rsp+0x28]
    9eea:	add    r8d,eax
    9eed:	mov    r14,QWORD PTR [rsp+0x30]
    9ef2:	mov    r10,QWORD PTR [rsp+0x38]
    9ef7:	sub    r8d,r13d
    9efa:	cmp    ebx,r8d
    9efd:	je     a02a <ShadowTrace+0x72a>
    9f03:	movsxd r12,r8d
    9f06:	lea    ebx,[r8+0x1]
    9f0a:	lea    r13,[r12*4+0x0]
    9f12:	jmp    9b93 <ShadowTrace+0x293>
    9f17:	nop    WORD PTR [rax+rax*1+0x0]
    9f20:	test   r10d,r10d
    9f23:	jle    9c9f <ShadowTrace+0x39f>
    9f29:	add    ebx,r10d
    9f2c:	mov    QWORD PTR [rsp+0x20],r9
    9f31:	mov    r13d,r10d
    9f34:	mov    r14d,ecx
    9f37:	mov    eax,ebx
    9f39:	mov    ebx,ebp
    9f3b:	mov    rbp,r12
    9f3e:	mov    r12d,eax
    9f41:	jmp    9f51 <ShadowTrace+0x651>
    9f43:	nop    DWORD PTR [rax+rax*1+0x0]
    9f48:	add    rbp,0x1
    9f4c:	test   r13d,r13d
    9f4f:	je     9f9a <ShadowTrace+0x69a>
    9f51:	mov    rdx,QWORD PTR [rdi+0x8]
    9f55:	mov    ecx,r13d
    9f58:	sub    r13d,0x1
    9f5c:	mov    BYTE PTR [rdx+rbp*1],0x2
    9f60:	mov    rdi,QWORD PTR [rsp+0x40]
    9f65:	mov    rdx,QWORD PTR [rdi+0x10]
    9f69:	mov    DWORD PTR [rdx+rbp*4],ecx
    9f6c:	mov    rdx,QWORD PTR [rdi+0x18]
    9f70:	mov    DWORD PTR [rdx+rbp*4],0x0
    9f77:	mov    edx,r12d
    9f7a:	sub    edx,r13d
    9f7d:	cmp    ebx,edx
    9f7f:	jne    9f48 <ShadowTrace+0x648>
    9f81:	add    ebx,DWORD PTR [rsp+0xc]
    9f85:	add    rbp,0x1
    9f89:	mov    esi,ebx
    9f8b:	call   20a70 <P7ReallocTrace>
    9f90:	mov    rdi,QWORD PTR [rsp+0x40]
    9f95:	test   r13d,r13d
    9f98:	jne    9f51 <ShadowTrace+0x651>
    9f9a:	mov    r10d,DWORD PTR [rsp+0x10]
    9f9f:	mov    r8d,DWORD PTR [rsp+0x18]
    9fa4:	mov    ebp,ebx
    9fa6:	mov    ecx,r14d
    9fa9:	mov    r9,QWORD PTR [rsp+0x20]
    9fae:	lea    ebx,[r10+r8*1-0x1]
    9fb3:	xor    r10d,r10d
    9fb6:	movsxd r12,ebx
    9fb9:	add    ebx,0x1
    9fbc:	lea    r13,[r12*4+0x0]
    9fc4:	jmp    9ca2 <ShadowTrace+0x3a2>
    9fc9:	nop    DWORD PTR [rax+0x0]
    9fd0:	mov    eax,DWORD PTR [rsp+0xc]
    9fd4:	mov    rdi,QWORD PTR [rsp+0x40]
    9fd9:	mov    DWORD PTR [rsp+0x28],ecx
    9fdd:	movsxd r12,ebp
    9fe0:	mov    QWORD PTR [rsp+0x30],r9
    9fe5:	lea    ebx,[rbp+0x1]
    9fe8:	lea    r13,[r12*4+0x0]
    9ff0:	add    eax,ebp
    9ff2:	mov    QWORD PTR [rsp+0x20],r10
    9ff7:	mov    esi,eax
    9ff9:	mov    DWORD PTR [rsp+0x18],r11d
    9ffe:	mov    DWORD PTR [rsp+0x10],eax
    a002:	call   20a70 <P7ReallocTrace>
    a007:	mov    eax,DWORD PTR [rsp+0x10]
    a00b:	mov    rdi,QWORD PTR [rsp+0x40]
    a010:	mov    r11d,DWORD PTR [rsp+0x18]
    a015:	mov    r10,QWORD PTR [rsp+0x20]
    a01a:	mov    ecx,DWORD PTR [rsp+0x28]
    a01e:	mov    r9,QWORD PTR [rsp+0x30]
    a023:	mov    ebp,eax
    a025:	jmp    9b93 <ShadowTrace+0x293>
    a02a:	add    ebp,DWORD PTR [rsp+0xc]
    a02e:	movsxd r12,ebx
    a031:	mov    DWORD PTR [rsp+0x20],ecx
    a035:	lea    ebx,[rbx+0x1]
    a038:	mov    esi,ebp
    a03a:	mov    QWORD PTR [rsp+0x28],r9
    a03f:	mov    QWORD PTR [rsp+0x18],r10
    a044:	mov    DWORD PTR [rsp+0x10],r13d
    a049:	lea    r13,[r12*4+0x0]
    a051:	call   20a70 <P7ReallocTrace>
    a056:	mov    rdi,QWORD PTR [rsp+0x40]
    a05b:	mov    r11d,DWORD PTR [rsp+0x10]
    a060:	mov    r10,QWORD PTR [rsp+0x18]
    a065:	mov    ecx,DWORD PTR [rsp+0x20]
    a069:	mov    r9,QWORD PTR [rsp+0x28]
    a06e:	jmp    9b93 <ShadowTrace+0x293>
    a073:	call   3570 <__stack_chk_fail@plt>
    a078:	movsxd r10,r10d
    a07b:	mov    rdi,QWORD PTR [rsp+0x40]
    a080:	mov    ebx,r8d
    a083:	movsxd r14,ecx
    a086:	mov    r11,r10
    a089:	jmp    9b93 <ShadowTrace+0x293>
    a08e:	xchg   ax,ax

000000000000a090 <P7ViterbiAlignAlignment>:
    a090:	endbr64 
    a094:	push   r15
    a096:	mov    r15,rdi
    a099:	push   r14
    a09b:	mov    r14,rsi
    a09e:	mov    esi,0x7fc
    a0a3:	push   r13
    a0a5:	push   r12
    a0a7:	push   rbp
    a0a8:	push   rbx
    a0a9:	sub    rsp,0xa8
    a0b0:	mov    rax,QWORD PTR fs:0x28
    a0b9:	mov    QWORD PTR [rsp+0x98],rax
    a0c1:	xor    eax,eax
    a0c3:	mov    eax,DWORD PTR [rdi+0x18]
    a0c6:	lea    rdi,[rip+0x330f3]        # 3d1c0 <_IO_stdin_used+0x1c0>
    a0cd:	lea    edx,[rax+0x1]
    a0d0:	movsxd rdx,edx
    a0d3:	shl    rdx,0x3
    a0d7:	call   36810 <sre_malloc>
    a0dc:	mov    esi,0x7fd
    a0e1:	lea    rdi,[rip+0x330d8]        # 3d1c0 <_IO_stdin_used+0x1c0>
    a0e8:	mov    QWORD PTR [rsp+0x60],rax
    a0ed:	mov    eax,DWORD PTR [r15+0x18]
    a0f1:	lea    edx,[rax+0x1]
    a0f4:	movsxd rdx,edx
    a0f7:	shl    rdx,0x2
    a0fb:	call   36810 <sre_malloc>
    a100:	mov    ebx,DWORD PTR [r15+0x18]
    a104:	mov    QWORD PTR [rsp+0x20],rax
    a109:	test   ebx,ebx
    a10b:	jle    a15d <P7ViterbiAlignAlignment+0xcd>
    a10d:	mov    rbp,QWORD PTR [rsp+0x60]
    a112:	mov    ebx,0x1
    a117:	nop    WORD PTR [rax+rax*1+0x0]
    a120:	movsxd rdx,DWORD PTR [rip+0x581d9]        # 62300 <Alphabet_size>
    a127:	mov    esi,0x7ff
    a12c:	lea    rdi,[rip+0x3308d]        # 3d1c0 <_IO_stdin_used+0x1c0>
    a133:	shl    rdx,0x2
    a137:	call   36810 <sre_malloc>
    a13c:	mov    esi,DWORD PTR [rip+0x581be]        # 62300 <Alphabet_size>
    a142:	pxor   xmm0,xmm0
    a146:	mov    QWORD PTR [rbp+rbx*8+0x0],rax
    a14b:	mov    rdi,rax
    a14e:	add    rbx,0x1
    a152:	call   3ad60 <FSet>
    a157:	cmp    DWORD PTR [r15+0x18],ebx
    a15b:	jge    a120 <P7ViterbiAlignAlignment+0x90>
    a15d:	mov    rax,QWORD PTR [rsp+0x20]
    a162:	mov    esi,DWORD PTR [r15+0x1c]
    a166:	mov    r13d,0x1
    a16c:	movabs rbp,0x8000000000006001
    a176:	mov    rdi,QWORD PTR [r15+0x10]
    a17a:	mov    DWORD PTR [rax],0xc61c3c00
    a180:	call   3ae20 <FSum>
    a185:	mov    r11d,DWORD PTR [r15+0x18]
    a189:	movss  DWORD PTR [rsp+0x8],xmm0
    a18f:	test   r11d,r11d
    a192:	jle    a247 <P7ViterbiAlignAlignment+0x1b7>
    a198:	mov    r12,QWORD PTR [rsp+0x60]
    a19d:	mov    QWORD PTR [rsp+0x10],r14
    a1a2:	mov    r14,r13
    a1a5:	nop    DWORD PTR [rax]
    a1a8:	mov    r10d,DWORD PTR [r15+0x1c]
    a1ac:	lea    r13,[r14-0x1]
    a1b0:	xor    ebx,ebx
    a1b2:	test   r10d,r10d
    a1b5:	jle    a1fd <P7ViterbiAlignAlignment+0x16d>
    a1b7:	nop    WORD PTR [rax+rax*1+0x0]
    a1c0:	mov    rax,QWORD PTR [r15]
    a1c3:	mov    rax,QWORD PTR [rax+rbx*8]
    a1c7:	movsx  esi,BYTE PTR [rax+r13*1]
    a1cc:	mov    eax,0x1
    a1d1:	lea    ecx,[rsi-0x20]
    a1d4:	cmp    cl,0x3f
    a1d7:	ja     a1e5 <P7ViterbiAlignAlignment+0x155>
    a1d9:	mov    rax,rbp
    a1dc:	shr    rax,cl
    a1df:	not    rax
    a1e2:	and    eax,0x1
    a1e5:	cmp    sil,0x7e
    a1e9:	je     a1f3 <P7ViterbiAlignAlignment+0x163>
    a1eb:	test   al,al
    a1ed:	jne    ab90 <P7ViterbiAlignAlignment+0xb00>
    a1f3:	add    rbx,0x1
    a1f7:	cmp    DWORD PTR [r15+0x1c],ebx
    a1fb:	jg     a1c0 <P7ViterbiAlignAlignment+0x130>
    a1fd:	mov    rdi,QWORD PTR [r12+r14*8]
    a201:	mov    esi,DWORD PTR [rip+0x580f9]        # 62300 <Alphabet_size>
    a207:	movss  xmm0,DWORD PTR [rip+0x3318d]        # 3d39c <_IO_stdin_used+0x39c>
    a20f:	divss  xmm0,DWORD PTR [rsp+0x8]
    a215:	call   3adb0 <FScale>
    a21a:	mov    rdi,QWORD PTR [r12+r14*8]
    a21e:	mov    esi,DWORD PTR [rip+0x580dc]        # 62300 <Alphabet_size>
    a224:	call   3ae20 <FSum>
    a229:	mov    rax,QWORD PTR [rsp+0x20]
    a22e:	movss  DWORD PTR [rax+r14*4],xmm0
    a234:	add    r14,0x1
    a238:	cmp    DWORD PTR [r15+0x18],r14d
    a23c:	jge    a1a8 <P7ViterbiAlignAlignment+0x118>
    a242:	mov    r14,QWORD PTR [rsp+0x10]
    a247:	mov    esi,DWORD PTR [r14+0x88]
    a24e:	xor    ecx,ecx
    a250:	xor    edx,edx
    a252:	mov    edi,0x1
    a257:	call   5350 <CreatePlan7Matrix>
    a25c:	mov    esi,DWORD PTR [r14+0x88]
    a263:	lea    rdx,[rsp+0x78]
    a268:	lea    r9,[rsp+0x90]
    a270:	mov    rdi,QWORD PTR [rax+0x8]
    a274:	mov    rbx,QWORD PTR [rax]
    a277:	mov    QWORD PTR [rsp+0x68],rax
    a27c:	lea    rcx,[rsp+0x80]
    a284:	lea    r8,[rsp+0x88]
    a28c:	mov    QWORD PTR [rsp+0x30],rdi
    a291:	mov    rdi,QWORD PTR [rax+0x10]
    a295:	mov    rax,QWORD PTR [rax+0x18]
    a299:	mov    QWORD PTR [rsp+0x28],rbx
    a29e:	mov    QWORD PTR [rsp+0x38],rdi
    a2a3:	mov    QWORD PTR [rsp+0x40],rax
    a2a8:	mov    eax,DWORD PTR [r15+0x18]
    a2ac:	lea    edi,[rax+0x1]
    a2af:	call   5870 <AllocShadowMatrix>
    a2b4:	mov    rdi,rax
    a2b7:	mov    QWORD PTR [rsp+0x58],rax
    a2bc:	mov    rax,QWORD PTR [rbx]
    a2bf:	mov    DWORD PTR [rax+0x10],0x0
    a2c6:	mov    rax,QWORD PTR [rsp+0x78]
    a2cb:	mov    rax,QWORD PTR [rax]
    a2ce:	mov    BYTE PTR [rax+0x4],0x4
    a2d2:	mov    rax,QWORD PTR [rbx]
    a2d5:	mov    edx,DWORD PTR [r14+0x150]
    a2dc:	mov    DWORD PTR [rax],edx
    a2de:	mov    rax,QWORD PTR [rsp+0x78]
    a2e3:	mov    rax,QWORD PTR [rax]
    a2e6:	mov    BYTE PTR [rax],0x5
    a2e9:	mov    rax,QWORD PTR [rbx]
    a2ec:	movabs rbx,0xc521974fc521974f
    a2f6:	mov    QWORD PTR [rax+0x4],rbx
    a2fa:	mov    DWORD PTR [rax+0xc],0xc521974f
    a301:	mov    rax,QWORD PTR [rdi+0x20]
    a305:	mov    DWORD PTR [rax],0x0
    a30b:	mov    rax,QWORD PTR [rsp+0x78]
    a310:	mov    rax,QWORD PTR [rax]
    a313:	mov    BYTE PTR [rax+0x3],0x0
    a317:	mov    rax,QWORD PTR [rsp+0x78]
    a31c:	mov    rax,QWORD PTR [rax]
    a31f:	mov    BYTE PTR [rax+0x2],0x0
    a323:	mov    r9d,DWORD PTR [r14+0x88]
    a32a:	xor    eax,eax
    a32c:	test   r9d,r9d
    a32f:	js     a398 <P7ViterbiAlignAlignment+0x308>
    a331:	mov    rcx,QWORD PTR [rsp+0x30]
    a336:	mov    rsi,QWORD PTR [rsp+0x38]
    a33b:	mov    rdi,QWORD PTR [rsp+0x40]
    a340:	mov    rdx,QWORD PTR [rdi]
    a343:	mov    DWORD PTR [rdx+rax*4],0xc521974f
    a34a:	mov    rdx,QWORD PTR [rsi]
    a34d:	mov    DWORD PTR [rdx+rax*4],0xc521974f
    a354:	mov    rdx,QWORD PTR [rcx]
    a357:	mov    DWORD PTR [rdx+rax*4],0xc521974f
    a35e:	mov    rdx,QWORD PTR [rsp+0x90]
    a366:	mov    rdx,QWORD PTR [rdx]
    a369:	mov    BYTE PTR [rdx+rax*1],0x0
    a36d:	mov    rdx,QWORD PTR [rsp+0x88]
    a375:	mov    rdx,QWORD PTR [rdx]
    a378:	mov    BYTE PTR [rdx+rax*1],0x0
    a37c:	mov    rdx,QWORD PTR [rsp+0x80]
    a384:	mov    rdx,QWORD PTR [rdx]
    a387:	mov    BYTE PTR [rdx+rax*1],0x0
    a38b:	add    rax,0x1
    a38f:	cmp    DWORD PTR [r14+0x88],eax
    a396:	jge    a340 <P7ViterbiAlignAlignment+0x2b0>
    a398:	mov    rax,QWORD PTR [rsp+0x60]
    a39d:	mov    edx,DWORD PTR [r15+0x18]
    a3a1:	pxor   xmm3,xmm3
    a3a5:	mov    QWORD PTR [rsp+0x10],0x1
    a3ae:	movaps xmm4,xmm3
    a3b1:	add    rax,0x8
    a3b5:	mov    QWORD PTR [rsp+0x8],rax
    a3ba:	test   edx,edx
    a3bc:	jle    a966 <P7ViterbiAlignAlignment+0x8d6>
    a3c2:	mov    QWORD PTR [rsp+0x50],r15
    a3c7:	nop    WORD PTR [rax+rax*1+0x0]
    a3d0:	mov    rdi,QWORD PTR [rsp+0x10]
    a3d5:	mov    rbx,QWORD PTR [rsp+0x40]
