
pkcs11-tool:     file format elf64-x86-64


Disassembly of section .init:

0000000000005000 <_init>:
    5000:	endbr64 
    5004:	sub    rsp,0x8
    5008:	mov    rax,QWORD PTR [rip+0x1dfc9]        # 22fd8 <__gmon_start__>
    500f:	test   rax,rax
    5012:	je     5016 <_init+0x16>
    5014:	call   rax
    5016:	add    rsp,0x8
    501a:	ret    

Disassembly of section .plt:

0000000000005020 <.plt>:
    5020:	push   QWORD PTR [rip+0x1dd02]        # 22d28 <_GLOBAL_OFFSET_TABLE_+0x8>
    5026:	bnd jmp QWORD PTR [rip+0x1dd03]        # 22d30 <_GLOBAL_OFFSET_TABLE_+0x10>
    502d:	nop    DWORD PTR [rax]
    5030:	endbr64 
    5034:	push   0x0
    5039:	bnd jmp 5020 <.plt>
    503f:	nop
    5040:	endbr64 
    5044:	push   0x1
    5049:	bnd jmp 5020 <.plt>
    504f:	nop
    5050:	endbr64 
    5054:	push   0x2
    5059:	bnd jmp 5020 <.plt>
    505f:	nop
    5060:	endbr64 
    5064:	push   0x3
    5069:	bnd jmp 5020 <.plt>
    506f:	nop
    5070:	endbr64 
    5074:	push   0x4
    5079:	bnd jmp 5020 <.plt>
    507f:	nop
    5080:	endbr64 
    5084:	push   0x5
    5089:	bnd jmp 5020 <.plt>
    508f:	nop
    5090:	endbr64 
    5094:	push   0x6
    5099:	bnd jmp 5020 <.plt>
    509f:	nop
    50a0:	endbr64 
    50a4:	push   0x7
    50a9:	bnd jmp 5020 <.plt>
    50af:	nop
    50b0:	endbr64 
    50b4:	push   0x8
    50b9:	bnd jmp 5020 <.plt>
    50bf:	nop
    50c0:	endbr64 
    50c4:	push   0x9
    50c9:	bnd jmp 5020 <.plt>
    50cf:	nop
    50d0:	endbr64 
    50d4:	push   0xa
    50d9:	bnd jmp 5020 <.plt>
    50df:	nop
    50e0:	endbr64 
    50e4:	push   0xb
    50e9:	bnd jmp 5020 <.plt>
    50ef:	nop
    50f0:	endbr64 
    50f4:	push   0xc
    50f9:	bnd jmp 5020 <.plt>
    50ff:	nop
    5100:	endbr64 
    5104:	push   0xd
    5109:	bnd jmp 5020 <.plt>
    510f:	nop
    5110:	endbr64 
    5114:	push   0xe
    5119:	bnd jmp 5020 <.plt>
    511f:	nop
    5120:	endbr64 
    5124:	push   0xf
    5129:	bnd jmp 5020 <.plt>
    512f:	nop
    5130:	endbr64 
    5134:	push   0x10
    5139:	bnd jmp 5020 <.plt>
    513f:	nop
    5140:	endbr64 
    5144:	push   0x11
    5149:	bnd jmp 5020 <.plt>
    514f:	nop
    5150:	endbr64 
    5154:	push   0x12
    5159:	bnd jmp 5020 <.plt>
    515f:	nop
    5160:	endbr64 
    5164:	push   0x13
    5169:	bnd jmp 5020 <.plt>
    516f:	nop
    5170:	endbr64 
    5174:	push   0x14
    5179:	bnd jmp 5020 <.plt>
    517f:	nop
    5180:	endbr64 
    5184:	push   0x15
    5189:	bnd jmp 5020 <.plt>
    518f:	nop
    5190:	endbr64 
    5194:	push   0x16
    5199:	bnd jmp 5020 <.plt>
    519f:	nop
    51a0:	endbr64 
    51a4:	push   0x17
    51a9:	bnd jmp 5020 <.plt>
    51af:	nop
    51b0:	endbr64 
    51b4:	push   0x18
    51b9:	bnd jmp 5020 <.plt>
    51bf:	nop
    51c0:	endbr64 
    51c4:	push   0x19
    51c9:	bnd jmp 5020 <.plt>
    51cf:	nop
    51d0:	endbr64 
    51d4:	push   0x1a
    51d9:	bnd jmp 5020 <.plt>
    51df:	nop
    51e0:	endbr64 
    51e4:	push   0x1b
    51e9:	bnd jmp 5020 <.plt>
    51ef:	nop
    51f0:	endbr64 
    51f4:	push   0x1c
    51f9:	bnd jmp 5020 <.plt>
    51ff:	nop
    5200:	endbr64 
    5204:	push   0x1d
    5209:	bnd jmp 5020 <.plt>
    520f:	nop
    5210:	endbr64 
    5214:	push   0x1e
    5219:	bnd jmp 5020 <.plt>
    521f:	nop
    5220:	endbr64 
    5224:	push   0x1f
    5229:	bnd jmp 5020 <.plt>
    522f:	nop
    5230:	endbr64 
    5234:	push   0x20
    5239:	bnd jmp 5020 <.plt>
    523f:	nop
    5240:	endbr64 
    5244:	push   0x21
    5249:	bnd jmp 5020 <.plt>
    524f:	nop
    5250:	endbr64 
    5254:	push   0x22
    5259:	bnd jmp 5020 <.plt>
    525f:	nop
    5260:	endbr64 
    5264:	push   0x23
    5269:	bnd jmp 5020 <.plt>
    526f:	nop
    5270:	endbr64 
    5274:	push   0x24
    5279:	bnd jmp 5020 <.plt>
    527f:	nop
    5280:	endbr64 
    5284:	push   0x25
    5289:	bnd jmp 5020 <.plt>
    528f:	nop
    5290:	endbr64 
    5294:	push   0x26
    5299:	bnd jmp 5020 <.plt>
    529f:	nop
    52a0:	endbr64 
    52a4:	push   0x27
    52a9:	bnd jmp 5020 <.plt>
    52af:	nop
    52b0:	endbr64 
    52b4:	push   0x28
    52b9:	bnd jmp 5020 <.plt>
    52bf:	nop
    52c0:	endbr64 
    52c4:	push   0x29
    52c9:	bnd jmp 5020 <.plt>
    52cf:	nop
    52d0:	endbr64 
    52d4:	push   0x2a
    52d9:	bnd jmp 5020 <.plt>
    52df:	nop
    52e0:	endbr64 
    52e4:	push   0x2b
    52e9:	bnd jmp 5020 <.plt>
    52ef:	nop
    52f0:	endbr64 
    52f4:	push   0x2c
    52f9:	bnd jmp 5020 <.plt>
    52ff:	nop
    5300:	endbr64 
    5304:	push   0x2d
    5309:	bnd jmp 5020 <.plt>
    530f:	nop
    5310:	endbr64 
    5314:	push   0x2e
    5319:	bnd jmp 5020 <.plt>
    531f:	nop
    5320:	endbr64 
    5324:	push   0x2f
    5329:	bnd jmp 5020 <.plt>
    532f:	nop
    5330:	endbr64 
    5334:	push   0x30
    5339:	bnd jmp 5020 <.plt>
    533f:	nop
    5340:	endbr64 
    5344:	push   0x31
    5349:	bnd jmp 5020 <.plt>
    534f:	nop
    5350:	endbr64 
    5354:	push   0x32
    5359:	bnd jmp 5020 <.plt>
    535f:	nop
    5360:	endbr64 
    5364:	push   0x33
    5369:	bnd jmp 5020 <.plt>
    536f:	nop
    5370:	endbr64 
    5374:	push   0x34
    5379:	bnd jmp 5020 <.plt>
    537f:	nop
    5380:	endbr64 
    5384:	push   0x35
    5389:	bnd jmp 5020 <.plt>
    538f:	nop
    5390:	endbr64 
    5394:	push   0x36
    5399:	bnd jmp 5020 <.plt>
    539f:	nop
    53a0:	endbr64 
    53a4:	push   0x37
    53a9:	bnd jmp 5020 <.plt>
    53af:	nop
    53b0:	endbr64 
    53b4:	push   0x38
    53b9:	bnd jmp 5020 <.plt>
    53bf:	nop
    53c0:	endbr64 
    53c4:	push   0x39
    53c9:	bnd jmp 5020 <.plt>
    53cf:	nop
    53d0:	endbr64 
    53d4:	push   0x3a
    53d9:	bnd jmp 5020 <.plt>
    53df:	nop
    53e0:	endbr64 
    53e4:	push   0x3b
    53e9:	bnd jmp 5020 <.plt>
    53ef:	nop
    53f0:	endbr64 
    53f4:	push   0x3c
    53f9:	bnd jmp 5020 <.plt>
    53ff:	nop
    5400:	endbr64 
    5404:	push   0x3d
    5409:	bnd jmp 5020 <.plt>
    540f:	nop
    5410:	endbr64 
    5414:	push   0x3e
    5419:	bnd jmp 5020 <.plt>
    541f:	nop
    5420:	endbr64 
    5424:	push   0x3f
    5429:	bnd jmp 5020 <.plt>
    542f:	nop
    5430:	endbr64 
    5434:	push   0x40
    5439:	bnd jmp 5020 <.plt>
    543f:	nop
    5440:	endbr64 
    5444:	push   0x41
    5449:	bnd jmp 5020 <.plt>
    544f:	nop
    5450:	endbr64 
    5454:	push   0x42
    5459:	bnd jmp 5020 <.plt>
    545f:	nop
    5460:	endbr64 
    5464:	push   0x43
    5469:	bnd jmp 5020 <.plt>
    546f:	nop
    5470:	endbr64 
    5474:	push   0x44
    5479:	bnd jmp 5020 <.plt>
    547f:	nop
    5480:	endbr64 
    5484:	push   0x45
    5489:	bnd jmp 5020 <.plt>
    548f:	nop
    5490:	endbr64 
    5494:	push   0x46
    5499:	bnd jmp 5020 <.plt>
    549f:	nop
    54a0:	endbr64 
    54a4:	push   0x47
    54a9:	bnd jmp 5020 <.plt>
    54af:	nop
    54b0:	endbr64 
    54b4:	push   0x48
    54b9:	bnd jmp 5020 <.plt>
    54bf:	nop
    54c0:	endbr64 
    54c4:	push   0x49
    54c9:	bnd jmp 5020 <.plt>
    54cf:	nop
    54d0:	endbr64 
    54d4:	push   0x4a
    54d9:	bnd jmp 5020 <.plt>
    54df:	nop
    54e0:	endbr64 
    54e4:	push   0x4b
    54e9:	bnd jmp 5020 <.plt>
    54ef:	nop
    54f0:	endbr64 
    54f4:	push   0x4c
    54f9:	bnd jmp 5020 <.plt>
    54ff:	nop
    5500:	endbr64 
    5504:	push   0x4d
    5509:	bnd jmp 5020 <.plt>
    550f:	nop
    5510:	endbr64 
    5514:	push   0x4e
    5519:	bnd jmp 5020 <.plt>
    551f:	nop
    5520:	endbr64 
    5524:	push   0x4f
    5529:	bnd jmp 5020 <.plt>
    552f:	nop
    5530:	endbr64 
    5534:	push   0x50
    5539:	bnd jmp 5020 <.plt>
    553f:	nop
    5540:	endbr64 
    5544:	push   0x51
    5549:	bnd jmp 5020 <.plt>
    554f:	nop

Disassembly of section .plt.got:

0000000000005550 <__cxa_finalize@plt>:
    5550:	endbr64 
    5554:	bnd jmp QWORD PTR [rip+0x1da8d]        # 22fe8 <__cxa_finalize@GLIBC_2.2.5>
    555b:	nop    DWORD PTR [rax+rax*1+0x0]

Disassembly of section .plt.sec:

0000000000005560 <__strcat_chk@plt>:
    5560:	endbr64 
    5564:	bnd jmp QWORD PTR [rip+0x1d7cd]        # 22d38 <__strcat_chk@GLIBC_2.3.4>
    556b:	nop    DWORD PTR [rax+rax*1+0x0]

0000000000005570 <getenv@plt>:
    5570:	endbr64 
    5574:	bnd jmp QWORD PTR [rip+0x1d7c5]        # 22d40 <getenv@GLIBC_2.2.5>
    557b:	nop    DWORD PTR [rax+rax*1+0x0]

0000000000005580 <__snprintf_chk@plt>:
    5580:	endbr64 
    5584:	bnd jmp QWORD PTR [rip+0x1d7bd]        # 22d48 <__snprintf_chk@GLIBC_2.3.4>
    558b:	nop    DWORD PTR [rax+rax*1+0x0]

0000000000005590 <free@plt>:
    5590:	endbr64 
    5594:	bnd jmp QWORD PTR [rip+0x1d7b5]        # 22d50 <free@GLIBC_2.2.5>
    559b:	nop    DWORD PTR [rax+rax*1+0x0]

00000000000055a0 <putchar@plt>:
    55a0:	endbr64 
    55a4:	bnd jmp QWORD PTR [rip+0x1d7ad]        # 22d58 <putchar@GLIBC_2.2.5>
    55ab:	nop    DWORD PTR [rax+rax*1+0x0]

00000000000055b0 <pthread_create@plt>:
    55b0:	endbr64 
    55b4:	bnd jmp QWORD PTR [rip+0x1d7a5]        # 22d60 <pthread_create@GLIBC_2.2.5>
    55bb:	nop    DWORD PTR [rax+rax*1+0x0]

00000000000055c0 <strcasecmp@plt>:
    55c0:	endbr64 
    55c4:	bnd jmp QWORD PTR [rip+0x1d79d]        # 22d68 <strcasecmp@GLIBC_2.2.5>
    55cb:	nop    DWORD PTR [rax+rax*1+0x0]

00000000000055d0 <__vfprintf_chk@plt>:
    55d0:	endbr64 
    55d4:	bnd jmp QWORD PTR [rip+0x1d795]        # 22d70 <__vfprintf_chk@GLIBC_2.3.4>
    55db:	nop    DWORD PTR [rax+rax*1+0x0]

00000000000055e0 <__errno_location@plt>:
    55e0:	endbr64 
    55e4:	bnd jmp QWORD PTR [rip+0x1d78d]        # 22d78 <__errno_location@GLIBC_2.2.5>
    55eb:	nop    DWORD PTR [rax+rax*1+0x0]

00000000000055f0 <strncmp@plt>:
    55f0:	endbr64 
    55f4:	bnd jmp QWORD PTR [rip+0x1d785]        # 22d80 <strncmp@GLIBC_2.2.5>
    55fb:	nop    DWORD PTR [rax+rax*1+0x0]

0000000000005600 <puts@plt>:
    5600:	endbr64 
    5604:	bnd jmp QWORD PTR [rip+0x1d77d]        # 22d88 <puts@GLIBC_2.2.5>
    560b:	nop    DWORD PTR [rax+rax*1+0x0]

0000000000005610 <pthread_cancel@plt>:
    5610:	endbr64 
    5614:	bnd jmp QWORD PTR [rip+0x1d775]        # 22d90 <pthread_cancel@GLIBC_2.2.5>
    561b:	nop    DWORD PTR [rax+rax*1+0x0]

0000000000005620 <sc_hex_to_bin@plt>:
    5620:	endbr64 
    5624:	bnd jmp QWORD PTR [rip+0x1d76d]        # 22d98 <sc_hex_to_bin>
    562b:	nop    DWORD PTR [rax+rax*1+0x0]

0000000000005630 <fread@plt>:
    5630:	endbr64 
    5634:	bnd jmp QWORD PTR [rip+0x1d765]        # 22da0 <fread@GLIBC_2.2.5>
    563b:	nop    DWORD PTR [rax+rax*1+0x0]

0000000000005640 <sc_asn1_sig_value_rs_to_sequence@plt>:
    5640:	endbr64 
    5644:	bnd jmp QWORD PTR [rip+0x1d75d]        # 22da8 <sc_asn1_sig_value_rs_to_sequence>
    564b:	nop    DWORD PTR [rax+rax*1+0x0]

0000000000005650 <write@plt>:
    5650:	endbr64 
    5654:	bnd jmp QWORD PTR [rip+0x1d755]        # 22db0 <write@GLIBC_2.2.5>
    565b:	nop    DWORD PTR [rax+rax*1+0x0]

0000000000005660 <sc_ctx_get_reader_count@plt>:
    5660:	endbr64 
    5664:	bnd jmp QWORD PTR [rip+0x1d74d]        # 22db8 <sc_ctx_get_reader_count>
    566b:	nop    DWORD PTR [rax+rax*1+0x0]

0000000000005670 <fclose@plt>:
    5670:	endbr64 
    5674:	bnd jmp QWORD PTR [rip+0x1d745]        # 22dc0 <fclose@GLIBC_2.2.5>
    567b:	nop    DWORD PTR [rax+rax*1+0x0]

0000000000005680 <strlen@plt>:
    5680:	endbr64 
    5684:	bnd jmp QWORD PTR [rip+0x1d73d]        # 22dc8 <strlen@GLIBC_2.2.5>
    568b:	nop    DWORD PTR [rax+rax*1+0x0]

0000000000005690 <__stack_chk_fail@plt>:
    5690:	endbr64 
    5694:	bnd jmp QWORD PTR [rip+0x1d735]        # 22dd0 <__stack_chk_fail@GLIBC_2.4>
    569b:	nop    DWORD PTR [rax+rax*1+0x0]

00000000000056a0 <getopt_long@plt>:
    56a0:	endbr64 
    56a4:	bnd jmp QWORD PTR [rip+0x1d72d]        # 22dd8 <getopt_long@GLIBC_2.2.5>
    56ab:	nop    DWORD PTR [rax+rax*1+0x0]

00000000000056b0 <setbuf@plt>:
    56b0:	endbr64 
    56b4:	bnd jmp QWORD PTR [rip+0x1d725]        # 22de0 <setbuf@GLIBC_2.2.5>
    56bb:	nop    DWORD PTR [rax+rax*1+0x0]

00000000000056c0 <sc_ctx_detect_readers@plt>:
    56c0:	endbr64 
    56c4:	bnd jmp QWORD PTR [rip+0x1d71d]        # 22de8 <sc_ctx_detect_readers>
    56cb:	nop    DWORD PTR [rax+rax*1+0x0]

00000000000056d0 <fputs@plt>:
    56d0:	endbr64 
    56d4:	bnd jmp QWORD PTR [rip+0x1d715]        # 22df0 <fputs@GLIBC_2.2.5>
    56db:	nop    DWORD PTR [rax+rax*1+0x0]

00000000000056e0 <memset@plt>:
    56e0:	endbr64 
    56e4:	bnd jmp QWORD PTR [rip+0x1d70d]        # 22df8 <memset@GLIBC_2.2.5>
    56eb:	nop    DWORD PTR [rax+rax*1+0x0]

00000000000056f0 <sc_asn1_sig_value_sequence_to_rs@plt>:
    56f0:	endbr64 
    56f4:	bnd jmp QWORD PTR [rip+0x1d705]        # 22e00 <sc_asn1_sig_value_sequence_to_rs>
    56fb:	nop    DWORD PTR [rax+rax*1+0x0]

0000000000005700 <close@plt>:
    5700:	endbr64 
    5704:	bnd jmp QWORD PTR [rip+0x1d6fd]        # 22e08 <close@GLIBC_2.2.5>
    570b:	nop    DWORD PTR [rax+rax*1+0x0]

0000000000005710 <sc_asn1_decode_object_id@plt>:
    5710:	endbr64 
    5714:	bnd jmp QWORD PTR [rip+0x1d6f5]        # 22e10 <sc_asn1_decode_object_id>
    571b:	nop    DWORD PTR [rax+rax*1+0x0]

0000000000005720 <sc_format_oid@plt>:
    5720:	endbr64 
    5724:	bnd jmp QWORD PTR [rip+0x1d6ed]        # 22e18 <sc_format_oid>
    572b:	nop    DWORD PTR [rax+rax*1+0x0]

0000000000005730 <fputc@plt>:
    5730:	endbr64 
    5734:	bnd jmp QWORD PTR [rip+0x1d6e5]        # 22e20 <fputc@GLIBC_2.2.5>
    573b:	nop    DWORD PTR [rax+rax*1+0x0]

0000000000005740 <read@plt>:
    5740:	endbr64 
    5744:	bnd jmp QWORD PTR [rip+0x1d6dd]        # 22e28 <read@GLIBC_2.2.5>
    574b:	nop    DWORD PTR [rax+rax*1+0x0]

0000000000005750 <memcmp@plt>:
    5750:	endbr64 
    5754:	bnd jmp QWORD PTR [rip+0x1d6d5]        # 22e30 <memcmp@GLIBC_2.2.5>
    575b:	nop    DWORD PTR [rax+rax*1+0x0]

0000000000005760 <pthread_attr_init@plt>:
    5760:	endbr64 
    5764:	bnd jmp QWORD PTR [rip+0x1d6cd]        # 22e38 <pthread_attr_init@GLIBC_2.2.5>
    576b:	nop    DWORD PTR [rax+rax*1+0x0]

0000000000005770 <fgets@plt>:
    5770:	endbr64 
    5774:	bnd jmp QWORD PTR [rip+0x1d6c5]        # 22e40 <fgets@GLIBC_2.2.5>
    577b:	nop    DWORD PTR [rax+rax*1+0x0]

0000000000005780 <sc_ctx_get_reader@plt>:
    5780:	endbr64 
    5784:	bnd jmp QWORD PTR [rip+0x1d6bd]        # 22e48 <sc_ctx_get_reader>
    578b:	nop    DWORD PTR [rax+rax*1+0x0]

0000000000005790 <calloc@plt>:
    5790:	endbr64 
    5794:	bnd jmp QWORD PTR [rip+0x1d6b5]        # 22e50 <calloc@GLIBC_2.2.5>
    579b:	nop    DWORD PTR [rax+rax*1+0x0]

00000000000057a0 <strcmp@plt>:
    57a0:	endbr64 
    57a4:	bnd jmp QWORD PTR [rip+0x1d6ad]        # 22e58 <strcmp@GLIBC_2.2.5>
    57ab:	nop    DWORD PTR [rax+rax*1+0x0]

00000000000057b0 <__memcpy_chk@plt>:
    57b0:	endbr64 
    57b4:	bnd jmp QWORD PTR [rip+0x1d6a5]        # 22e60 <__memcpy_chk@GLIBC_2.3.4>
    57bb:	nop    DWORD PTR [rax+rax*1+0x0]

00000000000057c0 <strtol@plt>:
    57c0:	endbr64 
    57c4:	bnd jmp QWORD PTR [rip+0x1d69d]        # 22e68 <strtol@GLIBC_2.2.5>
    57cb:	nop    DWORD PTR [rax+rax*1+0x0]

00000000000057d0 <sc_connect_card@plt>:
    57d0:	endbr64 
    57d4:	bnd jmp QWORD PTR [rip+0x1d695]        # 22e70 <sc_connect_card>
    57db:	nop    DWORD PTR [rax+rax*1+0x0]

00000000000057e0 <fileno@plt>:
    57e0:	endbr64 
    57e4:	bnd jmp QWORD PTR [rip+0x1d68d]        # 22e78 <fileno@GLIBC_2.2.5>
    57eb:	nop    DWORD PTR [rax+rax*1+0x0]

00000000000057f0 <sc_init_oid@plt>:
    57f0:	endbr64 
    57f4:	bnd jmp QWORD PTR [rip+0x1d685]        # 22e80 <sc_init_oid>
    57fb:	nop    DWORD PTR [rax+rax*1+0x0]

0000000000005800 <pthread_attr_setdetachstate@plt>:
    5800:	endbr64 
    5804:	bnd jmp QWORD PTR [rip+0x1d67d]        # 22e88 <pthread_attr_setdetachstate@GLIBC_2.2.5>
    580b:	nop    DWORD PTR [rax+rax*1+0x0]

0000000000005810 <dlopen@plt>:
    5810:	endbr64 
    5814:	bnd jmp QWORD PTR [rip+0x1d675]        # 22e90 <dlopen@GLIBC_2.2.5>
    581b:	nop    DWORD PTR [rax+rax*1+0x0]

0000000000005820 <sc_disconnect_card@plt>:
    5820:	endbr64 
    5824:	bnd jmp QWORD PTR [rip+0x1d66d]        # 22e98 <sc_disconnect_card>
    582b:	nop    DWORD PTR [rax+rax*1+0x0]

0000000000005830 <pthread_exit@plt>:
    5830:	endbr64 
    5834:	bnd jmp QWORD PTR [rip+0x1d665]        # 22ea0 <pthread_exit@GLIBC_2.2.5>
    583b:	nop    DWORD PTR [rax+rax*1+0x0]

0000000000005840 <malloc@plt>:
    5840:	endbr64 
    5844:	bnd jmp QWORD PTR [rip+0x1d65d]        # 22ea8 <malloc@GLIBC_2.2.5>
    584b:	nop    DWORD PTR [rax+rax*1+0x0]

0000000000005850 <strncasecmp@plt>:
    5850:	endbr64 
    5854:	bnd jmp QWORD PTR [rip+0x1d655]        # 22eb0 <strncasecmp@GLIBC_2.2.5>
    585b:	nop    DWORD PTR [rax+rax*1+0x0]

0000000000005860 <fflush@plt>:
    5860:	endbr64 
    5864:	bnd jmp QWORD PTR [rip+0x1d64d]        # 22eb8 <fflush@GLIBC_2.2.5>
    586b:	nop    DWORD PTR [rax+rax*1+0x0]

0000000000005870 <dlclose@plt>:
    5870:	endbr64 
    5874:	bnd jmp QWORD PTR [rip+0x1d645]        # 22ec0 <dlclose@GLIBC_2.2.5>
    587b:	nop    DWORD PTR [rax+rax*1+0x0]

0000000000005880 <sc_asn1_encode_object_id@plt>:
    5880:	endbr64 
    5884:	bnd jmp QWORD PTR [rip+0x1d63d]        # 22ec8 <sc_asn1_encode_object_id>
    588b:	nop    DWORD PTR [rax+rax*1+0x0]

0000000000005890 <sc_wait_for_event@plt>:
    5890:	endbr64 
    5894:	bnd jmp QWORD PTR [rip+0x1d635]        # 22ed0 <sc_wait_for_event>
    589b:	nop    DWORD PTR [rax+rax*1+0x0]

00000000000058a0 <__printf_chk@plt>:
    58a0:	endbr64 
    58a4:	bnd jmp QWORD PTR [rip+0x1d62d]        # 22ed8 <__printf_chk@GLIBC_2.3.4>
    58ab:	nop    DWORD PTR [rax+rax*1+0x0]

00000000000058b0 <sc_strerror@plt>:
    58b0:	endbr64 
    58b4:	bnd jmp QWORD PTR [rip+0x1d625]        # 22ee0 <sc_strerror>
    58bb:	nop    DWORD PTR [rax+rax*1+0x0]

00000000000058c0 <waitpid@plt>:
    58c0:	endbr64 
    58c4:	bnd jmp QWORD PTR [rip+0x1d61d]        # 22ee8 <waitpid@GLIBC_2.2.5>
    58cb:	nop    DWORD PTR [rax+rax*1+0x0]

00000000000058d0 <tcgetattr@plt>:
    58d0:	endbr64 
    58d4:	bnd jmp QWORD PTR [rip+0x1d615]        # 22ef0 <tcgetattr@GLIBC_2.2.5>
    58db:	nop    DWORD PTR [rax+rax*1+0x0]

00000000000058e0 <tcsetattr@plt>:
    58e0:	endbr64 
    58e4:	bnd jmp QWORD PTR [rip+0x1d60d]        # 22ef8 <tcsetattr@GLIBC_2.2.5>
    58eb:	nop    DWORD PTR [rax+rax*1+0x0]

00000000000058f0 <open@plt>:
    58f0:	endbr64 
    58f4:	bnd jmp QWORD PTR [rip+0x1d605]        # 22f00 <open@GLIBC_2.2.5>
    58fb:	nop    DWORD PTR [rax+rax*1+0x0]

0000000000005900 <fopen@plt>:
    5900:	endbr64 
    5904:	bnd jmp QWORD PTR [rip+0x1d5fd]        # 22f08 <fopen@GLIBC_2.2.5>
    590b:	nop    DWORD PTR [rax+rax*1+0x0]

0000000000005910 <perror@plt>:
    5910:	endbr64 
    5914:	bnd jmp QWORD PTR [rip+0x1d5f5]        # 22f10 <perror@GLIBC_2.2.5>
    591b:	nop    DWORD PTR [rax+rax*1+0x0]

0000000000005920 <sc_notify_close@plt>:
    5920:	endbr64 
    5924:	bnd jmp QWORD PTR [rip+0x1d5ed]        # 22f18 <sc_notify_close>
    592b:	nop    DWORD PTR [rax+rax*1+0x0]

0000000000005930 <strtok@plt>:
    5930:	endbr64 
    5934:	bnd jmp QWORD PTR [rip+0x1d5e5]        # 22f20 <strtok@GLIBC_2.2.5>
    593b:	nop    DWORD PTR [rax+rax*1+0x0]

0000000000005940 <pthread_join@plt>:
    5940:	endbr64 
    5944:	bnd jmp QWORD PTR [rip+0x1d5dd]        # 22f28 <pthread_join@GLIBC_2.2.5>
    594b:	nop    DWORD PTR [rax+rax*1+0x0]

0000000000005950 <sc_detect_card_presence@plt>:
    5950:	endbr64 
    5954:	bnd jmp QWORD PTR [rip+0x1d5d5]        # 22f30 <sc_detect_card_presence>
    595b:	nop    DWORD PTR [rax+rax*1+0x0]

0000000000005960 <strtoul@plt>:
    5960:	endbr64 
    5964:	bnd jmp QWORD PTR [rip+0x1d5cd]        # 22f38 <strtoul@GLIBC_2.2.5>
    596b:	nop    DWORD PTR [rax+rax*1+0x0]

0000000000005970 <sc_lock@plt>:
    5970:	endbr64 
    5974:	bnd jmp QWORD PTR [rip+0x1d5c5]        # 22f40 <sc_lock>
    597b:	nop    DWORD PTR [rax+rax*1+0x0]

0000000000005980 <__memset_chk@plt>:
    5980:	endbr64 
    5984:	bnd jmp QWORD PTR [rip+0x1d5bd]        # 22f48 <__memset_chk@GLIBC_2.3.4>
    598b:	nop    DWORD PTR [rax+rax*1+0x0]

0000000000005990 <exit@plt>:
    5990:	endbr64 
    5994:	bnd jmp QWORD PTR [rip+0x1d5b5]        # 22f50 <exit@GLIBC_2.2.5>
    599b:	nop    DWORD PTR [rax+rax*1+0x0]

00000000000059a0 <fwrite@plt>:
    59a0:	endbr64 
    59a4:	bnd jmp QWORD PTR [rip+0x1d5ad]        # 22f58 <fwrite@GLIBC_2.2.5>
    59ab:	nop    DWORD PTR [rax+rax*1+0x0]

00000000000059b0 <__fprintf_chk@plt>:
    59b0:	endbr64 
    59b4:	bnd jmp QWORD PTR [rip+0x1d5a5]        # 22f60 <__fprintf_chk@GLIBC_2.3.4>
    59bb:	nop    DWORD PTR [rax+rax*1+0x0]

00000000000059c0 <sc_ctx_get_reader_by_name@plt>:
    59c0:	endbr64 
    59c4:	bnd jmp QWORD PTR [rip+0x1d59d]        # 22f68 <sc_ctx_get_reader_by_name>
    59cb:	nop    DWORD PTR [rax+rax*1+0x0]

00000000000059d0 <strerror@plt>:
    59d0:	endbr64 
    59d4:	bnd jmp QWORD PTR [rip+0x1d595]        # 22f70 <strerror@GLIBC_2.2.5>
    59db:	nop    DWORD PTR [rax+rax*1+0x0]

00000000000059e0 <dlsym@plt>:
    59e0:	endbr64 
    59e4:	bnd jmp QWORD PTR [rip+0x1d58d]        # 22f78 <dlsym@GLIBC_2.2.5>
    59eb:	nop    DWORD PTR [rax+rax*1+0x0]

00000000000059f0 <sc_ctx_log_to_file@plt>:
    59f0:	endbr64 
    59f4:	bnd jmp QWORD PTR [rip+0x1d585]        # 22f80 <sc_ctx_log_to_file>
    59fb:	nop    DWORD PTR [rax+rax*1+0x0]

0000000000005a00 <sleep@plt>:
    5a00:	endbr64 
    5a04:	bnd jmp QWORD PTR [rip+0x1d57d]        # 22f88 <sleep@GLIBC_2.2.5>
    5a0b:	nop    DWORD PTR [rax+rax*1+0x0]

0000000000005a10 <getc@plt>:
    5a10:	endbr64 
    5a14:	bnd jmp QWORD PTR [rip+0x1d575]        # 22f90 <getc@GLIBC_2.2.5>
    5a1b:	nop    DWORD PTR [rax+rax*1+0x0]

0000000000005a20 <fork@plt>:
    5a20:	endbr64 
    5a24:	bnd jmp QWORD PTR [rip+0x1d56d]        # 22f98 <fork@GLIBC_2.2.5>
    5a2b:	nop    DWORD PTR [rax+rax*1+0x0]

0000000000005a30 <sc_notify_init@plt>:
    5a30:	endbr64 
    5a34:	bnd jmp QWORD PTR [rip+0x1d565]        # 22fa0 <sc_notify_init>
    5a3b:	nop    DWORD PTR [rax+rax*1+0x0]

0000000000005a40 <rand@plt>:
    5a40:	endbr64 
    5a44:	bnd jmp QWORD PTR [rip+0x1d55d]        # 22fa8 <rand@GLIBC_2.2.5>
    5a4b:	nop    DWORD PTR [rax+rax*1+0x0]

0000000000005a50 <dlerror@plt>:
    5a50:	endbr64 
    5a54:	bnd jmp QWORD PTR [rip+0x1d555]        # 22fb0 <dlerror@GLIBC_2.2.5>
    5a5b:	nop    DWORD PTR [rax+rax*1+0x0]

0000000000005a60 <__ctype_b_loc@plt>:
    5a60:	endbr64 
    5a64:	bnd jmp QWORD PTR [rip+0x1d54d]        # 22fb8 <__ctype_b_loc@GLIBC_2.3>
    5a6b:	nop    DWORD PTR [rax+rax*1+0x0]

0000000000005a70 <__sprintf_chk@plt>:
    5a70:	endbr64 
    5a74:	bnd jmp QWORD PTR [rip+0x1d545]        # 22fc0 <__sprintf_chk@GLIBC_2.3.4>
    5a7b:	nop    DWORD PTR [rax+rax*1+0x0]

Disassembly of section .text:

0000000000005a80 <main>:
    5a80:	endbr64 
    5a84:	push   r15
    5a86:	xor    r15d,r15d
    5a89:	push   r14
    5a8b:	xor    r14d,r14d
    5a8e:	push   r13
    5a90:	push   r12
    5a92:	mov    r12,rsi
    5a95:	push   rbp
    5a96:	mov    ebp,edi
    5a98:	push   rbx
    5a99:	lea    rbx,[rip+0x18fc4]        # 1ea64 <_IO_stdin_used+0x7a64>
    5aa0:	sub    rsp,0x308
    5aa7:	mov    rax,QWORD PTR fs:0x28
    5ab0:	mov    QWORD PTR [rsp+0x2f8],rax
    5ab8:	xor    eax,eax
    5aba:	mov    DWORD PTR [rsp+0x6c],0x0
    5ac2:	lea    r13,[rsp+0x94]
    5aca:	mov    QWORD PTR [rsp+0x98],0x0
    5ad6:	mov    QWORD PTR [rsp+0xa0],0x0
    5ae2:	mov    DWORD PTR [rsp+0x94],0x0
    5aed:	mov    DWORD PTR [rsp+0x40],0x0
    5af5:	mov    DWORD PTR [rsp+0x44],0x0
    5afd:	mov    DWORD PTR [rsp+0x58],0x0
    5b05:	mov    DWORD PTR [rsp+0x20],0x0
    5b0d:	mov    DWORD PTR [rsp+0x8],0x0
    5b15:	mov    DWORD PTR [rsp+0xc],0x0
    5b1d:	mov    DWORD PTR [rsp+0x18],0x0
    5b25:	mov    DWORD PTR [rsp+0x5c],0x0
    5b2d:	mov    DWORD PTR [rsp+0x60],0x0
    5b35:	mov    DWORD PTR [rsp+0x64],0x0
    5b3d:	mov    DWORD PTR [rsp+0x68],0x0
    5b45:	mov    DWORD PTR [rsp+0x70],0x0
    5b4d:	mov    DWORD PTR [rsp+0x74],0x0
    5b55:	mov    DWORD PTR [rsp+0x88],0x0
    5b60:	mov    DWORD PTR [rsp+0x78],0x0
    5b68:	mov    DWORD PTR [rsp+0x7c],0x0
    5b70:	mov    DWORD PTR [rsp+0x2c],0x0
    5b78:	mov    DWORD PTR [rsp+0x80],0x0
    5b83:	mov    DWORD PTR [rsp+0x38],0x0
    5b8b:	mov    DWORD PTR [rsp+0x3c],0x0
    5b93:	mov    DWORD PTR [rsp+0x10],0x0
    5b9b:	mov    DWORD PTR [rsp+0x14],0x0
    5ba3:	mov    DWORD PTR [rsp+0x54],0x0
    5bab:	mov    DWORD PTR [rsp+0x28],0x0
    5bb3:	mov    DWORD PTR [rsp+0x24],0x0
    5bbb:	mov    DWORD PTR [rsp+0x84],0x0
    5bc6:	mov    DWORD PTR [rsp+0x50],0x0
    5bce:	mov    DWORD PTR [rsp+0x30],0x0
    5bd6:	mov    DWORD PTR [rsp],0x0
    5bdd:	mov    DWORD PTR [rsp+0x34],0x0
    5be5:	nop    DWORD PTR [rax]
    5be8:	mov    r8,r13
    5beb:	lea    rcx,[rip+0x1c14e]        # 21d40 <options>
    5bf2:	mov    rsi,r12
    5bf5:	mov    edi,ebp
    5bf7:	lea    rdx,[rip+0x16aa2]        # 1c6a0 <_IO_stdin_used+0x56a0>
    5bfe:	call   56a0 <getopt_long@plt>
    5c03:	cmp    eax,0xffffffff
    5c06:	je     6490 <main+0xa10>
    5c0c:	sub    eax,0x49
    5c0f:	cmp    eax,0xe7
    5c14:	ja     7726 <main+0x1ca6>
    5c1a:	movsxd rax,DWORD PTR [rbx+rax*4]
    5c1e:	add    rax,rbx
    5c21:	notrack jmp rax
    5c24:	mov    DWORD PTR [rsp+0x2c],0x1
    5c2c:	or     r15d,0x2
    5c30:	add    r14d,0x1
    5c34:	jmp    5be8 <main+0x168>
    5c36:	mov    DWORD PTR [rsp+0x5c],0x1
    5c3e:	add    r14d,0x1
    5c42:	jmp    5be8 <main+0x168>
    5c44:	mov    rdx,QWORD PTR [rip+0x1f975]        # 255c0 <optarg@@GLIBC_2.2.5>
    5c4b:	lea    rsi,[rip+0x12dde]        # 18a30 <_IO_stdin_used+0x1a30>
    5c52:	mov    rdi,rdx
    5c55:	mov    QWORD PTR [rsp+0x48],rdx
    5c5a:	call   57a0 <strcmp@plt>
    5c5f:	mov    rdx,QWORD PTR [rsp+0x48]
    5c64:	test   eax,eax
    5c66:	jne    6881 <main+0xe01>
    5c6c:	mov    DWORD PTR [rip+0x1d3e6],0x0        # 2305c <opt_login_type>
    5c76:	jmp    5be8 <main+0x168>
    5c7b:	mov    rdi,QWORD PTR [rip+0x1f93e]        # 255c0 <optarg@@GLIBC_2.2.5>
    5c82:	lea    rsi,[rip+0x20347]        # 25fd0 <opt_new_pin>
    5c89:	call   16520 <util_get_pin>
    5c8e:	jmp    5be8 <main+0x168>
    5c93:	mov    rdi,QWORD PTR [rip+0x1f926]        # 255c0 <optarg@@GLIBC_2.2.5>
    5c9a:	lea    rsi,[rip+0x20337]        # 25fd8 <opt_puk>
    5ca1:	call   16520 <util_get_pin>
    5ca6:	jmp    5be8 <main+0x168>
    5cab:	mov    DWORD PTR [rsp+0x40],0x1
    5cb3:	or     r15d,0x2
    5cb7:	add    r14d,0x1
    5cbb:	jmp    5be8 <main+0x168>
    5cc0:	mov    DWORD PTR [rip+0x20216],0x1        # 25ee0 <opt_test_hotplug>
    5cca:	add    r14d,0x1
    5cce:	jmp    5be8 <main+0x168>
    5cd3:	mov    DWORD PTR [rip+0x20207],0x1        # 25ee4 <opt_is_extractable>
    5cdd:	jmp    5be8 <main+0x168>
    5ce2:	mov    DWORD PTR [rip+0x201fc],0x1        # 25ee8 <opt_is_sensitive>
    5cec:	jmp    5be8 <main+0x168>
    5cf1:	mov    DWORD PTR [rip+0x201f1],0x1        # 25eec <opt_is_private>
    5cfb:	jmp    5be8 <main+0x168>
    5d00:	mov    DWORD PTR [rip+0x201c6],0x1        # 25ed0 <opt_key_usage_wrap>
    5d0a:	mov    DWORD PTR [rip+0x1d344],0x0        # 23058 <opt_key_usage_default>
    5d14:	jmp    5be8 <main+0x168>
    5d19:	mov    DWORD PTR [rip+0x201b1],0x1        # 25ed4 <opt_key_usage_derive>
    5d23:	mov    DWORD PTR [rip+0x1d32b],0x0        # 23058 <opt_key_usage_default>
    5d2d:	jmp    5be8 <main+0x168>
    5d32:	mov    DWORD PTR [rip+0x2019c],0x1        # 25ed8 <opt_key_usage_decrypt>
    5d3c:	mov    DWORD PTR [rip+0x1d312],0x0        # 23058 <opt_key_usage_default>
    5d46:	jmp    5be8 <main+0x168>
    5d4b:	mov    DWORD PTR [rip+0x20187],0x1        # 25edc <opt_key_usage_sign>
    5d55:	mov    DWORD PTR [rip+0x1d2f9],0x0        # 23058 <opt_key_usage_default>
    5d5f:	jmp    5be8 <main+0x168>
    5d64:	mov    rax,QWORD PTR [rip+0x1f855]        # 255c0 <optarg@@GLIBC_2.2.5>
    5d6b:	mov    QWORD PTR [rip+0x20236],rax        # 25fa8 <opt_key_type>
    5d72:	jmp    5be8 <main+0x168>
    5d77:	mov    rax,QWORD PTR [rip+0x1f842]        # 255c0 <optarg@@GLIBC_2.2.5>
    5d7e:	mov    QWORD PTR [rip+0x20283],rax        # 26008 <opt_attr_from_file>
    5d85:	jmp    5be8 <main+0x168>
    5d8a:	mov    DWORD PTR [rsp+0x58],0x1
    5d92:	or     r15d,0x2
    5d96:	add    r14d,0x1
    5d9a:	jmp    5be8 <main+0x168>
    5d9f:	mov    DWORD PTR [rsp+0x20],0x1
    5da7:	add    r14d,0x1
    5dab:	jmp    5be8 <main+0x168>
    5db0:	mov    rdi,QWORD PTR [rip+0x1f809]        # 255c0 <optarg@@GLIBC_2.2.5>
    5db7:	lea    rsi,[rip+0x20222]        # 25fe0 <opt_so_pin>
    5dbe:	call   16520 <util_get_pin>
    5dc3:	jmp    5be8 <main+0x168>
    5dc8:	mov    rax,QWORD PTR [rip+0x1f7f1]        # 255c0 <optarg@@GLIBC_2.2.5>
    5dcf:	mov    QWORD PTR [rip+0x201da],rax        # 25fb0 <opt_subject>
    5dd6:	jmp    5be8 <main+0x168>
    5ddb:	mov    rax,QWORD PTR [rip+0x1f7de]        # 255c0 <optarg@@GLIBC_2.2.5>
    5de2:	mov    QWORD PTR [rip+0x201cf],rax        # 25fb8 <opt_issuer>
    5de9:	jmp    5be8 <main+0x168>
    5dee:	mov    rax,QWORD PTR [rip+0x1f7cb]        # 255c0 <optarg@@GLIBC_2.2.5>
    5df5:	mov    QWORD PTR [rip+0x201c4],rax        # 25fc0 <opt_application_id>
    5dfc:	jmp    5be8 <main+0x168>
    5e01:	mov    rax,QWORD PTR [rip+0x1f7b8]        # 255c0 <optarg@@GLIBC_2.2.5>
    5e08:	mov    QWORD PTR [rip+0x201b9],rax        # 25fc8 <opt_application_label>
    5e0f:	jmp    5be8 <main+0x168>
    5e14:	cmp    QWORD PTR [rip+0x20334],0x0        # 26150 <opt_slot_description>
    5e1c:	mov    eax,DWORD PTR [rip+0x2033e]        # 26160 <opt_slot_set>
    5e22:	jne    8cd5 <main+0x3255>
    5e28:	or     eax,DWORD PTR [rip+0x2030a]        # 26138 <opt_slot_index_set>
    5e2e:	jne    8cd5 <main+0x3255>
    5e34:	mov    rax,QWORD PTR [rip+0x1f785]        # 255c0 <optarg@@GLIBC_2.2.5>
    5e3b:	mov    QWORD PTR [rip+0x20306],rax        # 26148 <opt_token_label>
    5e42:	jmp    5be8 <main+0x168>
    5e47:	cmp    DWORD PTR [rip+0x20312],0x0        # 26160 <opt_slot_set>
    5e4e:	jne    8cd5 <main+0x3255>
    5e54:	cmp    QWORD PTR [rip+0x202f4],0x0        # 26150 <opt_slot_description>
    5e5c:	jne    8cd5 <main+0x3255>
    5e62:	mov    rdi,QWORD PTR [rip+0x1f757]        # 255c0 <optarg@@GLIBC_2.2.5>
    5e69:	xor    edx,edx
    5e6b:	xor    esi,esi
    5e6d:	call   5960 <strtoul@plt>
    5e72:	mov    DWORD PTR [rip+0x202bc],0x1        # 26138 <opt_slot_index_set>
    5e7c:	mov    QWORD PTR [rip+0x202bd],rax        # 26140 <opt_slot_index>
    5e83:	jmp    5be8 <main+0x168>
    5e88:	cmp    DWORD PTR [rip+0x202d1],0x0        # 26160 <opt_slot_set>
    5e8f:	jne    8cd5 <main+0x3255>
    5e95:	mov    rax,QWORD PTR [rip+0x1f724]        # 255c0 <optarg@@GLIBC_2.2.5>
    5e9c:	mov    QWORD PTR [rip+0x202ad],rax        # 26150 <opt_slot_description>
    5ea3:	jmp    5be8 <main+0x168>
    5ea8:	mov    rdi,QWORD PTR [rip+0x1f711]        # 255c0 <optarg@@GLIBC_2.2.5>
    5eaf:	xor    edx,edx
    5eb1:	xor    esi,esi
    5eb3:	call   5960 <strtoul@plt>
    5eb8:	cmp    DWORD PTR [rip+0x202c1],0x0        # 26180 <verbose>
    5ebf:	mov    DWORD PTR [rip+0x20297],0x1        # 26160 <opt_slot_set>
    5ec9:	mov    QWORD PTR [rip+0x20288],rax        # 26158 <opt_slot>
    5ed0:	je     5be8 <main+0x168>
    5ed6:	mov    rdi,QWORD PTR [rip+0x1f703]        # 255e0 <stderr@@GLIBC_2.2.5>
    5edd:	mov    rcx,rax
    5ee0:	mov    esi,0x1
    5ee5:	xor    eax,eax
    5ee7:	lea    rdx,[rip+0x12b28]        # 18a16 <_IO_stdin_used+0x1a16>
    5eee:	call   59b0 <__fprintf_chk@plt>
    5ef3:	jmp    5be8 <main+0x168>
    5ef8:	mov    rax,QWORD PTR [rip+0x1f6c1]        # 255c0 <optarg@@GLIBC_2.2.5>
    5eff:	mov    QWORD PTR [rip+0x1f41a],rax        # 25320 <opt_module>
    5f06:	jmp    5be8 <main+0x168>
    5f0b:	mov    rax,QWORD PTR [rip+0x1f6ae]        # 255c0 <optarg@@GLIBC_2.2.5>
    5f12:	mov    DWORD PTR [rsp+0x60],0x1
    5f1a:	add    r14d,0x1
    5f1e:	mov    QWORD PTR [rip+0x201eb],rax        # 26110 <opt_file_to_write>
    5f25:	jmp    5be8 <main+0x168>
    5f2a:	mov    rdx,QWORD PTR [rip+0x1f68f]        # 255c0 <optarg@@GLIBC_2.2.5>
    5f31:	lea    rsi,[rip+0x123d7]        # 1830f <_IO_stdin_used+0x130f>
    5f38:	mov    rdi,rdx
    5f3b:	mov    QWORD PTR [rip+0x201c6],rdx        # 26108 <opt_object_class_str>
    5f42:	mov    QWORD PTR [rsp+0x48],rdx
    5f47:	call   57a0 <strcmp@plt>
    5f4c:	mov    rdx,QWORD PTR [rsp+0x48]
    5f51:	test   eax,eax
    5f53:	jne    682f <main+0xdaf>
    5f59:	mov    QWORD PTR [rip+0x1d0fc],0x1        # 23060 <opt_object_class>
    5f64:	jmp    5be8 <main+0x168>
    5f69:	mov    rax,QWORD PTR [rip+0x1f650]        # 255c0 <optarg@@GLIBC_2.2.5>
    5f70:	or     r15d,0x2
    5f74:	add    r14d,0x1
    5f78:	mov    DWORD PTR [rsp+0x88],0x1
    5f83:	mov    QWORD PTR [rip+0x20186],rax        # 26110 <opt_file_to_write>
    5f8a:	jmp    5be8 <main+0x168>
    5f8f:	add    DWORD PTR [rip+0x201ea],0x1        # 26180 <verbose>
    5f96:	jmp    5be8 <main+0x168>
    5f9b:	mov    DWORD PTR [rsp+0x64],0x1
    5fa3:	or     r15d,0x2
    5fa7:	add    r14d,0x1
    5fab:	jmp    5be8 <main+0x168>
    5fb0:	mov    DWORD PTR [rsp+0x28],0x1
    5fb8:	or     r15d,0x2
    5fbc:	add    r14d,0x1
    5fc0:	jmp    5be8 <main+0x168>
    5fc5:	mov    DWORD PTR [rsp+0x74],0x1
    5fcd:	or     r15d,0x1
    5fd1:	add    r14d,0x1
    5fd5:	jmp    5be8 <main+0x168>
    5fda:	mov    rdi,QWORD PTR [rip+0x1f5df]        # 255c0 <optarg@@GLIBC_2.2.5>
    5fe1:	lea    rsi,[rip+0x20000]        # 25fe8 <opt_pin>
    5fe8:	or     r15d,0x2
    5fec:	call   16520 <util_get_pin>
    5ff1:	mov    DWORD PTR [rsp+0x8],0x1
    5ff9:	jmp    5be8 <main+0x168>
    5ffe:	mov    rax,QWORD PTR [rip+0x1f5bb]        # 255c0 <optarg@@GLIBC_2.2.5>
    6005:	mov    QWORD PTR [rip+0x20164],rax        # 26170 <opt_output>
    600c:	jmp    5be8 <main+0x168>
    6011:	mov    rdi,QWORD PTR [rip+0x1f5a8]        # 255c0 <optarg@@GLIBC_2.2.5>
    6018:	mov    DWORD PTR [rip+0x200f6],0x1        # 26118 <opt_mechanism_used>
    6022:	call   b260 <p11_name_to_mechanism>
    6027:	mov    QWORD PTR [rip+0x200f2],rax        # 26120 <opt_mechanism>
    602e:	jmp    5be8 <main+0x168>
    6033:	mov    DWORD PTR [rsp+0x8],0x1
    603b:	or     r15d,0x2
    603f:	jmp    5be8 <main+0x168>
    6044:	mov    DWORD PTR [rsp+0x7c],0x1
    604c:	or     r15d,0x2
    6050:	add    r14d,0x1
    6054:	jmp    5be8 <main+0x168>
    6059:	mov    rax,QWORD PTR [rip+0x1f560]        # 255c0 <optarg@@GLIBC_2.2.5>
    6060:	mov    QWORD PTR [rip+0x20111],rax        # 26178 <opt_input>
    6067:	jmp    5be8 <main+0x168>
    606c:	mov    DWORD PTR [rsp+0x80],0x1
    6077:	or     r15d,0x1
    607b:	add    r14d,0x1
    607f:	jmp    5be8 <main+0x168>
    6084:	mov    rax,QWORD PTR [rip+0x1f535]        # 255c0 <optarg@@GLIBC_2.2.5>
    608b:	mov    QWORD PTR [rip+0x1ff0e],rax        # 25fa0 <opt_sig_format>
    6092:	jmp    5be8 <main+0x168>
    6097:	mov    rdi,QWORD PTR [rip+0x1f522]        # 255c0 <optarg@@GLIBC_2.2.5>
    609e:	lea    rdx,[rip+0x1ff53]        # 25ff8 <new_object_id_len>
    60a5:	lea    rsi,[rip+0x1ff74]        # 26020 <new_object_id>
    60ac:	or     r15d,0x2
    60b0:	mov    QWORD PTR [rip+0x1ff3d],0x64        # 25ff8 <new_object_id_len>
    60bb:	call   5620 <sc_hex_to_bin@plt>
    60c0:	test   eax,eax
    60c2:	jne    6102 <main+0x682>
    60c4:	mov    DWORD PTR [rsp+0x68],0x1
    60cc:	add    r14d,0x1
    60d0:	jmp    5be8 <main+0x168>
    60d5:	mov    rdi,QWORD PTR [rip+0x1f4e4]        # 255c0 <optarg@@GLIBC_2.2.5>
    60dc:	lea    rdx,[rip+0x1ff1d]        # 26000 <opt_object_id_len>
    60e3:	lea    rsi,[rip+0x1ffb6]        # 260a0 <opt_object_id>
    60ea:	mov    QWORD PTR [rip+0x1ff0b],0x64        # 26000 <opt_object_id_len>
    60f5:	call   5620 <sc_hex_to_bin@plt>
    60fa:	test   eax,eax
    60fc:	je     5be8 <main+0x168>
    6102:	mov    rcx,QWORD PTR [rip+0x1f4b7]        # 255c0 <optarg@@GLIBC_2.2.5>
    6109:	lea    rdx,[rip+0x128a8]        # 189b8 <_IO_stdin_used+0x19b8>
    6110:	jmp    7713 <main+0x1c93>
    6115:	mov    DWORD PTR [rsp+0x44],0x1
    611d:	or     r15d,0x2
    6121:	add    r14d,0x1
    6125:	jmp    5be8 <main+0x168>
    612a:	mov    DWORD PTR [rsp+0x70],0x1
    6132:	or     r15d,0x2
    6136:	add    r14d,0x1
    613a:	jmp    5be8 <main+0x168>
    613f:	mov    rax,QWORD PTR [rip+0x1f47a]        # 255c0 <optarg@@GLIBC_2.2.5>
    6146:	mov    QWORD PTR [rip+0x1fea3],rax        # 25ff0 <opt_object_label>
    614d:	jmp    5be8 <main+0x168>
    6152:	mov    DWORD PTR [rsp+0x30],0x1
    615a:	add    r14d,0x1
    615e:	mov    DWORD PTR [rsp],0x1
    6165:	jmp    5be8 <main+0x168>
    616a:	mov    DWORD PTR [rsp+0x84],0x1
    6175:	or     r15d,0x1
    6179:	add    r14d,0x1
    617d:	jmp    5be8 <main+0x168>
    6182:	mov    DWORD PTR [rsp+0x50],0x1
    618a:	add    r14d,0x1
    618e:	jmp    5be8 <main+0x168>
    6193:	mov    DWORD PTR [rsp],0x1
    619a:	add    r14d,0x1
    619e:	jmp    5be8 <main+0x168>
    61a3:	mov    DWORD PTR [rsp+0x34],0x1
    61ab:	add    r14d,0x1
    61af:	jmp    5be8 <main+0x168>
    61b4:	mov    rax,QWORD PTR [rip+0x1f405]        # 255c0 <optarg@@GLIBC_2.2.5>
    61bb:	mov    QWORD PTR [rip+0x1fcde],rax        # 25ea0 <opt_iv>
    61c2:	jmp    5be8 <main+0x168>
    61c7:	mov    DWORD PTR [rsp+0x24],0x1
    61cf:	add    r14d,0x1
    61d3:	jmp    5be8 <main+0x168>
    61d8:	mov    QWORD PTR [rip+0x1ce6d],0x0        # 23050 <opt_allow_sw>
    61e3:	jmp    5be8 <main+0x168>
    61e8:	mov    rdi,QWORD PTR [rip+0x1f3d1]        # 255c0 <optarg@@GLIBC_2.2.5>
    61ef:	xor    edx,edx
    61f1:	xor    esi,esi
    61f3:	call   5960 <strtoul@plt>
    61f8:	mov    DWORD PTR [rip+0x1ff26],0x1        # 26128 <opt_object_index_set>
    6202:	mov    QWORD PTR [rip+0x1ff27],rax        # 26130 <opt_object_index>
    6209:	jmp    5be8 <main+0x168>
    620e:	mov    rdi,QWORD PTR [rip+0x1f3ab]        # 255c0 <optarg@@GLIBC_2.2.5>
    6215:	lea    rsi,[rip+0x11d8d]        # 17fa9 <_IO_stdin_used+0xfa9>
    621c:	call   5930 <strtok@plt>
    6221:	mov    rdi,rax
    6224:	test   rax,rax
    6227:	je     5be8 <main+0x168>
    622d:	mov    rdx,QWORD PTR [rip+0x1fcbc]        # 25ef0 <opt_allowed_mechanisms_len>
    6234:	mov    DWORD PTR [rsp+0x48],ebp
    6238:	mov    rbp,rdx
    623b:	jmp    6275 <main+0x7f5>
    623d:	nop    DWORD PTR [rax]
    6240:	call   b260 <p11_name_to_mechanism>
    6245:	lea    rcx,[rip+0x1fcb4]        # 25f00 <opt_allowed_mechanisms>
    624c:	xor    edi,edi
    624e:	lea    rsi,[rip+0x11d54]        # 17fa9 <_IO_stdin_used+0xfa9>
    6255:	mov    QWORD PTR [rcx+rbp*8],rax
    6259:	add    rbp,0x1
    625d:	mov    QWORD PTR [rip+0x1fc8c],rbp        # 25ef0 <opt_allowed_mechanisms_len>
    6264:	call   5930 <strtok@plt>
    6269:	mov    rdi,rax
    626c:	test   rax,rax
    626f:	je     6a5a <main+0xfda>
    6275:	cmp    rbp,0x14
    6279:	jbe    6240 <main+0x7c0>
    627b:	mov    ecx,0x14
    6280:	mov    esi,0x1
    6285:	xor    eax,eax
    6287:	mov    ebp,DWORD PTR [rsp+0x48]
    628b:	mov    rdi,QWORD PTR [rip+0x1f34e]        # 255e0 <stderr@@GLIBC_2.2.5>
    6292:	lea    rdx,[rip+0x164bf]        # 1c758 <_IO_stdin_used+0x5758>
    6299:	call   59b0 <__fprintf_chk@plt>
    629e:	jmp    5be8 <main+0x168>
    62a3:	mov    DWORD PTR [rip+0x1fbfb],0x1        # 25ea8 <opt_always_auth>
    62ad:	jmp    5be8 <main+0x168>
    62b2:	mov    rax,QWORD PTR [rip+0x1f307]        # 255c0 <optarg@@GLIBC_2.2.5>
    62b9:	mov    QWORD PTR [rip+0x1fea8],rax        # 26168 <opt_signature_file>
    62c0:	jmp    5be8 <main+0x168>
    62c5:	mov    DWORD PTR [rsp+0x54],0x1
    62cd:	or     r15d,0x1
    62d1:	add    r14d,0x1
    62d5:	jmp    5be8 <main+0x168>
    62da:	mov    rdi,QWORD PTR [rip+0x1f2df]        # 255c0 <optarg@@GLIBC_2.2.5>
    62e1:	xor    edx,edx
    62e3:	xor    esi,esi
    62e5:	call   5960 <strtoul@plt>
    62ea:	mov    DWORD PTR [rip+0x1fbb8],0x1        # 25eac <opt_salt_len_given>
    62f4:	mov    QWORD PTR [rip+0x1fbb5],rax        # 25eb0 <opt_salt_len>
    62fb:	jmp    5be8 <main+0x168>
    6300:	mov    rax,QWORD PTR [rip+0x1f2b9]        # 255c0 <optarg@@GLIBC_2.2.5>
    6307:	mov    rdi,QWORD PTR [rip+0x1cf9a]        # 232a8 <p11_mgf+0x8>
    630e:	mov    rsi,rax
    6311:	test   rdi,rdi
    6314:	je     896e <main+0x2eee>
    631a:	lea    rdx,[rip+0x1cf7f]        # 232a0 <p11_mgf>
    6321:	mov    DWORD PTR [rsp+0x48],r15d
    6326:	mov    r15,rax
    6329:	mov    DWORD PTR [rsp+0x8c],ebp
    6330:	mov    rbp,rdx
    6333:	jmp    6349 <main+0x8c9>
    6335:	nop    DWORD PTR [rax]
    6338:	mov    rdi,QWORD PTR [rbp+0x28]
    633c:	add    rbp,0x20
    6340:	test   rdi,rdi
    6343:	je     896b <main+0x2eeb>
    6349:	mov    rsi,r15
    634c:	call   55c0 <strcasecmp@plt>
    6351:	test   eax,eax
    6353:	jne    6338 <main+0x8b8>
    6355:	mov    rdx,rbp
    6358:	mov    r15d,DWORD PTR [rsp+0x48]
    635d:	mov    ebp,DWORD PTR [rsp+0x8c]
    6364:	mov    rax,QWORD PTR [rdx]
    6367:	mov    QWORD PTR [rip+0x1fb4a],rax        # 25eb8 <opt_mgf>
    636e:	jmp    5be8 <main+0x168>
    6373:	mov    rdi,QWORD PTR [rip+0x1f246]        # 255c0 <optarg@@GLIBC_2.2.5>
    637a:	call   b260 <p11_name_to_mechanism>
    637f:	mov    QWORD PTR [rip+0x1fb3a],rax        # 25ec0 <opt_hash_alg>
    6386:	jmp    5be8 <main+0x168>
    638b:	mov    rdi,QWORD PTR [rip+0x1f22e]        # 255c0 <optarg@@GLIBC_2.2.5>
    6392:	xor    edx,edx
    6394:	xor    esi,esi
    6396:	or     r15d,0x1
    639a:	add    r14d,0x1
    639e:	call   5960 <strtoul@plt>
    63a3:	mov    DWORD PTR [rsp+0x6c],0x1
    63ab:	mov    QWORD PTR [rip+0x1fb16],rax        # 25ec8 <opt_random_bytes>
    63b2:	jmp    5be8 <main+0x168>
    63b7:	mov    DWORD PTR [rsp+0x78],0x1
    63bf:	or     r15d,0x2
    63c3:	add    r14d,0x1
    63c7:	jmp    5be8 <main+0x168>
    63cc:	lea    rax,[rip+0x1cc4d]        # 23020 <c_initialize_args_OS>
    63d3:	mov    QWORD PTR [rip+0x1fa96],rax        # 25e70 <c_initialize_args_ptr>
    63da:	jmp    5be8 <main+0x168>
    63df:	mov    eax,DWORD PTR [rip+0x1f8db]        # 25cc0 <test_threads_num>
    63e5:	cmp    eax,0x9
    63e8:	jg     8d05 <main+0x3285>
    63ee:	movsxd rdx,eax
    63f1:	lea    rcx,[rip+0x1f8e8]        # 25ce0 <test_threads_datas>
    63f8:	mov    DWORD PTR [rsp+0xc],0x1
    6400:	add    r14d,0x1
    6404:	shl    rdx,0x5
    6408:	add    rdx,rcx
    640b:	mov    rcx,QWORD PTR [rip+0x1f1ae]        # 255c0 <optarg@@GLIBC_2.2.5>
    6412:	mov    DWORD PTR [rdx],eax
    6414:	add    eax,0x1
    6417:	mov    QWORD PTR [rdx+0x8],rcx
    641b:	mov    DWORD PTR [rip+0x1f89f],eax        # 25cc0 <test_threads_num>
    6421:	jmp    5be8 <main+0x168>
    6426:	mov    DWORD PTR [rsp+0x18],0x1
    642e:	add    r14d,0x1
    6432:	jmp    5be8 <main+0x168>
    6437:	mov    DWORD PTR [rsp+0x38],0x1
    643f:	or     r15d,0x2
    6443:	add    r14d,0x1
    6447:	jmp    5be8 <main+0x168>
    644c:	mov    DWORD PTR [rsp+0x3c],0x1
    6454:	or     r15d,0x2
    6458:	add    r14d,0x1
    645c:	jmp    5be8 <main+0x168>
    6461:	mov    DWORD PTR [rsp+0x10],0x1
    6469:	or     r15d,0x2
    646d:	add    r14d,0x1
    6471:	jmp    5be8 <main+0x168>
    6476:	mov    DWORD PTR [rsp+0x14],0x1
    647e:	or     r15d,0x2
    6482:	add    r14d,0x1
    6486:	jmp    5be8 <main+0x168>
    648b:	nop    DWORD PTR [rax+rax*1+0x0]
    6490:	cmp    DWORD PTR [rip+0x1f122],ebp        # 255b8 <optind@@GLIBC_2.2.5>
    6496:	jl     8cc7 <main+0x3247>
    649c:	test   r14d,r14d
    649f:	je     7726 <main+0x1ca6>
    64a5:	lea    rax,[rsp+0xd0]
    64ad:	mov    rdi,QWORD PTR [rip+0x1ee6c]        # 25320 <opt_module>
    64b4:	mov    QWORD PTR [rsp+0xd0],0x0
    64c0:	mov    rsi,rax
    64c3:	mov    QWORD PTR [rsp+0x48],rax
    64c8:	call   165f0 <C_LoadModule>
    64cd:	mov    QWORD PTR [rip+0x1f9c4],rax        # 25e98 <module>
    64d4:	test   rax,rax
    64d7:	je     8cbb <main+0x323b>
    64dd:	mov    rax,QWORD PTR [rsp+0xd0]
    64e5:	mov    r11d,DWORD PTR [rsp+0x24]
    64ea:	mov    QWORD PTR [rip+0x1f99f],rax        # 25e90 <p11>
    64f1:	test   r11d,r11d
    64f4:	jne    6997 <main+0xf17>
    64fa:	mov    r8d,DWORD PTR [rsp+0xc]
    64ff:	test   r8d,r8d
    6502:	jne    6794 <main+0xd14>
    6508:	mov    rax,QWORD PTR [rip+0x1f981]        # 25e90 <p11>
    650f:	mov    rdi,QWORD PTR [rip+0x1f95a]        # 25e70 <c_initialize_args_ptr>
    6516:	call   QWORD PTR [rax+0x8]
    6519:	test   rax,rax
    651c:	mov    rbp,rax
    651f:	setne  bl
    6522:	jne    68ec <main+0xe6c>
    6528:	mov    edi,DWORD PTR [rsp+0x18]
    652c:	test   edi,edi
    652e:	jne    694f <main+0xecf>
    6534:	mov    esi,DWORD PTR [rsp+0x34]
    6538:	test   esi,esi
    653a:	jne    6a79 <main+0xff9>
    6540:	mov    esi,DWORD PTR [rsp]
    6543:	mov    edi,DWORD PTR [rsp+0x30]
    6547:	call   14c20 <list_slots.constprop.0>
    654c:	mov    ecx,DWORD PTR [rip+0x1f98e]        # 25ee0 <opt_test_hotplug>
    6552:	test   ecx,ecx
    6554:	jne    6a63 <main+0xfe3>
    655a:	mov    rax,QWORD PTR [rip+0x1f91f]        # 25e80 <p11_num_slots>
    6561:	test   rax,rax
    6564:	je     70ce <main+0x164e>
    656a:	mov    edx,DWORD PTR [rip+0x1fbf0]        # 26160 <opt_slot_set>
    6570:	test   edx,edx
    6572:	jne    657e <main+0xafe>
    6574:	cmp    DWORD PTR [rsp],r14d
    6578:	jl     7147 <main+0x16c7>
    657e:	cmp    DWORD PTR [rsp+0x50],0x0
    6583:	jne    6c83 <main+0x1203>
    6589:	mov    eax,DWORD PTR [rsp+0x28]
    658d:	or     eax,DWORD PTR [rsp+0x10]
    6591:	or     eax,DWORD PTR [rsp+0x38]
    6595:	or     eax,DWORD PTR [rsp+0x3c]
    6599:	or     eax,DWORD PTR [rsp+0x14]
    659d:	jne    6c4d <main+0x11cd>
    65a3:	cmp    DWORD PTR [rsp+0x20],0x0
    65a8:	jne    6b6c <main+0x10ec>
    65ae:	test   r15d,r15d
    65b1:	je     65ec <main+0xb6c>
    65b3:	and    r15d,0x2
    65b7:	mov    rdi,QWORD PTR [rip+0x1fb9a]        # 26158 <opt_slot>
    65be:	lea    r8,[rsp+0x98]
    65c6:	cmp    r15d,0x1
    65ca:	sbb    eax,eax
    65cc:	xor    ecx,ecx
    65ce:	xor    edx,edx
    65d0:	and    eax,0xfffffffe
    65d3:	add    eax,0x6
    65d6:	movsxd rsi,eax
    65d9:	mov    rax,QWORD PTR [rip+0x1f8b0]        # 25e90 <p11>
    65e0:	call   QWORD PTR [rax+0x68]
    65e3:	test   rax,rax
    65e6:	jne    8d47 <main+0x32c7>
    65ec:	cmp    DWORD PTR [rsp+0x8],0x0
    65f1:	je     6627 <main+0xba7>
    65f3:	cmp    DWORD PTR [rip+0x1ca62],0xffffffff        # 2305c <opt_login_type>
    65fa:	jne    6609 <main+0xb89>
    65fc:	mov    eax,DWORD PTR [rsp+0x58]
    6600:	xor    eax,0x1
    6603:	mov    DWORD PTR [rip+0x1ca53],eax        # 2305c <opt_login_type>
    6609:	mov    esi,DWORD PTR [rip+0x1ca4d]        # 2305c <opt_login_type>
    660f:	mov    rdi,QWORD PTR [rsp+0x98]
    6617:	call   9820 <login>
    661c:	mov    r13d,eax
    661f:	test   eax,eax
    6621:	jne    6768 <main+0xce8>
    6627:	cmp    DWORD PTR [rsp+0x44],0x0
    662c:	jne    748e <main+0x1a0e>
    6632:	cmp    DWORD PTR [rsp+0x40],0x0
    6637:	je     6c94 <main+0x1214>
    663d:	mov    ebx,DWORD PTR [rip+0x1ca19]        # 2305c <opt_login_type>
    6643:	cmp    ebx,0xffffffff
    6646:	je     6651 <main+0xbd1>
    6648:	cmp    ebx,0x2
    664b:	jne    8c1d <main+0x319d>
    6651:	mov    rdi,QWORD PTR [rip+0x1fb00]        # 26158 <opt_slot>
    6658:	lea    rsi,[rsp+0x1c0]
    6660:	mov    QWORD PTR [rsp+0xc0],0x0
    666c:	mov    QWORD PTR [rsp+0xc8],0x0
    6678:	mov    r13,QWORD PTR [rsp+0x98]
    6680:	mov    QWORD PTR [rsp+0xd0],0x0
    668c:	call   9190 <get_token_info>
    6691:	cmp    ebx,0x2
    6694:	je     7068 <main+0x15e8>
    669a:	cmp    ebx,0xffffffff
    669d:	jne    6763 <main+0xce3>
    66a3:	mov    rax,QWORD PTR [rip+0x1f92e]        # 25fd8 <opt_puk>
    66aa:	mov    QWORD PTR [rsp+0xc0],rax
    66b2:	mov    rax,QWORD PTR [rsp+0x220]
    66ba:	test   ah,0x1
    66bd:	jne    66ce <main+0xc4e>
    66bf:	cmp    QWORD PTR [rsp+0xc0],0x0
    66c8:	je     79d7 <main+0x1f57>
    66ce:	mov    rbp,QWORD PTR [rip+0x1f8fb]        # 25fd0 <opt_new_pin>
    66d5:	and    eax,0x100
    66da:	or     rax,rbp
    66dd:	mov    QWORD PTR [rsp+0xc8],rbp
    66e5:	je     8746 <main+0x2cc6>
    66eb:	mov    rax,QWORD PTR [rip+0x1f79e]        # 25e90 <p11>
    66f2:	mov    r9,QWORD PTR [rax+0x60]
    66f6:	test   rbp,rbp
    66f9:	je     820e <main+0x278e>
    66ff:	xor    eax,eax
    6701:	or     rcx,0xffffffffffffffff
    6705:	mov    rdi,rbp
    6708:	repnz scas al,BYTE PTR es:[rdi]
    670a:	mov    rax,rcx
    670d:	not    rax
    6710:	lea    r8,[rax-0x1]
    6714:	mov    rsi,QWORD PTR [rsp+0xc0]
    671c:	test   rsi,rsi
    671f:	je     8207 <main+0x2787>
    6725:	xor    eax,eax
    6727:	or     rcx,0xffffffffffffffff
    672b:	mov    rdi,rsi
    672e:	repnz scas al,BYTE PTR es:[rdi]
    6730:	mov    rax,rcx
    6733:	not    rax
    6736:	lea    rdx,[rax-0x1]
    673a:	mov    rcx,rbp
    673d:	mov    rdi,r13
    6740:	call   r9
    6743:	mov    rsi,rax
    6746:	test   rax,rax
    6749:	jne    8aa9 <main+0x3029>
    674f:	lea    rdi,[rip+0x124a4]        # 18bfa <_IO_stdin_used+0x1bfa>
    6756:	call   5600 <puts@plt>
    675b:	mov    DWORD PTR [rsp+0x40],0x0
    6763:	mov    r13d,DWORD PTR [rsp+0x40]
    6768:	mov    rax,QWORD PTR [rsp+0x2f8]
    6770:	xor    rax,QWORD PTR fs:0x28
    6779:	jne    8c8b <main+0x320b>
    677f:	add    rsp,0x308
    6786:	mov    eax,r13d
    6789:	pop    rbx
    678a:	pop    rbp
    678b:	pop    r12
    678d:	pop    r13
    678f:	pop    r14
    6791:	pop    r15
    6793:	ret    
    6794:	cmp    DWORD PTR [rip+0x1f525],0x0        # 25cc0 <test_threads_num>
    679b:	jle    68d2 <main+0xe52>
    67a1:	lea    rbp,[rip+0x1f678]        # 25e20 <test_threads_handles>
    67a8:	lea    rbx,[rip+0x1f531]        # 25ce0 <test_threads_datas>
    67af:	xor    r13d,r13d
    67b2:	lea    r12,[rsp+0x1c0]
    67ba:	jmp    67e3 <main+0xd63>
    67bc:	nop    DWORD PTR [rax+0x0]
    67c0:	add    r13d,0x1
    67c4:	add    rbp,0x8
    67c8:	add    rbx,0x20
    67cc:	cmp    r13d,DWORD PTR [rip+0x1f4ed]        # 25cc0 <test_threads_num>
    67d3:	jge    68d2 <main+0xe52>
    67d9:	cmp    r13d,0xa
    67dd:	je     68d2 <main+0xe52>
    67e3:	mov    rdi,r12
    67e6:	call   5760 <pthread_attr_init@plt>
    67eb:	xor    esi,esi
    67ed:	mov    rdi,r12
    67f0:	call   5800 <pthread_attr_setdetachstate@plt>
    67f5:	mov    rcx,rbx
    67f8:	mov    rsi,r12
    67fb:	mov    rdi,rbp
    67fe:	lea    rdx,[rip+0x35eb]        # 9df0 <test_threads_run>
    6805:	call   55b0 <pthread_create@plt>
    680a:	test   eax,eax
    680c:	je     67c0 <main+0xd40>
    680e:	mov    rdi,QWORD PTR [rip+0x1edcb]        # 255e0 <stderr@@GLIBC_2.2.5>
    6815:	mov    ecx,eax
    6817:	mov    r8d,r13d
    681a:	xor    eax,eax
    681c:	lea    rdx,[rip+0x1601d]        # 1c840 <_IO_stdin_used+0x5840>
    6823:	mov    esi,0x1
    6828:	call   59b0 <__fprintf_chk@plt>
    682d:	jmp    67c0 <main+0xd40>
    682f:	mov    rdi,rdx
    6832:	lea    rsi,[rip+0x12190]        # 189c9 <_IO_stdin_used+0x19c9>
    6839:	mov    QWORD PTR [rsp+0x48],rdx
    683e:	call   57a0 <strcmp@plt>
    6843:	mov    rdx,QWORD PTR [rsp+0x48]
    6848:	test   eax,eax
    684a:	je     7058 <main+0x15d8>
    6850:	mov    rdi,rdx
    6853:	lea    rsi,[rip+0x12177]        # 189d1 <_IO_stdin_used+0x19d1>
    685a:	mov    QWORD PTR [rsp+0x48],rdx
    685f:	call   57a0 <strcmp@plt>
    6864:	mov    rdx,QWORD PTR [rsp+0x48]
    6869:	test   eax,eax
    686b:	jne    768f <main+0x1c0f>
    6871:	mov    QWORD PTR [rip+0x1c7e4],0x4        # 23060 <opt_object_class>
    687c:	jmp    5be8 <main+0x168>
    6881:	mov    rdi,rdx
    6884:	lea    rsi,[rip+0x121a8]        # 18a33 <_IO_stdin_used+0x1a33>
    688b:	mov    QWORD PTR [rsp+0x48],rdx
    6890:	call   57a0 <strcmp@plt>
    6895:	mov    rdx,QWORD PTR [rsp+0x48]
    689a:	test   eax,eax
    689c:	je     7049 <main+0x15c9>
    68a2:	mov    rdi,rdx
    68a5:	lea    rsi,[rip+0x1218c]        # 18a38 <_IO_stdin_used+0x1a38>
    68ac:	mov    QWORD PTR [rsp+0x48],rdx
    68b1:	call   57a0 <strcmp@plt>
    68b6:	mov    rdx,QWORD PTR [rsp+0x48]
    68bb:	test   eax,eax
    68bd:	jne    8a9a <main+0x301a>
    68c3:	mov    DWORD PTR [rip+0x1c78f],0x2        # 2305c <opt_login_type>
    68cd:	jmp    5be8 <main+0x168>
    68d2:	mov    rax,QWORD PTR [rip+0x1f5b7]        # 25e90 <p11>
    68d9:	mov    rdi,QWORD PTR [rip+0x1f590]        # 25e70 <c_initialize_args_ptr>
    68e0:	call   QWORD PTR [rax+0x8]
    68e3:	test   rax,rax
    68e6:	mov    rbp,rax
    68e9:	setne  bl
    68ec:	mov    rdi,rbp
    68ef:	call   8e50 <CKR2Str>
    68f4:	cmp    QWORD PTR [rip+0x1f574],0x0        # 25e70 <c_initialize_args_ptr>
    68fc:	lea    rcx,[rip+0x12086]        # 18989 <_IO_stdin_used+0x1989>
    6903:	mov    rdi,QWORD PTR [rip+0x1ecd6]        # 255e0 <stderr@@GLIBC_2.2.5>
    690a:	mov    r8,rax
    690d:	lea    rax,[rip+0x12087]        # 1899b <_IO_stdin_used+0x199b>
    6914:	lea    rdx,[rip+0x12184]        # 18a9f <_IO_stdin_used+0x1a9f>
    691b:	mov    esi,0x1
    6920:	cmove  rcx,rax
    6924:	xor    eax,eax
    6926:	call   59b0 <__fprintf_chk@plt>
    692b:	cmp    rbp,0x191
    6932:	je     6528 <main+0xaa8>
    6938:	test   bl,bl
    693a:	je     6528 <main+0xaa8>
    6940:	mov    rsi,rbp
    6943:	lea    rdi,[rip+0x11dd0]        # 1871a <_IO_stdin_used+0x171a>
    694a:	call   9140 <p11_fatal>
    694f:	call   5a20 <fork@plt>
    6954:	mov    edi,eax
    6956:	test   eax,eax
    6958:	je     758f <main+0x1b0f>
    695e:	js     8c90 <main+0x3210>
    6964:	mov    rsi,QWORD PTR [rsp+0x48]
    6969:	xor    edx,edx
    696b:	call   58c0 <waitpid@plt>
    6970:	mov    eax,DWORD PTR [rsp+0xd0]
    6977:	mov    edx,eax
    6979:	movzx  ecx,ah
    697c:	and    edx,0x7f
    697f:	or     ecx,edx
    6981:	je     6534 <main+0xab4>
    6987:	mov    esi,eax
    6989:	lea    rdi,[rip+0x15f20]        # 1c8b0 <_IO_stdin_used+0x58b0>
    6990:	xor    eax,eax
    6992:	call   15f90 <util_fatal>
    6997:	mov    QWORD PTR [rsp+0xd0],0x0
    69a3:	cmp    BYTE PTR [rax],0x2
    69a6:	jbe    8c3f <main+0x31bf>
    69ac:	xor    edi,edi
    69ae:	mov    rsi,QWORD PTR [rsp+0x48]
    69b3:	call   QWORD PTR [rax+0x228]
    69b9:	test   rax,rax
    69bc:	jne    8c66 <main+0x31e6>
    69c2:	imul   rdi,QWORD PTR [rsp+0xd0],0x18
    69cb:	call   5840 <malloc@plt>
    69d0:	mov    rbp,rax
    69d3:	test   rax,rax
    69d6:	je     8c75 <main+0x31f5>
    69dc:	mov    rdi,rax
    69df:	mov    rax,QWORD PTR [rip+0x1f4aa]        # 25e90 <p11>
    69e6:	mov    rsi,QWORD PTR [rsp+0x48]
    69eb:	call   QWORD PTR [rax+0x228]
    69f1:	mov    r13,rax
    69f4:	test   rax,rax
    69f7:	jne    8d29 <main+0x32a9>
    69fd:	cmp    QWORD PTR [rsp+0xd0],0x0
    6a06:	lea    rbx,[rip+0x15df3]        # 1c800 <_IO_stdin_used+0x5800>
    6a0d:	je     64fa <main+0xa7a>
    6a13:	nop    DWORD PTR [rax+rax*1+0x0]
    6a18:	mov    r9,QWORD PTR [rbp+0x8]
    6a1c:	sub    rsp,0x8
    6a20:	mov    rdx,QWORD PTR [rbp+0x0]
    6a24:	mov    rsi,rbx
    6a27:	mov    edi,0x1
    6a2c:	xor    eax,eax
    6a2e:	add    r13,0x1
    6a32:	add    rbp,0x18
    6a36:	movzx  r8d,BYTE PTR [r9+0x1]
    6a3b:	movzx  ecx,BYTE PTR [r9]
    6a3f:	push   QWORD PTR [rbp-0x8]
    6a42:	call   58a0 <__printf_chk@plt>
    6a47:	pop    r9
    6a49:	pop    r10
    6a4b:	cmp    r13,QWORD PTR [rsp+0xd0]
    6a53:	jb     6a18 <main+0xf98>
    6a55:	jmp    64fa <main+0xa7a>
    6a5a:	mov    ebp,DWORD PTR [rsp+0x48]
    6a5e:	jmp    5be8 <main+0x168>
    6a63:	xor    edi,edi
    6a65:	call   14f70 <test_card_detection>
    6a6a:	mov    edi,0x1
    6a6f:	call   14f70 <test_card_detection>
    6a74:	jmp    655a <main+0xada>
    6a79:	mov    rax,QWORD PTR [rip+0x1f410]        # 25e90 <p11>
    6a80:	lea    r12,[rsp+0x1c0]
    6a88:	mov    rdi,r12
    6a8b:	call   QWORD PTR [rax+0x18]
    6a8e:	mov    rbp,rax
    6a91:	test   rax,rax
    6a94:	jne    8d38 <main+0x32b8>
    6a9a:	movzx  edx,BYTE PTR [rsp+0x1c0]
    6aa2:	movzx  ecx,BYTE PTR [rsp+0x1c1]
    6aaa:	lea    rsi,[rip+0x12048]        # 18af9 <_IO_stdin_used+0x1af9>
    6ab1:	xor    eax,eax
    6ab3:	mov    edi,0x1
    6ab8:	call   58a0 <__printf_chk@plt>
    6abd:	mov    eax,0x20
    6ac2:	lea    rdx,[rsp+0x1c2]
    6aca:	nop    WORD PTR [rax+rax*1+0x0]
    6ad0:	mov    rcx,rax
    6ad3:	lea    rax,[rax-0x1]
    6ad7:	cmp    BYTE PTR [rdx+rax*1],0x20
    6adb:	jne    7460 <main+0x19e0>
    6ae1:	test   rax,rax
    6ae4:	jne    6ad0 <main+0x1050>
    6ae6:	lea    rbx,[rip+0x1ebd3]        # 256c0 <buffer.11770>
    6aed:	lea    rsi,[rip+0x1201d]        # 18b11 <_IO_stdin_used+0x1b11>
    6af4:	mov    edi,0x1
    6af9:	mov    BYTE PTR [rbx+rax*1],0x0
    6afd:	mov    rdx,rbx
    6b00:	xor    eax,eax
    6b02:	call   58a0 <__printf_chk@plt>
    6b07:	mov    eax,0x20
    6b0c:	movzx  r8d,BYTE PTR [rsp+0x211]
    6b15:	movzx  r9d,BYTE PTR [rsp+0x210]
    6b1e:	lea    rdx,[rsp+0x1f0]
    6b26:	cs nop WORD PTR [rax+rax*1+0x0]
    6b30:	mov    rcx,rax
    6b33:	lea    rax,[rax-0x1]
    6b37:	cmp    BYTE PTR [rdx+rax*1],0x20
    6b3b:	jne    7434 <main+0x19b4>
    6b41:	test   rax,rax
    6b44:	jne    6b30 <main+0x10b0>
    6b46:	mov    BYTE PTR [rbx+rax*1],0x0
    6b4a:	mov    ecx,r9d
    6b4d:	xor    eax,eax
    6b4f:	lea    rdx,[rip+0x1eb6a]        # 256c0 <buffer.11770>
    6b56:	lea    rsi,[rip+0x15d7b]        # 1c8d8 <_IO_stdin_used+0x58d8>
    6b5d:	mov    edi,0x1
    6b62:	call   58a0 <__printf_chk@plt>
    6b67:	jmp    6540 <main+0xac0>
    6b6c:	mov    r9,QWORD PTR [rip+0x1f47d]        # 25ff0 <opt_object_label>
    6b73:	mov    rbp,QWORD PTR [rip+0x1f5de]        # 26158 <opt_slot>
    6b7a:	mov    QWORD PTR [rsp+0xa8],0x0
    6b86:	mov    QWORD PTR [rsp+0xb0],0x0
    6b92:	test   r9,r9
    6b95:	je     8cad <main+0x322d>
    6b9b:	lea    r14,[rsp+0x2b0]
    6ba3:	lea    r8,[rip+0x11fc5]        # 18b6f <_IO_stdin_used+0x1b6f>
    6baa:	mov    ecx,0x21
    6baf:	xor    eax,eax
    6bb1:	mov    edx,0x1
    6bb6:	mov    esi,0x21
    6bbb:	mov    rdi,r14
    6bbe:	call   5580 <__snprintf_chk@plt>
    6bc3:	lea    rsi,[rsp+0xf0]
    6bcb:	mov    rdi,rbp
    6bce:	call   9190 <get_token_info>
    6bd3:	mov    r13,QWORD PTR [rip+0x1f406]        # 25fe0 <opt_so_pin>
    6bda:	test   r13,r13
    6bdd:	je     707d <main+0x15fd>
    6be3:	mov    QWORD PTR [rsp+0xa8],r13
    6beb:	mov    DWORD PTR [rsp+0x20],0x0
    6bf3:	xor    eax,eax
    6bf5:	or     rcx,0xffffffffffffffff
    6bf9:	mov    rdi,r13
    6bfc:	mov    rsi,r13
    6bff:	repnz scas al,BYTE PTR es:[rdi]
    6c01:	mov    rdi,rbp
    6c04:	mov    rax,rcx
    6c07:	mov    rcx,r14
    6c0a:	not    rax
    6c0d:	lea    rdx,[rax-0x1]
    6c11:	mov    rax,QWORD PTR [rip+0x1f278]        # 25e90 <p11>
    6c18:	call   QWORD PTR [rax+0x50]
    6c1b:	test   rax,rax
    6c1e:	jne    8a8b <main+0x300b>
    6c24:	lea    rdi,[rip+0x15ea5]        # 1cad0 <_IO_stdin_used+0x5ad0>
    6c2b:	call   5600 <puts@plt>
    6c30:	cmp    DWORD PTR [rsp+0x20],0x0
    6c35:	je     65ae <main+0xb2e>
    6c3b:	mov    rdi,QWORD PTR [rsp+0xa8]
    6c43:	call   5590 <free@plt>
    6c48:	jmp    65ae <main+0xb2e>
    6c4d:	mov    rdi,QWORD PTR [rip+0x1f504]        # 26158 <opt_slot>
    6c54:	lea    rsi,[rsp+0x1c0]
    6c5c:	call   9190 <get_token_info>
    6c61:	mov    rax,QWORD PTR [rsp+0x220]
    6c69:	test   ah,0x4
    6c6c:	je     8cf7 <main+0x3277>
    6c72:	and    eax,0x4
    6c75:	cmp    rax,0x1
    6c79:	sbb    DWORD PTR [rsp+0x8],0xffffffff
    6c7e:	jmp    65a3 <main+0xb23>
    6c83:	mov    rdi,QWORD PTR [rip+0x1f4ce]        # 26158 <opt_slot>
    6c8a:	call   a400 <list_mechs>
    6c8f:	jmp    6589 <main+0xb09>
    6c94:	cmp    DWORD PTR [rsp+0x58],0x0
    6c99:	jne    7742 <main+0x1cc2>
    6c9f:	cmp    DWORD PTR [rip+0x1f472],0x0        # 26118 <opt_mechanism_used>
    6ca6:	mov    rsi,QWORD PTR [rip+0x1f473]        # 26120 <opt_mechanism>
    6cad:	lea    rax,[rip+0x1c72c]        # 233e0 <p11_mechanisms>
    6cb4:	jne    7022 <main+0x15a2>
    6cba:	mov    eax,DWORD PTR [rsp+0x28]
    6cbe:	or     eax,DWORD PTR [rsp+0x2c]
    6cc2:	mov    r8,QWORD PTR [rip+0x1f337]        # 26000 <opt_object_id_len>
    6cc9:	jne    7a75 <main+0x1ff5>
    6ccf:	cmp    DWORD PTR [rsp+0x14],0x0
    6cd4:	lea    r13,[rsp+0xa0]
    6cdc:	jne    7ab7 <main+0x2037>
    6ce2:	cmp    DWORD PTR [rsp+0x10],0x0
    6ce7:	lea    r13,[rsp+0xa0]
    6cef:	jne    7b25 <main+0x20a5>
    6cf5:	cmp    DWORD PTR [rsp+0x54],0x0
    6cfa:	lea    r13,[rsp+0xa0]
    6d02:	jne    7b6a <main+0x20ea>
    6d08:	cmp    DWORD PTR [rsp+0x3c],0x0
    6d0d:	jne    7cbd <main+0x223d>
    6d13:	cmp    DWORD PTR [rsp+0x38],0x0
    6d18:	jne    7cab <main+0x222b>
    6d1e:	cmp    DWORD PTR [rsp+0x2c],0x0
    6d23:	jne    8af9 <main+0x3079>
    6d29:	cmp    DWORD PTR [rsp+0x84],0x0
    6d31:	jne    7c10 <main+0x2190>
    6d37:	cmp    DWORD PTR [rsp+0x28],0x0
    6d3c:	jne    7f1a <main+0x249a>
    6d42:	cmp    DWORD PTR [rsp+0x54],0x0
    6d47:	jne    7ef9 <main+0x2479>
    6d4d:	cmp    DWORD PTR [rsp+0x14],0x0
    6d52:	jne    7ed8 <main+0x2458>
    6d58:	cmp    DWORD PTR [rsp+0x10],0x0
    6d5d:	jne    7eb7 <main+0x2437>
    6d63:	cmp    DWORD PTR [rsp+0x80],0x0
    6d6b:	jne    7f68 <main+0x24e8>
    6d71:	cmp    DWORD PTR [rsp+0x7c],0x0
    6d76:	jne    7f3b <main+0x24bb>
    6d7c:	cmp    DWORD PTR [rsp+0x78],0x0
    6d81:	jne    80f7 <main+0x2677>
    6d87:	cmp    DWORD PTR [rsp+0x88],0x0
    6d8f:	je     6dac <main+0x132c>
    6d91:	cmp    QWORD PTR [rip+0x1f36f],0x0        # 26108 <opt_object_class_str>
    6d99:	je     8be4 <main+0x3164>
    6d9f:	mov    rdi,QWORD PTR [rsp+0x98]
    6da7:	call   12140 <write_object>
    6dac:	cmp    DWORD PTR [rsp+0x74],0x0
    6db1:	je     6de6 <main+0x1366>
    6db3:	cmp    QWORD PTR [rip+0x1f34d],0x0        # 26108 <opt_object_class_str>
    6dbb:	je     8bb5 <main+0x3135>
    6dc1:	cmp    QWORD PTR [rip+0x1f237],0x0        # 26000 <opt_object_id_len>
    6dc9:	jne    6dd9 <main+0x1359>
    6dcb:	cmp    QWORD PTR [rip+0x1f21d],0x0        # 25ff0 <opt_object_label>
    6dd3:	je     86b4 <main+0x2c34>
    6dd9:	mov    rdi,QWORD PTR [rsp+0x98]
    6de1:	call   b8b0 <read_object>
    6de6:	cmp    DWORD PTR [rsp+0x70],0x0
    6deb:	je     6e20 <main+0x13a0>
    6ded:	cmp    QWORD PTR [rip+0x1f313],0x0        # 26108 <opt_object_class_str>
    6df5:	je     8b9b <main+0x311b>
    6dfb:	cmp    QWORD PTR [rip+0x1f1fd],0x0        # 26000 <opt_object_id_len>
    6e03:	jne    6e13 <main+0x1393>
    6e05:	cmp    QWORD PTR [rip+0x1f1e3],0x0        # 25ff0 <opt_object_label>
    6e0d:	je     864b <main+0x2bcb>
    6e13:	mov    rdi,QWORD PTR [rsp+0x98]
    6e1b:	call   12bb0 <delete_object>
    6e20:	cmp    DWORD PTR [rsp+0x68],0x0
    6e25:	je     6ef5 <main+0x1475>
    6e2b:	cmp    QWORD PTR [rip+0x1f2d5],0x0        # 26108 <opt_object_class_str>
    6e33:	je     8be4 <main+0x3164>
    6e39:	mov    r8,QWORD PTR [rip+0x1f1c0]        # 26000 <opt_object_id_len>
    6e40:	test   r8,r8
    6e43:	je     8b8d <main+0x310d>
    6e49:	lea    rax,[rip+0x1f1d0]        # 26020 <new_object_id>
    6e50:	mov    rdx,QWORD PTR [rsp+0x48]
    6e55:	xor    r9d,r9d
    6e58:	mov    rbp,QWORD PTR [rsp+0x98]
    6e60:	mov    QWORD PTR [rsp+0x1c8],rax
    6e68:	mov    rsi,QWORD PTR [rip+0x1c1f1]        # 23060 <opt_object_class>
    6e6f:	lea    rcx,[rip+0x1f22a]        # 260a0 <opt_object_id>
    6e76:	mov    rax,QWORD PTR [rip+0x1f17b]        # 25ff8 <new_object_id_len>
    6e7d:	mov    rdi,rbp
    6e80:	mov    QWORD PTR [rsp+0x1c0],0x102
    6e8c:	mov    QWORD PTR [rsp+0x1d0],rax
    6e94:	call   b100 <find_object>
    6e99:	test   eax,eax
    6e9b:	je     85e5 <main+0x2b65>
    6ea1:	mov    rax,QWORD PTR [rip+0x1efe8]        # 25e90 <p11>
    6ea8:	mov    rsi,QWORD PTR [rsp+0xd0]
    6eb0:	mov    ecx,0x1
    6eb5:	mov    rdi,rbp
    6eb8:	lea    rdx,[rsp+0x1c0]
    6ec0:	call   QWORD PTR [rax+0xd0]
    6ec6:	mov    rsi,rax
    6ec9:	test   rax,rax
    6ecc:	jne    8ba9 <main+0x3129>
    6ed2:	lea    rsi,[rip+0x11ded]        # 18cc6 <_IO_stdin_used+0x1cc6>
    6ed9:	mov    edi,0x1
    6ede:	xor    eax,eax
    6ee0:	call   58a0 <__printf_chk@plt>
    6ee5:	mov    rsi,QWORD PTR [rsp+0xd0]
    6eed:	mov    rdi,rbp
    6ef0:	call   e9f0 <show_object>
    6ef5:	cmp    DWORD PTR [rsp+0x64],0x0
    6efa:	jne    7ce4 <main+0x2264>
    6f00:	cmp    DWORD PTR [rsp+0x60],0x0
    6f05:	je     7be1 <main+0x2161>
    6f0b:	cmp    DWORD PTR [rsp+0x8],0x0
    6f10:	jne    812d <main+0x26ad>
    6f16:	mov    rcx,QWORD PTR [rip+0x1e6c3]        # 255e0 <stderr@@GLIBC_2.2.5>
    6f1d:	mov    edx,0x14
    6f22:	mov    esi,0x1
    6f27:	lea    rdi,[rip+0x11de0]        # 18d0e <_IO_stdin_used+0x1d0e>
    6f2e:	call   59a0 <fwrite@plt>
    6f33:	cmp    DWORD PTR [rsp+0x5c],0x0
    6f38:	je     6f57 <main+0x14d7>
    6f3a:	mov    rcx,QWORD PTR [rip+0x1e69f]        # 255e0 <stderr@@GLIBC_2.2.5>
    6f41:	mov    edx,0x14
    6f46:	mov    esi,0x1
    6f4b:	lea    rdi,[rip+0x11dbc]        # 18d0e <_IO_stdin_used+0x1d0e>
    6f52:	call   59a0 <fwrite@plt>
    6f57:	xor    r13d,r13d
    6f5a:	cmp    DWORD PTR [rsp+0x6c],0x0
    6f5f:	je     70f1 <main+0x1671>
    6f65:	mov    r12,QWORD PTR [rip+0x1ef5c]        # 25ec8 <opt_random_bytes>
    6f6c:	mov    r13,QWORD PTR [rsp+0x98]
    6f74:	mov    rdi,r12
    6f77:	call   5840 <malloc@plt>
    6f7c:	mov    rbp,rax
    6f7f:	test   rax,rax
    6f82:	je     8ab5 <main+0x3035>
    6f88:	mov    rsi,rax
    6f8b:	mov    rax,QWORD PTR [rip+0x1eefe]        # 25e90 <p11>
    6f92:	mov    rdx,r12
    6f95:	mov    rdi,r13
    6f98:	call   QWORD PTR [rax+0x208]
    6f9e:	test   rax,rax
    6fa1:	jne    8acf <main+0x304f>
    6fa7:	mov    rdi,QWORD PTR [rip+0x1f1c2]        # 26170 <opt_output>
    6fae:	test   rdi,rdi
    6fb1:	je     84a8 <main+0x2a28>
    6fb7:	lea    rsi,[rip+0x10c7b]        # 17c39 <_IO_stdin_used+0xc39>
    6fbe:	call   5900 <fopen@plt>
    6fc3:	mov    r12,rax
    6fc6:	test   rax,rax
    6fc9:	je     8a40 <main+0x2fc0>
    6fcf:	mov    rdx,QWORD PTR [rip+0x1eef2]        # 25ec8 <opt_random_bytes>
    6fd6:	mov    rcx,r12
    6fd9:	mov    esi,0x1
    6fde:	mov    rdi,rbp
    6fe1:	call   59a0 <fwrite@plt>
    6fe6:	cmp    rax,QWORD PTR [rip+0x1eedb]        # 25ec8 <opt_random_bytes>
    6fed:	jne    8a2b <main+0x2fab>
    6ff3:	cmp    QWORD PTR [rip+0x1f175],0x0        # 26170 <opt_output>
    6ffb:	je     7005 <main+0x1585>
    6ffd:	mov    rdi,r12
    7000:	call   5670 <fclose@plt>
    7005:	mov    rdi,rbp
    7008:	xor    r13d,r13d
    700b:	call   5590 <free@plt>
    7010:	jmp    70f1 <main+0x1671>
    7015:	cmp    rsi,QWORD PTR [rax]
    7018:	je     8216 <main+0x2796>
    701e:	add    rax,0x20
    7022:	cmp    QWORD PTR [rax+0x8],0x0
    7027:	jne    7015 <main+0x1595>
    7029:	cmp    DWORD PTR [rip+0x1f150],0x0        # 26180 <verbose>
    7030:	je     6cba <main+0x123a>
    7036:	lea    rdi,[rip+0x15bc3]        # 1cc00 <_IO_stdin_used+0x5c00>
    703d:	xor    eax,eax
    703f:	call   16190 <util_warn>
    7044:	jmp    6cba <main+0x123a>
    7049:	mov    DWORD PTR [rip+0x1c009],0x1        # 2305c <opt_login_type>
    7053:	jmp    5be8 <main+0x168>
    7058:	mov    QWORD PTR [rip+0x1bffd],0x3        # 23060 <opt_object_class>
    7063:	jmp    5be8 <main+0x168>
    7068:	mov    rax,QWORD PTR [rip+0x1ef79]        # 25fe8 <opt_pin>
    706f:	test   rax,rax
    7072:	jne    66aa <main+0xc2a>
    7078:	jmp    66a3 <main+0xc23>
    707d:	test   BYTE PTR [rsp+0x151],0x1
    7085:	je     78c1 <main+0x1e41>
    708b:	mov    rax,QWORD PTR [rip+0x1edfe]        # 25e90 <p11>
    7092:	mov    rsi,QWORD PTR [rsp+0xa8]
    709a:	mov    r8,QWORD PTR [rax+0x50]
    709e:	test   rsi,rsi
    70a1:	jne    8a64 <main+0x2fe4>
    70a7:	xor    edx,edx
    70a9:	xor    esi,esi
    70ab:	mov    rcx,r14
    70ae:	mov    rdi,rbp
    70b1:	call   r8
    70b4:	test   rax,rax
    70b7:	jne    8a8b <main+0x300b>
    70bd:	lea    rdi,[rip+0x15a0c]        # 1cad0 <_IO_stdin_used+0x5ad0>
    70c4:	call   5600 <puts@plt>
    70c9:	jmp    65ae <main+0xb2e>
    70ce:	mov    edx,0xa
    70d3:	mov    rcx,QWORD PTR [rip+0x1e506]        # 255e0 <stderr@@GLIBC_2.2.5>
    70da:	mov    esi,0x1
    70df:	lea    rdi,[rip+0x11a40]        # 18b26 <_IO_stdin_used+0x1b26>
    70e6:	mov    r13d,0x1
    70ec:	call   59a0 <fwrite@plt>
    70f1:	mov    rdi,QWORD PTR [rsp+0x98]
    70f9:	test   rdi,rdi
    70fc:	je     7111 <main+0x1691>
    70fe:	mov    rax,QWORD PTR [rip+0x1ed8b]        # 25e90 <p11>
    7105:	call   QWORD PTR [rax+0x70]
    7108:	test   rax,rax
    710b:	jne    8a55 <main+0x2fd5>
    7111:	cmp    DWORD PTR [rsp+0xc],0x0
    7116:	jne    7273 <main+0x17f3>
    711c:	mov    rax,QWORD PTR [rip+0x1ed6d]        # 25e90 <p11>
    7123:	test   rax,rax
    7126:	je     712d <main+0x16ad>
    7128:	xor    edi,edi
    712a:	call   QWORD PTR [rax+0x10]
    712d:	mov    rdi,QWORD PTR [rip+0x1ed64]        # 25e98 <module>
    7134:	test   rdi,rdi
    7137:	je     6768 <main+0xce8>
    713d:	call   16590 <C_UnloadModule>
    7142:	jmp    6768 <main+0xce8>
    7147:	mov    rbp,QWORD PTR [rip+0x1f002]        # 26150 <opt_slot_description>
    714e:	test   rbp,rbp
    7151:	je     75bf <main+0x1b3f>
    7157:	xor    eax,eax
    7159:	or     rcx,0xffffffffffffffff
    715d:	mov    rdi,rbp
    7160:	xor    ebx,ebx
    7162:	repnz scas al,BYTE PTR es:[rdi]
    7164:	lea    r12,[rsp+0x1c0]
    716c:	mov    DWORD PTR [rsp+0x18],r15d
    7171:	mov    r15,rbx
    7174:	lea    r13,[rip+0x1e544]        # 256bf <temp.11811+0x3f>
    717b:	lea    r14,[rsp+0x1bf]
    7183:	mov    rax,rcx
    7186:	not    rax
    7189:	sub    rax,0x1
    718d:	mov    QWORD PTR [rsp],rax
    7191:	jmp    71a9 <main+0x1729>
    7193:	nop    DWORD PTR [rax+rax*1+0x0]
    7198:	add    r15,0x1
    719c:	cmp    r15,QWORD PTR [rip+0x1ecdd]        # 25e80 <p11_num_slots>
    71a3:	jae    76dd <main+0x1c5d>
    71a9:	mov    rax,QWORD PTR [rip+0x1ecd8]        # 25e88 <p11_slots>
    71b0:	mov    rsi,r12
    71b3:	lea    rbx,[r15*8+0x0]
    71bb:	mov    rdi,QWORD PTR [rax+r15*8]
    71bf:	mov    rax,QWORD PTR [rip+0x1ecca]        # 25e90 <p11>
    71c6:	call   QWORD PTR [rax+0x30]
    71c9:	mov    edx,0x40
    71ce:	test   rax,rax
    71d1:	jne    7198 <main+0x1718>
    71d3:	nop    DWORD PTR [rax+rax*1+0x0]
    71d8:	mov    rsi,rdx
    71db:	sub    rdx,0x1
    71df:	cmp    BYTE PTR [r12+rdx*1],0x20
    71e4:	jne    7258 <main+0x17d8>
    71e6:	test   rdx,rdx
    71e9:	jne    71d8 <main+0x1758>
    71eb:	lea    rax,[rip+0x1e4ce]        # 256c0 <buffer.11770>
    71f2:	mov    rdi,rbp
    71f5:	mov    BYTE PTR [rax+rdx*1],0x0
    71f9:	mov    rdx,QWORD PTR [rsp]
    71fd:	mov    rsi,rax
    7200:	call   55f0 <strncmp@plt>
    7205:	test   eax,eax
    7207:	jne    7198 <main+0x1718>
    7209:	mov    r15d,DWORD PTR [rsp+0x18]
    720e:	mov    rax,QWORD PTR [rip+0x1ec73]        # 25e88 <p11_slots>
    7215:	cmp    DWORD PTR [rip+0x1ef64],0x0        # 26180 <verbose>
    721c:	mov    r8,QWORD PTR [rax+rbx*1]
    7220:	mov    QWORD PTR [rip+0x1ef31],r8        # 26158 <opt_slot>
    7227:	je     657e <main+0xafe>
    722d:	mov    rcx,QWORD PTR [rip+0x1ef1c]        # 26150 <opt_slot_description>
    7234:	mov    rdi,QWORD PTR [rip+0x1e3a5]        # 255e0 <stderr@@GLIBC_2.2.5>
    723b:	lea    rdx,[rip+0x156be]        # 1c900 <_IO_stdin_used+0x5900>
    7242:	xor    eax,eax
    7244:	mov    esi,0x1
    7249:	call   59b0 <__fprintf_chk@plt>
    724e:	jmp    657e <main+0xafe>
    7253:	nop    DWORD PTR [rax+rax*1+0x0]
    7258:	add    rax,0x1
    725c:	movzx  edx,BYTE PTR [r14+rax*1]
    7261:	mov    BYTE PTR [r13+rax*1+0x0],dl
    7266:	cmp    rax,rsi
    7269:	jne    7258 <main+0x17d8>
    726b:	mov    rdx,rax
    726e:	jmp    71eb <main+0x176b>
    7273:	mov    edx,0x1e
    7278:	mov    rcx,QWORD PTR [rip+0x1e361]        # 255e0 <stderr@@GLIBC_2.2.5>
    727f:	mov    esi,0x1
    7284:	lea    rdi,[rip+0x15d4d]        # 1cfd8 <_IO_stdin_used+0x5fd8>
    728b:	mov    r12d,0x4
    7291:	lea    rbx,[rip+0x1ea48]        # 25ce0 <test_threads_datas>
    7298:	lea    rbp,[rip+0x15df9]        # 1d098 <_IO_stdin_used+0x6098>
    729f:	call   59a0 <fwrite@plt>
    72a4:	mov    ecx,DWORD PTR [rip+0x1ea16]        # 25cc0 <test_threads_num>
    72aa:	xor    esi,esi
    72ac:	xor    r9d,r9d
    72af:	xor    edx,edx
    72b1:	test   ecx,ecx
    72b3:	jle    72e5 <main+0x1865>
    72b5:	nop    DWORD PTR [rax]
    72b8:	movsxd rax,edx
    72bb:	shl    rax,0x5
    72bf:	add    rax,rbx
    72c2:	mov    edi,DWORD PTR [rax+0x10]
    72c5:	mov    rax,QWORD PTR [rax+0x18]
    72c9:	cmp    edi,0xffffffff
    72cc:	sete   dil
    72d0:	movzx  edi,dil
    72d4:	add    r9d,edi
    72d7:	cmp    rax,0x1
    72db:	adc    esi,0x0
    72de:	add    edx,0x1
    72e1:	cmp    ecx,edx
    72e3:	jne    72b8 <main+0x1838>
    72e5:	mov    rdi,QWORD PTR [rip+0x1e2f4]        # 255e0 <stderr@@GLIBC_2.2.5>
    72ec:	cmp    ecx,r9d
    72ef:	je     837f <main+0x28ff>
    72f5:	sub    ecx,r9d
    72f8:	xor    eax,eax
    72fa:	lea    rdx,[rip+0x15d3f]        # 1d040 <_IO_stdin_used+0x6040>
    7301:	xor    r14d,r14d
    7304:	mov    esi,0x1
    7309:	call   59b0 <__fprintf_chk@plt>
    730e:	cmp    DWORD PTR [rip+0x1e9ab],0x0        # 25cc0 <test_threads_num>
    7315:	jle    7360 <main+0x18e0>
    7317:	nop    WORD PTR [rax+rax*1+0x0]
    7320:	movsxd rcx,r14d
    7323:	shl    rcx,0x5
    7327:	add    rcx,rbx
    732a:	mov    rdi,QWORD PTR [rcx+0x18]
    732e:	call   8e50 <CKR2Str>
    7333:	mov    rdi,QWORD PTR [rip+0x1e2a6]        # 255e0 <stderr@@GLIBC_2.2.5>
    733a:	mov    rdx,rbp
    733d:	mov    esi,0x1
    7342:	mov    r8d,DWORD PTR [rcx+0x10]
    7346:	mov    r9,rax
    7349:	mov    ecx,r14d
    734c:	xor    eax,eax
    734e:	add    r14d,0x1
    7352:	call   59b0 <__fprintf_chk@plt>
    7357:	cmp    r14d,DWORD PTR [rip+0x1e962]        # 25cc0 <test_threads_num>
    735e:	jl     7320 <main+0x18a0>
    7360:	mov    rcx,QWORD PTR [rip+0x1e279]        # 255e0 <stderr@@GLIBC_2.2.5>
    7367:	mov    edx,0x29
    736c:	mov    esi,0x1
    7371:	lea    rdi,[rip+0x15cf0]        # 1d068 <_IO_stdin_used+0x6068>
    7378:	call   59a0 <fwrite@plt>
    737d:	mov    edi,0x1e
    7382:	call   5a00 <sleep@plt>
    7387:	sub    r12d,0x1
    738b:	jne    72a4 <main+0x1824>
    7391:	xor    r15d,r15d
    7394:	cmp    DWORD PTR [rip+0x1e925],0x0        # 25cc0 <test_threads_num>
    739b:	lea    r14,[rip+0x1e93e]        # 25ce0 <test_threads_datas>
    73a2:	lea    r12,[rip+0x1ea77]        # 25e20 <test_threads_handles>
    73a9:	lea    rbp,[rip+0x15ce8]        # 1d098 <_IO_stdin_used+0x6098>
    73b0:	jg     73ca <main+0x194a>
    73b2:	jmp    7412 <main+0x1992>
    73b4:	nop    DWORD PTR [rax+0x0]
    73b8:	call   5610 <pthread_cancel@plt>
    73bd:	add    r15,0x1
    73c1:	cmp    DWORD PTR [rip+0x1e8f8],r15d        # 25cc0 <test_threads_num>
    73c8:	jle    7412 <main+0x1992>
    73ca:	movsxd rbx,r15d
    73cd:	shl    rbx,0x5
    73d1:	add    rbx,r14
    73d4:	mov    rdi,QWORD PTR [rbx+0x18]
    73d8:	call   8e50 <CKR2Str>
    73dd:	mov    r8d,DWORD PTR [rbx+0x10]
    73e1:	mov    ecx,r15d
    73e4:	mov    rdx,rbp
    73e7:	mov    rdi,QWORD PTR [rip+0x1e1f2]        # 255e0 <stderr@@GLIBC_2.2.5>
    73ee:	mov    r9,rax
    73f1:	mov    esi,0x1
    73f6:	xor    eax,eax
    73f8:	call   59b0 <__fprintf_chk@plt>
    73fd:	mov    eax,DWORD PTR [rbx+0x10]
    7400:	mov    rdi,QWORD PTR [r12+r15*8]
    7404:	cmp    eax,0xffffffff
    7407:	jne    73b8 <main+0x1938>
    7409:	xor    esi,esi
    740b:	call   5940 <pthread_join@plt>
    7410:	jmp    73bd <main+0x193d>
    7412:	mov    rcx,QWORD PTR [rip+0x1e1c7]        # 255e0 <stderr@@GLIBC_2.2.5>
    7419:	mov    edx,0x1e
    741e:	mov    esi,0x1
    7423:	lea    rdi,[rip+0x15bf6]        # 1d020 <_IO_stdin_used+0x6020>
    742a:	call   59a0 <fwrite@plt>
    742f:	jmp    711c <main+0x169c>
    7434:	lea    rdx,[rip+0x1e284]        # 256bf <temp.11811+0x3f>
    743b:	lea    rsi,[rsp+0x1ef]
    7443:	nop    DWORD PTR [rax+rax*1+0x0]
    7448:	add    rbp,0x1
    744c:	movzx  eax,BYTE PTR [rsi+rbp*1]
    7450:	mov    BYTE PTR [rdx+rbp*1],al
    7453:	cmp    rbp,rcx
    7456:	jne    7448 <main+0x19c8>
    7458:	mov    rax,rbp
    745b:	jmp    6b46 <main+0x10c6>
    7460:	xor    eax,eax
    7462:	lea    rdx,[rip+0x1e256]        # 256bf <temp.11811+0x3f>
    7469:	lea    rdi,[rsp+0x1c1]
    7471:	nop    DWORD PTR [rax+0x0]
    7478:	add    rax,0x1
    747c:	movzx  esi,BYTE PTR [rdi+rax*1]
    7480:	mov    BYTE PTR [rdx+rax*1],sil
    7484:	cmp    rax,rcx
    7487:	jne    7478 <main+0x19f8>
    7489:	jmp    6ae6 <main+0x1066>
    748e:	mov    rax,QWORD PTR [rip+0x1eb4b]        # 25fe0 <opt_so_pin>
    7495:	mov    r13,QWORD PTR [rsp+0x98]
    749d:	mov    rdi,QWORD PTR [rip+0x1ecb4]        # 26158 <opt_slot>
    74a4:	test   rax,rax
    74a7:	je     81fb <main+0x277b>
    74ad:	mov    QWORD PTR [rsp+0xc0],rax
    74b5:	mov    rax,QWORD PTR [rip+0x1eb14]        # 25fd0 <opt_new_pin>
    74bc:	lea    rsi,[rsp+0x1c0]
    74c4:	mov    QWORD PTR [rsp+0xd0],0x0
    74d0:	mov    QWORD PTR [rsp+0xc8],rax
    74d8:	call   9190 <get_token_info>
    74dd:	mov    rbx,QWORD PTR [rsp+0x220]
    74e5:	and    ebx,0x100
    74eb:	mov    rax,rbx
    74ee:	or     rax,QWORD PTR [rsp+0xc0]
    74f6:	je     816c <main+0x26ec>
    74fc:	mov    rbp,QWORD PTR [rsp+0xc8]
    7504:	or     rbx,rbp
    7507:	je     83b2 <main+0x2932>
    750d:	mov    rax,QWORD PTR [rip+0x1e97c]        # 25e90 <p11>
    7514:	mov    r9,QWORD PTR [rax+0x60]
    7518:	test   rbp,rbp
    751b:	je     7a6d <main+0x1fed>
    7521:	xor    eax,eax
    7523:	or     rcx,0xffffffffffffffff
    7527:	mov    rdi,rbp
    752a:	repnz scas al,BYTE PTR es:[rdi]
    752c:	mov    rax,rcx
    752f:	not    rax
    7532:	lea    r8,[rax-0x1]
    7536:	mov    rsi,QWORD PTR [rsp+0xc0]
    753e:	test   rsi,rsi
    7541:	je     86fa <main+0x2c7a>
    7547:	xor    eax,eax
    7549:	or     rcx,0xffffffffffffffff
    754d:	mov    rdi,rsi
    7550:	repnz scas al,BYTE PTR es:[rdi]
    7552:	mov    rax,rcx
    7555:	not    rax
    7558:	lea    rdx,[rax-0x1]
    755c:	mov    rcx,rbp
    755f:	mov    rdi,r13
    7562:	call   r9
    7565:	mov    rsi,rax
    7568:	test   rax,rax
    756b:	jne    8aa9 <main+0x3029>
    7571:	lea    rdi,[rip+0x11682]        # 18bfa <_IO_stdin_used+0x1bfa>
    7578:	call   5600 <puts@plt>
    757d:	mov    DWORD PTR [rsp+0x44],0x0
    7585:	mov    r13d,DWORD PTR [rsp+0x44]
    758a:	jmp    6768 <main+0xce8>
    758f:	lea    rdi,[rip+0x152e2]        # 1c878 <_IO_stdin_used+0x5878>
    7596:	call   5600 <puts@plt>
    759b:	mov    rax,QWORD PTR [rip+0x1e8ee]        # 25e90 <p11>
    75a2:	mov    rdi,QWORD PTR [rip+0x1e8c7]        # 25e70 <c_initialize_args_ptr>
    75a9:	call   QWORD PTR [rax+0x8]
    75ac:	mov    rsi,rax
    75af:	test   rax,rax
    75b2:	jne    89d5 <main+0x2f55>
    75b8:	xor    edi,edi
    75ba:	call   5990 <exit@plt>
    75bf:	mov    rdi,QWORD PTR [rip+0x1eb82]        # 26148 <opt_token_label>
    75c6:	mov    QWORD PTR [rsp],rdi
    75ca:	test   rdi,rdi
    75cd:	je     7863 <main+0x1de3>
    75d3:	xor    eax,eax
    75d5:	or     rcx,0xffffffffffffffff
    75d9:	lea    r12,[rip+0x1e0e0]        # 256c0 <buffer.11770>
    75e0:	xor    ebx,ebx
    75e2:	repnz scas al,BYTE PTR es:[rdi]
    75e4:	lea    rbp,[rsp+0x1c0]
    75ec:	mov    DWORD PTR [rsp+0x24],r15d
    75f1:	mov    r15,rbx
    75f4:	lea    r13,[r12-0x1]
    75f9:	lea    r14,[rsp+0x1bf]
    7601:	mov    rax,rcx
    7604:	not    rax
    7607:	sub    rax,0x1
    760b:	mov    QWORD PTR [rsp+0x18],rax
    7610:	jmp    7616 <main+0x1b96>
    7612:	add    r15,0x1
    7616:	cmp    r15,QWORD PTR [rip+0x1e863]        # 25e80 <p11_num_slots>
    761d:	jae    8159 <main+0x26d9>
    7623:	mov    rax,QWORD PTR [rip+0x1e85e]        # 25e88 <p11_slots>
    762a:	mov    rsi,rbp
    762d:	lea    rbx,[r15*8+0x0]
    7635:	mov    rdi,QWORD PTR [rax+r15*8]
    7639:	mov    rax,QWORD PTR [rip+0x1e850]        # 25e90 <p11>
    7640:	call   QWORD PTR [rax+0x38]
    7643:	mov    edx,0x20
    7648:	test   rax,rax
    764b:	jne    7612 <main+0x1b92>
    764d:	nop    DWORD PTR [rax]
    7650:	mov    rsi,rdx
    7653:	sub    rdx,0x1
    7657:	cmp    BYTE PTR [rbp+rdx*1+0x0],0x20
    765c:	jne    7848 <main+0x1dc8>
    7662:	test   rdx,rdx
    7665:	jne    7650 <main+0x1bd0>
    7667:	mov    BYTE PTR [r12+rdx*1],0x0
    766c:	mov    rdi,QWORD PTR [rsp]
    7670:	lea    rsi,[rip+0x1e049]        # 256c0 <buffer.11770>
    7677:	mov    rdx,QWORD PTR [rsp+0x18]
    767c:	call   55f0 <strncmp@plt>
    7681:	test   eax,eax
    7683:	jne    7612 <main+0x1b92>
    7685:	mov    r15d,DWORD PTR [rsp+0x24]
    768a:	jmp    720e <main+0x178e>
    768f:	mov    rdi,rdx
    7692:	lea    rsi,[rip+0x11340]        # 189d9 <_IO_stdin_used+0x19d9>
    7699:	mov    QWORD PTR [rsp+0x48],rdx
    769e:	call   57a0 <strcmp@plt>
    76a3:	mov    rdx,QWORD PTR [rsp+0x48]
    76a8:	test   eax,eax
    76aa:	je     78b1 <main+0x1e31>
    76b0:	mov    rdi,rdx
    76b3:	lea    rsi,[rip+0x127c9]        # 19e83 <_IO_stdin_used+0x2e83>
    76ba:	mov    QWORD PTR [rsp+0x48],rdx
    76bf:	call   57a0 <strcmp@plt>
    76c4:	mov    rdx,QWORD PTR [rsp+0x48]
    76c9:	test   eax,eax
    76cb:	jne    7709 <main+0x1c89>
    76cd:	mov    QWORD PTR [rip+0x1b988],0x0        # 23060 <opt_object_class>
    76d8:	jmp    5be8 <main+0x168>
    76dd:	mov    rcx,QWORD PTR [rip+0x1ea6c]        # 26150 <opt_slot_description>
    76e4:	lea    rdx,[rip+0x11446]        # 18b31 <_IO_stdin_used+0x1b31>
    76eb:	mov    rdi,QWORD PTR [rip+0x1deee]        # 255e0 <stderr@@GLIBC_2.2.5>
    76f2:	mov    esi,0x1
    76f7:	xor    eax,eax
    76f9:	mov    r13d,0x1
    76ff:	call   59b0 <__fprintf_chk@plt>
    7704:	jmp    70f1 <main+0x1671>
    7709:	mov    rcx,rdx
    770c:	lea    rdx,[rip+0x112cd]        # 189e0 <_IO_stdin_used+0x19e0>
    7713:	mov    rdi,QWORD PTR [rip+0x1dec6]        # 255e0 <stderr@@GLIBC_2.2.5>
    771a:	mov    esi,0x1
    771f:	xor    eax,eax
    7721:	call   59b0 <__fprintf_chk@plt>
    7726:	xor    ecx,ecx
    7728:	lea    rdx,[rip+0x1dc11]        # 25340 <option_help>
    772f:	lea    rsi,[rip+0x1a60a]        # 21d40 <options>
    7736:	lea    rdi,[rip+0x10d03]        # 18440 <_IO_stdin_used+0x1440>
    773d:	call   159e0 <util_print_usage_and_die>
    7742:	mov    rdi,QWORD PTR [rip+0x1ea0f]        # 26158 <opt_slot>
    7749:	lea    rsi,[rsp+0x1c0]
    7751:	mov    QWORD PTR [rsp+0xb8],0x0
    775d:	mov    QWORD PTR [rsp+0xc0],0x0
    7769:	mov    rbp,QWORD PTR [rsp+0x98]
    7771:	mov    QWORD PTR [rsp+0xc8],0x0
    777d:	mov    QWORD PTR [rsp+0xd0],0x0
    7789:	call   9190 <get_token_info>
    778e:	test   BYTE PTR [rsp+0x221],0x1
    7796:	jne    8503 <main+0x2a83>
    779c:	mov    rsi,QWORD PTR [rip+0x1e845]        # 25fe8 <opt_pin>
    77a3:	mov    rax,QWORD PTR [rip+0x1e6e6]        # 25e90 <p11>
    77aa:	test   rsi,rsi
    77ad:	je     8880 <main+0x2e00>
    77b3:	mov    r8,QWORD PTR [rax+0x58]
    77b7:	xor    eax,eax
    77b9:	or     rcx,0xffffffffffffffff
    77bd:	mov    rdi,rsi
    77c0:	repnz scas al,BYTE PTR es:[rdi]
    77c2:	mov    rax,rcx
    77c5:	not    rax
    77c8:	lea    rdx,[rax-0x1]
    77cc:	mov    rdi,rbp
    77cf:	call   r8
    77d2:	mov    rdi,QWORD PTR [rsp+0xb8]
    77da:	mov    rbp,rax
    77dd:	test   rdi,rdi
    77e0:	je     77fe <main+0x1d7e>
    77e2:	mov    rdx,QWORD PTR [rsp+0xc8]
    77ea:	xor    esi,esi
    77ec:	call   56e0 <memset@plt>
    77f1:	mov    rdi,QWORD PTR [rsp+0xb8]
    77f9:	call   5590 <free@plt>
    77fe:	mov    rdi,QWORD PTR [rsp+0xc0]
    7806:	test   rdi,rdi
    7809:	je     7827 <main+0x1da7>
    780b:	mov    rdx,QWORD PTR [rsp+0xd0]
    7813:	xor    esi,esi
    7815:	call   56e0 <memset@plt>
    781a:	mov    rdi,QWORD PTR [rsp+0xc0]
    7822:	call   5590 <free@plt>
    7827:	test   rbp,rbp
    782a:	jne    89ac <main+0x2f2c>
    7830:	lea    rdi,[rip+0x153a1]        # 1cbd8 <_IO_stdin_used+0x5bd8>
    7837:	xor    r13d,r13d
    783a:	call   5600 <puts@plt>
    783f:	jmp    70f1 <main+0x1671>
    7844:	nop    DWORD PTR [rax+0x0]
    7848:	add    rax,0x1
    784c:	movzx  edx,BYTE PTR [r14+rax*1]
    7851:	mov    BYTE PTR [r13+rax*1+0x0],dl
    7856:	cmp    rax,rsi
    7859:	jne    7848 <main+0x1dc8>
    785b:	mov    rdx,rax
    785e:	jmp    7667 <main+0x1be7>
    7863:	cmp    DWORD PTR [rip+0x1e8ce],0x0        # 26138 <opt_slot_index_set>
    786a:	je     852d <main+0x2aad>
    7870:	mov    rcx,QWORD PTR [rip+0x1e8c9]        # 26140 <opt_slot_index>
    7877:	mov    rdi,QWORD PTR [rip+0x1dd62]        # 255e0 <stderr@@GLIBC_2.2.5>
    787e:	cmp    rax,rcx
    7881:	jbe    881b <main+0x2d9b>
    7887:	mov    rax,QWORD PTR [rip+0x1e5fa]        # 25e88 <p11_slots>
    788e:	lea    rdx,[rip+0x150bb]        # 1c950 <_IO_stdin_used+0x5950>
    7895:	mov    esi,0x1
    789a:	mov    r8,QWORD PTR [rax+rcx*8]
    789e:	xor    eax,eax
    78a0:	mov    QWORD PTR [rip+0x1e8b1],r8        # 26158 <opt_slot>
    78a7:	call   59b0 <__fprintf_chk@plt>
    78ac:	jmp    657e <main+0xafe>
    78b1:	mov    QWORD PTR [rip+0x1b7a4],0x2        # 23060 <opt_object_class>
    78bc:	jmp    5be8 <main+0x168>
    78c1:	lea    rsi,[rip+0x112b0]        # 18b78 <_IO_stdin_used+0x1b78>
    78c8:	mov    edi,0x1
    78cd:	xor    eax,eax
    78cf:	call   58a0 <__printf_chk@plt>
    78d4:	lea    r13,[rsp+0xa8]
    78dc:	lea    r8,[rsp+0xb0]
    78e4:	mov    rdx,QWORD PTR [rip+0x1dcc5]        # 255b0 <stdin@@GLIBC_2.2.5>
    78eb:	mov    rsi,r8
    78ee:	mov    rdi,r13
    78f1:	mov    QWORD PTR [rsp],r8
    78f5:	call   16290 <util_getpass>
    78fa:	mov    r8,QWORD PTR [rsp]
    78fe:	test   eax,eax
    7900:	js     8c01 <main+0x3181>
    7906:	mov    rsi,QWORD PTR [rsp+0xa8]
    790e:	test   rsi,rsi
    7911:	je     8c0f <main+0x318f>
    7917:	cmp    BYTE PTR [rsi],0x0
    791a:	je     8c0f <main+0x318f>
    7920:	xor    eax,eax
    7922:	or     rcx,0xffffffffffffffff
    7926:	mov    rdi,rsi
    7929:	repnz scas al,BYTE PTR es:[rdi]
    792b:	mov    rax,rcx
    792e:	not    rax
    7931:	sub    rax,0x1
    7935:	cmp    rax,0x14
    7939:	ja     8c0f <main+0x318f>
    793f:	lea    rbx,[rsp+0x290]
    7947:	mov    edx,0x15
    794c:	mov    QWORD PTR [rsp],r8
    7950:	mov    rdi,rbx
    7953:	call   16840 <strlcpy>
    7958:	mov    rdi,QWORD PTR [rsp+0xa8]
    7960:	call   5590 <free@plt>
    7965:	lea    rsi,[rip+0x1513c]        # 1caa8 <_IO_stdin_used+0x5aa8>
    796c:	mov    edi,0x1
    7971:	xor    eax,eax
    7973:	mov    QWORD PTR [rsp+0xa8],0x0
    797f:	call   58a0 <__printf_chk@plt>
    7984:	mov    r8,QWORD PTR [rsp]
    7988:	mov    rdx,QWORD PTR [rip+0x1dc21]        # 255b0 <stdin@@GLIBC_2.2.5>
    798f:	mov    rdi,r13
    7992:	mov    rsi,r8
    7995:	call   16290 <util_getpass>
    799a:	test   eax,eax
    799c:	js     8c01 <main+0x3181>
    79a2:	mov    r13,QWORD PTR [rsp+0xa8]
    79aa:	test   r13,r13
    79ad:	je     79c9 <main+0x1f49>
    79af:	cmp    BYTE PTR [r13+0x0],0x0
    79b4:	je     79c9 <main+0x1f49>
    79b6:	mov    rsi,r13
    79b9:	mov    rdi,rbx
    79bc:	call   57a0 <strcmp@plt>
    79c1:	test   eax,eax
    79c3:	je     6bf3 <main+0x1173>
    79c9:	lea    rdi,[rip+0x111e4]        # 18bb4 <_IO_stdin_used+0x1bb4>
    79d0:	xor    eax,eax
    79d2:	call   15f90 <util_fatal>
    79d7:	cmp    ebx,0x2
    79da:	je     8994 <main+0x2f14>
    79e0:	add    ebx,0x1
    79e3:	je     897c <main+0x2efc>
    79e9:	mov    rdx,QWORD PTR [rip+0x1dbc0]        # 255b0 <stdin@@GLIBC_2.2.5>
    79f0:	mov    rsi,QWORD PTR [rsp+0x48]
    79f5:	lea    rdi,[rsp+0xc0]
    79fd:	call   16290 <util_getpass>
    7a02:	test   eax,eax
    7a04:	js     6763 <main+0xce3>
    7a0a:	mov    rsi,QWORD PTR [rsp+0xc0]
    7a12:	test   rsi,rsi
    7a15:	je     6763 <main+0xce3>
    7a1b:	cmp    BYTE PTR [rsi],0x0
    7a1e:	je     6763 <main+0xce3>
    7a24:	or     rdx,0xffffffffffffffff
    7a28:	xor    eax,eax
    7a2a:	mov    rdi,rsi
    7a2d:	mov    rcx,rdx
    7a30:	repnz scas al,BYTE PTR es:[rdi]
    7a32:	mov    rdx,rcx
    7a35:	not    rdx
    7a38:	lea    rax,[rdx-0x1]
    7a3c:	cmp    rax,0x14
    7a40:	ja     6763 <main+0xce3>
    7a46:	lea    rdi,[rsp+0x290]
    7a4e:	mov    ecx,0x15
    7a53:	call   57b0 <__memcpy_chk@plt>
    7a58:	mov    QWORD PTR [rsp+0xc0],rax
    7a60:	mov    rax,QWORD PTR [rsp+0x220]
    7a68:	jmp    66ce <main+0xc4e>
    7a6d:	xor    r8d,r8d
    7a70:	jmp    7536 <main+0x1ab6>
    7a75:	test   r8,r8
    7a78:	lea    rcx,[rip+0x1e621]        # 260a0 <opt_object_id>
    7a7f:	mov    eax,0x0
    7a84:	mov    rdi,QWORD PTR [rsp+0x98]
    7a8c:	cmove  rcx,rax
    7a90:	lea    r13,[rsp+0xa0]
    7a98:	xor    r9d,r9d
    7a9b:	mov    esi,0x3
    7aa0:	mov    rdx,r13
    7aa3:	call   b100 <find_object>
    7aa8:	test   eax,eax
    7aaa:	je     8ac3 <main+0x3043>
    7ab0:	cmp    DWORD PTR [rsp+0x14],0x0
    7ab5:	je     7b1e <main+0x209e>
    7ab7:	mov    r8,QWORD PTR [rip+0x1e542]        # 26000 <opt_object_id_len>
    7abe:	xor    ebp,ebp
    7ac0:	mov    rdx,r13
    7ac3:	lea    rbx,[rip+0x1e5d6]        # 260a0 <opt_object_id>
    7aca:	mov    rcx,rbp
    7acd:	mov    rdi,QWORD PTR [rsp+0x98]
    7ad5:	mov    esi,0x3
    7ada:	test   r8,r8
    7add:	cmovne rcx,rbx
    7ae1:	xor    r9d,r9d
    7ae4:	call   b100 <find_object>
    7ae9:	test   eax,eax
    7aeb:	jne    7b1e <main+0x209e>
    7aed:	mov    r8,QWORD PTR [rip+0x1e50c]        # 26000 <opt_object_id_len>
    7af4:	mov    rcx,rbp
    7af7:	mov    rdx,r13
    7afa:	mov    esi,0x4
    7aff:	mov    rdi,QWORD PTR [rsp+0x98]
    7b07:	test   r8,r8
    7b0a:	cmovne rcx,rbx
    7b0e:	xor    r9d,r9d
    7b11:	call   b100 <find_object>
    7b16:	test   eax,eax
    7b18:	je     89c9 <main+0x2f49>
    7b1e:	cmp    DWORD PTR [rsp+0x10],0x0
    7b23:	je     7b5f <main+0x20df>
    7b25:	mov    r8,QWORD PTR [rip+0x1e4d4]        # 26000 <opt_object_id_len>
    7b2c:	mov    eax,0x0
    7b31:	mov    rdx,r13
    7b34:	lea    rcx,[rip+0x1e565]        # 260a0 <opt_object_id>
    7b3b:	mov    rdi,QWORD PTR [rsp+0x98]
    7b43:	mov    esi,0x4
    7b48:	test   r8,r8
    7b4b:	cmove  rcx,rax
    7b4f:	xor    r9d,r9d
    7b52:	call   b100 <find_object>
    7b57:	test   eax,eax
    7b59:	je     8bd8 <main+0x3158>
    7b5f:	cmp    DWORD PTR [rsp+0x54],0x0
    7b64:	je     6d08 <main+0x1288>
    7b6a:	mov    r8,QWORD PTR [rip+0x1e48f]        # 26000 <opt_object_id_len>
    7b71:	xor    ebp,ebp
    7b73:	mov    rdx,r13
    7b76:	lea    rbx,[rip+0x1e523]        # 260a0 <opt_object_id>
    7b7d:	mov    rcx,rbp
    7b80:	mov    rdi,QWORD PTR [rsp+0x98]
    7b88:	mov    esi,0x2
    7b8d:	test   r8,r8
    7b90:	cmovne rcx,rbx
    7b94:	xor    r9d,r9d
    7b97:	call   b100 <find_object>
    7b9c:	test   eax,eax
    7b9e:	jne    6d08 <main+0x1288>
    7ba4:	mov    r8,QWORD PTR [rip+0x1e455]        # 26000 <opt_object_id_len>
    7bab:	mov    rcx,rbp
    7bae:	mov    rdx,r13
    7bb1:	mov    esi,0x1
    7bb6:	mov    rdi,QWORD PTR [rsp+0x98]
    7bbe:	test   r8,r8
    7bc1:	cmovne rcx,rbx
    7bc5:	xor    r9d,r9d
    7bc8:	call   b100 <find_object>
    7bcd:	test   eax,eax
    7bcf:	jne    6d08 <main+0x1288>
    7bd5:	lea    rdi,[rip+0x1506c]        # 1cc48 <_IO_stdin_used+0x5c48>
    7bdc:	call   15f90 <util_fatal>
    7be1:	cmp    DWORD PTR [rsp+0x5c],0x0
    7be6:	je     6f57 <main+0x14d7>
    7bec:	cmp    DWORD PTR [rsp+0x8],0x0
    7bf1:	je     6f3a <main+0x14ba>
    7bf7:	mov    rsi,QWORD PTR [rsp+0x98]
    7bff:	mov    rdi,QWORD PTR [rip+0x1e552]        # 26158 <opt_slot>
    7c06:	call   11b90 <test_ec>
    7c0b:	jmp    6f57 <main+0x14d7>
    7c10:	mov    r13,QWORD PTR [rsp+0x98]
    7c18:	mov    rax,QWORD PTR [rip+0x1e271]        # 25e90 <p11>
    7c1f:	xor    esi,esi
    7c21:	xor    edx,edx
    7c23:	mov    rbx,QWORD PTR [rip+0x1b436]        # 23060 <opt_object_class>
    7c2a:	lea    rbp,[rsp+0xc8]
    7c32:	mov    rdi,r13
    7c35:	call   QWORD PTR [rax+0xd8]
    7c3b:	mov    r12,QWORD PTR [rsp+0x48]
    7c40:	mov    rsi,rax
    7c43:	test   rax,rax
    7c46:	jne    8b32 <main+0x30b2>
    7c4c:	nop    DWORD PTR [rax+0x0]
    7c50:	mov    rax,QWORD PTR [rip+0x1e239]        # 25e90 <p11>
    7c57:	mov    rcx,r12
    7c5a:	mov    rsi,rbp
    7c5d:	mov    rdi,r13
    7c60:	mov    edx,0x1
    7c65:	call   QWORD PTR [rax+0xe0]
    7c6b:	test   rax,rax
    7c6e:	jne    8b23 <main+0x30a3>
    7c74:	cmp    QWORD PTR [rsp+0xd0],0x0
    7c7d:	je     7ccf <main+0x224f>
    7c7f:	cmp    ebx,0xffffffff
    7c82:	je     7c99 <main+0x2219>
    7c84:	mov    rsi,QWORD PTR [rsp+0xc8]
    7c8c:	mov    rdi,r13
    7c8f:	call   b340 <getCLASS>
    7c94:	cmp    rbx,rax
    7c97:	jne    7c50 <main+0x21d0>
    7c99:	mov    rsi,QWORD PTR [rsp+0xc8]
    7ca1:	mov    rdi,r13
    7ca4:	call   e9f0 <show_object>
    7ca9:	jmp    7c50 <main+0x21d0>
    7cab:	mov    rdi,QWORD PTR [rsp+0x98]
    7cb3:	call   d590 <wrap_key>
    7cb8:	jmp    6d1e <main+0x129e>
    7cbd:	mov    rdi,QWORD PTR [rsp+0x98]
    7cc5:	call   10580 <unwrap_key>
    7cca:	jmp    6d13 <main+0x1293>
    7ccf:	mov    rax,QWORD PTR [rip+0x1e1ba]        # 25e90 <p11>
    7cd6:	mov    rdi,r13
    7cd9:	call   QWORD PTR [rax+0xe8]
    7cdf:	jmp    6d37 <main+0x12b7>
    7ce4:	mov    rbx,QWORD PTR [rsp+0x98]
    7cec:	mov    rdi,rbx
    7cef:	call   9bf0 <test_random>
    7cf4:	mov    rdi,rbx
    7cf7:	mov    ebp,eax
    7cf9:	call   aa50 <test_digest>
    7cfe:	mov    rdi,rbx
    7d01:	add    ebp,eax
    7d03:	call   d9a0 <test_signature>
    7d08:	mov    rdi,rbx
    7d0b:	lea    r13d,[rbp+rax*1+0x0]
    7d10:	call   12900 <test_verify>
    7d15:	mov    rsi,QWORD PTR [rsp+0x48]
    7d1a:	mov    rdi,rbx
    7d1d:	mov    QWORD PTR [rsp+0xc0],0x0
    7d29:	add    r13d,eax
    7d2c:	mov    rax,QWORD PTR [rip+0x1e15d]        # 25e90 <p11>
    7d33:	call   QWORD PTR [rax+0x80]
    7d39:	mov    rbp,rax
    7d3c:	test   rax,rax
    7d3f:	jne    8aea <main+0x306a>
    7d45:	test   BYTE PTR [rsp+0xd8],0x3
    7d4d:	je     851f <main+0x2a9f>
    7d53:	mov    rdi,QWORD PTR [rsp+0xd0]
    7d5b:	lea    rsi,[rsp+0xc0]
    7d63:	mov    edx,0x200
    7d68:	call   91c0 <get_mechanisms>
    7d6d:	test   rax,rax
    7d70:	je     8607 <main+0x2b87>
    7d76:	lea    rdi,[rip+0x1517b]        # 1cef8 <_IO_stdin_used+0x5ef8>
    7d7d:	lea    r12,[rsp+0xb8]
    7d85:	call   5600 <puts@plt>
    7d8a:	lea    r14,[rsp+0xc8]
    7d92:	jmp    7e21 <main+0x23a1>
    7d97:	mov    rsi,QWORD PTR [rsp+0xb8]
    7d9f:	mov    rdi,rbx
    7da2:	call   be40 <getDECRYPT>
    7da7:	test   al,al
    7da9:	je     811c <main+0x269c>
    7daf:	mov    rsi,QWORD PTR [rsp+0xb8]
    7db7:	mov    rdx,r14
    7dba:	mov    rdi,rbx
    7dbd:	call   bd10 <getID>
    7dc2:	mov    r15,rax
    7dc5:	test   rax,rax
    7dc8:	je     8701 <main+0x2c81>
    7dce:	xor    r9d,r9d
    7dd1:	mov    rcx,rax
    7dd4:	mov    esi,0x2
    7dd9:	mov    rdi,rbx
    7ddc:	mov    r8,QWORD PTR [rsp+0xc8]
    7de4:	lea    rdx,[rsp+0xb0]
    7dec:	call   b100 <find_object>
    7df1:	mov    rdi,r15
    7df4:	mov    DWORD PTR [rsp],eax
    7df7:	call   5590 <free@plt>
    7dfc:	mov    eax,DWORD PTR [rsp]
    7dff:	test   eax,eax
    7e01:	je     84f2 <main+0x2a72>
    7e07:	mov    edi,0xa
    7e0c:	call   55a0 <putchar@plt>
    7e11:	lea    rdi,[rip+0x15130]        # 1cf48 <_IO_stdin_used+0x5f48>
    7e18:	call   5600 <puts@plt>
    7e1d:	add    rbp,0x1
    7e21:	xor    r8d,r8d
    7e24:	xor    ecx,ecx
    7e26:	mov    r9d,ebp
    7e29:	mov    rdx,r12
    7e2c:	mov    esi,0x3
    7e31:	mov    rdi,rbx
    7e34:	call   b100 <find_object>
    7e39:	test   eax,eax
    7e3b:	je     84b4 <main+0x2a34>
    7e41:	mov    rdx,rbp
    7e44:	lea    rsi,[rip+0x10e9c]        # 18ce7 <_IO_stdin_used+0x1ce7>
    7e4b:	mov    edi,0x1
    7e50:	xor    eax,eax
    7e52:	call   58a0 <__printf_chk@plt>
    7e57:	mov    rsi,QWORD PTR [rsp+0xb8]
    7e5f:	mov    rdi,rbx
    7e62:	call   d880 <getLABEL.constprop.0>
    7e67:	mov    r15,rax
    7e6a:	test   rax,rax
    7e6d:	je     7e8d <main+0x240d>
    7e6f:	mov    rdx,rax
    7e72:	mov    edi,0x1
    7e77:	lea    rsi,[rip+0x10090]        # 17f0e <_IO_stdin_used+0xf0e>
    7e7e:	xor    eax,eax
    7e80:	call   58a0 <__printf_chk@plt>
    7e85:	mov    rdi,r15
    7e88:	call   5590 <free@plt>
    7e8d:	mov    rsi,QWORD PTR [rsp+0xb8]
    7e95:	mov    rdi,rbx
    7e98:	call   b3e0 <getKEY_TYPE>
    7e9d:	test   rax,rax
    7ea0:	je     7d97 <main+0x2317>
    7ea6:	lea    rdi,[rip+0x10021]        # 17ece <_IO_stdin_used+0xece>
    7ead:	call   5600 <puts@plt>
    7eb2:	jmp    7e1d <main+0x239d>
    7eb7:	mov    rdx,QWORD PTR [rsp+0xa0]
    7ebf:	mov    rsi,QWORD PTR [rsp+0x98]
    7ec7:	mov    rdi,QWORD PTR [rip+0x1e28a]        # 26158 <opt_slot>
    7ece:	call   c930 <encrypt_data>
    7ed3:	jmp    6d63 <main+0x12e3>
    7ed8:	mov    rdx,QWORD PTR [rsp+0xa0]
    7ee0:	mov    rsi,QWORD PTR [rsp+0x98]
    7ee8:	mov    rdi,QWORD PTR [rip+0x1e269]        # 26158 <opt_slot>
    7eef:	call   ce20 <decrypt_data>
    7ef4:	jmp    6d58 <main+0x12d8>
    7ef9:	mov    rdx,QWORD PTR [rsp+0xa0]
    7f01:	mov    rsi,QWORD PTR [rsp+0x98]
    7f09:	mov    rdi,QWORD PTR [rip+0x1e248]        # 26158 <opt_slot>
    7f10:	call   140d0 <verify_signature>
    7f15:	jmp    6d4d <main+0x12cd>
    7f1a:	mov    rdx,QWORD PTR [rsp+0xa0]
    7f22:	mov    rsi,QWORD PTR [rsp+0x98]
    7f2a:	mov    rdi,QWORD PTR [rip+0x1e227]        # 26158 <opt_slot>
    7f31:	call   13bf0 <sign_data>
    7f36:	jmp    6d42 <main+0x12c2>
    7f3b:	mov    r8,QWORD PTR [rip+0x1e066]        # 25fa8 <opt_key_type>
    7f42:	mov    rcx,QWORD PTR [rsp+0x48]
    7f47:	lea    rdx,[rsp+0xc8]
    7f4f:	mov    rsi,QWORD PTR [rsp+0x98]
    7f57:	mov    rdi,QWORD PTR [rip+0x1e1fa]        # 26158 <opt_slot>
    7f5e:	call   10b60 <gen_keypair>
    7f63:	jmp    6d7c <main+0x12fc>
    7f68:	cmp    DWORD PTR [rip+0x1e1a9],0x0        # 26118 <opt_mechanism_used>
    7f6f:	mov    r13,QWORD PTR [rsp+0x98]
    7f77:	je     85a9 <main+0x2b29>
    7f7d:	mov    rdi,QWORD PTR [rip+0x1e19c]        # 26120 <opt_mechanism>
    7f84:	lea    rax,[rip+0x1b455]        # 233e0 <p11_mechanisms>
    7f8b:	jmp    7f96 <main+0x2516>
    7f8d:	cmp    rdi,QWORD PTR [rax]
    7f90:	je     7fa7 <main+0x2527>
    7f92:	add    rax,0x20
    7f96:	mov    rcx,QWORD PTR [rax+0x8]
    7f9a:	test   rcx,rcx
    7f9d:	jne    7f8d <main+0x250d>
    7f9f:	call   a3c0 <p11_mechanism_to_name.part.0>
    7fa4:	mov    rcx,rax
    7fa7:	mov    rdi,QWORD PTR [rip+0x1d632]        # 255e0 <stderr@@GLIBC_2.2.5>
    7fae:	lea    rdx,[rip+0x10cf6]        # 18cab <_IO_stdin_used+0x1cab>
    7fb5:	mov    esi,0x1
    7fba:	xor    eax,eax
    7fbc:	call   59b0 <__fprintf_chk@plt>
    7fc1:	mov    rax,QWORD PTR [rip+0x1e158]        # 26120 <opt_mechanism>
    7fc8:	pxor   xmm0,xmm0
    7fcc:	mov    rdi,r13
    7fcf:	mov    rsi,QWORD PTR [rsp+0x48]
    7fd4:	movups XMMWORD PTR [rsp+0xd8],xmm0
    7fdc:	mov    QWORD PTR [rsp+0xd0],rax
    7fe4:	mov    rax,QWORD PTR [rip+0x1dea5]        # 25e90 <p11>
    7feb:	call   QWORD PTR [rax+0x130]
    7ff1:	mov    rsi,rax
    7ff4:	test   rax,rax
    7ff7:	jne    8a1f <main+0x2f9f>
    7ffd:	mov    rdi,QWORD PTR [rip+0x1e174]        # 26178 <opt_input>
    8004:	test   rdi,rdi
    8007:	je     83ab <main+0x292b>
    800d:	xor    esi,esi
    800f:	xor    eax,eax
    8011:	call   58f0 <open@plt>
    8016:	mov    ebp,eax
    8018:	test   eax,eax
    801a:	js     89e1 <main+0x2f61>
    8020:	lea    r14,[rsp+0x2b0]
    8028:	jmp    804f <main+0x25cf>
    802a:	nop    WORD PTR [rax+rax*1+0x0]
    8030:	movsxd rdx,eax
    8033:	mov    rax,QWORD PTR [rip+0x1de56]        # 25e90 <p11>
    803a:	mov    rsi,r14
    803d:	mov    rdi,r13
    8040:	call   QWORD PTR [rax+0x140]
    8046:	test   rax,rax
    8049:	jne    89f6 <main+0x2f76>
    804f:	mov    edx,0x40
    8054:	mov    rsi,r14
    8057:	mov    edi,ebp
    8059:	call   5740 <read@plt>
    805e:	test   eax,eax
    8060:	jg     8030 <main+0x25b0>
    8062:	test   ebp,ebp
    8064:	jne    85d9 <main+0x2b59>
    806a:	mov    rax,QWORD PTR [rip+0x1de1f]        # 25e90 <p11>
    8071:	mov    rsi,r14
    8074:	mov    rdi,r13
    8077:	mov    QWORD PTR [rsp+0xc8],0x40
    8083:	lea    rdx,[rsp+0xc8]
    808b:	call   QWORD PTR [rax+0x150]
    8091:	mov    rsi,rax
    8094:	test   rax,rax
    8097:	jne    8b81 <main+0x3101>
    809d:	mov    rdi,QWORD PTR [rip+0x1e0cc]        # 26170 <opt_output>
    80a4:	test   rdi,rdi
    80a7:	je     8682 <main+0x2c02>
    80ad:	mov    edx,0x180
    80b2:	mov    esi,0x241
    80b7:	xor    eax,eax
    80b9:	call   58f0 <open@plt>
    80be:	mov    ebp,eax
    80c0:	test   eax,eax
    80c2:	js     8bc3 <main+0x3143>
    80c8:	mov    rdx,QWORD PTR [rsp+0xc8]
    80d0:	mov    rsi,r14
    80d3:	mov    edi,eax
    80d5:	call   5650 <write@plt>
    80da:	test   eax,eax
    80dc:	js     869f <main+0x2c1f>
    80e2:	cmp    ebp,0x1
    80e5:	je     6d71 <main+0x12f1>
    80eb:	mov    edi,ebp
    80ed:	call   5700 <close@plt>
    80f2:	jmp    6d71 <main+0x12f1>
    80f7:	mov    rcx,QWORD PTR [rip+0x1deaa]        # 25fa8 <opt_key_type>
    80fe:	mov    rdx,QWORD PTR [rsp+0x48]
    8103:	mov    rsi,QWORD PTR [rsp+0x98]
    810b:	mov    rdi,QWORD PTR [rip+0x1e046]        # 26158 <opt_slot>
    8112:	call   14680 <gen_key.constprop.0>
    8117:	jmp    6d87 <main+0x1307>
    811c:	lea    rdi,[rip+0x14dfd]        # 1cf20 <_IO_stdin_used+0x5f20>
    8123:	call   5600 <puts@plt>
    8128:	jmp    7e1d <main+0x239d>
    812d:	mov    rsi,QWORD PTR [rsp+0x98]
    8135:	mov    rdi,QWORD PTR [rip+0x1e01c]        # 26158 <opt_slot>
    813c:	call   12e40 <test_kpgen_certwrite>
    8141:	cmp    DWORD PTR [rsp+0x5c],0x0
    8146:	mov    QWORD PTR [rsp+0x98],rax
    814e:	jne    7bf7 <main+0x2177>
    8154:	jmp    6f57 <main+0x14d7>
    8159:	mov    rcx,QWORD PTR [rip+0x1dfe8]        # 26148 <opt_token_label>
    8160:	lea    rdx,[rip+0x147c1]        # 1c928 <_IO_stdin_used+0x5928>
    8167:	jmp    76eb <main+0x1c6b>
    816c:	lea    rsi,[rip+0x1497d]        # 1caf0 <_IO_stdin_used+0x5af0>
    8173:	mov    edi,0x1
    8178:	xor    eax,eax
    817a:	call   58a0 <__printf_chk@plt>
    817f:	mov    rdx,QWORD PTR [rip+0x1d42a]        # 255b0 <stdin@@GLIBC_2.2.5>
    8186:	mov    rsi,QWORD PTR [rsp+0x48]
    818b:	lea    rdi,[rsp+0xc0]
    8193:	call   16290 <util_getpass>
    8198:	test   eax,eax
    819a:	js     7585 <main+0x1b05>
    81a0:	mov    rsi,QWORD PTR [rsp+0xc0]
    81a8:	test   rsi,rsi
    81ab:	je     7585 <main+0x1b05>
    81b1:	cmp    BYTE PTR [rsi],0x0
    81b4:	je     7585 <main+0x1b05>
    81ba:	or     rdx,0xffffffffffffffff
    81be:	xor    eax,eax
    81c0:	mov    rdi,rsi
    81c3:	mov    rcx,rdx
    81c6:	repnz scas al,BYTE PTR es:[rdi]
    81c8:	mov    rdx,rcx
    81cb:	not    rdx
    81ce:	lea    rax,[rdx-0x1]
    81d2:	cmp    rax,0x14
    81d6:	ja     7585 <main+0x1b05>
    81dc:	lea    rdi,[rsp+0x290]
    81e4:	mov    ecx,0x15
    81e9:	call   57b0 <__memcpy_chk@plt>
    81ee:	mov    QWORD PTR [rsp+0xc0],rax
    81f6:	jmp    74fc <main+0x1a7c>
    81fb:	mov    rax,QWORD PTR [rip+0x1dde6]        # 25fe8 <opt_pin>
    8202:	jmp    74ad <main+0x1a2d>
    8207:	xor    edx,edx
    8209:	jmp    673a <main+0xcba>
    820e:	xor    r8d,r8d
    8211:	jmp    6714 <main+0xc94>
    8216:	movzx  ebx,WORD PTR [rax+0x18]
    821a:	mov    eax,DWORD PTR [rsp+0x28]
    821e:	or     eax,DWORD PTR [rsp+0x2c]
    8222:	je     8321 <main+0x28a1>
    8228:	mov    r8,QWORD PTR [rip+0x1ddd1]        # 26000 <opt_object_id_len>
    822f:	test   bx,bx
    8232:	je     7a75 <main+0x1ff5>
    8238:	test   r8,r8
    823b:	mov    eax,0x0
    8240:	lea    rcx,[rip+0x1de59]        # 260a0 <opt_object_id>
    8247:	mov    rdi,QWORD PTR [rsp+0x98]
    824f:	cmove  rcx,rax
    8253:	lea    r13,[rsp+0xa0]
    825b:	movzx  ebp,bx
    825e:	mov    rdx,r13
    8261:	mov    esi,ebp
    8263:	call   c770 <find_object_flags.constprop.0>
    8268:	cmp    DWORD PTR [rsp+0x14],0x0
    826d:	jne    82ca <main+0x284a>
    826f:	cmp    DWORD PTR [rsp+0x10],0x0
    8274:	jne    8343 <main+0x28c3>
    827a:	cmp    DWORD PTR [rsp+0x54],0x0
    827f:	je     6d08 <main+0x1288>
    8285:	mov    r8,QWORD PTR [rip+0x1dd74]        # 26000 <opt_object_id_len>
    828c:	mov    eax,0x0
    8291:	mov    rdx,r13
    8294:	mov    esi,ebp
    8296:	lea    rcx,[rip+0x1de03]        # 260a0 <opt_object_id>
    829d:	mov    rdi,QWORD PTR [rsp+0x98]
    82a5:	test   r8,r8
    82a8:	cmove  rcx,rax
    82ac:	call   c770 <find_object_flags.constprop.0>
    82b1:	jmp    6d08 <main+0x1288>
    82b6:	lea    r13,[rsp+0xa0]
    82be:	movzx  ebp,bx
    82c1:	test   bx,bx
    82c4:	je     7ab7 <main+0x2037>
    82ca:	mov    r8,QWORD PTR [rip+0x1dd2f]        # 26000 <opt_object_id_len>
    82d1:	mov    eax,0x0
    82d6:	mov    rdx,r13
    82d9:	mov    esi,ebp
    82db:	lea    rcx,[rip+0x1ddbe]        # 260a0 <opt_object_id>
    82e2:	mov    rdi,QWORD PTR [rsp+0x98]
    82ea:	test   r8,r8
    82ed:	cmove  rcx,rax
    82f1:	call   c770 <find_object_flags.constprop.0>
    82f6:	cmp    DWORD PTR [rsp+0x10],0x0
    82fb:	jne    8343 <main+0x28c3>
    82fd:	cmp    DWORD PTR [rsp+0x54],0x0
    8302:	je     6d08 <main+0x1288>
    8308:	lea    r13,[rsp+0xa0]
    8310:	movzx  ebp,bx
    8313:	test   bx,bx
    8316:	jne    8285 <main+0x2805>
    831c:	jmp    7b6a <main+0x20ea>
    8321:	cmp    DWORD PTR [rsp+0x14],0x0
    8326:	jne    82b6 <main+0x2836>
    8328:	cmp    DWORD PTR [rsp+0x10],0x0
    832d:	je     82fd <main+0x287d>
    832f:	lea    r13,[rsp+0xa0]
    8337:	movzx  ebp,bx
    833a:	test   bx,bx
    833d:	je     7b25 <main+0x20a5>
    8343:	mov    r8,QWORD PTR [rip+0x1dcb6]        # 26000 <opt_object_id_len>
    834a:	mov    eax,0x0
    834f:	mov    rdx,r13
    8352:	mov    esi,ebp
    8354:	lea    rcx,[rip+0x1dd45]        # 260a0 <opt_object_id>
    835b:	mov    rdi,QWORD PTR [rsp+0x98]
    8363:	test   r8,r8
    8366:	cmove  rcx,rax
    836a:	call   c770 <find_object_flags.constprop.0>
    836f:	cmp    DWORD PTR [rsp+0x54],0x0
    8374:	jne    8285 <main+0x2805>
    837a:	jmp    6d08 <main+0x1288>
    837f:	cmp    esi,ecx
    8381:	lea    rax,[rip+0x10624]        # 189ac <_IO_stdin_used+0x19ac>
    8388:	lea    rcx,[rip+0x10611]        # 189a0 <_IO_stdin_used+0x19a0>
    838f:	mov    esi,0x1
    8394:	cmovne rcx,rax
    8398:	lea    rdx,[rip+0x14c59]        # 1cff8 <_IO_stdin_used+0x5ff8>
    839f:	xor    eax,eax
    83a1:	call   59b0 <__fprintf_chk@plt>
    83a6:	jmp    7391 <main+0x1911>
    83ab:	xor    ebp,ebp
    83ad:	jmp    8020 <main+0x25a0>
    83b2:	lea    rsi,[rip+0x1081d]        # 18bd6 <_IO_stdin_used+0x1bd6>
    83b9:	mov    edi,0x1
    83be:	xor    eax,eax
    83c0:	call   58a0 <__printf_chk@plt>
    83c5:	mov    rbx,QWORD PTR [rsp+0x48]
    83ca:	lea    rbp,[rsp+0xc8]
    83d2:	mov    rdx,QWORD PTR [rip+0x1d1d7]        # 255b0 <stdin@@GLIBC_2.2.5>
    83d9:	mov    rdi,rbp
    83dc:	mov    rsi,rbx
    83df:	call   16290 <util_getpass>
    83e4:	test   eax,eax
    83e6:	js     7585 <main+0x1b05>
    83ec:	mov    rsi,QWORD PTR [rsp+0xc8]
    83f4:	test   rsi,rsi
    83f7:	je     7585 <main+0x1b05>
    83fd:	cmp    BYTE PTR [rsi],0x0
    8400:	je     7585 <main+0x1b05>
    8406:	or     rdx,0xffffffffffffffff
    840a:	xor    eax,eax
    840c:	mov    rdi,rsi
    840f:	mov    rcx,rdx
    8412:	repnz scas al,BYTE PTR es:[rdi]
    8414:	mov    rdx,rcx
    8417:	not    rdx
    841a:	lea    rax,[rdx-0x1]
    841e:	cmp    rax,0x14
    8422:	ja     7585 <main+0x1b05>
    8428:	lea    r14,[rsp+0x2b0]
    8430:	mov    ecx,0x15
    8435:	mov    rdi,r14
    8438:	call   57b0 <__memcpy_chk@plt>
    843d:	lea    rsi,[rip+0x146cc]        # 1cb10 <_IO_stdin_used+0x5b10>
    8444:	mov    edi,0x1
    8449:	xor    eax,eax
    844b:	call   58a0 <__printf_chk@plt>
    8450:	mov    rdx,QWORD PTR [rip+0x1d159]        # 255b0 <stdin@@GLIBC_2.2.5>
    8457:	mov    rsi,rbx
    845a:	mov    rdi,rbp
    845d:	call   16290 <util_getpass>
    8462:	test   eax,eax
    8464:	js     7585 <main+0x1b05>
    846a:	mov    rbp,QWORD PTR [rsp+0xc8]
    8472:	test   rbp,rbp
    8475:	je     8add <main+0x305d>
    847b:	cmp    BYTE PTR [rbp+0x0],0x0
    847f:	je     8add <main+0x305d>
    8485:	mov    rsi,rbp
    8488:	mov    rdi,r14
    848b:	call   57a0 <strcmp@plt>
    8490:	test   eax,eax
    8492:	jne    8add <main+0x305d>
    8498:	mov    rax,QWORD PTR [rip+0x1d9f1]        # 25e90 <p11>
    849f:	mov    r9,QWORD PTR [rax+0x60]
    84a3:	jmp    7521 <main+0x1aa1>
    84a8:	mov    r12,QWORD PTR [rip+0x1d0f1]        # 255a0 <stdout@@GLIBC_2.2.5>
    84af:	jmp    6fcf <main+0x154f>
    84b4:	mov    rdi,QWORD PTR [rsp+0xc0]
    84bc:	call   5590 <free@plt>
    84c1:	test   r13d,r13d
    84c4:	jne    84d7 <main+0x2a57>
    84c6:	lea    rdi,[rip+0x1082c]        # 18cf9 <_IO_stdin_used+0x1cf9>
    84cd:	call   5600 <puts@plt>
    84d2:	jmp    6f00 <main+0x1480>
    84d7:	mov    edx,r13d
    84da:	lea    rsi,[rip+0x10822]        # 18d03 <_IO_stdin_used+0x1d03>
    84e1:	mov    edi,0x1
    84e6:	xor    eax,eax
    84e8:	call   58a0 <__printf_chk@plt>
    84ed:	jmp    6f00 <main+0x1480>
    84f2:	lea    rdi,[rip+0x1311f]        # 1b618 <_IO_stdin_used+0x4618>
    84f9:	call   5600 <puts@plt>
    84fe:	jmp    7e1d <main+0x239d>
    8503:	mov    rsi,QWORD PTR [rip+0x1dade]        # 25fe8 <opt_pin>
    850a:	test   rsi,rsi
    850d:	je     8618 <main+0x2b98>
    8513:	mov    rax,QWORD PTR [rip+0x1d976]        # 25e90 <p11>
    851a:	jmp    77b3 <main+0x1d33>
    851f:	lea    rdi,[rip+0x14992]        # 1ceb8 <_IO_stdin_used+0x5eb8>
    8526:	call   5600 <puts@plt>
    852b:	jmp    84c1 <main+0x2a41>
    852d:	xor    r13d,r13d
    8530:	lea    rbx,[rsp+0x1c0]
    8538:	jmp    8575 <main+0x2af5>
    853a:	mov    rdx,QWORD PTR [rip+0x1d947]        # 25e88 <p11_slots>
    8541:	lea    rbp,[rax*8+0x0]
    8549:	mov    rsi,rbx
    854c:	mov    rdi,QWORD PTR [rdx+rax*8]
    8550:	mov    rax,QWORD PTR [rip+0x1d939]        # 25e90 <p11>
    8557:	call   QWORD PTR [rax+0x30]
    855a:	test   rax,rax
    855d:	jne    8bf2 <main+0x3172>
    8563:	test   BYTE PTR [rsp+0x220],0x1
    856b:	jne    8712 <main+0x2c92>
    8571:	add    r13d,0x1
    8575:	mov    eax,r13d
    8578:	cmp    rax,QWORD PTR [rip+0x1d901]        # 25e80 <p11_num_slots>
    857f:	jb     853a <main+0x2aba>
    8581:	mov    edx,0x20
    8586:	mov    rcx,QWORD PTR [rip+0x1d053]        # 255e0 <stderr@@GLIBC_2.2.5>
    858d:	mov    esi,0x1
    8592:	lea    rdi,[rip+0x144b7]        # 1ca50 <_IO_stdin_used+0x5a50>
    8599:	mov    r13d,0x1
    859f:	call   59a0 <fwrite@plt>
    85a4:	jmp    70f1 <main+0x1671>
    85a9:	mov    rdi,QWORD PTR [rip+0x1dba8]        # 26158 <opt_slot>
    85b0:	xor    ecx,ecx
    85b2:	xor    edx,edx
    85b4:	mov    esi,0x400
    85b9:	lea    r8,[rip+0x1db60]        # 26120 <opt_mechanism>
    85c0:	call   9300 <find_mechanism>
    85c5:	test   eax,eax
    85c7:	jne    7f7d <main+0x24fd>
    85cd:	lea    rdi,[rip+0x146e4]        # 1ccb8 <_IO_stdin_used+0x5cb8>
    85d4:	call   15f90 <util_fatal>
    85d9:	mov    edi,ebp
    85db:	call   5700 <close@plt>
    85e0:	jmp    806a <main+0x25ea>
    85e5:	mov    rcx,QWORD PTR [rip+0x1cff4]        # 255e0 <stderr@@GLIBC_2.2.5>
    85ec:	mov    edx,0x23
    85f1:	mov    esi,0x1
    85f6:	lea    rdi,[rip+0x14893]        # 1ce90 <_IO_stdin_used+0x5e90>
    85fd:	call   59a0 <fwrite@plt>
    8602:	jmp    6ef5 <main+0x1475>
    8607:	lea    rdi,[rip+0x106c0]        # 18cce <_IO_stdin_used+0x1cce>
    860e:	call   5600 <puts@plt>
    8613:	jmp    84c1 <main+0x2a41>
    8618:	mov    rax,QWORD PTR [rip+0x1d871]        # 25e90 <p11>
    861f:	mov    rsi,QWORD PTR [rip+0x1d9aa]        # 25fd0 <opt_new_pin>
    8626:	mov    r8,QWORD PTR [rax+0x58]
    862a:	test   rsi,rsi
    862d:	jne    77b3 <main+0x1d33>
    8633:	mov    rsi,QWORD PTR [rsp+0xb8]
    863b:	xor    edx,edx
    863d:	test   rsi,rsi
    8640:	je     77cc <main+0x1d4c>
    8646:	jmp    77b7 <main+0x1d37>
    864b:	cmp    QWORD PTR [rip+0x1d975],0x0        # 25fc8 <opt_application_label>
    8653:	jne    6e13 <main+0x1393>
    8659:	cmp    QWORD PTR [rip+0x1d95f],0x0        # 25fc0 <opt_application_id>
    8661:	jne    6e13 <main+0x1393>
    8667:	cmp    DWORD PTR [rip+0x1daba],0x0        # 26128 <opt_object_index_set>
    866e:	jne    6e13 <main+0x1393>
    8674:	lea    rdi,[rip+0x14765]        # 1cde0 <_IO_stdin_used+0x5de0>
    867b:	xor    eax,eax
    867d:	call   15f90 <util_fatal>
    8682:	mov    rdx,QWORD PTR [rsp+0xc8]
    868a:	mov    rsi,r14
    868d:	mov    edi,0x1
    8692:	call   5650 <write@plt>
    8697:	test   eax,eax
    8699:	jns    6d71 <main+0x12f1>
    869f:	mov    rsi,QWORD PTR [rip+0x1daca]        # 26170 <opt_output>
    86a6:	lea    rdi,[rip+0xf799]        # 17e46 <_IO_stdin_used+0xe46>
    86ad:	xor    eax,eax
    86af:	call   15f90 <util_fatal>
    86b4:	cmp    QWORD PTR [rip+0x1d90c],0x0        # 25fc8 <opt_application_label>
    86bc:	jne    6dd9 <main+0x1359>
    86c2:	cmp    QWORD PTR [rip+0x1d8f6],0x0        # 25fc0 <opt_application_id>
    86ca:	jne    6dd9 <main+0x1359>
    86d0:	cmp    QWORD PTR [rip+0x1d8e0],0x0        # 25fb8 <opt_issuer>
    86d8:	jne    6dd9 <main+0x1359>
    86de:	cmp    QWORD PTR [rip+0x1d8ca],0x0        # 25fb0 <opt_subject>
    86e6:	jne    6dd9 <main+0x1359>
    86ec:	lea    rdi,[rip+0x14655]        # 1cd48 <_IO_stdin_used+0x5d48>
    86f3:	xor    eax,eax
    86f5:	call   15f90 <util_fatal>
    86fa:	xor    edx,edx
    86fc:	jmp    755c <main+0x1adc>
    8701:	lea    rdi,[rip+0x12f48]        # 1b650 <_IO_stdin_used+0x4650>
    8708:	call   5600 <puts@plt>
    870d:	jmp    7e1d <main+0x239d>
    8712:	mov    rax,QWORD PTR [rip+0x1d76f]        # 25e88 <p11_slots>
    8719:	mov    ecx,r13d
    871c:	mov    rdi,QWORD PTR [rip+0x1cebd]        # 255e0 <stderr@@GLIBC_2.2.5>
    8723:	lea    rdx,[rip+0x142f6]        # 1ca20 <_IO_stdin_used+0x5a20>
    872a:	mov    esi,0x1
    872f:	mov    r8,QWORD PTR [rax+rbp*1]
    8733:	xor    eax,eax
    8735:	mov    QWORD PTR [rip+0x1da1c],r8        # 26158 <opt_slot>
    873c:	call   59b0 <__fprintf_chk@plt>
    8741:	jmp    657e <main+0xafe>
    8746:	lea    rsi,[rip+0x10489]        # 18bd6 <_IO_stdin_used+0x1bd6>
    874d:	mov    edi,0x1
    8752:	xor    eax,eax
    8754:	call   58a0 <__printf_chk@plt>
    8759:	mov    rbx,QWORD PTR [rsp+0x48]
    875e:	lea    rbp,[rsp+0xc8]
    8766:	mov    rdx,QWORD PTR [rip+0x1ce43]        # 255b0 <stdin@@GLIBC_2.2.5>
    876d:	mov    rdi,rbp
    8770:	mov    rsi,rbx
    8773:	call   16290 <util_getpass>
    8778:	test   eax,eax
    877a:	js     6763 <main+0xce3>
    8780:	mov    rsi,QWORD PTR [rsp+0xc8]
    8788:	lea    r14,[rsp+0x2b0]
    8790:	mov    edx,0x15
    8795:	mov    rdi,r14
    8798:	call   16840 <strlcpy>
    879d:	lea    rsi,[rip+0x1436c]        # 1cb10 <_IO_stdin_used+0x5b10>
    87a4:	mov    edi,0x1
    87a9:	xor    eax,eax
    87ab:	call   58a0 <__printf_chk@plt>
    87b0:	mov    rdx,QWORD PTR [rip+0x1cdf9]        # 255b0 <stdin@@GLIBC_2.2.5>
    87b7:	mov    rsi,rbx
    87ba:	mov    rdi,rbp
    87bd:	call   16290 <util_getpass>
    87c2:	test   eax,eax
    87c4:	js     6763 <main+0xce3>
    87ca:	mov    rbp,QWORD PTR [rsp+0xc8]
    87d2:	test   rbp,rbp
    87d5:	je     8856 <main+0x2dd6>
    87d7:	cmp    BYTE PTR [rbp+0x0],0x0
    87db:	je     8856 <main+0x2dd6>
    87dd:	mov    rsi,rbp
    87e0:	mov    rdi,r14
    87e3:	call   57a0 <strcmp@plt>
    87e8:	test   eax,eax
    87ea:	jne    8856 <main+0x2dd6>
    87ec:	xor    eax,eax
    87ee:	or     rcx,0xffffffffffffffff
    87f2:	mov    rdi,rbp
    87f5:	repnz scas al,BYTE PTR es:[rdi]
    87f7:	mov    rax,rcx
    87fa:	not    rax
    87fd:	sub    rax,0x1
    8801:	cmp    rax,0x14
    8805:	ja     8a05 <main+0x2f85>
    880b:	mov    rax,QWORD PTR [rip+0x1d67e]        # 25e90 <p11>
    8812:	mov    r9,QWORD PTR [rax+0x60]
    8816:	jmp    66ff <main+0xc7f>
    881b:	lea    rdx,[rip+0x14156]        # 1c978 <_IO_stdin_used+0x5978>
    8822:	mov    esi,0x1
    8827:	xor    eax,eax
    8829:	mov    r13d,0x1
    882f:	call   59b0 <__fprintf_chk@plt>
    8834:	mov    edx,0x65
    8839:	mov    rcx,QWORD PTR [rip+0x1cda0]        # 255e0 <stderr@@GLIBC_2.2.5>
    8840:	mov    esi,0x1
    8845:	lea    rdi,[rip+0x1416c]        # 1c9b8 <_IO_stdin_used+0x59b8>
    884c:	call   59a0 <fwrite@plt>
    8851:	jmp    70f1 <main+0x1671>
    8856:	cmp    rbp,QWORD PTR [rip+0x1d773]        # 25fd0 <opt_new_pin>
    885d:	je     8867 <main+0x2de7>
    885f:	mov    rdi,rbp
    8862:	call   5590 <free@plt>
    8867:	lea    rdi,[rip+0x103a5]        # 18c13 <_IO_stdin_used+0x1c13>
    886e:	call   5600 <puts@plt>
    8873:	mov    DWORD PTR [rsp+0x40],0xffffffff
    887b:	jmp    6763 <main+0xce3>
    8880:	cmp    QWORD PTR [rip+0x1d748],0x0        # 25fd0 <opt_new_pin>
    8888:	mov    rsi,QWORD PTR [rip+0x1d741]        # 25fd0 <opt_new_pin>
    888f:	jne    77b3 <main+0x1d33>
    8895:	lea    rsi,[rip+0x1033a]        # 18bd6 <_IO_stdin_used+0x1bd6>
    889c:	mov    edi,0x1
    88a1:	xor    eax,eax
    88a3:	call   58a0 <__printf_chk@plt>
    88a8:	mov    rdx,QWORD PTR [rip+0x1cd01]        # 255b0 <stdin@@GLIBC_2.2.5>
    88af:	lea    rsi,[rsp+0xc8]
    88b7:	lea    rdi,[rsp+0xb8]
    88bf:	call   16290 <util_getpass>
    88c4:	test   eax,eax
    88c6:	js     8c01 <main+0x3181>
    88cc:	mov    rdi,QWORD PTR [rsp+0xb8]
    88d4:	test   rdi,rdi
    88d7:	je     89bb <main+0x2f3b>
    88dd:	cmp    BYTE PTR [rdi],0x0
    88e0:	je     89bb <main+0x2f3b>
    88e6:	xor    eax,eax
    88e8:	or     rcx,0xffffffffffffffff
    88ec:	repnz scas al,BYTE PTR es:[rdi]
    88ee:	mov    rax,rcx
    88f1:	not    rax
    88f4:	sub    rax,0x1
    88f8:	cmp    rax,0x14
    88fc:	ja     89bb <main+0x2f3b>
    8902:	lea    rsi,[rip+0x14207]        # 1cb10 <_IO_stdin_used+0x5b10>
    8909:	mov    edi,0x1
    890e:	xor    eax,eax
    8910:	call   58a0 <__printf_chk@plt>
    8915:	mov    rdx,QWORD PTR [rip+0x1cc94]        # 255b0 <stdin@@GLIBC_2.2.5>
    891c:	mov    rsi,QWORD PTR [rsp+0x48]
    8921:	lea    rdi,[rsp+0xc0]
    8929:	call   16290 <util_getpass>
    892e:	test   eax,eax
    8930:	js     8c01 <main+0x3181>
    8936:	mov    rsi,QWORD PTR [rsp+0xc0]
    893e:	test   rsi,rsi
    8941:	je     895d <main+0x2edd>
    8943:	cmp    BYTE PTR [rsi],0x0
    8946:	je     895d <main+0x2edd>
    8948:	mov    rdi,QWORD PTR [rsp+0xb8]
    8950:	call   57a0 <strcmp@plt>
    8955:	test   eax,eax
    8957:	je     8503 <main+0x2a83>
    895d:	lea    rdi,[rip+0x102de]        # 18c42 <_IO_stdin_used+0x1c42>
    8964:	xor    eax,eax
    8966:	call   15f90 <util_fatal>
    896b:	mov    rsi,r15
    896e:	lea    rdi,[rip+0x10089]        # 189fe <_IO_stdin_used+0x19fe>
    8975:	xor    eax,eax
    8977:	call   15f90 <util_fatal>
    897c:	lea    rsi,[rip+0x14225]        # 1cba8 <_IO_stdin_used+0x5ba8>
    8983:	mov    edi,0x1
    8988:	xor    eax,eax
    898a:	call   58a0 <__printf_chk@plt>
    898f:	jmp    79e9 <main+0x1f69>
    8994:	lea    rsi,[rip+0x141d5]        # 1cb70 <_IO_stdin_used+0x5b70>
    899b:	mov    edi,0x1
    89a0:	xor    eax,eax
    89a2:	call   58a0 <__printf_chk@plt>
    89a7:	jmp    79e9 <main+0x1f69>
    89ac:	mov    rsi,rbp
    89af:	lea    rdi,[rip+0x102a4]        # 18c5a <_IO_stdin_used+0x1c5a>
    89b6:	call   9140 <p11_fatal>
    89bb:	lea    rdi,[rip+0x1026f]        # 18c31 <_IO_stdin_used+0x1c31>
    89c2:	xor    eax,eax
    89c4:	call   15f90 <util_fatal>
    89c9:	lea    rdi,[rip+0xf9d1]        # 183a1 <_IO_stdin_used+0x13a1>
    89d0:	call   15f90 <util_fatal>
    89d5:	lea    rdi,[rip+0x100e0]        # 18abc <_IO_stdin_used+0x1abc>
    89dc:	call   9140 <p11_fatal>
    89e1:	mov    rsi,QWORD PTR [rip+0x1d790]        # 26178 <opt_input>
    89e8:	lea    rdi,[rip+0xf34c]        # 17d3b <_IO_stdin_used+0xd3b>
    89ef:	xor    eax,eax
    89f1:	call   15f90 <util_fatal>
    89f6:	mov    rsi,rax
    89f9:	lea    rdi,[rip+0xf0c0]        # 17ac0 <_IO_stdin_used+0xac0>
    8a00:	call   9140 <p11_fatal>
    8a05:	cmp    rbp,QWORD PTR [rip+0x1d5c4]        # 25fd0 <opt_new_pin>
    8a0c:	je     6763 <main+0xce3>
    8a12:	mov    rdi,rbp
    8a15:	call   5590 <free@plt>
    8a1a:	jmp    6763 <main+0xce3>
    8a1f:	lea    rdi,[rip+0xf084]        # 17aaa <_IO_stdin_used+0xaaa>
    8a26:	call   9140 <p11_fatal>
    8a2b:	mov    rsi,QWORD PTR [rip+0x1d73e]        # 26170 <opt_output>
    8a32:	lea    rdi,[rip+0x102fb]        # 18d34 <_IO_stdin_used+0x1d34>
    8a39:	xor    eax,eax
    8a3b:	call   15f90 <util_fatal>
    8a40:	mov    rsi,QWORD PTR [rip+0x1d729]        # 26170 <opt_output>
    8a47:	lea    rdi,[rip+0x102d5]        # 18d23 <_IO_stdin_used+0x1d23>
    8a4e:	xor    eax,eax
    8a50:	call   15f90 <util_fatal>
    8a55:	mov    rsi,rax
    8a58:	lea    rdi,[rip+0x102ea]        # 18d49 <_IO_stdin_used+0x1d49>
    8a5f:	call   9140 <p11_fatal>
    8a64:	xor    eax,eax
    8a66:	or     rcx,0xffffffffffffffff
    8a6a:	mov    rdi,rsi
    8a6d:	repnz scas al,BYTE PTR es:[rdi]
    8a6f:	mov    rdi,rbp
    8a72:	mov    rax,rcx
    8a75:	mov    rcx,r14
    8a78:	not    rax
    8a7b:	lea    rdx,[rax-0x1]
    8a7f:	call   r8
    8a82:	test   rax,rax
    8a85:	je     70bd <main+0x163d>
    8a8b:	mov    rsi,rax
    8a8e:	lea    rdi,[rip+0x10135]        # 18bca <_IO_stdin_used+0x1bca>
    8a95:	call   9140 <p11_fatal>
    8a9a:	mov    rcx,rdx
    8a9d:	lea    rdx,[rip+0xffa5]        # 18a49 <_IO_stdin_used+0x1a49>
    8aa4:	jmp    7713 <main+0x1c93>
    8aa9:	lea    rdi,[rip+0x10141]        # 18bf1 <_IO_stdin_used+0x1bf1>
    8ab0:	call   9140 <p11_fatal>
    8ab5:	lea    rdi,[rip+0x144c4]        # 1cf80 <_IO_stdin_used+0x5f80>
    8abc:	xor    eax,eax
    8abe:	call   15f90 <util_fatal>
    8ac3:	lea    rdi,[rip+0x1019a]        # 18c64 <_IO_stdin_used+0x1c64>
    8aca:	call   15f90 <util_fatal>
    8acf:	lea    rdi,[rip+0x144e2]        # 1cfb8 <_IO_stdin_used+0x5fb8>
    8ad6:	xor    eax,eax
    8ad8:	call   15f90 <util_fatal>
    8add:	mov    rdi,rbp
    8ae0:	call   5590 <free@plt>
    8ae5:	jmp    7585 <main+0x1b05>
    8aea:	mov    rsi,rax
    8aed:	lea    rdi,[rip+0xef85]        # 17a79 <_IO_stdin_used+0xa79>
    8af4:	call   9140 <p11_fatal>
    8af9:	cmp    DWORD PTR [rip+0x1d618],0x0        # 26118 <opt_mechanism_used>
    8b00:	je     8b4c <main+0x30cc>
    8b02:	mov    rax,QWORD PTR [rip+0x1d617]        # 26120 <opt_mechanism>
    8b09:	sub    rax,0x1050
    8b0f:	cmp    rax,0x1
    8b13:	jbe    8b3e <main+0x30be>
    8b15:	lea    rdi,[rip+0x14174]        # 1cc90 <_IO_stdin_used+0x5c90>
    8b1c:	xor    eax,eax
    8b1e:	call   15f90 <util_fatal>
    8b23:	mov    rsi,rax
    8b26:	lea    rdi,[rip+0xefe1]        # 17b0e <_IO_stdin_used+0xb0e>
    8b2d:	call   9140 <p11_fatal>
    8b32:	lea    rdi,[rip+0xefc3]        # 17afc <_IO_stdin_used+0xafc>
    8b39:	call   9140 <p11_fatal>
    8b3e:	lea    rdi,[rip+0x1014a]        # 18c8f <_IO_stdin_used+0x1c8f>
    8b45:	xor    eax,eax
    8b47:	call   15f90 <util_fatal>
    8b4c:	mov    rsi,QWORD PTR [rip+0x1a4fd]        # 23050 <opt_allow_sw>
    8b53:	mov    rdi,QWORD PTR [rip+0x1d5fe]        # 26158 <opt_slot>
    8b5a:	xor    ecx,ecx
    8b5c:	xor    edx,edx
    8b5e:	lea    r8,[rip+0x1d5bb]        # 26120 <opt_mechanism>
    8b65:	or     rsi,0x80000
    8b6c:	call   9300 <find_mechanism>
    8b71:	test   eax,eax
    8b73:	jne    8b02 <main+0x3082>
    8b75:	lea    rdi,[rip+0x140f4]        # 1cc70 <_IO_stdin_used+0x5c70>
    8b7c:	call   15f90 <util_fatal>
    8b81:	lea    rdi,[rip+0xef47]        # 17acf <_IO_stdin_used+0xacf>
    8b88:	call   9140 <p11_fatal>
    8b8d:	lea    rdi,[rip+0x142c4]        # 1ce58 <_IO_stdin_used+0x5e58>
    8b94:	xor    eax,eax
    8b96:	call   15f90 <util_fatal>
    8b9b:	lea    rdi,[rip+0x1420e]        # 1cdb0 <_IO_stdin_used+0x5db0>
    8ba2:	xor    eax,eax
    8ba4:	call   15f90 <util_fatal>
    8ba9:	lea    rdi,[rip+0xfb1f]        # 186cf <_IO_stdin_used+0x16cf>
    8bb0:	call   9140 <p11_fatal>
    8bb5:	lea    rdi,[rip+0x1415c]        # 1cd18 <_IO_stdin_used+0x5d18>
    8bbc:	xor    eax,eax
    8bbe:	call   15f90 <util_fatal>
    8bc3:	mov    rsi,QWORD PTR [rip+0x1d5a6]        # 26170 <opt_output>
    8bca:	lea    rdi,[rip+0xf17d]        # 17d4e <_IO_stdin_used+0xd4e>
    8bd1:	xor    eax,eax
    8bd3:	call   15f90 <util_fatal>
    8bd8:	lea    rdi,[rip+0x1009b]        # 18c7a <_IO_stdin_used+0x1c7a>
    8bdf:	call   15f90 <util_fatal>
    8be4:	lea    rdi,[rip+0x140f5]        # 1cce0 <_IO_stdin_used+0x5ce0>
    8beb:	xor    eax,eax
    8bed:	call   15f90 <util_fatal>
    8bf2:	mov    rsi,rax
    8bf5:	lea    rdi,[rip+0xff4f]        # 18b4b <_IO_stdin_used+0x1b4b>
    8bfc:	call   9140 <p11_fatal>
    8c01:	lea    rdi,[rip+0xff8e]        # 18b96 <_IO_stdin_used+0x1b96>
    8c08:	xor    eax,eax
    8c0a:	call   15f90 <util_fatal>
    8c0f:	lea    rdi,[rip+0xff8f]        # 18ba5 <_IO_stdin_used+0x1ba5>
    8c16:	xor    eax,eax
    8c18:	call   15f90 <util_fatal>
    8c1d:	mov    rcx,QWORD PTR [rip+0x1c9bc]        # 255e0 <stderr@@GLIBC_2.2.5>
    8c24:	mov    edx,0x33
    8c29:	mov    esi,0x1
    8c2e:	lea    rdi,[rip+0x13f03]        # 1cb38 <_IO_stdin_used+0x5b38>
    8c35:	call   59a0 <fwrite@plt>
    8c3a:	jmp    7726 <main+0x1ca6>
    8c3f:	mov    rcx,QWORD PTR [rip+0x1c99a]        # 255e0 <stderr@@GLIBC_2.2.5>
    8c46:	mov    edx,0x38
    8c4b:	mov    esi,0x1
    8c50:	lea    rdi,[rip+0x13b41]        # 1c798 <_IO_stdin_used+0x5798>
    8c57:	call   59a0 <fwrite@plt>
    8c5c:	mov    edi,0x1
    8c61:	call   5990 <exit@plt>
    8c66:	mov    rsi,rax
    8c69:	lea    rdi,[rip+0x13b68]        # 1c7d8 <_IO_stdin_used+0x57d8>
    8c70:	call   9140 <p11_fatal>
    8c75:	lea    rdi,[rip+0xfe02]        # 18a7e <_IO_stdin_used+0x1a7e>
    8c7c:	call   5910 <perror@plt>
    8c81:	mov    edi,0x1
    8c86:	call   5990 <exit@plt>
    8c8b:	call   5690 <__stack_chk_fail@plt>
    8c90:	call   55e0 <__errno_location@plt>
    8c95:	mov    edi,DWORD PTR [rax]
    8c97:	call   59d0 <strerror@plt>
    8c9c:	lea    rdi,[rip+0xfe30]        # 18ad3 <_IO_stdin_used+0x1ad3>
    8ca3:	mov    rsi,rax
    8ca6:	xor    eax,eax
    8ca8:	call   15f90 <util_fatal>
    8cad:	lea    rdi,[rip+0x13dc4]        # 1ca78 <_IO_stdin_used+0x5a78>
    8cb4:	xor    eax,eax
    8cb6:	call   15f90 <util_fatal>
    8cbb:	lea    rdi,[rip+0xfa3b]        # 186fd <_IO_stdin_used+0x16fd>
    8cc2:	call   15f90 <util_fatal>
    8cc7:	lea    rdi,[rip+0xfd98]        # 18a66 <_IO_stdin_used+0x1a66>
    8cce:	xor    eax,eax
    8cd0:	call   15f90 <util_fatal>
    8cd5:	mov    rcx,QWORD PTR [rip+0x1c904]        # 255e0 <stderr@@GLIBC_2.2.5>
    8cdc:	mov    edx,0x59
    8ce1:	mov    esi,0x1
    8ce6:	lea    rdi,[rip+0x139db]        # 1c6c8 <_IO_stdin_used+0x56c8>
    8ced:	call   59a0 <fwrite@plt>
    8cf2:	jmp    7726 <main+0x1ca6>
    8cf7:	lea    rdi,[rip+0xfe5b]        # 18b59 <_IO_stdin_used+0x1b59>
    8cfe:	xor    eax,eax
    8d00:	call   15f90 <util_fatal>
    8d05:	mov    rdi,QWORD PTR [rip+0x1c8d4]        # 255e0 <stderr@@GLIBC_2.2.5>
    8d0c:	mov    ecx,0xa
    8d11:	lea    rdx,[rip+0x13a10]        # 1c728 <_IO_stdin_used+0x5728>
    8d18:	xor    eax,eax
    8d1a:	mov    esi,0x1
    8d1f:	call   59b0 <__fprintf_chk@plt>
    8d24:	jmp    7726 <main+0x1ca6>
    8d29:	mov    rsi,rax
    8d2c:	lea    rdi,[rip+0xfd59]        # 18a8c <_IO_stdin_used+0x1a8c>
    8d33:	call   9140 <p11_fatal>
    8d38:	mov    rsi,rax
    8d3b:	lea    rdi,[rip+0xfdad]        # 18aef <_IO_stdin_used+0x1aef>
    8d42:	call   9140 <p11_fatal>
    8d47:	mov    rsi,rax
    8d4a:	lea    rdi,[rip+0xed28]        # 17a79 <_IO_stdin_used+0xa79>
    8d51:	call   9140 <p11_fatal>
    8d56:	cs nop WORD PTR [rax+rax*1+0x0]

0000000000008d60 <_start>:
    8d60:	endbr64 
    8d64:	xor    ebp,ebp
    8d66:	mov    r9,rdx
    8d69:	pop    rsi
    8d6a:	mov    rdx,rsp
    8d6d:	and    rsp,0xfffffffffffffff0
    8d71:	push   rax
    8d72:	push   rsp
    8d73:	lea    r8,[rip+0xdba6]        # 16920 <__libc_csu_fini>
    8d7a:	lea    rcx,[rip+0xdb2f]        # 168b0 <__libc_csu_init>
    8d81:	lea    rdi,[rip+0xffffffffffffccf8]        # 5a80 <main>
    8d88:	call   QWORD PTR [rip+0x1a242]        # 22fd0 <__libc_start_main@GLIBC_2.2.5>
    8d8e:	hlt    
    8d8f:	nop

0000000000008d90 <deregister_tm_clones>:
    8d90:	lea    rdi,[rip+0x1c7f9]        # 25590 <__TMC_END__>
    8d97:	lea    rax,[rip+0x1c7f2]        # 25590 <__TMC_END__>
    8d9e:	cmp    rax,rdi
    8da1:	je     8db8 <deregister_tm_clones+0x28>
    8da3:	mov    rax,QWORD PTR [rip+0x1a21e]        # 22fc8 <_ITM_deregisterTMCloneTable>
    8daa:	test   rax,rax
    8dad:	je     8db8 <deregister_tm_clones+0x28>
    8daf:	jmp    rax
    8db1:	nop    DWORD PTR [rax+0x0]
    8db8:	ret    
    8db9:	nop    DWORD PTR [rax+0x0]

0000000000008dc0 <register_tm_clones>:
    8dc0:	lea    rdi,[rip+0x1c7c9]        # 25590 <__TMC_END__>
    8dc7:	lea    rsi,[rip+0x1c7c2]        # 25590 <__TMC_END__>
    8dce:	sub    rsi,rdi
    8dd1:	mov    rax,rsi
    8dd4:	shr    rsi,0x3f
    8dd8:	sar    rax,0x3
    8ddc:	add    rsi,rax
    8ddf:	sar    rsi,1
    8de2:	je     8df8 <register_tm_clones+0x38>
    8de4:	mov    rax,QWORD PTR [rip+0x1a1f5]        # 22fe0 <_ITM_registerTMCloneTable>
    8deb:	test   rax,rax
    8dee:	je     8df8 <register_tm_clones+0x38>
    8df0:	jmp    rax
    8df2:	nop    WORD PTR [rax+rax*1+0x0]
    8df8:	ret    
    8df9:	nop    DWORD PTR [rax+0x0]

0000000000008e00 <__do_global_dtors_aux>:
    8e00:	endbr64 
    8e04:	cmp    BYTE PTR [rip+0x1c7dd],0x0        # 255e8 <completed.8061>
    8e0b:	jne    8e38 <__do_global_dtors_aux+0x38>
    8e0d:	push   rbp
    8e0e:	cmp    QWORD PTR [rip+0x1a1d2],0x0        # 22fe8 <__cxa_finalize@GLIBC_2.2.5>
    8e16:	mov    rbp,rsp
    8e19:	je     8e27 <__do_global_dtors_aux+0x27>
    8e1b:	mov    rdi,QWORD PTR [rip+0x1a1e6]        # 23008 <__dso_handle>
    8e22:	call   5550 <__cxa_finalize@plt>
    8e27:	call   8d90 <deregister_tm_clones>
    8e2c:	mov    BYTE PTR [rip+0x1c7b5],0x1        # 255e8 <completed.8061>
    8e33:	pop    rbp
    8e34:	ret    
    8e35:	nop    DWORD PTR [rax]
    8e38:	ret    
    8e39:	nop    DWORD PTR [rax+0x0]

0000000000008e40 <frame_dummy>:
    8e40:	endbr64 
    8e44:	jmp    8dc0 <register_tm_clones>
    8e49:	nop    DWORD PTR [rax+0x0]

0000000000008e50 <CKR2Str>:
    8e50:	cmp    rdi,0x1a1
    8e57:	ja     8e88 <CKR2Str+0x38>
    8e59:	lea    rdx,[rip+0x151a0]        # 1e000 <_IO_stdin_used+0x7000>
    8e60:	movsxd rax,DWORD PTR [rdx+rdi*4]
    8e64:	add    rax,rdx
    8e67:	notrack jmp rax
    8e6a:	lea    rax,[rip+0xe805]        # 17676 <_IO_stdin_used+0x676>
    8e71:	ret    
    8e72:	lea    rax,[rip+0xfb2c]        # 189a5 <_IO_stdin_used+0x19a5>
    8e79:	ret    
    8e7a:	lea    rax,[rip+0xe183]        # 17004 <_IO_stdin_used+0x4>
    8e81:	ret    
    8e82:	nop    WORD PTR [rax+rax*1+0x0]
    8e88:	mov    eax,0x80000000
    8e8d:	lea    rdx,[rip+0xe7ed]        # 17681 <_IO_stdin_used+0x681>
    8e94:	cmp    rdi,rax
    8e97:	lea    rax,[rip+0xe166]        # 17004 <_IO_stdin_used+0x4>
    8e9e:	cmove  rax,rdx
    8ea2:	ret    
    8ea3:	lea    rax,[rip+0xe7b7]        # 17661 <_IO_stdin_used+0x661>
    8eaa:	ret    
    8eab:	lea    rax,[rip+0xe7a1]        # 17653 <_IO_stdin_used+0x653>
    8eb2:	ret    
    8eb3:	lea    rax,[rip+0x11846]        # 1a700 <_IO_stdin_used+0x3700>
    8eba:	ret    
    8ebb:	lea    rax,[rip+0xe774]        # 17636 <_IO_stdin_used+0x636>
    8ec2:	ret    
    8ec3:	lea    rax,[rip+0xe757]        # 17621 <_IO_stdin_used+0x621>
    8eca:	ret    
    8ecb:	lea    rax,[rip+0xe735]        # 17607 <_IO_stdin_used+0x607>
    8ed2:	ret    
    8ed3:	lea    rax,[rip+0xe715]        # 175ef <_IO_stdin_used+0x5ef>
    8eda:	ret    
    8edb:	lea    rax,[rip+0xe6f8]        # 175da <_IO_stdin_used+0x5da>
    8ee2:	ret    
    8ee3:	lea    rax,[rip+0xe6d6]        # 175c0 <_IO_stdin_used+0x5c0>
    8eea:	ret    
    8eeb:	lea    rax,[rip+0xe6bc]        # 175ae <_IO_stdin_used+0x5ae>
    8ef2:	ret    
    8ef3:	lea    rax,[rip+0xe696]        # 17590 <_IO_stdin_used+0x590>
    8efa:	ret    
    8efb:	lea    rax,[rip+0x117d6]        # 1a6d8 <_IO_stdin_used+0x36d8>
    8f02:	ret    
    8f03:	lea    rax,[rip+0xe66a]        # 17574 <_IO_stdin_used+0x574>
    8f0a:	ret    
    8f0b:	lea    rax,[rip+0x117a6]        # 1a6b8 <_IO_stdin_used+0x36b8>
    8f12:	ret    
    8f13:	lea    rax,[rip+0xe640]        # 1755a <_IO_stdin_used+0x55a>
    8f1a:	ret    
    8f1b:	lea    rax,[rip+0xe620]        # 17542 <_IO_stdin_used+0x542>
    8f22:	ret    
    8f23:	lea    rax,[rip+0xe600]        # 1752a <_IO_stdin_used+0x52a>
    8f2a:	ret    
    8f2b:	lea    rax,[rip+0x1175e]        # 1a690 <_IO_stdin_used+0x3690>
    8f32:	ret    
    8f33:	lea    rax,[rip+0xe5da]        # 17514 <_IO_stdin_used+0x514>
    8f3a:	ret    
    8f3b:	lea    rax,[rip+0xe5b5]        # 174f7 <_IO_stdin_used+0x4f7>
    8f42:	ret    
    8f43:	lea    rax,[rip+0xe596]        # 174e0 <_IO_stdin_used+0x4e0>
    8f4a:	ret    
    8f4b:	lea    rax,[rip+0xe573]        # 174c5 <_IO_stdin_used+0x4c5>
    8f52:	ret    
    8f53:	lea    rax,[rip+0x1170e]        # 1a668 <_IO_stdin_used+0x3668>
    8f5a:	ret    
    8f5b:	lea    rax,[rip+0xe545]        # 174a7 <_IO_stdin_used+0x4a7>
    8f62:	ret    
    8f63:	lea    rax,[rip+0x116d6]        # 1a640 <_IO_stdin_used+0x3640>
    8f6a:	ret    
    8f6b:	lea    rax,[rip+0xe51b]        # 1748d <_IO_stdin_used+0x48d>
    8f72:	ret    
    8f73:	lea    rax,[rip+0xe4fa]        # 17474 <_IO_stdin_used+0x474>
    8f7a:	ret    
    8f7b:	lea    rax,[rip+0xe4dc]        # 1745e <_IO_stdin_used+0x45e>
    8f82:	ret    
    8f83:	lea    rax,[rip+0xe4ba]        # 17444 <_IO_stdin_used+0x444>
    8f8a:	ret    
    8f8b:	lea    rax,[rip+0xe49a]        # 1742c <_IO_stdin_used+0x42c>
    8f92:	ret    
    8f93:	lea    rax,[rip+0xe47a]        # 17414 <_IO_stdin_used+0x414>
    8f9a:	ret    
    8f9b:	lea    rax,[rip+0xe45c]        # 173fe <_IO_stdin_used+0x3fe>
    8fa2:	ret    
    8fa3:	lea    rax,[rip+0x1166e]        # 1a618 <_IO_stdin_used+0x3618>
    8faa:	ret    
    8fab:	lea    rax,[rip+0xe42f]        # 173e1 <_IO_stdin_used+0x3e1>
    8fb2:	ret    
    8fb3:	lea    rax,[rip+0xe414]        # 173ce <_IO_stdin_used+0x3ce>
    8fba:	ret    
    8fbb:	lea    rax,[rip+0xe3f6]        # 173b8 <_IO_stdin_used+0x3b8>
    8fc2:	ret    
    8fc3:	lea    rax,[rip+0x11626]        # 1a5f0 <_IO_stdin_used+0x35f0>
    8fca:	ret    
    8fcb:	lea    rax,[rip+0xe3cb]        # 1739d <_IO_stdin_used+0x39d>
    8fd2:	ret    
    8fd3:	lea    rax,[rip+0xe3b1]        # 1738b <_IO_stdin_used+0x38b>
    8fda:	ret    
    8fdb:	lea    rax,[rip+0xe396]        # 17378 <_IO_stdin_used+0x378>
    8fe2:	ret    
    8fe3:	lea    rax,[rip+0xe37f]        # 17369 <_IO_stdin_used+0x369>
    8fea:	ret    
    8feb:	lea    rax,[rip+0xe367]        # 17359 <_IO_stdin_used+0x359>
    8ff2:	ret    
    8ff3:	lea    rax,[rip+0xe34d]        # 17347 <_IO_stdin_used+0x347>
    8ffa:	ret    
    8ffb:	lea    rax,[rip+0xe335]        # 17337 <_IO_stdin_used+0x337>
    9002:	ret    
    9003:	lea    rax,[rip+0xe31b]        # 17325 <_IO_stdin_used+0x325>
    900a:	ret    
    900b:	lea    rax,[rip+0xe2f5]        # 17307 <_IO_stdin_used+0x307>
    9012:	ret    
    9013:	lea    rax,[rip+0xe2d8]        # 172f2 <_IO_stdin_used+0x2f2>
    901a:	ret    
    901b:	lea    rax,[rip+0xe2b6]        # 172d8 <_IO_stdin_used+0x2d8>
    9022:	ret    
    9023:	lea    rax,[rip+0xe292]        # 172bc <_IO_stdin_used+0x2bc>
    902a:	ret    
    902b:	lea    rax,[rip+0xe274]        # 172a6 <_IO_stdin_used+0x2a6>
    9032:	ret    
    9033:	lea    rax,[rip+0xe256]        # 17290 <_IO_stdin_used+0x290>
    903a:	ret    
    903b:	lea    rax,[rip+0xe238]        # 1727a <_IO_stdin_used+0x27a>
    9042:	ret    
    9043:	lea    rax,[rip+0x11586]        # 1a5d0 <_IO_stdin_used+0x35d0>
    904a:	ret    
    904b:	lea    rax,[rip+0xe213]        # 17265 <_IO_stdin_used+0x265>
    9052:	ret    
    9053:	lea    rax,[rip+0xe1fc]        # 17256 <_IO_stdin_used+0x256>
    905a:	ret    
    905b:	lea    rax,[rip+0xe1e4]        # 17246 <_IO_stdin_used+0x246>
    9062:	ret    
    9063:	lea    rax,[rip+0xe1c9]        # 17233 <_IO_stdin_used+0x233>
    906a:	ret    
    906b:	lea    rax,[rip+0xe1a7]        # 17219 <_IO_stdin_used+0x219>
    9072:	ret    
    9073:	lea    rax,[rip+0xe18c]        # 17206 <_IO_stdin_used+0x206>
    907a:	ret    
    907b:	lea    rax,[rip+0xe16d]        # 171ef <_IO_stdin_used+0x1ef>
    9082:	ret    
    9083:	lea    rax,[rip+0xe14a]        # 171d4 <_IO_stdin_used+0x1d4>
    908a:	ret    
    908b:	lea    rax,[rip+0xe128]        # 171ba <_IO_stdin_used+0x1ba>
    9092:	ret    
    9093:	lea    rax,[rip+0xe10a]        # 171a4 <_IO_stdin_used+0x1a4>
    909a:	ret    
    909b:	lea    rax,[rip+0xe0e5]        # 17187 <_IO_stdin_used+0x187>
    90a2:	ret    
    90a3:	lea    rax,[rip+0xe0c2]        # 1716c <_IO_stdin_used+0x16c>
    90aa:	ret    
    90ab:	lea    rax,[rip+0xe0a7]        # 17159 <_IO_stdin_used+0x159>
    90b2:	ret    
    90b3:	lea    rax,[rip+0xe08d]        # 17147 <_IO_stdin_used+0x147>
    90ba:	ret    
    90bb:	lea    rax,[rip+0xe074]        # 17136 <_IO_stdin_used+0x136>
    90c2:	ret    
    90c3:	lea    rax,[rip+0xe059]        # 17123 <_IO_stdin_used+0x123>
    90ca:	ret    
    90cb:	lea    rax,[rip+0xe040]        # 17112 <_IO_stdin_used+0x112>
    90d2:	ret    
    90d3:	lea    rax,[rip+0xe01c]        # 170f6 <_IO_stdin_used+0xf6>
    90da:	ret    
    90db:	lea    rax,[rip+0xdff9]        # 170db <_IO_stdin_used+0xdb>
    90e2:	ret    
    90e3:	lea    rax,[rip+0xdfd9]        # 170c3 <_IO_stdin_used+0xc3>
    90ea:	ret    
    90eb:	lea    rax,[rip+0xdfb9]        # 170ab <_IO_stdin_used+0xab>
    90f2:	ret    
    90f3:	lea    rax,[rip+0xdfa3]        # 1709d <_IO_stdin_used+0x9d>
    90fa:	ret    
    90fb:	lea    rax,[rip+0xdf80]        # 17082 <_IO_stdin_used+0x82>
    9102:	ret    
    9103:	lea    rax,[rip+0xdf6b]        # 17075 <_IO_stdin_used+0x75>
    910a:	ret    
    910b:	lea    rax,[rip+0xdf51]        # 17063 <_IO_stdin_used+0x63>
    9112:	ret    
    9113:	lea    rax,[rip+0xdf35]        # 1704f <_IO_stdin_used+0x4f>
    911a:	ret    
    911b:	lea    rax,[rip+0xdf1b]        # 1703d <_IO_stdin_used+0x3d>
    9122:	ret    
    9123:	lea    rax,[rip+0xdeff]        # 17029 <_IO_stdin_used+0x29>
    912a:	ret    
    912b:	lea    rax,[rip+0xdee7]        # 17019 <_IO_stdin_used+0x19>
    9132:	ret    
    9133:	data16 cs nop WORD PTR [rax+rax*1+0x0]
    913e:	xchg   ax,ax

0000000000009140 <p11_fatal>:
    9140:	push   rbp
    9141:	mov    rbp,rdi
    9144:	push   rbx
    9145:	mov    rbx,rsi
    9148:	sub    rsp,0x8
    914c:	mov    rax,QWORD PTR [rip+0x1cd3d]        # 25e90 <p11>
    9153:	test   rax,rax
    9156:	je     915d <p11_fatal+0x1d>
    9158:	xor    edi,edi
    915a:	call   QWORD PTR [rax+0x10]
    915d:	mov    rdi,QWORD PTR [rip+0x1cd34]        # 25e98 <module>
    9164:	test   rdi,rdi
    9167:	je     916e <p11_fatal+0x2e>
    9169:	call   16590 <C_UnloadModule>
    916e:	mov    rdi,rbx
    9171:	call   8e50 <CKR2Str>
    9176:	mov    ecx,ebx
    9178:	mov    rsi,rbp
    917b:	lea    rdi,[rip+0x115a6]        # 1a728 <_IO_stdin_used+0x3728>
    9182:	mov    rdx,rax
    9185:	xor    eax,eax
    9187:	call   15f90 <util_fatal>
    918c:	nop    DWORD PTR [rax+0x0]

0000000000009190 <get_token_info>:
    9190:	sub    rsp,0x8
    9194:	mov    rax,QWORD PTR [rip+0x1ccf5]        # 25e90 <p11>
    919b:	call   QWORD PTR [rax+0x38]
    919e:	test   rax,rax
    91a1:	jne    91a8 <get_token_info+0x18>
    91a3:	add    rsp,0x8
    91a7:	ret    
    91a8:	mov    rsi,rax
    91ab:	lea    rdi,[rip+0xe4e2]        # 17694 <_IO_stdin_used+0x694>
    91b2:	call   9140 <p11_fatal>
    91b7:	nop    WORD PTR [rax+rax*1+0x0]

00000000000091c0 <get_mechanisms>:
    91c0:	push   r15
    91c2:	push   r14
    91c4:	mov    r14,rsi
    91c7:	push   r13
    91c9:	push   r12
    91cb:	mov    r12,rdi
    91ce:	push   rbp
    91cf:	push   rbx
    91d0:	mov    rbx,rdx
    91d3:	sub    rsp,0x38
    91d7:	mov    rsi,QWORD PTR [rsi]
    91da:	mov    rax,QWORD PTR fs:0x28
    91e3:	mov    QWORD PTR [rsp+0x28],rax
    91e8:	xor    eax,eax
    91ea:	mov    rax,QWORD PTR [rip+0x1cc9f]        # 25e90 <p11>
    91f1:	lea    r13,[rsp+0x8]
    91f6:	mov    QWORD PTR [rsp+0x8],0x0
    91ff:	mov    rdx,r13
    9202:	call   QWORD PTR [rax+0x40]
    9205:	test   rax,rax
    9208:	jne    92ce <get_mechanisms+0x10e>
    920e:	mov    rdi,QWORD PTR [rsp+0x8]
    9213:	mov    esi,0x8
    9218:	call   5790 <calloc@plt>
    921d:	mov    QWORD PTR [r14],rax
    9220:	mov    rsi,rax
    9223:	test   rax,rax
    9226:	je     92f1 <get_mechanisms+0x131>
    922c:	mov    rax,QWORD PTR [rip+0x1cc5d]        # 25e90 <p11>
    9233:	mov    rdx,r13
    9236:	mov    rdi,r12
    9239:	call   QWORD PTR [rax+0x40]
    923c:	mov    rbp,rax
    923f:	test   rax,rax
    9242:	jne    92e2 <get_mechanisms+0x122>
    9248:	cmp    rbx,0xffffffffffffffff
    924c:	je     92aa <get_mechanisms+0xea>
    924e:	mov    r13,QWORD PTR [rsp+0x8]
    9253:	mov    r15,QWORD PTR [r14]
    9256:	test   r13,r13
    9259:	je     92a5 <get_mechanisms+0xe5>
    925b:	xor    r13d,r13d
    925e:	lea    r14,[rsp+0x10]
    9263:	nop    DWORD PTR [rax+rax*1+0x0]
    9268:	mov    rax,QWORD PTR [rip+0x1cc21]        # 25e90 <p11>
    926f:	mov    rsi,QWORD PTR [r15+rbp*8]
    9273:	mov    rdx,r14
    9276:	mov    rdi,r12
    9279:	call   QWORD PTR [rax+0x48]
    927c:	test   rax,rax
    927f:	jne    929a <get_mechanisms+0xda>
    9281:	mov    rax,QWORD PTR [rsp+0x20]
    9286:	and    rax,rbx
    9289:	cmp    rax,rbx
    928c:	jne    929a <get_mechanisms+0xda>
    928e:	mov    rax,QWORD PTR [r15+rbp*8]
    9292:	mov    QWORD PTR [r15+r13*8],rax
    9296:	add    r13,0x1
    929a:	add    rbp,0x1
    929e:	cmp    QWORD PTR [rsp+0x8],rbp
    92a3:	ja     9268 <get_mechanisms+0xa8>
    92a5:	mov    QWORD PTR [rsp+0x8],r13
    92aa:	mov    rcx,QWORD PTR [rsp+0x28]
    92af:	xor    rcx,QWORD PTR fs:0x28
    92b8:	mov    rax,QWORD PTR [rsp+0x8]
    92bd:	jne    92dd <get_mechanisms+0x11d>
    92bf:	add    rsp,0x38
    92c3:	pop    rbx
    92c4:	pop    rbp
    92c5:	pop    r12
    92c7:	pop    r13
    92c9:	pop    r14
    92cb:	pop    r15
    92cd:	ret    
    92ce:	mov    rsi,rax
    92d1:	lea    rdi,[rip+0xe3cb]        # 176a3 <_IO_stdin_used+0x6a3>
    92d8:	call   9140 <p11_fatal>
    92dd:	call   5690 <__stack_chk_fail@plt>
    92e2:	mov    rsi,rax
    92e5:	lea    rdi,[rip+0xe3b7]        # 176a3 <_IO_stdin_used+0x6a3>
    92ec:	call   9140 <p11_fatal>
    92f1:	lea    rdi,[rip+0xe3be]        # 176b6 <_IO_stdin_used+0x6b6>
    92f8:	xor    eax,eax
    92fa:	call   15f90 <util_fatal>
    92ff:	nop

0000000000009300 <find_mechanism>:
    9300:	push   r13
    9302:	mov    r9,rsi
    9305:	push   r12
    9307:	mov    r12,r8
    930a:	push   rbp
    930b:	mov    rbp,rdx
    930e:	mov    rdx,r9
    9311:	push   rbx
    9312:	mov    rbx,rcx
    9315:	sub    rsp,0x18
    9319:	mov    rax,QWORD PTR fs:0x28
    9322:	mov    QWORD PTR [rsp+0x8],rax
    9327:	xor    eax,eax
    9329:	mov    rsi,rsp
    932c:	mov    QWORD PTR [rsp],0x0
    9334:	call   91c0 <get_mechanisms>
    9339:	mov    r8,QWORD PTR [rsp]
    933d:	mov    r13,rax
    9340:	test   rax,rax
    9343:	je     9390 <find_mechanism+0x90>
    9345:	test   rbp,rbp
    9348:	je     93b6 <find_mechanism+0xb6>
    934a:	test   rbx,rbx
    934d:	je     93b6 <find_mechanism+0xb6>
    934f:	xor    edi,edi
    9351:	xor    eax,eax
    9353:	nop    DWORD PTR [rax+rax*1+0x0]
    9358:	mov    rcx,QWORD PTR [r8+rax*8]
    935c:	xor    esi,esi
    935e:	xor    edx,edx
    9360:	jmp    9373 <find_mechanism+0x73>
    9362:	nop    WORD PTR [rax+rax*1+0x0]
    9368:	lea    edx,[rsi+0x1]
    936b:	mov    rsi,rdx
    936e:	cmp    rdx,rbx
    9371:	jae    937f <find_mechanism+0x7f>
    9373:	cmp    rcx,QWORD PTR [rbp+rdx*8+0x0]
    9378:	jne    9368 <find_mechanism+0x68>
    937a:	cmp    rbx,rdx
    937d:	ja     93bf <find_mechanism+0xbf>
    937f:	lea    eax,[rdi+0x1]
    9382:	mov    rdi,rax
    9385:	cmp    rax,r13
    9388:	jb     9358 <find_mechanism+0x58>
    938a:	xor    r13d,r13d
    938d:	nop    DWORD PTR [rax]
    9390:	mov    rdi,r8
    9393:	call   5590 <free@plt>
    9398:	mov    rax,QWORD PTR [rsp+0x8]
    939d:	xor    rax,QWORD PTR fs:0x28
    93a6:	jne    93cf <find_mechanism+0xcf>
    93a8:	add    rsp,0x18
    93ac:	mov    eax,r13d
    93af:	pop    rbx
    93b0:	pop    rbp
    93b1:	pop    r12
    93b3:	pop    r13
    93b5:	ret    
    93b6:	mov    rax,QWORD PTR [r8]
    93b9:	mov    QWORD PTR [r12],rax
    93bd:	jmp    9390 <find_mechanism+0x90>
    93bf:	cmp    r13,rax
    93c2:	jbe    938a <find_mechanism+0x8a>
    93c4:	cmp    rsi,rbx
    93c7:	jae    938a <find_mechanism+0x8a>
    93c9:	mov    QWORD PTR [r12],rcx
    93cd:	jmp    9390 <find_mechanism+0x90>
    93cf:	call   5690 <__stack_chk_fail@plt>
    93d4:	data16 cs nop WORD PTR [rax+rax*1+0x0]
    93df:	nop

00000000000093e0 <p11_flag_names>:
    93e0:	push   r12
    93e2:	mov    BYTE PTR [rip+0x1c4d7],0x0        # 258c0 <buffer.11753>
    93e9:	push   rbp
    93ea:	mov    rbp,rsi
    93ed:	lea    rsi,[rip+0x15c94]        # 1f088 <GOST_HASH2001_PARAMSET_OID+0x238>
    93f4:	push   rbx
    93f5:	mov    rax,QWORD PTR [rdi]
    93f8:	test   rax,rax
    93fb:	je     9461 <p11_flag_names+0x81>
    93fd:	mov    rbx,rdi
    9400:	lea    r12,[rip+0xe2c1]        # 176c8 <_IO_stdin_used+0x6c8>
    9407:	jmp    941d <p11_flag_names+0x3d>
    9409:	nop    DWORD PTR [rax+0x0]
    9410:	mov    rax,QWORD PTR [rbx+0x10]
    9414:	add    rbx,0x10
    9418:	test   rax,rax
    941b:	je     9461 <p11_flag_names+0x81>
    941d:	test   rax,rbp
    9420:	je     9410 <p11_flag_names+0x30>
    9422:	mov    edx,0x400
    9427:	lea    rdi,[rip+0x1c492]        # 258c0 <buffer.11753>
    942e:	add    rbx,0x10
    9432:	call   167b0 <strlcat>
    9437:	mov    rsi,QWORD PTR [rbx-0x8]
    943b:	mov    edx,0x400
    9440:	lea    rdi,[rip+0x1c479]        # 258c0 <buffer.11753>
    9447:	call   167b0 <strlcat>
    944c:	mov    rax,QWORD PTR [rbx-0x10]
    9450:	mov    rsi,r12
    9453:	not    rax
    9456:	and    rbp,rax
    9459:	mov    rax,QWORD PTR [rbx]
    945c:	test   rax,rax
    945f:	jne    941d <p11_flag_names+0x3d>
    9461:	test   rbp,rbp
    9464:	jne    9478 <p11_flag_names+0x98>
    9466:	pop    rbx
    9467:	lea    rax,[rip+0x1c452]        # 258c0 <buffer.11753>
    946e:	pop    rbp
    946f:	pop    r12
    9471:	ret    
    9472:	nop    WORD PTR [rax+rax*1+0x0]
    9478:	lea    r8,[rip+0x1c441]        # 258c0 <buffer.11753>
    947f:	mov    rcx,r8
    9482:	mov    rdi,r8
    9485:	mov    edx,DWORD PTR [rdi]
    9487:	add    rdi,0x4
    948b:	lea    eax,[rdx-0x1010101]
    9491:	not    edx
    9493:	and    eax,edx
    9495:	and    eax,0x80808080
    949a:	je     9485 <p11_flag_names+0xa5>
    949c:	mov    edx,eax
    949e:	mov    r9d,ebp
    94a1:	shr    edx,0x10
    94a4:	test   eax,0x8080
    94a9:	cmove  eax,edx
    94ac:	lea    rdx,[rdi+0x2]
    94b0:	cmove  rdi,rdx
    94b4:	mov    edx,eax
    94b6:	add    dl,al
    94b8:	mov    rdx,0xffffffffffffffff
    94bf:	sbb    rdi,0x3
    94c3:	xor    eax,eax
    94c5:	sub    rdi,r8
    94c8:	mov    r8,rsi
    94cb:	mov    esi,0x1
    94d0:	add    rdi,rcx
    94d3:	lea    rcx,[rip+0xe1f1]        # 176cb <_IO_stdin_used+0x6cb>
    94da:	call   5a70 <__sprintf_chk@plt>
    94df:	pop    rbx
    94e0:	lea    rax,[rip+0x1c3d9]        # 258c0 <buffer.11753>
    94e7:	pop    rbp
    94e8:	pop    r12
    94ea:	ret    
    94eb:	nop    DWORD PTR [rax+rax*1+0x0]

00000000000094f0 <show_token>:
    94f0:	push   rbp
    94f1:	push   rbx
    94f2:	sub    rsp,0xe8
    94f9:	mov    rax,QWORD PTR fs:0x28
    9502:	mov    QWORD PTR [rsp+0xd8],rax
    950a:	xor    eax,eax
    950c:	mov    rax,QWORD PTR [rip+0x1c97d]        # 25e90 <p11>
    9513:	mov    rbx,rsp
    9516:	mov    rsi,rbx
    9519:	call   QWORD PTR [rax+0x38]
    951c:	cmp    rax,0xe1
    9522:	je     9808 <show_token+0x318>
    9528:	mov    rbp,rax
    952b:	test   rax,rax
    952e:	jne    97e0 <show_token+0x2f0>
    9534:	mov    eax,0x20
    9539:	test   BYTE PTR [rsp+0x61],0x4
    953e:	je     9700 <show_token+0x210>
    9544:	nop    DWORD PTR [rax+0x0]
    9548:	mov    rcx,rax
    954b:	lea    rax,[rax-0x1]
    954f:	cmp    BYTE PTR [rbx+rcx*1-0x1],0x20
    9554:	jne    97b0 <show_token+0x2c0>
    955a:	test   rax,rax
    955d:	jne    9548 <show_token+0x58>
    955f:	lea    rbx,[rip+0x1c15a]        # 256c0 <buffer.11770>
    9566:	lea    rsi,[rip+0xe18a]        # 176f7 <_IO_stdin_used+0x6f7>
    956d:	mov    edi,0x1
    9572:	mov    BYTE PTR [rbx+rax*1],0x0
    9576:	mov    rdx,rbx
    9579:	xor    eax,eax
    957b:	call   58a0 <__printf_chk@plt>
    9580:	mov    eax,0x20
    9585:	lea    rdx,[rsp+0x20]
    958a:	nop    WORD PTR [rax+rax*1+0x0]
    9590:	mov    rcx,rax
    9593:	lea    rax,[rax-0x1]
    9597:	cmp    BYTE PTR [rdx+rax*1],0x20
    959b:	jne    9780 <show_token+0x290>
    95a1:	test   rax,rax
    95a4:	jne    9590 <show_token+0xa0>
    95a6:	mov    BYTE PTR [rbx+rax*1],0x0
    95aa:	lea    rdx,[rip+0x1c10f]        # 256c0 <buffer.11770>
    95b1:	lea    rsi,[rip+0xe15a]        # 17712 <_IO_stdin_used+0x712>
    95b8:	xor    eax,eax
    95ba:	mov    edi,0x1
    95bf:	call   58a0 <__printf_chk@plt>
    95c4:	mov    eax,0x10
    95c9:	lea    rdx,[rsp+0x40]
    95ce:	xchg   ax,ax
    95d0:	mov    rcx,rax
    95d3:	lea    rax,[rax-0x1]
    95d7:	cmp    BYTE PTR [rdx+rax*1],0x20
    95db:	jne    9750 <show_token+0x260>
    95e1:	test   rax,rax
    95e4:	jne    95d0 <show_token+0xe0>
    95e6:	lea    rdx,[rip+0x1c0d3]        # 256c0 <buffer.11770>
    95ed:	mov    BYTE PTR [rbx+rax*1],0x0
    95f1:	mov    edi,0x1
    95f6:	xor    eax,eax
    95f8:	lea    rsi,[rip+0xe12e]        # 1772d <_IO_stdin_used+0x72d>
    95ff:	call   58a0 <__printf_chk@plt>
    9604:	mov    rsi,QWORD PTR [rsp+0x60]
    9609:	lea    rdi,[rip+0x19ab0]        # 230c0 <slot_flags.11765>
    9610:	call   93e0 <p11_flag_names>
    9615:	lea    rsi,[rip+0xe12c]        # 17748 <_IO_stdin_used+0x748>
    961c:	mov    edi,0x1
    9621:	mov    rdx,rax
    9624:	xor    eax,eax
    9626:	call   58a0 <__printf_chk@plt>
    962b:	movzx  ecx,BYTE PTR [rsp+0xb9]
    9633:	mov    edi,0x1
    9638:	xor    eax,eax
    963a:	movzx  edx,BYTE PTR [rsp+0xb8]
    9642:	lea    rsi,[rip+0xe11a]        # 17763 <_IO_stdin_used+0x763>
    9649:	call   58a0 <__printf_chk@plt>
    964e:	movzx  edx,BYTE PTR [rsp+0xba]
    9656:	mov    edi,0x1
    965b:	xor    eax,eax
    965d:	movzx  ecx,BYTE PTR [rsp+0xbb]
    9665:	lea    rsi,[rip+0xe115]        # 17781 <_IO_stdin_used+0x781>
    966c:	call   58a0 <__printf_chk@plt>
    9671:	mov    eax,0x10
    9676:	lea    rdx,[rsp+0x50]
    967b:	nop    DWORD PTR [rax+rax*1+0x0]
    9680:	mov    rcx,rax
    9683:	lea    rax,[rax-0x1]
    9687:	cmp    BYTE PTR [rdx+rax*1],0x20
    968b:	jne    9720 <show_token+0x230>
    9691:	test   rax,rax
    9694:	jne    9680 <show_token+0x190>
    9696:	mov    BYTE PTR [rbx+rax*1],0x0
    969a:	lea    rdx,[rip+0x1c01f]        # 256c0 <buffer.11770>
    96a1:	lea    rsi,[rip+0xe0f7]        # 1779f <_IO_stdin_used+0x79f>
    96a8:	xor    eax,eax
    96aa:	mov    edi,0x1
    96af:	call   58a0 <__printf_chk@plt>
    96b4:	mov    rcx,QWORD PTR [rsp+0x88]
    96bc:	mov    edi,0x1
    96c1:	xor    eax,eax
    96c3:	mov    rdx,QWORD PTR [rsp+0x90]
    96cb:	lea    rsi,[rip+0x110ce]        # 1a7a0 <_IO_stdin_used+0x37a0>
    96d2:	call   58a0 <__printf_chk@plt>
    96d7:	mov    rax,QWORD PTR [rsp+0xd8]
    96df:	xor    rax,QWORD PTR fs:0x28
    96e8:	jne    9819 <show_token+0x329>
    96ee:	add    rsp,0xe8
    96f5:	pop    rbx
    96f6:	pop    rbp
    96f7:	ret    
    96f8:	nop    DWORD PTR [rax+rax*1+0x0]
    9700:	mov    edx,DWORD PTR [rip+0x1ca7a]        # 26180 <verbose>
    9706:	test   edx,edx
    9708:	jne    9548 <show_token+0x58>
    970e:	lea    rdi,[rip+0x1106b]        # 1a780 <_IO_stdin_used+0x3780>
    9715:	call   5600 <puts@plt>
    971a:	jmp    96d7 <show_token+0x1e7>
    971c:	nop    DWORD PTR [rax+0x0]
    9720:	lea    rdx,[rip+0x1bf98]        # 256bf <temp.11811+0x3f>
    9727:	lea    rsi,[rsp+0x4f]
    972c:	nop    DWORD PTR [rax+0x0]
    9730:	add    rbp,0x1
    9734:	movzx  eax,BYTE PTR [rsi+rbp*1]
    9738:	mov    BYTE PTR [rdx+rbp*1],al
    973b:	cmp    rbp,rcx
    973e:	jne    9730 <show_token+0x240>
    9740:	mov    rax,rbp
    9743:	jmp    9696 <show_token+0x1a6>
    9748:	nop    DWORD PTR [rax+rax*1+0x0]
    9750:	xor    eax,eax
    9752:	lea    rdx,[rip+0x1bf66]        # 256bf <temp.11811+0x3f>
    9759:	lea    rdi,[rsp+0x3f]
    975e:	xchg   ax,ax
    9760:	add    rax,0x1
    9764:	movzx  esi,BYTE PTR [rdi+rax*1]
    9768:	mov    BYTE PTR [rdx+rax*1],sil
    976c:	cmp    rax,rcx
    976f:	jne    9760 <show_token+0x270>
    9771:	jmp    95e6 <show_token+0xf6>
    9776:	cs nop WORD PTR [rax+rax*1+0x0]
    9780:	xor    eax,eax
    9782:	lea    rdx,[rip+0x1bf36]        # 256bf <temp.11811+0x3f>
    9789:	lea    rdi,[rsp+0x1f]
    978e:	xchg   ax,ax
    9790:	add    rax,0x1
    9794:	movzx  esi,BYTE PTR [rdi+rax*1]
    9798:	mov    BYTE PTR [rdx+rax*1],sil
    979c:	cmp    rax,rcx
    979f:	jne    9790 <show_token+0x2a0>
    97a1:	jmp    95a6 <show_token+0xb6>
    97a6:	cs nop WORD PTR [rax+rax*1+0x0]
    97b0:	xor    eax,eax
    97b2:	lea    rdx,[rip+0x1bf06]        # 256bf <temp.11811+0x3f>
    97b9:	lea    rdi,[rsp-0x1]
    97be:	xchg   ax,ax
    97c0:	add    rax,0x1
    97c4:	movzx  esi,BYTE PTR [rdi+rax*1]
    97c8:	mov    BYTE PTR [rdx+rax*1],sil
    97cc:	cmp    rax,rcx
    97cf:	jne    97c0 <show_token+0x2d0>
    97d1:	jmp    955f <show_token+0x6f>
    97d6:	cs nop WORD PTR [rax+rax*1+0x0]
    97e0:	mov    rdi,rax
    97e3:	call   8e50 <CKR2Str>
    97e8:	lea    rsi,[rip+0x10f69]        # 1a758 <_IO_stdin_used+0x3758>
    97ef:	mov    edi,0x1
    97f4:	mov    rdx,rax
    97f7:	xor    eax,eax
    97f9:	call   58a0 <__printf_chk@plt>
    97fe:	jmp    96d7 <show_token+0x1e7>
    9803:	nop    DWORD PTR [rax+rax*1+0x0]
    9808:	lea    rdi,[rip+0xdecf]        # 176de <_IO_stdin_used+0x6de>
    980f:	call   5600 <puts@plt>
    9814:	jmp    96d7 <show_token+0x1e7>
    9819:	call   5690 <__stack_chk_fail@plt>
    981e:	xchg   ax,ax

0000000000009820 <login>:
    9820:	push   r14
    9822:	push   r13
    9824:	push   r12
    9826:	push   rbp
    9827:	mov    rbp,rdi
    982a:	push   rbx
    982b:	mov    ebx,esi
    982d:	sub    rsp,0xf0
    9834:	mov    rdi,QWORD PTR [rip+0x1c91d]        # 26158 <opt_slot>
    983b:	mov    rax,QWORD PTR fs:0x28
    9844:	mov    QWORD PTR [rsp+0xe8],rax
    984c:	xor    eax,eax
    984e:	lea    r13,[rsp+0x10]
    9853:	mov    QWORD PTR [rsp],0x0
    985b:	mov    QWORD PTR [rsp+0x8],0x0
    9864:	mov    rsi,r13
    9867:	call   9190 <get_token_info>
    986c:	test   ebx,ebx
    986e:	jne    9910 <login+0xf0>
    9874:	mov    r12,QWORD PTR [rip+0x1c765]        # 25fe0 <opt_so_pin>
    987b:	mov    QWORD PTR [rsp],r12
    987f:	mov    rax,QWORD PTR [rsp+0x70]
    9884:	and    eax,0x100
    9889:	test   r12,r12
    988c:	je     9950 <login+0x130>
    9892:	xor    r13d,r13d
    9895:	test   rax,rax
    9898:	jne    98a5 <login+0x85>
    989a:	cmp    BYTE PTR [r12],0x0
    989f:	je     9a30 <login+0x210>
    98a5:	mov    rax,QWORD PTR [rip+0x1c5e4]        # 25e90 <p11>
    98ac:	mov    r14,QWORD PTR [rax+0x98]
    98b3:	mov    rdi,r12
    98b6:	call   5680 <strlen@plt>
    98bb:	movsxd rsi,ebx
    98be:	mov    rdx,r12
    98c1:	mov    rdi,rbp
    98c4:	mov    rcx,rax
    98c7:	call   r14
    98ca:	test   rax,rax
    98cd:	jne    9b82 <login+0x362>
    98d3:	test   r13d,r13d
    98d6:	jne    9a1f <login+0x1ff>
    98dc:	mov    rax,QWORD PTR [rsp+0xe8]
    98e4:	xor    rax,QWORD PTR fs:0x28
    98ed:	jne    9b91 <login+0x371>
    98f3:	add    rsp,0xf0
    98fa:	mov    eax,r13d
    98fd:	pop    rbx
    98fe:	pop    rbp
    98ff:	pop    r12
    9901:	pop    r13
    9903:	pop    r14
    9905:	ret    
    9906:	cs nop WORD PTR [rax+rax*1+0x0]
    9910:	cmp    ebx,0x1
    9913:	je     9a48 <login+0x228>
    9919:	mov    r12,QWORD PTR [rsp]
    991d:	cmp    ebx,0x2
    9920:	jne    987f <login+0x5f>
    9926:	mov    r12,QWORD PTR [rip+0x1c6bb]        # 25fe8 <opt_pin>
    992d:	mov    rax,QWORD PTR [rsp+0x70]
    9932:	test   r12,r12
    9935:	cmove  r12,QWORD PTR [rip+0x1c69b]        # 25fd8 <opt_puk>
    993d:	and    eax,0x100
    9942:	mov    QWORD PTR [rsp],r12
    9946:	test   r12,r12
    9949:	jne    9892 <login+0x72>
    994f:	nop
    9950:	test   rax,rax
    9953:	jne    9a60 <login+0x240>
    9959:	mov    ecx,0x20
    995e:	xchg   ax,ax
    9960:	mov    rdx,rcx
    9963:	lea    rcx,[rcx-0x1]
    9967:	cmp    BYTE PTR [r13+rdx*1-0x1],0x20
    996d:	jne    9ac0 <login+0x2a0>
    9973:	test   rcx,rcx
    9976:	jne    9960 <login+0x140>
    9978:	lea    rdx,[rip+0x1bd41]        # 256c0 <buffer.11770>
    997f:	xor    eax,eax
    9981:	mov    edi,0x1
    9986:	lea    rsi,[rip+0xde2d]        # 177ba <_IO_stdin_used+0x7ba>
    998d:	mov    BYTE PTR [rdx+rcx*1],0x0
    9991:	call   58a0 <__printf_chk@plt>
    9996:	test   ebx,ebx
    9998:	jne    9a90 <login+0x270>
    999e:	mov    rsi,QWORD PTR [rsp+0x70]
    99a3:	and    esi,0xf00000
    99a9:	jne    9b37 <login+0x317>
    99af:	lea    rsi,[rip+0xde26]        # 177dc <_IO_stdin_used+0x7dc>
    99b6:	mov    edi,0x1
    99bb:	xor    eax,eax
    99bd:	call   58a0 <__printf_chk@plt>
    99c2:	mov    rdx,QWORD PTR [rip+0x1bbe7]        # 255b0 <stdin@@GLIBC_2.2.5>
    99c9:	lea    rsi,[rsp+0x8]
    99ce:	mov    rdi,rsp
    99d1:	call   16290 <util_getpass>
    99d6:	test   eax,eax
    99d8:	js     9ba1 <login+0x381>
    99de:	mov    r12,QWORD PTR [rsp]
    99e2:	test   BYTE PTR [rsp+0x71],0x1
    99e7:	jne    9af0 <login+0x2d0>
    99ed:	test   r12,r12
    99f0:	jne    9b96 <login+0x376>
    99f6:	cmp    ebx,0x2
    99f9:	jne    9a39 <login+0x219>
    99fb:	mov    rax,QWORD PTR [rip+0x1c48e]        # 25e90 <p11>
    9a02:	mov    r14,QWORD PTR [rax+0x98]
    9a09:	xor    ecx,ecx
    9a0b:	xor    edx,edx
    9a0d:	movsxd rsi,ebx
    9a10:	mov    rdi,rbp
    9a13:	call   r14
    9a16:	test   rax,rax
    9a19:	jne    9b82 <login+0x362>
    9a1f:	mov    rdi,QWORD PTR [rsp]
    9a23:	xor    r13d,r13d
    9a26:	call   5590 <free@plt>
    9a2b:	jmp    98dc <login+0xbc>
    9a30:	cmp    ebx,0x2
    9a33:	je     98a5 <login+0x85>
    9a39:	mov    r13d,0x1
    9a3f:	jmp    98dc <login+0xbc>
    9a44:	nop    DWORD PTR [rax+0x0]
    9a48:	mov    r12,QWORD PTR [rip+0x1c599]        # 25fe8 <opt_pin>
    9a4f:	mov    QWORD PTR [rsp],r12
    9a53:	jmp    987f <login+0x5f>
    9a58:	nop    DWORD PTR [rax+rax*1+0x0]
    9a60:	mov    rax,QWORD PTR [rip+0x1c429]        # 25e90 <p11>
    9a67:	xor    ecx,ecx
    9a69:	xor    edx,edx
    9a6b:	movsxd rsi,ebx
    9a6e:	mov    rdi,rbp
    9a71:	call   QWORD PTR [rax+0x98]
    9a77:	test   rax,rax
    9a7a:	jne    9b82 <login+0x362>
    9a80:	xor    r13d,r13d
    9a83:	jmp    98dc <login+0xbc>
    9a88:	nop    DWORD PTR [rax+rax*1+0x0]
    9a90:	cmp    ebx,0x1
    9a93:	je     9b12 <login+0x2f2>
    9a95:	cmp    ebx,0x2
    9a98:	jne    99c2 <login+0x1a2>
    9a9e:	lea    rsi,[rip+0x10d1b]        # 1a7c0 <_IO_stdin_used+0x37c0>
    9aa5:	mov    edi,0x1
    9aaa:	xor    eax,eax
    9aac:	call   58a0 <__printf_chk@plt>
    9ab1:	jmp    99c2 <login+0x1a2>
    9ab6:	cs nop WORD PTR [rax+rax*1+0x0]
    9ac0:	lea    rdi,[rip+0x1bbf8]        # 256bf <temp.11811+0x3f>
    9ac7:	lea    rsi,[rsp+0xf]
    9acc:	nop    DWORD PTR [rax+0x0]
    9ad0:	add    rax,0x1
    9ad4:	movzx  ecx,BYTE PTR [rsi+rax*1]
    9ad8:	mov    BYTE PTR [rdi+rax*1],cl
    9adb:	cmp    rax,rdx
    9ade:	jne    9ad0 <login+0x2b0>
    9ae0:	mov    rcx,rax
    9ae3:	jmp    9978 <login+0x158>
    9ae8:	nop    DWORD PTR [rax+rax*1+0x0]
    9af0:	mov    rax,QWORD PTR [rip+0x1c399]        # 25e90 <p11>
    9af7:	mov    r14,QWORD PTR [rax+0x98]
    9afe:	test   r12,r12
    9b01:	je     9a09 <login+0x1e9>
    9b07:	mov    r13d,0x1
    9b0d:	jmp    98b3 <login+0x93>
    9b12:	mov    rsi,QWORD PTR [rsp+0x70]
    9b17:	and    esi,0xf0000
    9b1d:	jne    9b5e <login+0x33e>
    9b1f:	lea    rsi,[rip+0xdccc]        # 177f2 <_IO_stdin_used+0x7f2>
    9b26:	mov    edi,0x1
    9b2b:	xor    eax,eax
    9b2d:	call   58a0 <__printf_chk@plt>
    9b32:	jmp    99c2 <login+0x1a2>
    9b37:	lea    rdi,[rip+0x19582]        # 230c0 <slot_flags.11765>
    9b3e:	call   93e0 <p11_flag_names>
    9b43:	lea    rsi,[rip+0xdc85]        # 177cf <_IO_stdin_used+0x7cf>
    9b4a:	mov    edi,0x1
    9b4f:	mov    rdx,rax
    9b52:	xor    eax,eax
    9b54:	call   58a0 <__printf_chk@plt>
    9b59:	jmp    99af <login+0x18f>
    9b5e:	lea    rdi,[rip+0x1955b]        # 230c0 <slot_flags.11765>
    9b65:	call   93e0 <p11_flag_names>
    9b6a:	lea    rsi,[rip+0xdc5e]        # 177cf <_IO_stdin_used+0x7cf>
    9b71:	mov    edi,0x1
    9b76:	mov    rdx,rax
    9b79:	xor    eax,eax
    9b7b:	call   58a0 <__printf_chk@plt>
    9b80:	jmp    9b1f <login+0x2ff>
    9b82:	mov    rsi,rax
    9b85:	lea    rdi,[rip+0xdc91]        # 1781d <_IO_stdin_used+0x81d>
    9b8c:	call   9140 <p11_fatal>
    9b91:	call   5690 <__stack_chk_fail@plt>
    9b96:	mov    r13d,0x1
    9b9c:	jmp    989a <login+0x7a>
    9ba1:	lea    rdi,[rip+0xdc62]        # 1780a <_IO_stdin_used+0x80a>
    9ba8:	xor    eax,eax
    9baa:	call   15f90 <util_fatal>
    9baf:	nop

0000000000009bb0 <p11_perror>:
    9bb0:	sub    rsp,0x8
    9bb4:	mov    rcx,rdi
    9bb7:	mov    rdi,rsi
    9bba:	mov    r9,rsi
    9bbd:	call   8e50 <CKR2Str>
    9bc2:	mov    rdi,QWORD PTR [rip+0x1ba17]        # 255e0 <stderr@@GLIBC_2.2.5>
    9bc9:	mov    esi,0x1
    9bce:	lea    rdx,[rip+0xdc50]        # 17825 <_IO_stdin_used+0x825>
    9bd5:	mov    r8,rax
    9bd8:	add    rsp,0x8
    9bdc:	xor    eax,eax
    9bde:	jmp    59b0 <__fprintf_chk@plt>
    9be3:	data16 cs nop WORD PTR [rax+rax*1+0x0]
    9bee:	xchg   ax,ax

0000000000009bf0 <test_random>:
    9bf0:	push   r13
    9bf2:	push   r12
    9bf4:	push   rbp
    9bf5:	mov    rbp,rdi
    9bf8:	lea    rdi,[rip+0x10be9]        # 1a7e8 <_IO_stdin_used+0x37e8>
    9bff:	sub    rsp,0x150
    9c06:	mov    rax,QWORD PTR fs:0x28
    9c0f:	mov    QWORD PTR [rsp+0x148],rax
    9c17:	xor    eax,eax
    9c19:	call   5600 <puts@plt>
    9c1e:	mov    rax,QWORD PTR [rip+0x1c26b]        # 25e90 <p11>
    9c25:	mov    edx,0x64
    9c2a:	mov    rdi,rbp
    9c2d:	lea    rsi,[rsp+0xe0]
    9c35:	call   QWORD PTR [rax+0x200]
    9c3b:	cmp    rax,0x121
    9c41:	je     9d8c <test_random+0x19c>
    9c47:	cmp    rax,0x120
    9c4d:	je     9d39 <test_random+0x149>
    9c53:	cmp    rax,0x54
    9c57:	je     9d39 <test_random+0x149>
    9c5d:	test   rax,rax
    9c60:	jne    9d60 <test_random+0x170>
    9c66:	mov    rax,QWORD PTR [rip+0x1c223]        # 25e90 <p11>
    9c6d:	mov    r12,rsp
    9c70:	mov    edx,0xa
    9c75:	mov    rdi,rbp
    9c78:	mov    rsi,r12
    9c7b:	call   QWORD PTR [rax+0x208]
    9c81:	test   rax,rax
    9c84:	jne    9d76 <test_random+0x186>
    9c8a:	mov    rax,QWORD PTR [rip+0x1c1ff]        # 25e90 <p11>
    9c91:	mov    edx,0x64
    9c96:	mov    rsi,r12
    9c99:	mov    rdi,rbp
    9c9c:	call   QWORD PTR [rax+0x208]
    9ca2:	test   rax,rax
    9ca5:	jne    9d4a <test_random+0x15a>
    9cab:	mov    rax,QWORD PTR [rip+0x1c1de]        # 25e90 <p11>
    9cb2:	xor    edx,edx
    9cb4:	mov    rsi,r12
    9cb7:	mov    rdi,rbp
    9cba:	call   QWORD PTR [rax+0x208]
    9cc0:	test   rax,rax
    9cc3:	jne    9db0 <test_random+0x1c0>
    9cc9:	mov    rax,QWORD PTR [rip+0x1c1c0]        # 25e90 <p11>
    9cd0:	lea    r13,[rsp+0x70]
    9cd5:	mov    edx,0x64
    9cda:	mov    rdi,rbp
    9cdd:	mov    rsi,r13
    9ce0:	call   QWORD PTR [rax+0x208]
    9ce6:	test   rax,rax
    9ce9:	jne    9dc9 <test_random+0x1d9>
    9cef:	mov    edx,0x64
    9cf4:	mov    rsi,r13
    9cf7:	mov    rdi,r12
    9cfa:	call   5750 <memcmp@plt>
    9cff:	test   eax,eax
    9d01:	je     9d9f <test_random+0x1af>
    9d07:	lea    rdi,[rip+0xdbb6]        # 178c4 <_IO_stdin_used+0x8c4>
    9d0e:	call   5600 <puts@plt>
    9d13:	xor    eax,eax
    9d15:	mov    rcx,QWORD PTR [rsp+0x148]
    9d1d:	xor    rcx,QWORD PTR fs:0x28
    9d26:	jne    9de2 <test_random+0x1f2>
    9d2c:	add    rsp,0x150
    9d33:	pop    rbp
    9d34:	pop    r12
    9d36:	pop    r13
    9d38:	ret    
    9d39:	lea    rdi,[rip+0x10ad0]        # 1a810 <_IO_stdin_used+0x3810>
    9d40:	call   5600 <puts@plt>
    9d45:	jmp    9c66 <test_random+0x76>
    9d4a:	mov    rsi,rax
    9d4d:	lea    rdi,[rip+0xdb21]        # 17875 <_IO_stdin_used+0x875>
    9d54:	call   9bb0 <p11_perror>
    9d59:	mov    eax,0x1
    9d5e:	jmp    9d15 <test_random+0x125>
    9d60:	mov    rsi,rax
    9d63:	lea    rdi,[rip+0xdaed]        # 17857 <_IO_stdin_used+0x857>
    9d6a:	call   9bb0 <p11_perror>
    9d6f:	mov    eax,0x1
    9d74:	jmp    9d15 <test_random+0x125>
    9d76:	mov    rsi,rax
    9d79:	lea    rdi,[rip+0xdae4]        # 17864 <_IO_stdin_used+0x864>
    9d80:	call   9bb0 <p11_perror>
    9d85:	mov    eax,0x1
    9d8a:	jmp    9d15 <test_random+0x125>
    9d8c:	lea    rdi,[rip+0xdab0]        # 17843 <_IO_stdin_used+0x843>
    9d93:	call   5600 <puts@plt>
    9d98:	xor    eax,eax
    9d9a:	jmp    9d15 <test_random+0x125>
    9d9f:	lea    rdi,[rip+0x10a92]        # 1a838 <_IO_stdin_used+0x3838>
    9da6:	call   5600 <puts@plt>
    9dab:	jmp    9d07 <test_random+0x117>
    9db0:	mov    rsi,rax
    9db3:	lea    rdi,[rip+0xdad6]        # 17890 <_IO_stdin_used+0x890>
    9dba:	call   9bb0 <p11_perror>
    9dbf:	mov    eax,0x1
    9dc4:	jmp    9d15 <test_random+0x125>
    9dc9:	mov    rsi,rax
    9dcc:	lea    rdi,[rip+0xdad6]        # 178a9 <_IO_stdin_used+0x8a9>
    9dd3:	call   9bb0 <p11_perror>
    9dd8:	mov    eax,0x1
    9ddd:	jmp    9d15 <test_random+0x125>
    9de2:	call   5690 <__stack_chk_fail@plt>
    9de7:	nop    WORD PTR [rax+rax*1+0x0]

0000000000009df0 <test_threads_run>:
    9df0:	endbr64 
    9df4:	push   r15
    9df6:	mov    esi,0x1
    9dfb:	lea    rdx,[rip+0x10a76]        # 1a878 <_IO_stdin_used+0x3878>
    9e02:	xor    r15d,r15d
    9e05:	push   r14
    9e07:	xor    r14d,r14d
    9e0a:	push   r13
    9e0c:	xor    r13d,r13d
    9e0f:	push   r12
    9e11:	push   rbp
    9e12:	mov    rbp,rdi
    9e15:	push   rbx
    9e16:	sub    rsp,0x88
    9e1d:	mov    r8,QWORD PTR [rdi+0x8]
    9e21:	mov    ecx,DWORD PTR [rdi]
    9e23:	mov    rax,QWORD PTR fs:0x28
    9e2c:	mov    QWORD PTR [rsp+0x78],rax
    9e31:	xor    eax,eax
    9e33:	mov    rdi,QWORD PTR [rip+0x1b7a6]        # 255e0 <stderr@@GLIBC_2.2.5>
    9e3a:	mov    QWORD PTR [rsp+0x18],0x0
    9e43:	call   59b0 <__fprintf_chk@plt>
    9e48:	lea    rsi,[rsp+0x18]
    9e4d:	mov    rbx,QWORD PTR [rbp+0x8]
    9e51:	xor    eax,eax
    9e53:	mov    QWORD PTR [rsp],rsi
    9e57:	jmp    9e79 <test_threads_run+0x89>
    9e59:	nop    DWORD PTR [rax+0x0]
    9e60:	add    rbx,0x1
    9e64:	test   r15,r15
    9e67:	je     9e76 <test_threads_run+0x86>
    9e69:	cmp    r15,0x191
    9e70:	jne    a006 <test_threads_run+0x216>
    9e76:	mov    eax,r12d
    9e79:	mov    r10,QWORD PTR [rip+0x1b760]        # 255e0 <stderr@@GLIBC_2.2.5>
    9e80:	test   rbx,rbx
    9e83:	je     a006 <test_threads_run+0x216>
    9e89:	cmp    BYTE PTR [rbx],0x0
    9e8c:	je     a006 <test_threads_run+0x216>
    9e92:	cmp    BYTE PTR [rbx+0x1],0x0
    9e96:	je     a006 <test_threads_run+0x216>
    9e9c:	mov    DWORD PTR [rbp+0x10],eax
    9e9f:	movzx  edx,BYTE PTR [rbx]
    9ea2:	lea    r12d,[rax+0x1]
    9ea6:	mov    ecx,DWORD PTR [rbp+0x0]
    9ea9:	cmp    dl,0x50
    9eac:	je     9fc8 <test_threads_run+0x1d8>
    9eb2:	cmp    dl,0x49
    9eb5:	jne    9f50 <test_threads_run+0x160>
    9ebb:	movzx  eax,BYTE PTR [rbx+0x1]
    9ebf:	cmp    al,0x4e
    9ec1:	je     a218 <test_threads_run+0x428>
    9ec7:	cmp    al,0x4c
    9ec9:	jne    9fd9 <test_threads_run+0x1e9>
    9ecf:	lea    rdx,[rip+0x10a4a]        # 1a920 <_IO_stdin_used+0x3920>
    9ed6:	mov    esi,0x1
    9edb:	mov    rdi,r10
    9ede:	xor    eax,eax
    9ee0:	call   59b0 <__fprintf_chk@plt>
    9ee5:	mov    rax,QWORD PTR [rip+0x1bfa4]        # 25e90 <p11>
    9eec:	lea    rdi,[rip+0x1912d]        # 23020 <c_initialize_args_OS>
    9ef3:	call   QWORD PTR [rax+0x8]
    9ef6:	mov    QWORD PTR [rbp+0x18],rax
    9efa:	mov    rdi,rax
    9efd:	mov    r15,rax
    9f00:	call   8e50 <CKR2Str>
    9f05:	mov    ecx,DWORD PTR [rbp+0x0]
    9f08:	mov    esi,0x1
    9f0d:	mov    rdi,QWORD PTR [rip+0x1b6cc]        # 255e0 <stderr@@GLIBC_2.2.5>
    9f14:	mov    r8,rax
    9f17:	lea    rdx,[rip+0x10a32]        # 1a950 <_IO_stdin_used+0x3950>
    9f1e:	xor    eax,eax
    9f20:	call   59b0 <__fprintf_chk@plt>
    9f25:	cmp    BYTE PTR [rbx+0x1],0x0
    9f29:	je     9e60 <test_threads_run+0x70>
    9f2f:	cmp    BYTE PTR [rbx+0x2],0x3a
    9f33:	lea    rax,[rbx+0x2]
    9f37:	jne    a210 <test_threads_run+0x420>
    9f3d:	add    rbx,0x3
    9f41:	jmp    9e64 <test_threads_run+0x74>
    9f46:	cs nop WORD PTR [rax+rax*1+0x0]
    9f50:	cmp    dl,0x47
    9f53:	je     a040 <test_threads_run+0x250>
    9f59:	cmp    dl,0x53
    9f5c:	je     a0a0 <test_threads_run+0x2b0>
    9f62:	cmp    dl,0x54
    9f65:	jne    9fd9 <test_threads_run+0x1e9>
    9f67:	movsx  r8d,BYTE PTR [rbx+0x1]
    9f6c:	lea    eax,[r8-0x30]
    9f70:	cmp    al,0x9
    9f72:	ja     9fd9 <test_threads_run+0x1e9>
    9f74:	sub    r8d,0x30
    9f78:	xor    eax,eax
    9f7a:	lea    rdx,[rip+0x10ab7]        # 1aa38 <_IO_stdin_used+0x3a38>
    9f81:	mov    rdi,r10
    9f84:	mov    esi,0x1
    9f89:	call   59b0 <__fprintf_chk@plt>
    9f8e:	test   r14d,r14d
    9f91:	je     a299 <test_threads_run+0x4a9>
    9f97:	movsx  rax,BYTE PTR [rbx+0x1]
    9f9c:	mov    rdx,rax
    9f9f:	sub    eax,0x30
    9fa2:	cdqe   
    9fa4:	cmp    rax,QWORD PTR [rsp+0x18]
    9fa9:	jae    a299 <test_threads_run+0x4a9>
    9faf:	mov    rdi,QWORD PTR [r13+rdx*8-0x180]
    9fb7:	call   94f0 <show_token>
    9fbc:	jmp    9f25 <test_threads_run+0x135>
    9fc1:	nop    DWORD PTR [rax+0x0]
    9fc8:	movsx  r8d,BYTE PTR [rbx+0x1]
    9fcd:	lea    eax,[r8-0x30]
    9fd1:	cmp    al,0x9
    9fd3:	jbe    a26e <test_threads_run+0x47e>
    9fd9:	mov    esi,0x1
    9fde:	mov    rdi,r10
    9fe1:	xor    eax,eax
    9fe3:	mov    r15d,0x5
    9fe9:	mov    QWORD PTR [rbp+0x18],0x5
    9ff1:	movsx  r9d,BYTE PTR [rbx+0x1]
    9ff6:	lea    rdx,[rip+0x10acb]        # 1aac8 <_IO_stdin_used+0x3ac8>
    9ffd:	movsx  r8d,BYTE PTR [rbx]
    a001:	call   59b0 <__fprintf_chk@plt>
    a006:	mov    rdi,r13
    a009:	call   5590 <free@plt>
    a00e:	mov    ecx,DWORD PTR [rbp+0x0]
    a011:	xor    r8d,r8d
    a014:	mov    esi,0x1
    a019:	mov    rdi,QWORD PTR [rip+0x1b5c0]        # 255e0 <stderr@@GLIBC_2.2.5>
    a020:	lea    rdx,[rip+0x10ac9]        # 1aaf0 <_IO_stdin_used+0x3af0>
    a027:	xor    eax,eax
    a029:	call   59b0 <__fprintf_chk@plt>
    a02e:	mov    DWORD PTR [rbp+0x10],0xffffffff
    a035:	xor    edi,edi
    a037:	mov    QWORD PTR [rbp+0x18],r15
    a03b:	call   5830 <pthread_exit@plt>
    a040:	cmp    BYTE PTR [rbx+0x1],0x49
    a044:	jne    9fd9 <test_threads_run+0x1e9>
    a046:	mov    rdi,r10
    a049:	lea    rdx,[rip+0xd885]        # 178d5 <_IO_stdin_used+0x8d5>
    a050:	mov    esi,0x1
    a055:	xor    eax,eax
    a057:	call   59b0 <__fprintf_chk@plt>
    a05c:	mov    rax,QWORD PTR [rip+0x1be2d]        # 25e90 <p11>
    a063:	lea    rdi,[rsp+0x20]
    a068:	call   QWORD PTR [rax+0x18]
    a06b:	mov    QWORD PTR [rbp+0x18],rax
    a06f:	mov    rdi,rax
    a072:	mov    r15,rax
    a075:	call   8e50 <CKR2Str>
    a07a:	mov    ecx,DWORD PTR [rbp+0x0]
    a07d:	mov    esi,0x1
    a082:	mov    rdi,QWORD PTR [rip+0x1b557]        # 255e0 <stderr@@GLIBC_2.2.5>
    a089:	mov    r8,rax
    a08c:	lea    rdx,[rip+0x108ed]        # 1a980 <_IO_stdin_used+0x3980>
    a093:	xor    eax,eax
    a095:	call   59b0 <__fprintf_chk@plt>
    a09a:	jmp    9f25 <test_threads_run+0x135>
    a09f:	nop
    a0a0:	cmp    BYTE PTR [rbx+0x1],0x4c
    a0a4:	jne    9fd9 <test_threads_run+0x1e9>
    a0aa:	mov    rdi,r10
    a0ad:	lea    rdx,[rip+0x108f4]        # 1a9a8 <_IO_stdin_used+0x39a8>
    a0b4:	mov    esi,0x1
    a0b9:	xor    eax,eax
    a0bb:	call   59b0 <__fprintf_chk@plt>
    a0c0:	xor    esi,esi
    a0c2:	mov    rdx,QWORD PTR [rsp]
    a0c6:	mov    edi,0x1
    a0cb:	mov    rax,QWORD PTR [rip+0x1bdbe]        # 25e90 <p11>
    a0d2:	call   QWORD PTR [rax+0x28]
    a0d5:	mov    QWORD PTR [rbp+0x18],rax
    a0d9:	mov    rdi,rax
    a0dc:	mov    r15,rax
    a0df:	call   8e50 <CKR2Str>
    a0e4:	mov    ecx,DWORD PTR [rbp+0x0]
    a0e7:	mov    esi,0x1
    a0ec:	mov    rdi,QWORD PTR [rip+0x1b4ed]        # 255e0 <stderr@@GLIBC_2.2.5>
    a0f3:	mov    r8,rax
    a0f6:	lea    rdx,[rip+0x108e3]        # 1a9e0 <_IO_stdin_used+0x39e0>
    a0fd:	xor    eax,eax
    a0ff:	call   59b0 <__fprintf_chk@plt>
    a104:	mov    r8,QWORD PTR [rsp+0x18]
    a109:	mov    ecx,DWORD PTR [rbp+0x0]
    a10c:	xor    eax,eax
    a10e:	mov    rdi,QWORD PTR [rip+0x1b4cb]        # 255e0 <stderr@@GLIBC_2.2.5>
    a115:	lea    rdx,[rip+0x108f4]        # 1aa10 <_IO_stdin_used+0x3a10>
    a11c:	mov    esi,0x1
    a121:	call   59b0 <__fprintf_chk@plt>
    a126:	test   r15,r15
    a129:	jne    9f25 <test_threads_run+0x135>
    a12f:	mov    rdi,r13
    a132:	xor    r13d,r13d
    a135:	call   5590 <free@plt>
    a13a:	mov    r15,QWORD PTR [rsp+0x18]
    a13f:	test   r15,r15
    a142:	je     9f25 <test_threads_run+0x135>
    a148:	mov    r10,QWORD PTR [rip+0x1b491]        # 255e0 <stderr@@GLIBC_2.2.5>
    a14f:	mov    esi,0x8
    a154:	mov    rdi,r15
    a157:	mov    QWORD PTR [rsp+0x8],r10
    a15c:	call   5790 <calloc@plt>
    a161:	mov    ecx,DWORD PTR [rbp+0x0]
    a164:	mov    r10,QWORD PTR [rsp+0x8]
    a169:	test   rax,rax
    a16c:	mov    r13,rax
    a16f:	je     9fd9 <test_threads_run+0x1e9>
    a175:	mov    rdi,r10
    a178:	lea    rdx,[rip+0xd770]        # 178ef <_IO_stdin_used+0x8ef>
    a17f:	mov    esi,0x1
    a184:	xor    eax,eax
    a186:	call   59b0 <__fprintf_chk@plt>
    a18b:	mov    rax,QWORD PTR [rip+0x1bcfe]        # 25e90 <p11>
    a192:	mov    rdx,QWORD PTR [rsp]
    a196:	mov    rsi,r13
    a199:	mov    edi,0x1
    a19e:	call   QWORD PTR [rax+0x28]
    a1a1:	mov    QWORD PTR [rbp+0x18],rax
    a1a5:	mov    rdi,rax
    a1a8:	mov    r15,rax
    a1ab:	call   8e50 <CKR2Str>
    a1b0:	mov    ecx,DWORD PTR [rbp+0x0]
    a1b3:	mov    esi,0x1
    a1b8:	mov    rdi,QWORD PTR [rip+0x1b421]        # 255e0 <stderr@@GLIBC_2.2.5>
    a1bf:	mov    r8,rax
    a1c2:	lea    rdx,[rip+0x10817]        # 1a9e0 <_IO_stdin_used+0x39e0>
    a1c9:	xor    eax,eax
    a1cb:	call   59b0 <__fprintf_chk@plt>
    a1d0:	mov    r8,QWORD PTR [rsp+0x18]
    a1d5:	mov    ecx,DWORD PTR [rbp+0x0]
    a1d8:	xor    eax,eax
    a1da:	mov    rdi,QWORD PTR [rip+0x1b3ff]        # 255e0 <stderr@@GLIBC_2.2.5>
    a1e1:	lea    rdx,[rip+0x10828]        # 1aa10 <_IO_stdin_used+0x3a10>
    a1e8:	mov    esi,0x1
    a1ed:	call   59b0 <__fprintf_chk@plt>
    a1f2:	test   r15,r15
    a1f5:	jne    9f25 <test_threads_run+0x135>
    a1fb:	cmp    QWORD PTR [rsp+0x18],0x0
    a201:	mov    eax,0x1
    a206:	cmovne r14d,eax
    a20a:	jmp    9f25 <test_threads_run+0x135>
    a20f:	nop
    a210:	mov    rbx,rax
    a213:	jmp    9e64 <test_threads_run+0x74>
    a218:	mov    rdi,r10
    a21b:	lea    rdx,[rip+0x106a6]        # 1a8c8 <_IO_stdin_used+0x38c8>
    a222:	mov    esi,0x1
    a227:	xor    eax,eax
    a229:	call   59b0 <__fprintf_chk@plt>
    a22e:	mov    rax,QWORD PTR [rip+0x1bc5b]        # 25e90 <p11>
    a235:	xor    edi,edi
    a237:	call   QWORD PTR [rax+0x8]
    a23a:	mov    QWORD PTR [rbp+0x18],rax
    a23e:	mov    rdi,rax
    a241:	mov    r15,rax
    a244:	call   8e50 <CKR2Str>
    a249:	mov    ecx,DWORD PTR [rbp+0x0]
    a24c:	mov    esi,0x1
    a251:	mov    rdi,QWORD PTR [rip+0x1b388]        # 255e0 <stderr@@GLIBC_2.2.5>
    a258:	mov    r8,rax
    a25b:	lea    rdx,[rip+0x1068e]        # 1a8f0 <_IO_stdin_used+0x38f0>
    a262:	xor    eax,eax
    a264:	call   59b0 <__fprintf_chk@plt>
    a269:	jmp    9f25 <test_threads_run+0x135>
    a26e:	mov    rdi,r10
    a271:	sub    r8d,0x30
    a275:	lea    rdx,[rip+0x10624]        # 1a8a0 <_IO_stdin_used+0x38a0>
    a27c:	xor    eax,eax
    a27e:	mov    esi,0x1
    a283:	call   59b0 <__fprintf_chk@plt>
    a288:	movsx  edi,BYTE PTR [rbx+0x1]
    a28c:	sub    edi,0x30
    a28f:	call   5a00 <sleep@plt>
    a294:	jmp    9f25 <test_threads_run+0x135>
    a299:	mov    ecx,DWORD PTR [rbp+0x0]
    a29c:	mov    esi,0x1
    a2a1:	xor    eax,eax
    a2a3:	mov    r15d,0xe0
    a2a9:	mov    rdi,QWORD PTR [rip+0x1b330]        # 255e0 <stderr@@GLIBC_2.2.5>
    a2b0:	lea    rdx,[rip+0x107c9]        # 1aa80 <_IO_stdin_used+0x3a80>
    a2b7:	call   59b0 <__fprintf_chk@plt>
    a2bc:	jmp    a006 <test_threads_run+0x216>
    a2c1:	data16 cs nop WORD PTR [rax+rax*1+0x0]
    a2cc:	nop    DWORD PTR [rax+0x0]

000000000000a2d0 <find_object_with_attributes.part.0>:
    a2d0:	push   r15
    a2d2:	push   r14
    a2d4:	push   r13
    a2d6:	mov    r13,rdi
    a2d9:	push   r12
    a2db:	push   rbp
    a2dc:	mov    rbp,rsi
    a2df:	push   rbx
    a2e0:	sub    rsp,0x28
    a2e4:	mov    rax,QWORD PTR fs:0x28
    a2ed:	mov    QWORD PTR [rsp+0x18],rax
    a2f2:	xor    eax,eax
    a2f4:	lea    r15,[rsp+0x8]
    a2f9:	lea    r14,[rsp+0x10]
    a2fe:	test   rdx,rdx
    a301:	je     a368 <find_object_with_attributes.part.0+0x98>
    a303:	mov    r12,rdx
    a306:	lea    r15,[rsp+0x8]
    a30b:	lea    r14,[rsp+0x10]
    a310:	xor    ebx,ebx
    a312:	jmp    a329 <find_object_with_attributes.part.0+0x59>
    a314:	nop    DWORD PTR [rax+0x0]
    a318:	cmp    QWORD PTR [rsp+0x8],0x0
    a31e:	je     a399 <find_object_with_attributes.part.0+0xc9>
    a320:	add    rbx,0x1
    a324:	cmp    rbx,r12
    a327:	je     a368 <find_object_with_attributes.part.0+0x98>
    a329:	mov    rax,QWORD PTR [rip+0x1bb60]        # 25e90 <p11>
    a330:	mov    rcx,r15
    a333:	mov    rsi,r14
    a336:	mov    rdi,r13
    a339:	mov    edx,0x1
    a33e:	call   QWORD PTR [rax+0xe0]
    a344:	test   rax,rax
    a347:	je     a318 <find_object_with_attributes.part.0+0x48>
    a349:	mov    rcx,QWORD PTR [rsp+0x18]
    a34e:	xor    rcx,QWORD PTR fs:0x28
    a357:	jne    a3ad <find_object_with_attributes.part.0+0xdd>
    a359:	add    rsp,0x28
    a35d:	pop    rbx
    a35e:	pop    rbp
    a35f:	pop    r12
    a361:	pop    r13
    a363:	pop    r14
    a365:	pop    r15
    a367:	ret    
    a368:	mov    rax,QWORD PTR [rip+0x1bb21]        # 25e90 <p11>
    a36f:	mov    rcx,r15
    a372:	mov    rsi,r14
    a375:	mov    rdi,r13
    a378:	mov    edx,0x1
    a37d:	call   QWORD PTR [rax+0xe0]
    a383:	test   rax,rax
    a386:	jne    a349 <find_object_with_attributes.part.0+0x79>
    a388:	cmp    QWORD PTR [rsp+0x8],0x0
    a38e:	je     a399 <find_object_with_attributes.part.0+0xc9>
    a390:	mov    rax,QWORD PTR [rsp+0x10]
    a395:	mov    QWORD PTR [rbp+0x0],rax
    a399:	mov    rax,QWORD PTR [rip+0x1baf0]        # 25e90 <p11>
    a3a0:	mov    rdi,r13
    a3a3:	call   QWORD PTR [rax+0xe8]
    a3a9:	xor    eax,eax
    a3ab:	jmp    a349 <find_object_with_attributes.part.0+0x79>
    a3ad:	call   5690 <__stack_chk_fail@plt>
    a3b2:	data16 cs nop WORD PTR [rax+rax*1+0x0]
    a3bd:	nop    DWORD PTR [rax]

000000000000a3c0 <p11_mechanism_to_name.part.0>:
    a3c0:	sub    rsp,0x8
    a3c4:	mov    r9,rdi
    a3c7:	lea    r8,[rip+0xd53f]        # 1790d <_IO_stdin_used+0x90d>
    a3ce:	xor    eax,eax
    a3d0:	mov    ecx,0x40
    a3d5:	mov    edx,0x1
    a3da:	mov    esi,0x40
    a3df:	lea    rdi,[rip+0x1b29a]        # 25680 <temp.11811>
    a3e6:	call   5580 <__snprintf_chk@plt>
    a3eb:	lea    rax,[rip+0x1b28e]        # 25680 <temp.11811>
    a3f2:	add    rsp,0x8
    a3f6:	ret    
    a3f7:	nop    WORD PTR [rax+rax*1+0x0]

000000000000a400 <list_mechs>:
    a400:	push   r15
    a402:	mov    rdx,0xffffffffffffffff
    a409:	push   r14
    a40b:	lea    r14,[rip+0xd520]        # 17932 <_IO_stdin_used+0x932>
    a412:	push   r13
    a414:	mov    r13,rdi
    a417:	push   r12
    a419:	push   rbp
    a41a:	push   rbx
    a41b:	xor    ebx,ebx
    a41d:	sub    rsp,0x38
    a421:	mov    rax,QWORD PTR fs:0x28
    a42a:	mov    QWORD PTR [rsp+0x28],rax
    a42f:	xor    eax,eax
    a431:	lea    rsi,[rsp+0x8]
    a436:	lea    r15,[rsp+0x10]
    a43b:	mov    QWORD PTR [rsp+0x8],0x0
    a444:	call   91c0 <get_mechanisms>
    a449:	lea    rdi,[rip+0xd4cc]        # 1791c <_IO_stdin_used+0x91c>
    a450:	mov    r12,rax
    a453:	call   5600 <puts@plt>
    a458:	test   r12,r12
    a45b:	je     a627 <list_mechs+0x227>
    a461:	nop    DWORD PTR [rax+0x0]
    a468:	mov    rax,QWORD PTR [rsp+0x8]
    a46d:	mov    r8,QWORD PTR [rip+0x18f74]        # 233e8 <p11_mechanisms+0x8>
    a474:	lea    rbp,[rbx*8+0x0]
    a47c:	mov    rdi,QWORD PTR [rax+rbx*8]
    a480:	test   r8,r8
    a483:	je     a660 <list_mechs+0x260>
    a489:	lea    rdx,[rip+0x18f50]        # 233e0 <p11_mechanisms>
    a490:	jmp    a4a9 <list_mechs+0xa9>
    a492:	nop    WORD PTR [rax+rax*1+0x0]
    a498:	mov    r8,QWORD PTR [rdx+0x28]
    a49c:	add    rdx,0x20
    a4a0:	test   r8,r8
    a4a3:	je     a660 <list_mechs+0x260>
    a4a9:	cmp    rdi,QWORD PTR [rdx]
    a4ac:	jne    a498 <list_mechs+0x98>
    a4ae:	mov    rdx,r8
    a4b1:	mov    rsi,r14
    a4b4:	mov    edi,0x1
    a4b9:	xor    eax,eax
    a4bb:	call   58a0 <__printf_chk@plt>
    a4c0:	mov    rax,QWORD PTR [rsp+0x8]
    a4c5:	mov    rdx,r15
    a4c8:	mov    rdi,r13
    a4cb:	mov    rsi,QWORD PTR [rax+rbp*1]
    a4cf:	mov    rax,QWORD PTR [rip+0x1b9ba]        # 25e90 <p11>
    a4d6:	call   QWORD PTR [rax+0x48]
    a4d9:	test   rax,rax
    a4dc:	jne    a610 <list_mechs+0x210>
    a4e2:	mov    rax,QWORD PTR [rsp+0x10]
    a4e7:	or     rax,QWORD PTR [rsp+0x18]
    a4ec:	je     a531 <list_mechs+0x131>
    a4ee:	lea    rsi,[rip+0xd442]        # 17937 <_IO_stdin_used+0x937>
    a4f5:	mov    edi,0x1
    a4fa:	xor    eax,eax
    a4fc:	call   58a0 <__printf_chk@plt>
    a501:	mov    rdx,QWORD PTR [rsp+0x10]
    a506:	test   rdx,rdx
    a509:	jne    aa30 <list_mechs+0x630>
    a50f:	mov    edi,0x2c
    a514:	call   55a0 <putchar@plt>
    a519:	mov    rdx,QWORD PTR [rsp+0x18]
    a51e:	test   rdx,rdx
    a521:	jne    aa10 <list_mechs+0x610>
    a527:	mov    edi,0x7d
    a52c:	call   55a0 <putchar@plt>
    a531:	mov    rdx,QWORD PTR [rsp+0x20]
    a536:	test   dl,0x1
    a539:	jne    a9e0 <list_mechs+0x5e0>
    a53f:	test   dh,0x1
    a542:	jne    a9b8 <list_mechs+0x5b8>
    a548:	test   dh,0x2
    a54b:	jne    a990 <list_mechs+0x590>
    a551:	test   dh,0x4
    a554:	jne    a688 <list_mechs+0x288>
    a55a:	test   dh,0x8
    a55d:	jne    a6b1 <list_mechs+0x2b1>
    a563:	test   dh,0x10
    a566:	jne    a6da <list_mechs+0x2da>
    a56c:	test   dh,0x20
    a56f:	jne    a703 <list_mechs+0x303>
    a575:	test   dh,0x40
    a578:	jne    a72c <list_mechs+0x32c>
    a57e:	test   dh,0x80
    a581:	jne    a755 <list_mechs+0x355>
    a587:	test   edx,0x10000
    a58d:	jne    a781 <list_mechs+0x381>
    a593:	test   edx,0x20000
    a599:	jne    a7b1 <list_mechs+0x3b1>
    a59f:	test   edx,0x40000
    a5a5:	jne    a7e1 <list_mechs+0x3e1>
    a5ab:	test   edx,0x80000
    a5b1:	jne    a811 <list_mechs+0x411>
    a5b7:	test   edx,0x100000
    a5bd:	jne    a841 <list_mechs+0x441>
    a5c3:	test   edx,0x200000
    a5c9:	jne    a871 <list_mechs+0x471>
    a5cf:	test   edx,0x400000
    a5d5:	jne    a8a1 <list_mechs+0x4a1>
    a5db:	test   edx,0x800000
    a5e1:	jne    a8d1 <list_mechs+0x4d1>
    a5e7:	test   edx,0x1000000
    a5ed:	jne    a901 <list_mechs+0x501>
    a5f3:	test   edx,0x2000000
    a5f9:	jne    a931 <list_mechs+0x531>
    a5ff:	test   edx,0x4000000
    a605:	jne    a961 <list_mechs+0x561>
    a60b:	test   rdx,rdx
    a60e:	jne    a670 <list_mechs+0x270>
    a610:	mov    edi,0xa
    a615:	add    rbx,0x1
    a619:	call   55a0 <putchar@plt>
    a61e:	cmp    r12,rbx
    a621:	jne    a468 <list_mechs+0x68>
    a627:	mov    rdi,QWORD PTR [rsp+0x8]
    a62c:	test   rdi,rdi
    a62f:	je     a636 <list_mechs+0x236>
    a631:	call   5590 <free@plt>
    a636:	mov    rax,QWORD PTR [rsp+0x28]
    a63b:	xor    rax,QWORD PTR fs:0x28
    a644:	jne    aa48 <list_mechs+0x648>
    a64a:	add    rsp,0x38
    a64e:	pop    rbx
    a64f:	pop    rbp
    a650:	pop    r12
    a652:	pop    r13
    a654:	pop    r14
    a656:	pop    r15
    a658:	ret    
    a659:	nop    DWORD PTR [rax+0x0]
    a660:	call   a3c0 <p11_mechanism_to_name.part.0>
    a665:	mov    r8,rax
    a668:	jmp    a4ae <list_mechs+0xae>
    a66d:	nop    DWORD PTR [rax]
    a670:	lea    rsi,[rip+0xd3b4]        # 17a2b <_IO_stdin_used+0xa2b>
    a677:	mov    edi,0x1
    a67c:	xor    eax,eax
    a67e:	call   58a0 <__printf_chk@plt>
    a683:	jmp    a610 <list_mechs+0x210>
    a685:	nop    DWORD PTR [rax]
    a688:	lea    rsi,[rip+0xd2cd]        # 1795c <_IO_stdin_used+0x95c>
    a68f:	mov    edi,0x1
    a694:	xor    eax,eax
    a696:	call   58a0 <__printf_chk@plt>
    a69b:	mov    rdx,QWORD PTR [rsp+0x20]
    a6a0:	and    dh,0xfb
    a6a3:	mov    QWORD PTR [rsp+0x20],rdx
    a6a8:	test   dh,0x8
    a6ab:	je     a563 <list_mechs+0x163>
    a6b1:	lea    rsi,[rip+0xd2ad]        # 17965 <_IO_stdin_used+0x965>
    a6b8:	mov    edi,0x1
    a6bd:	xor    eax,eax
    a6bf:	call   58a0 <__printf_chk@plt>
    a6c4:	mov    rdx,QWORD PTR [rsp+0x20]
    a6c9:	and    dh,0xf7
    a6cc:	mov    QWORD PTR [rsp+0x20],rdx
    a6d1:	test   dh,0x10
    a6d4:	je     a56c <list_mechs+0x16c>
    a6da:	lea    rsi,[rip+0xd28b]        # 1796c <_IO_stdin_used+0x96c>
    a6e1:	mov    edi,0x1
    a6e6:	xor    eax,eax
    a6e8:	call   58a0 <__printf_chk@plt>
    a6ed:	mov    rdx,QWORD PTR [rsp+0x20]
    a6f2:	and    dh,0xef
    a6f5:	mov    QWORD PTR [rsp+0x20],rdx
    a6fa:	test   dh,0x20
    a6fd:	je     a575 <list_mechs+0x175>
    a703:	lea    rsi,[rip+0xd271]        # 1797b <_IO_stdin_used+0x97b>
    a70a:	mov    edi,0x1
    a70f:	xor    eax,eax
    a711:	call   58a0 <__printf_chk@plt>
    a716:	mov    rdx,QWORD PTR [rsp+0x20]
    a71b:	and    dh,0xdf
    a71e:	mov    QWORD PTR [rsp+0x20],rdx
    a723:	test   dh,0x40
    a726:	je     a57e <list_mechs+0x17e>
    a72c:	lea    rsi,[rip+0xd251]        # 17984 <_IO_stdin_used+0x984>
    a733:	mov    edi,0x1
    a738:	xor    eax,eax
    a73a:	call   58a0 <__printf_chk@plt>
    a73f:	mov    rdx,QWORD PTR [rsp+0x20]
    a744:	and    dh,0xbf
    a747:	mov    QWORD PTR [rsp+0x20],rdx
    a74c:	test   dh,0x80
    a74f:	je     a587 <list_mechs+0x187>
    a755:	lea    rsi,[rip+0xd239]        # 17995 <_IO_stdin_used+0x995>
    a75c:	mov    edi,0x1
    a761:	xor    eax,eax
    a763:	call   58a0 <__printf_chk@plt>
    a768:	mov    rdx,QWORD PTR [rsp+0x20]
    a76d:	and    dh,0x7f
    a770:	mov    QWORD PTR [rsp+0x20],rdx
    a775:	test   edx,0x10000
    a77b:	je     a593 <list_mechs+0x193>
    a781:	lea    rsi,[rip+0xd218]        # 179a0 <_IO_stdin_used+0x9a0>
    a788:	mov    edi,0x1
    a78d:	xor    eax,eax
    a78f:	call   58a0 <__printf_chk@plt>
    a794:	mov    rdx,QWORD PTR [rsp+0x20]
    a799:	and    rdx,0xfffffffffffeffff
    a7a0:	mov    QWORD PTR [rsp+0x20],rdx
    a7a5:	test   edx,0x20000
    a7ab:	je     a59f <list_mechs+0x19f>
    a7b1:	lea    rsi,[rip+0xd1fc]        # 179b4 <_IO_stdin_used+0x9b4>
    a7b8:	mov    edi,0x1
    a7bd:	xor    eax,eax
    a7bf:	call   58a0 <__printf_chk@plt>
    a7c4:	mov    rdx,QWORD PTR [rsp+0x20]
    a7c9:	and    rdx,0xfffffffffffdffff
    a7d0:	mov    QWORD PTR [rsp+0x20],rdx
    a7d5:	test   edx,0x40000
    a7db:	je     a5ab <list_mechs+0x1ab>
    a7e1:	lea    rsi,[rip+0xd1d3]        # 179bb <_IO_stdin_used+0x9bb>
    a7e8:	mov    edi,0x1
    a7ed:	xor    eax,eax
    a7ef:	call   58a0 <__printf_chk@plt>
    a7f4:	mov    rdx,QWORD PTR [rsp+0x20]
    a7f9:	and    rdx,0xfffffffffffbffff
    a800:	mov    QWORD PTR [rsp+0x20],rdx
    a805:	test   edx,0x80000
    a80b:	je     a5b7 <list_mechs+0x1b7>
    a811:	lea    rsi,[rip+0xd1ac]        # 179c4 <_IO_stdin_used+0x9c4>
    a818:	mov    edi,0x1
    a81d:	xor    eax,eax
    a81f:	call   58a0 <__printf_chk@plt>
    a824:	mov    rdx,QWORD PTR [rsp+0x20]
    a829:	and    rdx,0xfffffffffff7ffff
    a830:	mov    QWORD PTR [rsp+0x20],rdx
    a835:	test   edx,0x100000
    a83b:	je     a5c3 <list_mechs+0x1c3>
    a841:	lea    rsi,[rip+0xd185]        # 179cd <_IO_stdin_used+0x9cd>
    a848:	mov    edi,0x1
    a84d:	xor    eax,eax
    a84f:	call   58a0 <__printf_chk@plt>
    a854:	mov    rdx,QWORD PTR [rsp+0x20]
    a859:	and    rdx,0xffffffffffefffff
    a860:	mov    QWORD PTR [rsp+0x20],rdx
    a865:	test   edx,0x200000
    a86b:	je     a5cf <list_mechs+0x1cf>
    a871:	lea    rsi,[rip+0xd15e]        # 179d6 <_IO_stdin_used+0x9d6>
    a878:	mov    edi,0x1
    a87d:	xor    eax,eax
    a87f:	call   58a0 <__printf_chk@plt>
    a884:	mov    rdx,QWORD PTR [rsp+0x20]
    a889:	and    rdx,0xffffffffffdfffff
    a890:	mov    QWORD PTR [rsp+0x20],rdx
    a895:	test   edx,0x400000
    a89b:	je     a5db <list_mechs+0x1db>
    a8a1:	lea    rsi,[rip+0xd138]        # 179e0 <_IO_stdin_used+0x9e0>
    a8a8:	mov    edi,0x1
    a8ad:	xor    eax,eax
    a8af:	call   58a0 <__printf_chk@plt>
    a8b4:	mov    rdx,QWORD PTR [rsp+0x20]
    a8b9:	and    rdx,0xffffffffffbfffff
    a8c0:	mov    QWORD PTR [rsp+0x20],rdx
    a8c5:	test   edx,0x800000
    a8cb:	je     a5e7 <list_mechs+0x1e7>
    a8d1:	lea    rsi,[rip+0xd118]        # 179f0 <_IO_stdin_used+0x9f0>
    a8d8:	mov    edi,0x1
    a8dd:	xor    eax,eax
    a8df:	call   58a0 <__printf_chk@plt>
    a8e4:	mov    rdx,QWORD PTR [rsp+0x20]
    a8e9:	and    rdx,0xffffffffff7fffff
    a8f0:	mov    QWORD PTR [rsp+0x20],rdx
    a8f5:	test   edx,0x1000000
    a8fb:	je     a5f3 <list_mechs+0x1f3>
    a901:	lea    rsi,[rip+0xd0f1]        # 179f9 <_IO_stdin_used+0x9f9>
    a908:	mov    edi,0x1
    a90d:	xor    eax,eax
    a90f:	call   58a0 <__printf_chk@plt>
    a914:	mov    rdx,QWORD PTR [rsp+0x20]
    a919:	and    rdx,0xfffffffffeffffff
    a920:	mov    QWORD PTR [rsp+0x20],rdx
    a925:	test   edx,0x2000000
    a92b:	je     a5ff <list_mechs+0x1ff>
    a931:	lea    rsi,[rip+0xd0d3]        # 17a0b <_IO_stdin_used+0xa0b>
    a938:	mov    edi,0x1
    a93d:	xor    eax,eax
    a93f:	call   58a0 <__printf_chk@plt>
    a944:	mov    rdx,QWORD PTR [rsp+0x20]
    a949:	and    rdx,0xfffffffffdffffff
    a950:	mov    QWORD PTR [rsp+0x20],rdx
    a955:	test   edx,0x4000000
    a95b:	je     a60b <list_mechs+0x20b>
    a961:	lea    rsi,[rip+0xd0b3]        # 17a1b <_IO_stdin_used+0xa1b>
    a968:	mov    edi,0x1
    a96d:	xor    eax,eax
    a96f:	call   58a0 <__printf_chk@plt>
    a974:	mov    rdx,QWORD PTR [rsp+0x20]
    a979:	and    rdx,0xfffffffffbffffff
    a980:	mov    QWORD PTR [rsp+0x20],rdx
    a985:	jmp    a60b <list_mechs+0x20b>
    a98a:	nop    WORD PTR [rax+rax*1+0x0]
    a990:	lea    rsi,[rip+0xcfbb]        # 17952 <_IO_stdin_used+0x952>
    a997:	mov    edi,0x1
    a99c:	xor    eax,eax
    a99e:	call   58a0 <__printf_chk@plt>
    a9a3:	mov    rdx,QWORD PTR [rsp+0x20]
    a9a8:	and    dh,0xfd
    a9ab:	mov    QWORD PTR [rsp+0x20],rdx
    a9b0:	jmp    a551 <list_mechs+0x151>
    a9b5:	nop    DWORD PTR [rax]
    a9b8:	lea    rsi,[rip+0xcf89]        # 17948 <_IO_stdin_used+0x948>
    a9bf:	mov    edi,0x1
    a9c4:	xor    eax,eax
    a9c6:	call   58a0 <__printf_chk@plt>
    a9cb:	mov    rdx,QWORD PTR [rsp+0x20]
    a9d0:	and    dh,0xfe
    a9d3:	mov    QWORD PTR [rsp+0x20],rdx
    a9d8:	jmp    a548 <list_mechs+0x148>
    a9dd:	nop    DWORD PTR [rax]
    a9e0:	lea    rsi,[rip+0xcf5c]        # 17943 <_IO_stdin_used+0x943>
    a9e7:	mov    edi,0x1
    a9ec:	xor    eax,eax
    a9ee:	call   58a0 <__printf_chk@plt>
    a9f3:	mov    rdx,QWORD PTR [rsp+0x20]
    a9f8:	and    rdx,0xfffffffffffffffe
    a9fc:	mov    QWORD PTR [rsp+0x20],rdx
    aa01:	jmp    a53f <list_mechs+0x13f>
    aa06:	cs nop WORD PTR [rax+rax*1+0x0]
    aa10:	lea    rsi,[rip+0xd706]        # 1811d <_IO_stdin_used+0x111d>
    aa17:	mov    edi,0x1
    aa1c:	xor    eax,eax
    aa1e:	call   58a0 <__printf_chk@plt>
    aa23:	jmp    a527 <list_mechs+0x127>
    aa28:	nop    DWORD PTR [rax+rax*1+0x0]
    aa30:	lea    rsi,[rip+0xd6e6]        # 1811d <_IO_stdin_used+0x111d>
    aa37:	mov    edi,0x1
    aa3c:	xor    eax,eax
    aa3e:	call   58a0 <__printf_chk@plt>
    aa43:	jmp    a50f <list_mechs+0x10f>
    aa48:	call   5690 <__stack_chk_fail@plt>
    aa4d:	nop    DWORD PTR [rax]

000000000000aa50 <test_digest>:
    aa50:	push   r15
    aa52:	push   r14
    aa54:	push   r13
    aa56:	push   r12
    aa58:	mov    r12,rdi
    aa5b:	push   rbp
    aa5c:	push   rbx
    aa5d:	sub    rsp,0x1e8
    aa64:	mov    rax,QWORD PTR fs:0x28
    aa6d:	mov    QWORD PTR [rsp+0x1d8],rax
    aa75:	xor    eax,eax
    aa77:	lea    rax,[rip+0xcfc0]        # 17a3e <_IO_stdin_used+0xa3e>
    aa7e:	lea    rsi,[rsp+0x60]
    aa83:	mov    QWORD PTR [rsp+0x40],0x210
    aa8c:	mov    QWORD PTR [rsp+0x80],rax
    aa94:	lea    rax,[rip+0xcfb4]        # 17a4f <_IO_stdin_used+0xa4f>
    aa9b:	mov    QWORD PTR [rsp+0x88],rax
    aaa3:	lea    rax,[rip+0xcfba]        # 17a64 <_IO_stdin_used+0xa64>
    aaaa:	mov    QWORD PTR [rsp+0x90],rax
    aab2:	lea    rax,[rip+0x1005f]        # 1ab18 <_IO_stdin_used+0x3b18>
    aab9:	mov    QWORD PTR [rsp+0x98],rax
    aac1:	mov    rax,QWORD PTR [rip+0x1b3c8]        # 25e90 <p11>
    aac8:	mov    QWORD PTR [rsp+0x48],0x0
    aad1:	mov    QWORD PTR [rsp+0x50],0x0
    aada:	mov    QWORD PTR [rsp+0xc8],0x240
    aae6:	mov    QWORD PTR [rsp+0xd0],0x220
    aaf2:	mov    QWORD PTR [rsp+0xd8],0x250
    aafe:	mov    QWORD PTR [rsp+0xe0],0xffffff
    ab0a:	mov    QWORD PTR [rsp+0xa0],0x10
    ab16:	mov    QWORD PTR [rsp+0xa8],0x14
    ab22:	mov    QWORD PTR [rsp+0xb0],0x14
    ab2e:	mov    QWORD PTR [rsp+0xb8],0x20
    ab3a:	call   QWORD PTR [rax+0x80]
    ab40:	test   rax,rax
    ab43:	jne    b099 <test_digest+0x649>
    ab49:	mov    rdi,QWORD PTR [rsp+0x60]
    ab4e:	lea    r8,[rsp+0x38]
    ab53:	xor    ecx,ecx
    ab55:	xor    edx,edx
    ab57:	mov    esi,0x400
    ab5c:	call   9300 <find_mechanism>
    ab61:	mov    DWORD PTR [rsp+0xc],eax
    ab65:	test   eax,eax
    ab67:	je     afc1 <test_digest+0x571>
    ab6d:	lea    rdi,[rip+0xcf2d]        # 17aa1 <_IO_stdin_used+0xaa1>
    ab74:	lea    r15,[rsp+0x170]
    ab7c:	call   5600 <puts@plt>
    ab81:	mov    rbp,r15
    ab84:	lea    rbx,[rsp+0x1d4]
    ab8c:	nop    DWORD PTR [rax+0x0]
    ab90:	call   5a40 <rand@plt>
    ab95:	add    rbp,0x1
    ab99:	mov    BYTE PTR [rbp-0x1],al
    ab9c:	cmp    rbp,rbx
    ab9f:	jne    ab90 <test_digest+0x140>
    aba1:	mov    rax,QWORD PTR [rsp+0x38]
    aba6:	lea    r14,[rsp+0x40]
    abab:	mov    rdi,r12
    abae:	mov    rsi,r14
    abb1:	mov    QWORD PTR [rsp+0x40],rax
    abb6:	mov    rax,QWORD PTR [rip+0x1b2d3]        # 25e90 <p11>
    abbd:	call   QWORD PTR [rax+0x130]
    abc3:	mov    rbp,rax
    abc6:	test   rax,rax
    abc9:	jne    b0a8 <test_digest+0x658>
    abcf:	mov    rax,QWORD PTR [rip+0x1b2ba]        # 25e90 <p11>
    abd6:	mov    edx,0x5
    abdb:	mov    rsi,r15
    abde:	mov    rdi,r12
    abe1:	call   QWORD PTR [rax+0x140]
    abe7:	cmp    rax,0x54
    abeb:	je     b01c <test_digest+0x5cc>
    abf1:	test   rax,rax
    abf4:	jne    b0da <test_digest+0x68a>
    abfa:	mov    rax,QWORD PTR [rip+0x1b28f]        # 25e90 <p11>
    ac01:	lea    rsi,[rsp+0x175]
    ac09:	mov    edx,0x32
    ac0e:	mov    rdi,r12
    ac11:	call   QWORD PTR [rax+0x140]
    ac17:	test   rax,rax
    ac1a:	jne    b0da <test_digest+0x68a>
    ac20:	mov    rax,QWORD PTR [rip+0x1b269]        # 25e90 <p11>
    ac27:	lea    rsi,[rsp+0x1a7]
    ac2f:	mov    edx,0x2d
    ac34:	mov    rdi,r12
    ac37:	call   QWORD PTR [rax+0x140]
    ac3d:	test   rax,rax
    ac40:	jne    b0da <test_digest+0x68a>
    ac46:	mov    rax,QWORD PTR [rip+0x1b243]        # 25e90 <p11>
    ac4d:	lea    r13,[rsp+0xf0]
    ac55:	lea    rdx,[rsp+0x28]
    ac5a:	mov    rdi,r12
    ac5d:	mov    QWORD PTR [rsp+0x28],0x40
    ac66:	mov    rsi,r13
    ac69:	call   QWORD PTR [rax+0x150]
    ac6f:	test   rax,rax
    ac72:	jne    b0cb <test_digest+0x67b>
    ac78:	mov    rax,QWORD PTR [rip+0x1b211]        # 25e90 <p11>
    ac7f:	mov    rsi,r14
    ac82:	mov    rdi,r12
    ac85:	call   QWORD PTR [rax+0x130]
    ac8b:	test   rax,rax
    ac8e:	jne    b0bc <test_digest+0x66c>
    ac94:	lea    r8,[rsp+0x30]
    ac99:	mov    edx,0x64
    ac9e:	mov    rsi,r15
    aca1:	mov    rdi,r12
    aca4:	lea    rax,[rsp+0x130]
    acac:	mov    QWORD PTR [rsp+0x10],r8
    acb1:	mov    QWORD PTR [rsp+0x18],rax
    acb6:	mov    rcx,rax
    acb9:	mov    rax,QWORD PTR [rip+0x1b1d0]        # 25e90 <p11>
    acc0:	mov    QWORD PTR [rsp+0x30],0x40
    acc9:	call   QWORD PTR [rax+0x138]
    accf:	test   rax,rax
    acd2:	jne    b0b7 <test_digest+0x667>
    acd8:	mov    rdx,QWORD PTR [rsp+0x28]
    acdd:	cmp    rdx,QWORD PTR [rsp+0x30]
    ace2:	jne    ad13 <test_digest+0x2c3>
    ace4:	mov    rsi,QWORD PTR [rsp+0x18]
    ace9:	mov    rdi,r13
    acec:	call   5750 <memcmp@plt>
    acf1:	mov    DWORD PTR [rsp+0xc],eax
    acf5:	test   eax,eax
    acf7:	je     b00b <test_digest+0x5bb>
    acfd:	lea    rdi,[rip+0xfec4]        # 1abc8 <_IO_stdin_used+0x3bc8>
    ad04:	call   5600 <puts@plt>
    ad09:	mov    DWORD PTR [rsp+0xc],0x1
    ad11:	jmp    ad27 <test_digest+0x2d7>
    ad13:	lea    rdi,[rip+0xfe5e]        # 1ab78 <_IO_stdin_used+0x3b78>
    ad1a:	call   5600 <puts@plt>
    ad1f:	mov    DWORD PTR [rsp+0xc],0x1
    ad27:	mov    rcx,r15
    ad2a:	nop    WORD PTR [rax+rax*1+0x0]
    ad30:	xor    eax,eax
    ad32:	nop    WORD PTR [rax+rax*1+0x0]
    ad38:	lea    edx,[rax+0x30]
    ad3b:	mov    BYTE PTR [rcx+rax*1],dl
    ad3e:	add    rax,0x1
    ad42:	cmp    rax,0xa
    ad46:	jne    ad38 <test_digest+0x2e8>
    ad48:	add    rcx,0xa
    ad4c:	cmp    rbx,rcx
    ad4f:	jne    ad30 <test_digest+0x2e0>
    ad51:	mov    r13d,0x210
    ad57:	lea    rbx,[rsp+0x28]
    ad5c:	nop    DWORD PTR [rax+0x0]
    ad60:	mov    rax,QWORD PTR [rip+0x1b129]        # 25e90 <p11>
    ad67:	mov    QWORD PTR [rsp+0x40],r13
    ad6c:	mov    rsi,r14
    ad6f:	mov    rdi,r12
    ad72:	call   QWORD PTR [rax+0x130]
    ad78:	cmp    rax,0x70
    ad7c:	je     ae40 <test_digest+0x3f0>
    ad82:	test   rax,rax
    ad85:	jne    b0bc <test_digest+0x66c>
    ad8b:	mov    r8,QWORD PTR [rip+0x18656]        # 233e8 <p11_mechanisms+0x8>
    ad92:	lea    rdx,[rip+0x18647]        # 233e0 <p11_mechanisms>
    ad99:	test   r8,r8
    ad9c:	jne    adb9 <test_digest+0x369>
    ad9e:	jmp    af70 <test_digest+0x520>
    ada3:	nop    DWORD PTR [rax+rax*1+0x0]
    ada8:	mov    r8,QWORD PTR [rdx+0x28]
    adac:	add    rdx,0x20
    adb0:	test   r8,r8
    adb3:	je     af70 <test_digest+0x520>
    adb9:	cmp    QWORD PTR [rdx],r13
    adbc:	jne    ada8 <test_digest+0x358>
    adbe:	mov    rdx,r8
    adc1:	lea    rsi,[rip+0xcf2e]        # 17cf6 <_IO_stdin_used+0xcf6>
    adc8:	mov    edi,0x1
    adcd:	xor    eax,eax
    adcf:	call   58a0 <__printf_chk@plt>
    add4:	mov    r8,rbx
    add7:	mov    edx,0x64
    addc:	mov    rsi,r15
    addf:	mov    rax,QWORD PTR [rip+0x1b0aa]        # 25e90 <p11>
    ade6:	lea    r13,[rsp+0xf0]
    adee:	mov    rdi,r12
    adf1:	mov    QWORD PTR [rsp+0x28],0x40
    adfa:	mov    rcx,r13
    adfd:	call   QWORD PTR [rax+0x138]
    ae03:	test   rax,rax
    ae06:	jne    b0b7 <test_digest+0x667>
    ae0c:	mov    rdx,QWORD PTR [rsp+rbp*8+0xa0]
    ae14:	mov    r8,QWORD PTR [rsp+0x28]
    ae19:	cmp    rdx,r8
    ae1c:	je     af80 <test_digest+0x530>
    ae22:	mov    rcx,rdx
    ae25:	lea    rsi,[rip+0xfe0c]        # 1ac38 <_IO_stdin_used+0x3c38>
    ae2c:	mov    rdx,r8
    ae2f:	xor    eax,eax
    ae31:	mov    edi,0x1
    ae36:	add    DWORD PTR [rsp+0xc],0x1
    ae3b:	call   58a0 <__printf_chk@plt>
    ae40:	add    rbp,0x1
    ae44:	mov    r13,QWORD PTR [rsp+rbp*8+0xc0]
    ae4c:	cmp    r13,0xffffff
    ae53:	jne    ad60 <test_digest+0x310>
    ae59:	mov    rax,QWORD PTR [rsp+0x38]
    ae5e:	mov    rsi,r14
    ae61:	mov    rdi,r12
    ae64:	mov    QWORD PTR [rsp+0x40],rax
    ae69:	mov    rax,QWORD PTR [rip+0x1b020]        # 25e90 <p11>
    ae70:	call   QWORD PTR [rax+0x130]
    ae76:	test   rax,rax
    ae79:	jne    b0bc <test_digest+0x66c>
    ae7f:	mov    rcx,QWORD PTR [rsp+0x18]
    ae84:	mov    r8,QWORD PTR [rsp+0x10]
    ae89:	mov    rsi,r15
    ae8c:	mov    rdi,r12
    ae8f:	mov    rax,QWORD PTR [rip+0x1affa]        # 25e90 <p11>
    ae96:	mov    edx,0x64
    ae9b:	mov    QWORD PTR [rsp+0x30],0x1
    aea4:	call   QWORD PTR [rax+0x138]
    aeaa:	mov    rcx,rax
    aead:	cmp    rax,0x150
    aeb3:	je     aed8 <test_digest+0x488>
    aeb5:	mov    rdi,rax
    aeb8:	add    DWORD PTR [rsp+0xc],0x1
    aebd:	call   8e50 <CKR2Str>
    aec2:	lea    rsi,[rip+0xfd9f]        # 1ac68 <_IO_stdin_used+0x3c68>
    aec9:	mov    edi,0x1
    aece:	mov    rdx,rax
    aed1:	xor    eax,eax
    aed3:	call   58a0 <__printf_chk@plt>
    aed8:	mov    rax,QWORD PTR [rip+0x1afb1]        # 25e90 <p11>
    aedf:	xor    ecx,ecx
    aee1:	mov    rsi,r15
    aee4:	mov    rdi,r12
    aee7:	mov    r8,QWORD PTR [rsp+0x10]
    aeec:	mov    edx,0x64
    aef1:	call   QWORD PTR [rax+0x138]
    aef7:	mov    rcx,rax
    aefa:	test   rax,rax
    aefd:	jne    afe3 <test_digest+0x593>
    af03:	mov    r8,QWORD PTR [rsp+0x10]
    af08:	mov    rcx,QWORD PTR [rsp+0x18]
    af0d:	mov    rsi,r15
    af10:	mov    rdi,r12
    af13:	mov    rax,QWORD PTR [rip+0x1af76]        # 25e90 <p11>
    af1a:	mov    edx,0x64
    af1f:	call   QWORD PTR [rax+0x138]
    af25:	cmp    rax,0x91
    af2b:	je     b083 <test_digest+0x633>
    af31:	test   rax,rax
    af34:	jne    b0e9 <test_digest+0x699>
    af3a:	mov    rax,QWORD PTR [rsp+0x1d8]
    af42:	xor    rax,QWORD PTR fs:0x28
    af4b:	jne    b0f8 <test_digest+0x6a8>
    af51:	mov    eax,DWORD PTR [rsp+0xc]
    af55:	add    rsp,0x1e8
    af5c:	pop    rbx
    af5d:	pop    rbp
    af5e:	pop    r12
    af60:	pop    r13
    af62:	pop    r14
    af64:	pop    r15
    af66:	ret    
    af67:	nop    WORD PTR [rax+rax*1+0x0]
    af70:	mov    rdi,r13
    af73:	call   a3c0 <p11_mechanism_to_name.part.0>
    af78:	mov    r8,rax
    af7b:	jmp    adbe <test_digest+0x36e>
    af80:	mov    rsi,QWORD PTR [rsp+rbp*8+0x80]
    af88:	mov    rdi,r13
    af8b:	call   5750 <memcmp@plt>
    af90:	test   eax,eax
    af92:	je     afb0 <test_digest+0x560>
    af94:	lea    rdi,[rip+0xcb42]        # 17add <_IO_stdin_used+0xadd>
    af9b:	add    DWORD PTR [rsp+0xc],0x1
    afa0:	call   5600 <puts@plt>
    afa5:	jmp    ae40 <test_digest+0x3f0>
    afaa:	nop    WORD PTR [rax+rax*1+0x0]
    afb0:	lea    rdi,[rip+0xd62b]        # 185e2 <_IO_stdin_used+0x15e2>
    afb7:	call   5600 <puts@plt>
    afbc:	jmp    ae40 <test_digest+0x3f0>
    afc1:	mov    rcx,QWORD PTR [rip+0x1a618]        # 255e0 <stderr@@GLIBC_2.2.5>
    afc8:	mov    edx,0x19
    afcd:	mov    esi,0x1
    afd2:	lea    rdi,[rip+0xcaae]        # 17a87 <_IO_stdin_used+0xa87>
    afd9:	call   59a0 <fwrite@plt>
    afde:	jmp    af3a <test_digest+0x4ea>
    afe3:	mov    rdi,rax
    afe6:	add    DWORD PTR [rsp+0xc],0x1
    afeb:	call   8e50 <CKR2Str>
    aff0:	lea    rsi,[rip+0xfcb9]        # 1acb0 <_IO_stdin_used+0x3cb0>
    aff7:	mov    edi,0x1
    affc:	mov    rdx,rax
    afff:	xor    eax,eax
    b001:	call   58a0 <__printf_chk@plt>
    b006:	jmp    af03 <test_digest+0x4b3>
    b00b:	lea    rdi,[rip+0xfbfe]        # 1ac10 <_IO_stdin_used+0x3c10>
    b012:	call   5600 <puts@plt>
    b017:	jmp    ad27 <test_digest+0x2d7>
    b01c:	lea    rdi,[rip+0xfb1d]        # 1ab40 <_IO_stdin_used+0x3b40>
    b023:	call   5600 <puts@plt>
    b028:	lea    r8,[rsp+0x30]
    b02d:	mov    rsi,r15
    b030:	mov    rdi,r12
    b033:	lea    rax,[rsp+0x130]
    b03b:	mov    QWORD PTR [rsp+0x10],r8
    b040:	mov    edx,0x64
    b045:	mov    QWORD PTR [rsp+0x18],rax
    b04a:	mov    rcx,rax
    b04d:	mov    rax,QWORD PTR [rip+0x1ae3c]        # 25e90 <p11>
    b054:	mov    QWORD PTR [rsp+0x30],0x40
    b05d:	call   QWORD PTR [rax+0x138]
    b063:	mov    DWORD PTR [rsp+0xc],0x0
    b06b:	mov    rsi,rax
    b06e:	test   rax,rax
    b071:	je     ad27 <test_digest+0x2d7>
    b077:	lea    rdi,[rip+0xca39]        # 17ab7 <_IO_stdin_used+0xab7>
    b07e:	call   9140 <p11_fatal>
    b083:	lea    rdi,[rip+0xfc7e]        # 1ad08 <_IO_stdin_used+0x3d08>
    b08a:	call   5600 <puts@plt>
    b08f:	add    DWORD PTR [rsp+0xc],0x1
    b094:	jmp    af3a <test_digest+0x4ea>
    b099:	mov    rsi,rax
    b09c:	lea    rdi,[rip+0xc9d6]        # 17a79 <_IO_stdin_used+0xa79>
    b0a3:	call   9140 <p11_fatal>
    b0a8:	mov    rsi,rax
    b0ab:	lea    rdi,[rip+0xc9f8]        # 17aaa <_IO_stdin_used+0xaaa>
    b0b2:	call   9140 <p11_fatal>
    b0b7:	mov    rsi,rax
    b0ba:	jmp    b077 <test_digest+0x627>
    b0bc:	mov    rsi,rax
    b0bf:	lea    rdi,[rip+0xc9e4]        # 17aaa <_IO_stdin_used+0xaaa>
    b0c6:	call   9140 <p11_fatal>
    b0cb:	mov    rsi,rax
    b0ce:	lea    rdi,[rip+0xc9fa]        # 17acf <_IO_stdin_used+0xacf>
    b0d5:	call   9140 <p11_fatal>
    b0da:	mov    rsi,rax
    b0dd:	lea    rdi,[rip+0xc9dc]        # 17ac0 <_IO_stdin_used+0xac0>
    b0e4:	call   9140 <p11_fatal>
    b0e9:	mov    rsi,rax
    b0ec:	lea    rdi,[rip+0xca02]        # 17af5 <_IO_stdin_used+0xaf5>
    b0f3:	call   9140 <p11_fatal>
    b0f8:	call   5690 <__stack_chk_fail@plt>
    b0fd:	nop    DWORD PTR [rax]

000000000000b100 <find_object>:
    b100:	push   r14
    b102:	push   r13
    b104:	mov    r13,rdi
    b107:	push   r12
    b109:	mov    r12d,r9d
    b10c:	push   rbp
    b10d:	mov    rbp,rdx
    b110:	mov    edx,0x1
    b115:	push   rbx
    b116:	sub    rsp,0x60
    b11a:	mov    QWORD PTR [rsp+0x8],rsi
    b11f:	mov    rax,QWORD PTR fs:0x28
    b128:	mov    QWORD PTR [rsp+0x58],rax
    b12d:	xor    eax,eax
    b12f:	lea    rax,[rsp+0x8]
    b134:	mov    QWORD PTR [rsp+0x20],0x0
    b13d:	mov    QWORD PTR [rsp+0x28],rax
    b142:	mov    QWORD PTR [rsp+0x30],0x8
    b14b:	test   rcx,rcx
    b14e:	je     b168 <find_object+0x68>
    b150:	mov    QWORD PTR [rsp+0x38],0x102
    b159:	mov    edx,0x2
    b15e:	mov    QWORD PTR [rsp+0x40],rcx
    b163:	mov    QWORD PTR [rsp+0x48],r8
    b168:	mov    rax,QWORD PTR [rip+0x1ad21]        # 25e90 <p11>
    b16f:	lea    rsi,[rsp+0x20]
    b174:	mov    rdi,r13
    b177:	call   QWORD PTR [rax+0xd8]
    b17d:	test   rax,rax
    b180:	jne    b245 <find_object+0x145>
    b186:	xor    ebx,ebx
    b188:	lea    r14,[rsp+0x18]
    b18d:	test   r12d,r12d
    b190:	jg     b1a0 <find_object+0xa0>
    b192:	jmp    b208 <find_object+0x108>
    b194:	nop    DWORD PTR [rax+0x0]
    b198:	add    ebx,0x1
    b19b:	cmp    r12d,ebx
    b19e:	je     b208 <find_object+0x108>
    b1a0:	mov    rax,QWORD PTR [rip+0x1ace9]        # 25e90 <p11>
    b1a7:	mov    rcx,r14
    b1aa:	mov    rsi,rbp
    b1ad:	mov    rdi,r13
    b1b0:	mov    edx,0x1
    b1b5:	call   QWORD PTR [rax+0xe0]
    b1bb:	test   rax,rax
    b1be:	jne    b236 <find_object+0x136>
    b1c0:	cmp    QWORD PTR [rsp+0x18],0x0
    b1c6:	jne    b198 <find_object+0x98>
    b1c8:	mov    QWORD PTR [rbp+0x0],0x0
    b1d0:	mov    rax,QWORD PTR [rip+0x1acb9]        # 25e90 <p11>
    b1d7:	mov    rdi,r13
    b1da:	call   QWORD PTR [rax+0xe8]
    b1e0:	mov    rax,QWORD PTR [rsp+0x18]
    b1e5:	mov    rsi,QWORD PTR [rsp+0x58]
    b1ea:	xor    rsi,QWORD PTR fs:0x28
    b1f3:	jne    b254 <find_object+0x154>
    b1f5:	add    rsp,0x60
    b1f9:	pop    rbx
    b1fa:	pop    rbp
    b1fb:	pop    r12
    b1fd:	pop    r13
    b1ff:	pop    r14
    b201:	ret    
    b202:	nop    WORD PTR [rax+rax*1+0x0]
    b208:	mov    rax,QWORD PTR [rip+0x1ac81]        # 25e90 <p11>
    b20f:	mov    rcx,r14
    b212:	mov    rsi,rbp
    b215:	mov    rdi,r13
    b218:	mov    edx,0x1
    b21d:	call   QWORD PTR [rax+0xe0]
    b223:	test   rax,rax
    b226:	jne    b236 <find_object+0x136>
    b228:	endbr64 
    b22c:	cmp    QWORD PTR [rsp+0x18],0x0
    b232:	jne    b1d0 <find_object+0xd0>
    b234:	jmp    b1c8 <find_object+0xc8>
    b236:	mov    rsi,rax
    b239:	lea    rdi,[rip+0xc8ce]        # 17b0e <_IO_stdin_used+0xb0e>
    b240:	call   9140 <p11_fatal>
    b245:	mov    rsi,rax
    b248:	lea    rdi,[rip+0xc8ad]        # 17afc <_IO_stdin_used+0xafc>
    b24f:	call   9140 <p11_fatal>
    b254:	call   5690 <__stack_chk_fail@plt>
    b259:	nop    DWORD PTR [rax+0x0]

000000000000b260 <p11_name_to_mechanism>:
    b260:	push   rbp
    b261:	mov    rsi,rdi
    b264:	mov    rbp,rdi
    b267:	mov    edx,0x2
    b26c:	push   rbx
    b26d:	lea    rdi,[rip+0xc8a8]        # 17b1c <_IO_stdin_used+0xb1c>
    b274:	sub    rsp,0x8
    b278:	call   5850 <strncasecmp@plt>
    b27d:	test   eax,eax
    b27f:	je     b2e0 <p11_name_to_mechanism+0x80>
    b281:	mov    rdi,QWORD PTR [rip+0x18160]        # 233e8 <p11_mechanisms+0x8>
    b288:	test   rdi,rdi
    b28b:	je     b2f2 <p11_name_to_mechanism+0x92>
    b28d:	lea    rbx,[rip+0x1814c]        # 233e0 <p11_mechanisms>
    b294:	jmp    b2c2 <p11_name_to_mechanism+0x62>
    b296:	cs nop WORD PTR [rax+rax*1+0x0]
    b2a0:	mov    rdi,QWORD PTR [rbx+0x10]
    b2a4:	test   rdi,rdi
    b2a7:	je     b2b5 <p11_name_to_mechanism+0x55>
    b2a9:	mov    rsi,rbp
    b2ac:	call   55c0 <strcasecmp@plt>
    b2b1:	test   eax,eax
    b2b3:	je     b2ce <p11_name_to_mechanism+0x6e>
    b2b5:	mov    rdi,QWORD PTR [rbx+0x28]
    b2b9:	add    rbx,0x20
    b2bd:	test   rdi,rdi
    b2c0:	je     b2f2 <p11_name_to_mechanism+0x92>
    b2c2:	mov    rsi,rbp
    b2c5:	call   55c0 <strcasecmp@plt>
    b2ca:	test   eax,eax
    b2cc:	jne    b2a0 <p11_name_to_mechanism+0x40>
    b2ce:	mov    rax,QWORD PTR [rbx]
    b2d1:	add    rsp,0x8
    b2d5:	pop    rbx
    b2d6:	pop    rbp
    b2d7:	ret    
    b2d8:	nop    DWORD PTR [rax+rax*1+0x0]
    b2e0:	add    rsp,0x8
    b2e4:	mov    rdi,rbp
    b2e7:	xor    edx,edx
    b2e9:	xor    esi,esi
    b2eb:	pop    rbx
    b2ec:	pop    rbp
    b2ed:	jmp    5960 <strtoul@plt>
    b2f2:	mov    rsi,rbp
    b2f5:	lea    rdi,[rip+0xc823]        # 17b1f <_IO_stdin_used+0xb1f>
    b2fc:	xor    eax,eax
    b2fe:	call   15f90 <util_fatal>
    b303:	data16 cs nop WORD PTR [rax+rax*1+0x0]
    b30e:	xchg   ax,ax

000000000000b310 <p11_warn.part.0>:
    b310:	mov    r8,rdi
    b313:	sub    rsp,0x8
    b317:	mov    rdi,rsi
    b31a:	mov    rcx,rsi
    b31d:	call   8e50 <CKR2Str>
    b322:	lea    rdi,[rip+0xfa0f]        # 1ad38 <_IO_stdin_used+0x3d38>
    b329:	add    rsp,0x8
    b32d:	mov    rdx,rax
    b330:	mov    rsi,r8
    b333:	xor    eax,eax
    b335:	jmp    16190 <util_warn>
    b33a:	nop    WORD PTR [rax+rax*1+0x0]

000000000000b340 <getCLASS>:
    b340:	sub    rsp,0x38
    b344:	mov    ecx,0x1
    b349:	mov    rax,QWORD PTR fs:0x28
    b352:	mov    QWORD PTR [rsp+0x28],rax
    b357:	xor    eax,eax
    b359:	lea    rax,[rsp+0x8]
    b35e:	lea    rdx,[rsp+0x10]
    b363:	mov    QWORD PTR [rsp+0x8],0x0
    b36c:	mov    QWORD PTR [rsp+0x18],rax
    b371:	mov    rax,QWORD PTR [rip+0x1ab18]        # 25e90 <p11>
    b378:	mov    QWORD PTR [rsp+0x10],0x0
    b381:	mov    QWORD PTR [rsp+0x20],0x8
    b38a:	call   QWORD PTR [rax+0xc8]
    b390:	test   rax,rax
    b393:	je     b39f <getCLASS+0x5f>
    b395:	mov    edx,DWORD PTR [rip+0x1aadd]        # 25e78 <suppress_warn>
    b39b:	test   edx,edx
    b39d:	je     b3c0 <getCLASS+0x80>
    b39f:	mov    rcx,QWORD PTR [rsp+0x28]
    b3a4:	xor    rcx,QWORD PTR fs:0x28
    b3ad:	mov    rax,QWORD PTR [rsp+0x8]
    b3b2:	jne    b3d1 <getCLASS+0x91>
    b3b4:	add    rsp,0x38
    b3b8:	ret    
    b3b9:	nop    DWORD PTR [rax+0x0]
    b3c0:	mov    rsi,rax
    b3c3:	lea    rdi,[rip+0xc773]        # 17b3d <_IO_stdin_used+0xb3d>
    b3ca:	call   b310 <p11_warn.part.0>
    b3cf:	jmp    b39f <getCLASS+0x5f>
    b3d1:	call   5690 <__stack_chk_fail@plt>
    b3d6:	cs nop WORD PTR [rax+rax*1+0x0]

000000000000b3e0 <getKEY_TYPE>:
    b3e0:	sub    rsp,0x38
    b3e4:	mov    ecx,0x1
    b3e9:	mov    rax,QWORD PTR fs:0x28
    b3f2:	mov    QWORD PTR [rsp+0x28],rax
    b3f7:	xor    eax,eax
    b3f9:	lea    rax,[rsp+0x8]
    b3fe:	lea    rdx,[rsp+0x10]
    b403:	mov    QWORD PTR [rsp+0x8],0x0
    b40c:	mov    QWORD PTR [rsp+0x18],rax
    b411:	mov    rax,QWORD PTR [rip+0x1aa78]        # 25e90 <p11>
    b418:	mov    QWORD PTR [rsp+0x10],0x100
    b421:	mov    QWORD PTR [rsp+0x20],0x8
    b42a:	call   QWORD PTR [rax+0xc8]
    b430:	test   rax,rax
    b433:	je     b43f <getKEY_TYPE+0x5f>
    b435:	mov    edx,DWORD PTR [rip+0x1aa3d]        # 25e78 <suppress_warn>
    b43b:	test   edx,edx
    b43d:	je     b460 <getKEY_TYPE+0x80>
    b43f:	mov    rcx,QWORD PTR [rsp+0x28]
    b444:	xor    rcx,QWORD PTR fs:0x28
    b44d:	mov    rax,QWORD PTR [rsp+0x8]
    b452:	jne    b471 <getKEY_TYPE+0x91>
    b454:	add    rsp,0x38
    b458:	ret    
    b459:	nop    DWORD PTR [rax+0x0]
    b460:	mov    rsi,rax
    b463:	lea    rdi,[rip+0xc6ee]        # 17b58 <_IO_stdin_used+0xb58>
    b46a:	call   b310 <p11_warn.part.0>
    b46f:	jmp    b43f <getKEY_TYPE+0x5f>
    b471:	call   5690 <__stack_chk_fail@plt>
    b476:	cs nop WORD PTR [rax+rax*1+0x0]

000000000000b480 <getMODULUS_BITS>:
    b480:	sub    rsp,0x38
    b484:	mov    ecx,0x1
    b489:	mov    rax,QWORD PTR fs:0x28
    b492:	mov    QWORD PTR [rsp+0x28],rax
    b497:	xor    eax,eax
    b499:	lea    rax,[rsp+0x8]
    b49e:	lea    rdx,[rsp+0x10]
    b4a3:	mov    QWORD PTR [rsp+0x8],0x0
    b4ac:	mov    QWORD PTR [rsp+0x18],rax
    b4b1:	mov    rax,QWORD PTR [rip+0x1a9d8]        # 25e90 <p11>
    b4b8:	mov    QWORD PTR [rsp+0x10],0x121
    b4c1:	mov    QWORD PTR [rsp+0x20],0x8
    b4ca:	call   QWORD PTR [rax+0xc8]
    b4d0:	test   rax,rax
    b4d3:	je     b4df <getMODULUS_BITS+0x5f>
    b4d5:	mov    edx,DWORD PTR [rip+0x1a99d]        # 25e78 <suppress_warn>
    b4db:	test   edx,edx
    b4dd:	je     b500 <getMODULUS_BITS+0x80>
    b4df:	mov    rcx,QWORD PTR [rsp+0x28]
    b4e4:	xor    rcx,QWORD PTR fs:0x28
    b4ed:	mov    rax,QWORD PTR [rsp+0x8]
    b4f2:	jne    b511 <getMODULUS_BITS+0x91>
    b4f4:	add    rsp,0x38
    b4f8:	ret    
    b4f9:	nop    DWORD PTR [rax+0x0]
    b500:	mov    rsi,rax
    b503:	lea    rdi,[rip+0xf85e]        # 1ad68 <_IO_stdin_used+0x3d68>
    b50a:	call   b310 <p11_warn.part.0>
    b50f:	jmp    b4df <getMODULUS_BITS+0x5f>
    b511:	call   5690 <__stack_chk_fail@plt>
    b516:	cs nop WORD PTR [rax+rax*1+0x0]

000000000000b520 <getEC_POINT>:
    b520:	push   r13
    b522:	mov    ecx,0x1
    b527:	push   r12
    b529:	mov    r12,rsi
    b52c:	push   rbp
    b52d:	mov    rbp,rdi
    b530:	push   rbx
    b531:	mov    rbx,rdx
    b534:	sub    rsp,0x28
    b538:	mov    rax,QWORD PTR fs:0x28
    b541:	mov    QWORD PTR [rsp+0x18],rax
    b546:	xor    eax,eax
    b548:	mov    rax,QWORD PTR [rip+0x1a941]        # 25e90 <p11>
    b54f:	mov    r13,rsp
    b552:	mov    QWORD PTR [rdx],0x0
    b559:	mov    QWORD PTR [rsp],0x181
    b561:	mov    rdx,r13
    b564:	mov    QWORD PTR [rsp+0x8],0x0
    b56d:	mov    QWORD PTR [rsp+0x10],0x0
    b576:	call   QWORD PTR [rax+0xc8]
    b57c:	test   rax,rax
    b57f:	jne    b5f8 <getEC_POINT+0xd8>
    b581:	mov    rsi,QWORD PTR [rsp+0x10]
    b586:	cmp    rsi,0xffffffffffffffff
    b58a:	je     b620 <getEC_POINT+0x100>
    b590:	add    rsi,0x1
    b594:	mov    edi,0x1
    b599:	call   5790 <calloc@plt>
    b59e:	mov    QWORD PTR [rsp+0x8],rax
    b5a3:	test   rax,rax
    b5a6:	je     b63b <getEC_POINT+0x11b>
    b5ac:	mov    rax,QWORD PTR [rip+0x1a8dd]        # 25e90 <p11>
    b5b3:	mov    rdx,r13
    b5b6:	mov    rsi,r12
    b5b9:	mov    rdi,rbp
    b5bc:	mov    ecx,0x1
    b5c1:	call   QWORD PTR [rax+0xc8]
    b5c7:	mov    rax,QWORD PTR [rsp+0x10]
    b5cc:	cmp    rax,0xffffffffffffffff
    b5d0:	je     b628 <getEC_POINT+0x108>
    b5d2:	mov    QWORD PTR [rbx],rax
    b5d5:	mov    rax,QWORD PTR [rsp+0x8]
    b5da:	mov    rcx,QWORD PTR [rsp+0x18]
    b5df:	xor    rcx,QWORD PTR fs:0x28
    b5e8:	jne    b636 <getEC_POINT+0x116>
    b5ea:	add    rsp,0x28
    b5ee:	pop    rbx
    b5ef:	pop    rbp
    b5f0:	pop    r12
    b5f2:	pop    r13
    b5f4:	ret    
    b5f5:	nop    DWORD PTR [rax]
    b5f8:	cmp    rax,0x12
    b5fc:	je     b5d5 <getEC_POINT+0xb5>
    b5fe:	mov    edx,DWORD PTR [rip+0x1a874]        # 25e78 <suppress_warn>
    b604:	test   edx,edx
    b606:	jne    b5d5 <getEC_POINT+0xb5>
    b608:	mov    rsi,rax
    b60b:	lea    rdi,[rip+0xc564]        # 17b76 <_IO_stdin_used+0xb76>
    b612:	call   b310 <p11_warn.part.0>
    b617:	jmp    b5d5 <getEC_POINT+0xb5>
    b619:	nop    DWORD PTR [rax+0x0]
    b620:	xor    eax,eax
    b622:	jmp    b5da <getEC_POINT+0xba>
    b624:	nop    DWORD PTR [rax+0x0]
    b628:	mov    rdi,QWORD PTR [rsp+0x8]
    b62d:	call   5590 <free@plt>
    b632:	xor    eax,eax
    b634:	jmp    b5da <getEC_POINT+0xba>
    b636:	call   5690 <__stack_chk_fail@plt>
    b63b:	lea    rdi,[rip+0xf74e]        # 1ad90 <_IO_stdin_used+0x3d90>
    b642:	call   15f90 <util_fatal>
    b647:	nop    WORD PTR [rax+rax*1+0x0]

000000000000b650 <getEC_PARAMS>:
    b650:	push   r13
    b652:	mov    ecx,0x1
    b657:	push   r12
    b659:	mov    r12,rsi
    b65c:	push   rbp
    b65d:	mov    rbp,rdi
    b660:	push   rbx
    b661:	mov    rbx,rdx
    b664:	sub    rsp,0x28
    b668:	mov    rax,QWORD PTR fs:0x28
    b671:	mov    QWORD PTR [rsp+0x18],rax
    b676:	xor    eax,eax
    b678:	mov    rax,QWORD PTR [rip+0x1a811]        # 25e90 <p11>
    b67f:	mov    r13,rsp
    b682:	mov    QWORD PTR [rdx],0x0
    b689:	mov    QWORD PTR [rsp],0x180
    b691:	mov    rdx,r13
    b694:	mov    QWORD PTR [rsp+0x8],0x0
    b69d:	mov    QWORD PTR [rsp+0x10],0x0
    b6a6:	call   QWORD PTR [rax+0xc8]
    b6ac:	test   rax,rax
    b6af:	jne    b728 <getEC_PARAMS+0xd8>
    b6b1:	mov    rsi,QWORD PTR [rsp+0x10]
    b6b6:	cmp    rsi,0xffffffffffffffff
    b6ba:	je     b750 <getEC_PARAMS+0x100>
    b6c0:	add    rsi,0x1
    b6c4:	mov    edi,0x1
    b6c9:	call   5790 <calloc@plt>
    b6ce:	mov    QWORD PTR [rsp+0x8],rax
    b6d3:	test   rax,rax
    b6d6:	je     b76b <getEC_PARAMS+0x11b>
    b6dc:	mov    rax,QWORD PTR [rip+0x1a7ad]        # 25e90 <p11>
    b6e3:	mov    rdx,r13
    b6e6:	mov    rsi,r12
    b6e9:	mov    rdi,rbp
    b6ec:	mov    ecx,0x1
    b6f1:	call   QWORD PTR [rax+0xc8]
    b6f7:	mov    rax,QWORD PTR [rsp+0x10]
    b6fc:	cmp    rax,0xffffffffffffffff
    b700:	je     b758 <getEC_PARAMS+0x108>
    b702:	mov    QWORD PTR [rbx],rax
    b705:	mov    rax,QWORD PTR [rsp+0x8]
    b70a:	mov    rcx,QWORD PTR [rsp+0x18]
    b70f:	xor    rcx,QWORD PTR fs:0x28
    b718:	jne    b766 <getEC_PARAMS+0x116>
    b71a:	add    rsp,0x28
    b71e:	pop    rbx
    b71f:	pop    rbp
    b720:	pop    r12
    b722:	pop    r13
    b724:	ret    
    b725:	nop    DWORD PTR [rax]
    b728:	cmp    rax,0x12
    b72c:	je     b705 <getEC_PARAMS+0xb5>
    b72e:	mov    edx,DWORD PTR [rip+0x1a744]        # 25e78 <suppress_warn>
    b734:	test   edx,edx
    b736:	jne    b705 <getEC_PARAMS+0xb5>
    b738:	mov    rsi,rax
    b73b:	lea    rdi,[rip+0xf69e]        # 1ade0 <_IO_stdin_used+0x3de0>
    b742:	call   b310 <p11_warn.part.0>
    b747:	jmp    b705 <getEC_PARAMS+0xb5>
    b749:	nop    DWORD PTR [rax+0x0]
    b750:	xor    eax,eax
    b752:	jmp    b70a <getEC_PARAMS+0xba>
    b754:	nop    DWORD PTR [rax+0x0]
    b758:	mov    rdi,QWORD PTR [rsp+0x8]
    b75d:	call   5590 <free@plt>
    b762:	xor    eax,eax
    b764:	jmp    b70a <getEC_PARAMS+0xba>
    b766:	call   5690 <__stack_chk_fail@plt>
    b76b:	lea    rdi,[rip+0xf646]        # 1adb8 <_IO_stdin_used+0x3db8>
    b772:	call   15f90 <util_fatal>
    b777:	nop    WORD PTR [rax+rax*1+0x0]

000000000000b780 <getVALUE>:
    b780:	push   r13
    b782:	mov    ecx,0x1
    b787:	push   r12
    b789:	mov    r12,rsi
    b78c:	push   rbp
    b78d:	mov    rbp,rdi
    b790:	push   rbx
    b791:	mov    rbx,rdx
    b794:	sub    rsp,0x28
    b798:	mov    rax,QWORD PTR fs:0x28
    b7a1:	mov    QWORD PTR [rsp+0x18],rax
    b7a6:	xor    eax,eax
    b7a8:	mov    rax,QWORD PTR [rip+0x1a6e1]        # 25e90 <p11>
    b7af:	mov    r13,rsp
    b7b2:	mov    QWORD PTR [rdx],0x0
    b7b9:	mov    QWORD PTR [rsp],0x11
    b7c1:	mov    rdx,r13
    b7c4:	mov    QWORD PTR [rsp+0x8],0x0
    b7cd:	mov    QWORD PTR [rsp+0x10],0x0
    b7d6:	call   QWORD PTR [rax+0xc8]
    b7dc:	test   rax,rax
    b7df:	jne    b858 <getVALUE+0xd8>
    b7e1:	mov    rsi,QWORD PTR [rsp+0x10]
    b7e6:	cmp    rsi,0xffffffffffffffff
    b7ea:	je     b880 <getVALUE+0x100>
    b7f0:	add    rsi,0x1
    b7f4:	mov    edi,0x1
    b7f9:	call   5790 <calloc@plt>
    b7fe:	mov    QWORD PTR [rsp+0x8],rax
    b803:	test   rax,rax
    b806:	je     b89b <getVALUE+0x11b>
    b80c:	mov    rax,QWORD PTR [rip+0x1a67d]        # 25e90 <p11>
    b813:	mov    rdx,r13
    b816:	mov    rsi,r12
    b819:	mov    rdi,rbp
    b81c:	mov    ecx,0x1
    b821:	call   QWORD PTR [rax+0xc8]
    b827:	mov    rax,QWORD PTR [rsp+0x10]
    b82c:	cmp    rax,0xffffffffffffffff
    b830:	je     b888 <getVALUE+0x108>
    b832:	mov    QWORD PTR [rbx],rax
    b835:	mov    rax,QWORD PTR [rsp+0x8]
    b83a:	mov    rcx,QWORD PTR [rsp+0x18]
    b83f:	xor    rcx,QWORD PTR fs:0x28
    b848:	jne    b896 <getVALUE+0x116>
    b84a:	add    rsp,0x28
    b84e:	pop    rbx
    b84f:	pop    rbp
    b850:	pop    r12
    b852:	pop    r13
    b854:	ret    
    b855:	nop    DWORD PTR [rax]
    b858:	cmp    rax,0x12
    b85c:	je     b835 <getVALUE+0xb5>
    b85e:	mov    edx,DWORD PTR [rip+0x1a614]        # 25e78 <suppress_warn>
    b864:	test   edx,edx
    b866:	jne    b835 <getVALUE+0xb5>
    b868:	mov    rsi,rax
    b86b:	lea    rdi,[rip+0xc340]        # 17bb2 <_IO_stdin_used+0xbb2>
    b872:	call   b310 <p11_warn.part.0>
    b877:	jmp    b835 <getVALUE+0xb5>
    b879:	nop    DWORD PTR [rax+0x0]
    b880:	xor    eax,eax
    b882:	jmp    b83a <getVALUE+0xba>
    b884:	nop    DWORD PTR [rax+0x0]
    b888:	mov    rdi,QWORD PTR [rsp+0x8]
    b88d:	call   5590 <free@plt>
    b892:	xor    eax,eax
    b894:	jmp    b83a <getVALUE+0xba>
    b896:	call   5690 <__stack_chk_fail@plt>
    b89b:	lea    rdi,[rip+0xc2f2]        # 17b94 <_IO_stdin_used+0xb94>
    b8a2:	call   15f90 <util_fatal>
    b8a7:	nop    WORD PTR [rax+rax*1+0x0]

000000000000b8b0 <read_object>:
    b8b0:	push   r13
    b8b2:	push   r12
    b8b4:	push   rbp
    b8b5:	mov    rbp,rdi
    b8b8:	push   rbx
    b8b9:	xor    ebx,ebx
    b8bb:	sub    rsp,0xa68
    b8c2:	mov    rax,QWORD PTR fs:0x28
    b8cb:	mov    QWORD PTR [rsp+0xa58],rax
    b8d3:	xor    eax,eax
    b8d5:	mov    rax,QWORD PTR [rip+0x17784]        # 23060 <opt_object_class>
    b8dc:	cmp    QWORD PTR [rip+0x1a824],0x0        # 26108 <opt_object_class_str>
    b8e4:	mov    QWORD PTR [rsp+0x10],0x0
    b8ed:	mov    QWORD PTR [rsp+0x18],0x0
    b8f6:	mov    QWORD PTR [rsp+0x8],rax
    b8fb:	mov    QWORD PTR [rsp+0x20],0x0
    b904:	je     b92a <read_object+0x7a>
    b906:	lea    rax,[rsp+0x8]
    b90b:	mov    ebx,0x1
    b910:	mov    QWORD PTR [rsp+0x70],0x0
    b919:	mov    QWORD PTR [rsp+0x78],rax
    b91e:	mov    QWORD PTR [rsp+0x80],0x8
    b92a:	mov    rdx,QWORD PTR [rip+0x1a6cf]        # 26000 <opt_object_id_len>
    b931:	test   rdx,rdx
    b934:	je     b95d <read_object+0xad>
    b936:	movsxd rax,ebx
    b939:	lea    rcx,[rip+0x1a760]        # 260a0 <opt_object_id>
    b940:	add    ebx,0x1
    b943:	imul   rax,rax,0x18
    b947:	mov    QWORD PTR [rsp+rax*1+0x70],0x102
    b950:	mov    QWORD PTR [rsp+rax*1+0x78],rcx
    b955:	mov    QWORD PTR [rsp+rax*1+0x80],rdx
    b95d:	mov    rdi,QWORD PTR [rip+0x1a68c]        # 25ff0 <opt_object_label>
    b964:	test   rdi,rdi
    b967:	je     b992 <read_object+0xe2>
    b969:	movsxd rax,ebx
    b96c:	add    ebx,0x1
    b96f:	lea    r12,[rax+rax*2]
    b973:	shl    r12,0x3
    b977:	mov    QWORD PTR [rsp+r12*1+0x70],0x3
    b980:	mov    QWORD PTR [rsp+r12*1+0x78],rdi
    b985:	call   5680 <strlen@plt>
    b98a:	mov    QWORD PTR [rsp+r12*1+0x80],rax
    b992:	mov    rdi,QWORD PTR [rip+0x1a62f]        # 25fc8 <opt_application_label>
    b999:	test   rdi,rdi
    b99c:	je     b9c7 <read_object+0x117>
    b99e:	movsxd rax,ebx
    b9a1:	add    ebx,0x1
    b9a4:	lea    r12,[rax+rax*2]
    b9a8:	shl    r12,0x3
    b9ac:	mov    QWORD PTR [rsp+r12*1+0x70],0x10
    b9b5:	mov    QWORD PTR [rsp+r12*1+0x78],rdi
    b9ba:	call   5680 <strlen@plt>
    b9bf:	mov    QWORD PTR [rsp+r12*1+0x80],rax
    b9c7:	mov    rsi,QWORD PTR [rip+0x1a5f2]        # 25fc0 <opt_application_id>
    b9ce:	test   rsi,rsi
    b9d1:	je     ba2f <read_object+0x17f>
    b9d3:	lea    r13,[rsp+0x30]
    b9d8:	mov    rdi,r13
    b9db:	call   5720 <sc_format_oid@plt>
    b9e0:	test   eax,eax
    b9e2:	jne    bcf5 <read_object+0x445>
    b9e8:	lea    r12,[rsp+0x28]
    b9ed:	lea    rdi,[rsp+0x18]
    b9f2:	mov    rdx,r13
    b9f5:	mov    rsi,r12
    b9f8:	call   5880 <sc_asn1_encode_object_id@plt>
    b9fd:	test   eax,eax
    b9ff:	jne    bce0 <read_object+0x430>
    ba05:	movsxd rax,ebx
    ba08:	mov    rdx,QWORD PTR [rsp+0x18]
    ba0d:	add    ebx,0x1
    ba10:	imul   rax,rax,0x18
    ba14:	mov    QWORD PTR [rsp+rax*1+0x78],rdx
    ba19:	mov    rdx,QWORD PTR [rsp+0x28]
    ba1e:	mov    QWORD PTR [rsp+rax*1+0x70],0x12
    ba27:	mov    QWORD PTR [rsp+rax*1+0x80],rdx
    ba2f:	mov    rdi,QWORD PTR [rip+0x1a582]        # 25fb8 <opt_issuer>
    ba36:	test   rdi,rdi
    ba39:	je     bc10 <read_object+0x360>
    ba3f:	lea    r12,[rsp+0x28]
    ba44:	lea    r13,[rsp+0x650]
    ba4c:	mov    QWORD PTR [rsp+0x28],0x400
    ba55:	mov    rdx,r12
    ba58:	mov    rsi,r13
    ba5b:	call   5620 <sc_hex_to_bin@plt>
    ba60:	test   eax,eax
    ba62:	jne    bcbd <read_object+0x40d>
    ba68:	movsxd rax,ebx
    ba6b:	mov    rdx,QWORD PTR [rsp+0x28]
    ba70:	mov    rdi,QWORD PTR [rip+0x1a539]        # 25fb0 <opt_subject>
    ba77:	add    ebx,0x1
    ba7a:	imul   rax,rax,0x18
    ba7e:	mov    QWORD PTR [rsp+rax*1+0x70],0x81
    ba87:	mov    QWORD PTR [rsp+rax*1+0x78],r13
    ba8c:	mov    QWORD PTR [rsp+rax*1+0x80],rdx
    ba94:	test   rdi,rdi
    ba97:	je     bc3e <read_object+0x38e>
    ba9d:	lea    r13,[rsp+0x250]
    baa5:	mov    rdx,r12
    baa8:	mov    QWORD PTR [rsp+0x28],0x400
    bab1:	mov    rsi,r13
    bab4:	call   5620 <sc_hex_to_bin@plt>
    bab9:	test   eax,eax
    babb:	jne    bcaf <read_object+0x3ff>
    bac1:	movsxd rax,ebx
    bac4:	mov    rdx,QWORD PTR [rsp+0x28]
    bac9:	add    ebx,0x1
    bacc:	lea    rax,[rax+rax*2]
    bad0:	shl    rax,0x3
    bad4:	mov    QWORD PTR [rsp+rax*1+0x70],0x101
    badd:	mov    QWORD PTR [rsp+rax*1+0x78],r13
    bae2:	mov    QWORD PTR [rsp+rax*1+0x80],rdx
    baea:	movsxd rdx,ebx
    baed:	mov    rax,QWORD PTR [rip+0x1a39c]        # 25e90 <p11>
    baf4:	lea    rsi,[rsp+0x70]
    baf9:	mov    rdi,rbp
    bafc:	mov    QWORD PTR [rsp+0x10],0x0
    bb05:	call   QWORD PTR [rax+0xd8]
    bb0b:	test   rax,rax
    bb0e:	jne    bc2f <read_object+0x37f>
    bb14:	xor    edx,edx
    bb16:	lea    rsi,[rsp+0x10]
    bb1b:	mov    rdi,rbp
    bb1e:	call   a2d0 <find_object_with_attributes.part.0>
    bb23:	test   rax,rax
    bb26:	jne    bc2f <read_object+0x37f>
    bb2c:	mov    rsi,QWORD PTR [rsp+0x10]
    bb31:	test   rsi,rsi
    bb34:	je     bc8c <read_object+0x3dc>
    bb3a:	mov    rax,QWORD PTR [rsp+0x8]
    bb3f:	cmp    rax,0x3
    bb43:	je     bc46 <read_object+0x396>
    bb49:	cmp    rax,0x2
    bb4d:	je     bc7e <read_object+0x3ce>
    bb53:	mov    rdi,rbp
    bb56:	lea    rdx,[rsp+0x20]
    bb5b:	call   b780 <getVALUE>
    bb60:	mov    rbp,rax
    bb63:	test   rax,rax
    bb66:	je     bc70 <read_object+0x3c0>
    bb6c:	mov    rdi,QWORD PTR [rip+0x1a5fd]        # 26170 <opt_output>
    bb73:	test   rdi,rdi
    bb76:	je     bc07 <read_object+0x357>
    bb7c:	lea    rsi,[rip+0xc0b6]        # 17c39 <_IO_stdin_used+0xc39>
    bb83:	call   5900 <fopen@plt>
    bb88:	mov    r12,rax
    bb8b:	test   rax,rax
    bb8e:	je     bccb <read_object+0x41b>
    bb94:	mov    rdx,QWORD PTR [rsp+0x20]
    bb99:	mov    rcx,r12
    bb9c:	mov    esi,0x1
    bba1:	mov    rdi,rbp
    bba4:	call   59a0 <fwrite@plt>
    bba9:	cmp    rax,QWORD PTR [rsp+0x20]
    bbae:	jne    bc9a <read_object+0x3ea>
    bbb4:	cmp    QWORD PTR [rip+0x1a5b4],0x0        # 26170 <opt_output>
    bbbc:	je     bbc6 <read_object+0x316>
    bbbe:	mov    rdi,r12
    bbc1:	call   5670 <fclose@plt>
    bbc6:	mov    rdi,rbp
    bbc9:	mov    r12d,0x1
    bbcf:	call   5590 <free@plt>
    bbd4:	mov    rdi,QWORD PTR [rsp+0x18]
    bbd9:	test   rdi,rdi
    bbdc:	je     bbe3 <read_object+0x333>
    bbde:	call   5590 <free@plt>
    bbe3:	mov    rax,QWORD PTR [rsp+0xa58]
    bbeb:	xor    rax,QWORD PTR fs:0x28
    bbf4:	jne    bc6b <read_object+0x3bb>
    bbf6:	add    rsp,0xa68
    bbfd:	mov    eax,r12d
    bc00:	pop    rbx
    bc01:	pop    rbp
    bc02:	pop    r12
    bc04:	pop    r13
    bc06:	ret    
    bc07:	mov    r12,QWORD PTR [rip+0x19992]        # 255a0 <stdout@@GLIBC_2.2.5>
    bc0e:	jmp    bb94 <read_object+0x2e4>
    bc10:	mov    rdi,QWORD PTR [rip+0x1a399]        # 25fb0 <opt_subject>
    bc17:	test   rdi,rdi
    bc1a:	je     bc26 <read_object+0x376>
    bc1c:	lea    r12,[rsp+0x28]
    bc21:	jmp    ba9d <read_object+0x1ed>
    bc26:	mov    eax,0x7
    bc2b:	test   ebx,ebx
    bc2d:	jne    bc3e <read_object+0x38e>
    bc2f:	mov    rsi,rax
    bc32:	lea    rdi,[rip+0xbfbc]        # 17bf5 <_IO_stdin_used+0xbf5>
    bc39:	call   9140 <p11_fatal>
    bc3e:	movsxd rdx,ebx
    bc41:	jmp    baed <read_object+0x23d>
    bc46:	mov    rcx,QWORD PTR [rip+0x19993]        # 255e0 <stderr@@GLIBC_2.2.5>
    bc4d:	mov    edx,0x30
    bc52:	mov    esi,0x1
    bc57:	xor    r12d,r12d
    bc5a:	lea    rdi,[rip+0xf1ef]        # 1ae50 <_IO_stdin_used+0x3e50>
    bc61:	call   59a0 <fwrite@plt>
    bc66:	jmp    bbe3 <read_object+0x333>
    bc6b:	call   5690 <__stack_chk_fail@plt>
    bc70:	lea    rdi,[rip+0xbfad]        # 17c24 <_IO_stdin_used+0xc24>
    bc77:	xor    eax,eax
    bc79:	call   15f90 <util_fatal>
    bc7e:	lea    rdi,[rip+0xf203]        # 1ae88 <_IO_stdin_used+0x3e88>
    bc85:	xor    eax,eax
    bc87:	call   15f90 <util_fatal>
    bc8c:	lea    rdi,[rip+0xbf80]        # 17c13 <_IO_stdin_used+0xc13>
    bc93:	xor    eax,eax
    bc95:	call   15f90 <util_fatal>
    bc9a:	mov    rsi,QWORD PTR [rip+0x1a4cf]        # 26170 <opt_output>
    bca1:	lea    rdi,[rip+0xbfa5]        # 17c4d <_IO_stdin_used+0xc4d>
    bca8:	xor    eax,eax
    bcaa:	call   15f90 <util_fatal>
    bcaf:	lea    rdi,[rip+0xf172]        # 1ae28 <_IO_stdin_used+0x3e28>
    bcb6:	xor    eax,eax
    bcb8:	call   15f90 <util_fatal>
    bcbd:	lea    rdi,[rip+0xf13c]        # 1ae00 <_IO_stdin_used+0x3e00>
    bcc4:	xor    eax,eax
    bcc6:	call   15f90 <util_fatal>
    bccb:	mov    rsi,QWORD PTR [rip+0x1a49e]        # 26170 <opt_output>
    bcd2:	lea    rdi,[rip+0xbf63]        # 17c3c <_IO_stdin_used+0xc3c>
    bcd9:	xor    eax,eax
    bcdb:	call   15f90 <util_fatal>
    bce0:	mov    rsi,QWORD PTR [rip+0x1a2d9]        # 25fc0 <opt_application_id>
    bce7:	lea    rdi,[rip+0xbef0]        # 17bde <_IO_stdin_used+0xbde>
    bcee:	xor    eax,eax
    bcf0:	call   15f90 <util_fatal>
    bcf5:	mov    rsi,QWORD PTR [rip+0x1a2c4]        # 25fc0 <opt_application_id>
    bcfc:	lea    rdi,[rip+0xbeca]        # 17bcd <_IO_stdin_used+0xbcd>
    bd03:	xor    eax,eax
    bd05:	call   15f90 <util_fatal>
    bd0a:	nop    WORD PTR [rax+rax*1+0x0]

000000000000bd10 <getID>:
    bd10:	push   r13
    bd12:	mov    ecx,0x1
    bd17:	push   r12
    bd19:	mov    r12,rsi
    bd1c:	push   rbp
    bd1d:	mov    rbp,rdi
    bd20:	push   rbx
    bd21:	mov    rbx,rdx
    bd24:	sub    rsp,0x28
    bd28:	mov    rax,QWORD PTR fs:0x28
    bd31:	mov    QWORD PTR [rsp+0x18],rax
    bd36:	xor    eax,eax
    bd38:	mov    rax,QWORD PTR [rip+0x1a151]        # 25e90 <p11>
    bd3f:	mov    r13,rsp
    bd42:	mov    QWORD PTR [rdx],0x0
    bd49:	mov    QWORD PTR [rsp],0x102
    bd51:	mov    rdx,r13
    bd54:	mov    QWORD PTR [rsp+0x8],0x0
    bd5d:	mov    QWORD PTR [rsp+0x10],0x0
    bd66:	call   QWORD PTR [rax+0xc8]
    bd6c:	test   rax,rax
    bd6f:	jne    bde8 <getID+0xd8>
    bd71:	mov    rsi,QWORD PTR [rsp+0x10]
    bd76:	cmp    rsi,0xffffffffffffffff
    bd7a:	je     be10 <getID+0x100>
    bd80:	add    rsi,0x1
    bd84:	mov    edi,0x1
    bd89:	call   5790 <calloc@plt>
    bd8e:	mov    QWORD PTR [rsp+0x8],rax
    bd93:	test   rax,rax
    bd96:	je     be2b <getID+0x11b>
    bd9c:	mov    rax,QWORD PTR [rip+0x1a0ed]        # 25e90 <p11>
    bda3:	mov    rdx,r13
    bda6:	mov    rsi,r12
    bda9:	mov    rdi,rbp
    bdac:	mov    ecx,0x1
    bdb1:	call   QWORD PTR [rax+0xc8]
    bdb7:	mov    rax,QWORD PTR [rsp+0x10]
    bdbc:	cmp    rax,0xffffffffffffffff
    bdc0:	je     be18 <getID+0x108>
    bdc2:	mov    QWORD PTR [rbx],rax
    bdc5:	mov    rax,QWORD PTR [rsp+0x8]
    bdca:	mov    rcx,QWORD PTR [rsp+0x18]
    bdcf:	xor    rcx,QWORD PTR fs:0x28
    bdd8:	jne    be26 <getID+0x116>
    bdda:	add    rsp,0x28
    bdde:	pop    rbx
    bddf:	pop    rbp
    bde0:	pop    r12
    bde2:	pop    r13
    bde4:	ret    
    bde5:	nop    DWORD PTR [rax]
    bde8:	cmp    rax,0x12
    bdec:	je     bdc5 <getID+0xb5>
    bdee:	mov    edx,DWORD PTR [rip+0x1a084]        # 25e78 <suppress_warn>
    bdf4:	test   edx,edx
    bdf6:	jne    bdc5 <getID+0xb5>
    bdf8:	mov    rsi,rax
    bdfb:	lea    rdi,[rip+0xbe7b]        # 17c7d <_IO_stdin_used+0xc7d>
    be02:	call   b310 <p11_warn.part.0>
    be07:	jmp    bdc5 <getID+0xb5>
    be09:	nop    DWORD PTR [rax+0x0]
    be10:	xor    eax,eax
    be12:	jmp    bdca <getID+0xba>
    be14:	nop    DWORD PTR [rax+0x0]
    be18:	mov    rdi,QWORD PTR [rsp+0x8]
    be1d:	call   5590 <free@plt>
    be22:	xor    eax,eax
    be24:	jmp    bdca <getID+0xba>
    be26:	call   5690 <__stack_chk_fail@plt>
    be2b:	lea    rdi,[rip+0xbe30]        # 17c62 <_IO_stdin_used+0xc62>
    be32:	call   15f90 <util_fatal>
    be37:	nop    WORD PTR [rax+rax*1+0x0]

000000000000be40 <getDECRYPT>:
    be40:	sub    rsp,0x38
    be44:	mov    ecx,0x1
    be49:	mov    rax,QWORD PTR fs:0x28
    be52:	mov    QWORD PTR [rsp+0x28],rax
    be57:	xor    eax,eax
    be59:	lea    rax,[rsp+0xf]
    be5e:	mov    BYTE PTR [rsp+0xf],0x0
    be63:	lea    rdx,[rsp+0x10]
    be68:	mov    QWORD PTR [rsp+0x18],rax
    be6d:	mov    rax,QWORD PTR [rip+0x1a01c]        # 25e90 <p11>
    be74:	mov    QWORD PTR [rsp+0x10],0x105
    be7d:	mov    QWORD PTR [rsp+0x20],0x1
    be86:	call   QWORD PTR [rax+0xc8]
    be8c:	test   rax,rax
    be8f:	je     be9b <getDECRYPT+0x5b>
    be91:	mov    edx,DWORD PTR [rip+0x19fe1]        # 25e78 <suppress_warn>
    be97:	test   edx,edx
    be99:	je     beb8 <getDECRYPT+0x78>
    be9b:	mov    rcx,QWORD PTR [rsp+0x28]
    bea0:	xor    rcx,QWORD PTR fs:0x28
    bea9:	movzx  eax,BYTE PTR [rsp+0xf]
    beae:	jne    bec9 <getDECRYPT+0x89>
    beb0:	add    rsp,0x38
    beb4:	ret    
    beb5:	nop    DWORD PTR [rax]
    beb8:	mov    rsi,rax
    bebb:	lea    rdi,[rip+0xbdd3]        # 17c95 <_IO_stdin_used+0xc95>
    bec2:	call   b310 <p11_warn.part.0>
    bec7:	jmp    be9b <getDECRYPT+0x5b>
    bec9:	call   5690 <__stack_chk_fail@plt>
    bece:	xchg   ax,ax

000000000000bed0 <getSIGN>:
    bed0:	sub    rsp,0x38
    bed4:	mov    ecx,0x1
    bed9:	mov    rax,QWORD PTR fs:0x28
    bee2:	mov    QWORD PTR [rsp+0x28],rax
    bee7:	xor    eax,eax
    bee9:	lea    rax,[rsp+0xf]
    beee:	mov    BYTE PTR [rsp+0xf],0x0
    bef3:	lea    rdx,[rsp+0x10]
    bef8:	mov    QWORD PTR [rsp+0x18],rax
    befd:	mov    rax,QWORD PTR [rip+0x19f8c]        # 25e90 <p11>
    bf04:	mov    QWORD PTR [rsp+0x10],0x108
    bf0d:	mov    QWORD PTR [rsp+0x20],0x1
    bf16:	call   QWORD PTR [rax+0xc8]
    bf1c:	test   rax,rax
    bf1f:	je     bf2b <getSIGN+0x5b>
    bf21:	mov    edx,DWORD PTR [rip+0x19f51]        # 25e78 <suppress_warn>
    bf27:	test   edx,edx
    bf29:	je     bf48 <getSIGN+0x78>
    bf2b:	mov    rcx,QWORD PTR [rsp+0x28]
    bf30:	xor    rcx,QWORD PTR fs:0x28
    bf39:	movzx  eax,BYTE PTR [rsp+0xf]
    bf3e:	jne    bf59 <getSIGN+0x89>
    bf40:	add    rsp,0x38
    bf44:	ret    
    bf45:	nop    DWORD PTR [rax]
    bf48:	mov    rsi,rax
    bf4b:	lea    rdi,[rip+0xbd60]        # 17cb2 <_IO_stdin_used+0xcb2>
    bf52:	call   b310 <p11_warn.part.0>
    bf57:	jmp    bf2b <getSIGN+0x5b>
    bf59:	call   5690 <__stack_chk_fail@plt>
    bf5e:	xchg   ax,ax

000000000000bf60 <getALWAYS_AUTHENTICATE>:
    bf60:	sub    rsp,0x38
    bf64:	mov    ecx,0x1
    bf69:	mov    rax,QWORD PTR fs:0x28
    bf72:	mov    QWORD PTR [rsp+0x28],rax
    bf77:	xor    eax,eax
    bf79:	lea    rax,[rsp+0xf]
    bf7e:	mov    BYTE PTR [rsp+0xf],0x0
    bf83:	lea    rdx,[rsp+0x10]
    bf88:	mov    QWORD PTR [rsp+0x18],rax
    bf8d:	mov    rax,QWORD PTR [rip+0x19efc]        # 25e90 <p11>
    bf94:	mov    QWORD PTR [rsp+0x10],0x202
    bf9d:	mov    QWORD PTR [rsp+0x20],0x1
    bfa6:	call   QWORD PTR [rax+0xc8]
    bfac:	test   rax,rax
    bfaf:	je     bfbb <getALWAYS_AUTHENTICATE+0x5b>
    bfb1:	mov    edx,DWORD PTR [rip+0x19ec1]        # 25e78 <suppress_warn>
    bfb7:	test   edx,edx
    bfb9:	je     bfd8 <getALWAYS_AUTHENTICATE+0x78>
    bfbb:	mov    rcx,QWORD PTR [rsp+0x28]
    bfc0:	xor    rcx,QWORD PTR fs:0x28
    bfc9:	movzx  eax,BYTE PTR [rsp+0xf]
    bfce:	jne    bfe9 <getALWAYS_AUTHENTICATE+0x89>
    bfd0:	add    rsp,0x38
    bfd4:	ret    
    bfd5:	nop    DWORD PTR [rax]
    bfd8:	mov    rsi,rax
    bfdb:	lea    rdi,[rip+0xeed6]        # 1aeb8 <_IO_stdin_used+0x3eb8>
    bfe2:	call   b310 <p11_warn.part.0>
    bfe7:	jmp    bfbb <getALWAYS_AUTHENTICATE+0x5b>
    bfe9:	call   5690 <__stack_chk_fail@plt>
    bfee:	xchg   ax,ax

000000000000bff0 <getMODIFIABLE>:
    bff0:	sub    rsp,0x38
    bff4:	mov    ecx,0x1
    bff9:	mov    rax,QWORD PTR fs:0x28
    c002:	mov    QWORD PTR [rsp+0x28],rax
    c007:	xor    eax,eax
    c009:	lea    rax,[rsp+0xf]
    c00e:	mov    BYTE PTR [rsp+0xf],0x0
    c013:	lea    rdx,[rsp+0x10]
    c018:	mov    QWORD PTR [rsp+0x18],rax
    c01d:	mov    rax,QWORD PTR [rip+0x19e6c]        # 25e90 <p11>
    c024:	mov    QWORD PTR [rsp+0x10],0x170
    c02d:	mov    QWORD PTR [rsp+0x20],0x1
    c036:	call   QWORD PTR [rax+0xc8]
    c03c:	test   rax,rax
    c03f:	je     c04b <getMODIFIABLE+0x5b>
    c041:	mov    edx,DWORD PTR [rip+0x19e31]        # 25e78 <suppress_warn>
    c047:	test   edx,edx
    c049:	je     c068 <getMODIFIABLE+0x78>
    c04b:	mov    rcx,QWORD PTR [rsp+0x28]
    c050:	xor    rcx,QWORD PTR fs:0x28
    c059:	movzx  eax,BYTE PTR [rsp+0xf]
    c05e:	jne    c079 <getMODIFIABLE+0x89>
    c060:	add    rsp,0x38
    c064:	ret    
    c065:	nop    DWORD PTR [rax]
    c068:	mov    rsi,rax
    c06b:	lea    rdi,[rip+0xee76]        # 1aee8 <_IO_stdin_used+0x3ee8>
    c072:	call   b310 <p11_warn.part.0>
    c077:	jmp    c04b <getMODIFIABLE+0x5b>
    c079:	call   5690 <__stack_chk_fail@plt>
    c07e:	xchg   ax,ax

000000000000c080 <getPRIVATE>:
    c080:	sub    rsp,0x38
    c084:	mov    ecx,0x1
    c089:	mov    rax,QWORD PTR fs:0x28
    c092:	mov    QWORD PTR [rsp+0x28],rax
    c097:	xor    eax,eax
    c099:	lea    rax,[rsp+0xf]
    c09e:	mov    BYTE PTR [rsp+0xf],0x0
    c0a3:	lea    rdx,[rsp+0x10]
    c0a8:	mov    QWORD PTR [rsp+0x18],rax
    c0ad:	mov    rax,QWORD PTR [rip+0x19ddc]        # 25e90 <p11>
    c0b4:	mov    QWORD PTR [rsp+0x10],0x2
    c0bd:	mov    QWORD PTR [rsp+0x20],0x1
    c0c6:	call   QWORD PTR [rax+0xc8]
    c0cc:	test   rax,rax
    c0cf:	je     c0db <getPRIVATE+0x5b>
    c0d1:	mov    edx,DWORD PTR [rip+0x19da1]        # 25e78 <suppress_warn>
    c0d7:	test   edx,edx
    c0d9:	je     c0f8 <getPRIVATE+0x78>
    c0db:	mov    rcx,QWORD PTR [rsp+0x28]
    c0e0:	xor    rcx,QWORD PTR fs:0x28
    c0e9:	movzx  eax,BYTE PTR [rsp+0xf]
    c0ee:	jne    c109 <getPRIVATE+0x89>
    c0f0:	add    rsp,0x38
    c0f4:	ret    
    c0f5:	nop    DWORD PTR [rax]
    c0f8:	mov    rsi,rax
    c0fb:	lea    rdi,[rip+0xbbca]        # 17ccc <_IO_stdin_used+0xccc>
    c102:	call   b310 <p11_warn.part.0>
    c107:	jmp    c0db <getPRIVATE+0x5b>
    c109:	call   5690 <__stack_chk_fail@plt>
    c10e:	xchg   ax,ax

000000000000c110 <get_private_key_length>:
    c110:	push   r12
    c112:	mov    r12,rdi
    c115:	push   rbp
    c116:	sub    rsp,0x28
    c11a:	mov    rax,QWORD PTR fs:0x28
    c123:	mov    QWORD PTR [rsp+0x18],rax
    c128:	xor    eax,eax
    c12a:	lea    rdx,[rsp+0x8]
    c12f:	call   bd10 <getID>
    c134:	test   rax,rax
    c137:	je     c1c0 <get_private_key_length+0xb0>
    c13d:	mov    r8,QWORD PTR [rsp+0x8]
    c142:	mov    rdi,r12
    c145:	lea    rdx,[rsp+0x10]
    c14a:	xor    r9d,r9d
    c14d:	mov    rcx,rax
    c150:	mov    esi,0x2
    c155:	mov    rbp,rax
    c158:	call   b100 <find_object>
    c15d:	mov    rdi,rbp
    c160:	test   eax,eax
    c162:	je     c190 <get_private_key_length+0x80>
    c164:	call   5590 <free@plt>
    c169:	mov    rsi,QWORD PTR [rsp+0x10]
    c16e:	mov    rdi,r12
    c171:	call   b480 <getMODULUS_BITS>
    c176:	mov    rcx,QWORD PTR [rsp+0x18]
    c17b:	xor    rcx,QWORD PTR fs:0x28
    c184:	jne    c1e1 <get_private_key_length+0xd1>
    c186:	add    rsp,0x28
    c18a:	pop    rbp
    c18b:	pop    r12
    c18d:	ret    
    c18e:	xchg   ax,ax
    c190:	call   5590 <free@plt>
    c195:	mov    edx,0x27
    c19a:	mov    rcx,QWORD PTR [rip+0x1943f]        # 255e0 <stderr@@GLIBC_2.2.5>
    c1a1:	mov    esi,0x1
    c1a6:	lea    rdi,[rip+0xed9b]        # 1af48 <_IO_stdin_used+0x3f48>
    c1ad:	call   59a0 <fwrite@plt>
    c1b2:	xor    eax,eax
    c1b4:	jmp    c176 <get_private_key_length+0x66>
    c1b6:	cs nop WORD PTR [rax+rax*1+0x0]
    c1c0:	mov    rcx,QWORD PTR [rip+0x19419]        # 255e0 <stderr@@GLIBC_2.2.5>
    c1c7:	mov    edx,0x3d
    c1cc:	mov    esi,0x1
    c1d1:	lea    rdi,[rip+0xed30]        # 1af08 <_IO_stdin_used+0x3f08>
    c1d8:	call   59a0 <fwrite@plt>
    c1dd:	xor    eax,eax
    c1df:	jmp    c176 <get_private_key_length+0x66>
    c1e1:	call   5690 <__stack_chk_fail@plt>
    c1e6:	cs nop WORD PTR [rax+rax*1+0x0]

000000000000c1f0 <sign_verify_openssl.isra.0>:
    c1f0:	push   r15
    c1f2:	mov    r15,rdx
    c1f5:	push   r14
    c1f7:	mov    r14,rsi
    c1fa:	push   r13
    c1fc:	mov    r13,r8
    c1ff:	push   r12
    c201:	mov    r12,rcx
    c204:	push   rbp
    c205:	mov    rbp,rdi
    c208:	push   rbx
    c209:	mov    rbx,r9
    c20c:	sub    rsp,0x428
    c213:	mov    rax,QWORD PTR fs:0x28
    c21c:	mov    QWORD PTR [rsp+0x418],rax
    c224:	xor    eax,eax
    c226:	mov    rax,QWORD PTR [rip+0x19c63]        # 25e90 <p11>
    c22d:	call   QWORD PTR [rax+0x158]
    c233:	cmp    rax,0x70
    c237:	je     c378 <sign_verify_openssl.isra.0+0x188>
    c23d:	test   rax,rax
    c240:	jne    c391 <sign_verify_openssl.isra.0+0x1a1>
    c246:	mov    rsi,r15
    c249:	mov    rdi,rbp
    c24c:	call   bf60 <getALWAYS_AUTHENTICATE>
    c251:	test   al,al
    c253:	jne    c360 <sign_verify_openssl.isra.0+0x170>
    c259:	mov    r10,QWORD PTR [rip+0x17188]        # 233e8 <p11_mechanisms+0x8>
    c260:	mov    rdi,QWORD PTR [r14]
    c263:	test   r10,r10
    c266:	je     c350 <sign_verify_openssl.isra.0+0x160>
    c26c:	lea    rdx,[rip+0x1716d]        # 233e0 <p11_mechanisms>
    c273:	jmp    c289 <sign_verify_openssl.isra.0+0x99>
    c275:	nop    DWORD PTR [rax]
    c278:	mov    r10,QWORD PTR [rdx+0x28]
    c27c:	add    rdx,0x20
    c280:	test   r10,r10
    c283:	je     c350 <sign_verify_openssl.isra.0+0x160>
    c289:	cmp    rdi,QWORD PTR [rdx]
    c28c:	jne    c278 <sign_verify_openssl.isra.0+0x88>
    c28e:	mov    rdx,r10
    c291:	lea    rsi,[rip+0xba5c]        # 17cf4 <_IO_stdin_used+0xcf4>
    c298:	mov    edi,0x1
    c29d:	xor    eax,eax
    c29f:	call   58a0 <__printf_chk@plt>
    c2a4:	lea    rcx,[rsp+0x10]
    c2a9:	mov    rdx,r13
    c2ac:	mov    rsi,r12
    c2af:	mov    rax,QWORD PTR [rip+0x19bda]        # 25e90 <p11>
    c2b6:	lea    r8,[rsp+0x8]
    c2bb:	mov    rdi,rbp
    c2be:	mov    QWORD PTR [rsp+0x8],0x400
    c2c7:	call   QWORD PTR [rax+0x160]
    c2cd:	test   rax,rax
    c2d0:	jne    c382 <sign_verify_openssl.isra.0+0x192>
    c2d6:	mov    rdx,QWORD PTR [rsp+0x8]
    c2db:	xor    r12d,r12d
    c2de:	cmp    rdx,rbx
    c2e1:	jne    c330 <sign_verify_openssl.isra.0+0x140>
    c2e3:	mov    rcx,QWORD PTR [rip+0x192f6]        # 255e0 <stderr@@GLIBC_2.2.5>
    c2ea:	mov    edx,0x39
    c2ef:	mov    esi,0x1
    c2f4:	lea    rdi,[rip+0xecad]        # 1afa8 <_IO_stdin_used+0x3fa8>
    c2fb:	call   59a0 <fwrite@plt>
    c300:	mov    rax,QWORD PTR [rsp+0x418]
    c308:	xor    rax,QWORD PTR fs:0x28
    c311:	jne    c37d <sign_verify_openssl.isra.0+0x18d>
    c313:	add    rsp,0x428
    c31a:	mov    eax,r12d
    c31d:	pop    rbx
    c31e:	pop    rbp
    c31f:	pop    r12
    c321:	pop    r13
    c323:	pop    r14
    c325:	pop    r15
    c327:	ret    
    c328:	nop    DWORD PTR [rax+rax*1+0x0]
    c330:	mov    ecx,ebx
    c332:	lea    rsi,[rip+0xec37]        # 1af70 <_IO_stdin_used+0x3f70>
    c339:	mov    edi,0x1
    c33e:	xor    eax,eax
    c340:	call   58a0 <__printf_chk@plt>
    c345:	mov    r12d,0x1
    c34b:	jmp    c2e3 <sign_verify_openssl.isra.0+0xf3>
    c34d:	nop    DWORD PTR [rax]
    c350:	call   a3c0 <p11_mechanism_to_name.part.0>
    c355:	mov    r10,rax
    c358:	jmp    c28e <sign_verify_openssl.isra.0+0x9e>
    c35d:	nop    DWORD PTR [rax]
    c360:	mov    esi,0x2
    c365:	mov    rdi,rbp
    c368:	call   9820 <login>
    c36d:	jmp    c259 <sign_verify_openssl.isra.0+0x69>
    c372:	nop    WORD PTR [rax+rax*1+0x0]
    c378:	xor    r12d,r12d
    c37b:	jmp    c300 <sign_verify_openssl.isra.0+0x110>
    c37d:	call   5690 <__stack_chk_fail@plt>
    c382:	mov    rsi,rax
    c385:	lea    rdi,[rip+0xb769]        # 17af5 <_IO_stdin_used+0xaf5>
    c38c:	call   9140 <p11_fatal>
    c391:	mov    rsi,rax
    c394:	lea    rdi,[rip+0xb94e]        # 17ce9 <_IO_stdin_used+0xce9>
    c39b:	call   9140 <p11_fatal>

000000000000c3a0 <sign_verify>:
    c3a0:	push   r15
    c3a2:	pxor   xmm0,xmm0
    c3a6:	push   r14
    c3a8:	mov    r14d,0x3
    c3ae:	push   r13
    c3b0:	push   r12
    c3b2:	mov    r12,rsi
    c3b5:	lea    rsi,[rip+0x122cc]        # 1e688 <_IO_stdin_used+0x7688>
    c3bc:	push   rbp
    c3bd:	mov    rbp,rdi
    c3c0:	push   rbx
    c3c1:	xor    ebx,ebx
    c3c3:	sub    rsp,0x4e8
    c3ca:	mov    QWORD PTR [rsp+0x10],rcx
    c3cf:	mov    ecx,0x3e
    c3d4:	lea    r13,[rsp+0x30]
    c3d9:	lea    rdi,[rsp+0xe0]
    c3e1:	mov    DWORD PTR [rsp+0x1c],r8d
    c3e6:	mov    rax,QWORD PTR fs:0x28
    c3ef:	mov    QWORD PTR [rsp+0x4d8],rax
    c3f7:	xor    eax,eax
    c3f9:	movaps XMMWORD PTR [rsp+0xd0],xmm0
    c401:	mov    QWORD PTR [rsp+0xa0],0x3
    c40d:	mov    QWORD PTR [rsp+0xa8],0x1
    c419:	mov    QWORD PTR [rsp+0xb0],0x6
    c425:	mov    QWORD PTR [rsp+0xb8],0x5
    c431:	mov    QWORD PTR [rsp+0xc0],0x8
    c43d:	rep stos QWORD PTR es:[rdi],rax
    c440:	lea    rax,[rsp+0xd0]
    c448:	mov    QWORD PTR [rsp+0x78],rsi
    c44d:	mov    QWORD PTR [rsp+0x70],rax
    c452:	mov    QWORD PTR [rsp+0x80],rax
    c45a:	mov    QWORD PTR [rsp+0x88],rax
    c462:	mov    QWORD PTR [rsp+0x90],rax
    c46a:	movabs rax,0xea00000023
    c474:	mov    QWORD PTR [rsp+0x54],rax
    c479:	movabs rax,0x1c800000159
    c483:	mov    QWORD PTR [rsp+0x5c],rax
    c488:	mov    rax,QWORD PTR [rip+0x1221d]        # 1e6ac <_IO_stdin_used+0x76ac>
    c48f:	mov    QWORD PTR [rsp+0xc8],0xffffff
    c49b:	mov    QWORD PTR [rsp+0xd0],rax
    c4a3:	movzx  eax,WORD PTR [rip+0x1220a]        # 1e6b4 <_IO_stdin_used+0x76b4>
    c4aa:	mov    DWORD PTR [rsp+0x50],edx
    c4ae:	mov    WORD PTR [rsp+0xd8],ax
    c4b6:	movzx  eax,BYTE PTR [rip+0x121f9]        # 1e6b6 <_IO_stdin_used+0x76b6>
    c4bd:	mov    BYTE PTR [rsp+0xda],al
    c4c4:	lea    rax,[rsp+0x28]
    c4c9:	mov    QWORD PTR [rsp+0x8],rax
    c4ce:	xchg   ax,ax
    c4d0:	mov    rax,QWORD PTR [rip+0x199b9]        # 25e90 <p11>
    c4d7:	mov    rdx,r12
    c4da:	mov    rsi,r13
    c4dd:	mov    rdi,rbp
    c4e0:	mov    QWORD PTR [rsp+0x30],r14
    c4e5:	mov    QWORD PTR [rsp+0x38],0x0
    c4ee:	mov    QWORD PTR [rsp+0x40],0x0
    c4f7:	call   QWORD PTR [rax+0x158]
    c4fd:	cmp    rax,0x70
    c501:	je     c61c <sign_verify+0x27c>
    c507:	test   rax,rax
    c50a:	jne    c6dc <sign_verify+0x33c>
    c510:	mov    rsi,r12
    c513:	mov    rdi,rbp
    c516:	call   bf60 <getALWAYS_AUTHENTICATE>
    c51b:	test   al,al
    c51d:	jne    c650 <sign_verify+0x2b0>
    c523:	mov    r8,QWORD PTR [rip+0x16ebe]        # 233e8 <p11_mechanisms+0x8>
    c52a:	test   r8,r8
    c52d:	je     c640 <sign_verify+0x2a0>
    c533:	lea    rdx,[rip+0x16ea6]        # 233e0 <p11_mechanisms>
    c53a:	jmp    c551 <sign_verify+0x1b1>
    c53c:	nop    DWORD PTR [rax+0x0]
    c540:	mov    r8,QWORD PTR [rdx+0x28]
    c544:	add    rdx,0x20
    c548:	test   r8,r8
    c54b:	je     c640 <sign_verify+0x2a0>
    c551:	cmp    QWORD PTR [rdx],r14
    c554:	jne    c540 <sign_verify+0x1a0>
    c556:	mov    rdx,r8
    c559:	lea    rsi,[rip+0xb794]        # 17cf4 <_IO_stdin_used+0xcf4>
    c560:	mov    edi,0x1
    c565:	xor    eax,eax
    c567:	call   58a0 <__printf_chk@plt>
    c56c:	movsxd r15,DWORD PTR [rsp+rbx*4+0x50]
    c571:	mov    rdi,rbp
    c574:	mov    r14,QWORD PTR [rsp+rbx*8+0x70]
    c579:	mov    rax,QWORD PTR [rip+0x19910]        # 25e90 <p11>
    c580:	lea    rcx,[rsp+0x2d0]
    c588:	mov    r8,QWORD PTR [rsp+0x8]
    c58d:	mov    QWORD PTR [rsp+0x28],0x200
    c596:	mov    QWORD PTR [rsp],rcx
    c59a:	mov    rdx,r15
    c59d:	mov    rsi,r14
    c5a0:	call   QWORD PTR [rax+0x160]
    c5a6:	mov    rcx,QWORD PTR [rsp]
    c5aa:	test   rax,rax
    c5ad:	jne    c705 <sign_verify+0x365>
    c5b3:	mov    QWORD PTR [rsp],rcx
    c5b7:	mov    rdx,QWORD PTR [rsp+0x10]
    c5bc:	mov    rsi,r13
    c5bf:	mov    rdi,rbp
    c5c2:	mov    rax,QWORD PTR [rip+0x198c7]        # 25e90 <p11>
    c5c9:	call   QWORD PTR [rax+0x188]
    c5cf:	mov    rcx,QWORD PTR [rsp]
    c5d3:	test   rax,rax
    c5d6:	jne    c72e <sign_verify+0x38e>
    c5dc:	mov    rax,QWORD PTR [rip+0x198ad]        # 25e90 <p11>
    c5e3:	mov    rdx,r15
    c5e6:	mov    rsi,r14
    c5e9:	mov    rdi,rbp
    c5ec:	mov    r8,QWORD PTR [rsp+0x28]
    c5f1:	call   QWORD PTR [rax+0x190]
    c5f7:	cmp    rax,0xc0
    c5fd:	je     c668 <sign_verify+0x2c8>
    c5ff:	test   rax,rax
    c602:	jne    c75f <sign_verify+0x3bf>
    c608:	lea    rdi,[rip+0xbfd3]        # 185e2 <_IO_stdin_used+0x15e2>
    c60f:	call   5600 <puts@plt>
    c614:	mov    eax,DWORD PTR [rsp+0x1c]
    c618:	test   eax,eax
    c61a:	jne    c635 <sign_verify+0x295>
    c61c:	add    rbx,0x1
    c620:	mov    r14,QWORD PTR [rsp+rbx*8+0xa0]
    c628:	cmp    r14,0xffffff
    c62f:	jne    c4d0 <sign_verify+0x130>
    c635:	xor    r12d,r12d
    c638:	jmp    c6b0 <sign_verify+0x310>
    c63a:	nop    WORD PTR [rax+rax*1+0x0]
    c640:	mov    rdi,r14
    c643:	call   a3c0 <p11_mechanism_to_name.part.0>
    c648:	mov    r8,rax
    c64b:	jmp    c556 <sign_verify+0x1b6>
    c650:	mov    esi,0x2
