
sjeng:     file format elf64-x86-64


Disassembly of section .init:

0000000000001000 <_init>:
    1000:	endbr64 
    1004:	sub    rsp,0x8
    1008:	mov    rax,QWORD PTR [rip+0x22fc1]        # 23fd0 <__gmon_start__>
    100f:	test   rax,rax
    1012:	je     1016 <_init+0x16>
    1014:	call   rax
    1016:	add    rsp,0x8
    101a:	ret    

Disassembly of section .plt:

0000000000001020 <.plt>:
    1020:	push   QWORD PTR [rip+0x22e6a]        # 23e90 <_GLOBAL_OFFSET_TABLE_+0x8>
    1026:	bnd jmp QWORD PTR [rip+0x22e6b]        # 23e98 <_GLOBAL_OFFSET_TABLE_+0x10>
    102d:	nop    DWORD PTR [rax]
    1030:	endbr64 
    1034:	push   0x0
    1039:	bnd jmp 1020 <.plt>
    103f:	nop
    1040:	endbr64 
    1044:	push   0x1
    1049:	bnd jmp 1020 <.plt>
    104f:	nop
    1050:	endbr64 
    1054:	push   0x2
    1059:	bnd jmp 1020 <.plt>
    105f:	nop
    1060:	endbr64 
    1064:	push   0x3
    1069:	bnd jmp 1020 <.plt>
    106f:	nop
    1070:	endbr64 
    1074:	push   0x4
    1079:	bnd jmp 1020 <.plt>
    107f:	nop
    1080:	endbr64 
    1084:	push   0x5
    1089:	bnd jmp 1020 <.plt>
    108f:	nop
    1090:	endbr64 
    1094:	push   0x6
    1099:	bnd jmp 1020 <.plt>
    109f:	nop
    10a0:	endbr64 
    10a4:	push   0x7
    10a9:	bnd jmp 1020 <.plt>
    10af:	nop
    10b0:	endbr64 
    10b4:	push   0x8
    10b9:	bnd jmp 1020 <.plt>
    10bf:	nop
    10c0:	endbr64 
    10c4:	push   0x9
    10c9:	bnd jmp 1020 <.plt>
    10cf:	nop
    10d0:	endbr64 
    10d4:	push   0xa
    10d9:	bnd jmp 1020 <.plt>
    10df:	nop
    10e0:	endbr64 
    10e4:	push   0xb
    10e9:	bnd jmp 1020 <.plt>
    10ef:	nop
    10f0:	endbr64 
    10f4:	push   0xc
    10f9:	bnd jmp 1020 <.plt>
    10ff:	nop
    1100:	endbr64 
    1104:	push   0xd
    1109:	bnd jmp 1020 <.plt>
    110f:	nop
    1110:	endbr64 
    1114:	push   0xe
    1119:	bnd jmp 1020 <.plt>
    111f:	nop
    1120:	endbr64 
    1124:	push   0xf
    1129:	bnd jmp 1020 <.plt>
    112f:	nop
    1130:	endbr64 
    1134:	push   0x10
    1139:	bnd jmp 1020 <.plt>
    113f:	nop
    1140:	endbr64 
    1144:	push   0x11
    1149:	bnd jmp 1020 <.plt>
    114f:	nop
    1150:	endbr64 
    1154:	push   0x12
    1159:	bnd jmp 1020 <.plt>
    115f:	nop
    1160:	endbr64 
    1164:	push   0x13
    1169:	bnd jmp 1020 <.plt>
    116f:	nop
    1170:	endbr64 
    1174:	push   0x14
    1179:	bnd jmp 1020 <.plt>
    117f:	nop
    1180:	endbr64 
    1184:	push   0x15
    1189:	bnd jmp 1020 <.plt>
    118f:	nop
    1190:	endbr64 
    1194:	push   0x16
    1199:	bnd jmp 1020 <.plt>
    119f:	nop
    11a0:	endbr64 
    11a4:	push   0x17
    11a9:	bnd jmp 1020 <.plt>
    11af:	nop
    11b0:	endbr64 
    11b4:	push   0x18
    11b9:	bnd jmp 1020 <.plt>
    11bf:	nop
    11c0:	endbr64 
    11c4:	push   0x19
    11c9:	bnd jmp 1020 <.plt>
    11cf:	nop
    11d0:	endbr64 
    11d4:	push   0x1a
    11d9:	bnd jmp 1020 <.plt>
    11df:	nop
    11e0:	endbr64 
    11e4:	push   0x1b
    11e9:	bnd jmp 1020 <.plt>
    11ef:	nop
    11f0:	endbr64 
    11f4:	push   0x1c
    11f9:	bnd jmp 1020 <.plt>
    11ff:	nop
    1200:	endbr64 
    1204:	push   0x1d
    1209:	bnd jmp 1020 <.plt>
    120f:	nop
    1210:	endbr64 
    1214:	push   0x1e
    1219:	bnd jmp 1020 <.plt>
    121f:	nop
    1220:	endbr64 
    1224:	push   0x1f
    1229:	bnd jmp 1020 <.plt>
    122f:	nop
    1230:	endbr64 
    1234:	push   0x20
    1239:	bnd jmp 1020 <.plt>
    123f:	nop
    1240:	endbr64 
    1244:	push   0x21
    1249:	bnd jmp 1020 <.plt>
    124f:	nop
    1250:	endbr64 
    1254:	push   0x22
    1259:	bnd jmp 1020 <.plt>
    125f:	nop
    1260:	endbr64 
    1264:	push   0x23
    1269:	bnd jmp 1020 <.plt>
    126f:	nop

Disassembly of section .plt.got:

0000000000001270 <__cxa_finalize@plt>:
    1270:	endbr64 
    1274:	bnd jmp QWORD PTR [rip+0x22d65]        # 23fe0 <__cxa_finalize@GLIBC_2.2.5>
    127b:	nop    DWORD PTR [rax+rax*1+0x0]

Disassembly of section .plt.sec:

0000000000001280 <__strcat_chk@plt>:
    1280:	endbr64 
    1284:	bnd jmp QWORD PTR [rip+0x22c15]        # 23ea0 <__strcat_chk@GLIBC_2.3.4>
    128b:	nop    DWORD PTR [rax+rax*1+0x0]

0000000000001290 <free@plt>:
    1290:	endbr64 
    1294:	bnd jmp QWORD PTR [rip+0x22c0d]        # 23ea8 <free@GLIBC_2.2.5>
    129b:	nop    DWORD PTR [rax+rax*1+0x0]

00000000000012a0 <putchar@plt>:
    12a0:	endbr64 
    12a4:	bnd jmp QWORD PTR [rip+0x22c05]        # 23eb0 <putchar@GLIBC_2.2.5>
    12ab:	nop    DWORD PTR [rax+rax*1+0x0]

00000000000012b0 <strncpy@plt>:
    12b0:	endbr64 
    12b4:	bnd jmp QWORD PTR [rip+0x22bfd]        # 23eb8 <strncpy@GLIBC_2.2.5>
    12bb:	nop    DWORD PTR [rax+rax*1+0x0]

00000000000012c0 <strncmp@plt>:
    12c0:	endbr64 
    12c4:	bnd jmp QWORD PTR [rip+0x22bf5]        # 23ec0 <strncmp@GLIBC_2.2.5>
    12cb:	nop    DWORD PTR [rax+rax*1+0x0]

00000000000012d0 <puts@plt>:
    12d0:	endbr64 
    12d4:	bnd jmp QWORD PTR [rip+0x22bed]        # 23ec8 <puts@GLIBC_2.2.5>
    12db:	nop    DWORD PTR [rax+rax*1+0x0]

00000000000012e0 <fclose@plt>:
    12e0:	endbr64 
    12e4:	bnd jmp QWORD PTR [rip+0x22be5]        # 23ed0 <fclose@GLIBC_2.2.5>
    12eb:	nop    DWORD PTR [rax+rax*1+0x0]

00000000000012f0 <stpcpy@plt>:
    12f0:	endbr64 
    12f4:	bnd jmp QWORD PTR [rip+0x22bdd]        # 23ed8 <stpcpy@GLIBC_2.2.5>
    12fb:	nop    DWORD PTR [rax+rax*1+0x0]

0000000000001300 <strlen@plt>:
    1300:	endbr64 
    1304:	bnd jmp QWORD PTR [rip+0x22bd5]        # 23ee0 <strlen@GLIBC_2.2.5>
    130b:	nop    DWORD PTR [rax+rax*1+0x0]

0000000000001310 <__stack_chk_fail@plt>:
    1310:	endbr64 
    1314:	bnd jmp QWORD PTR [rip+0x22bcd]        # 23ee8 <__stack_chk_fail@GLIBC_2.4>
    131b:	nop    DWORD PTR [rax+rax*1+0x0]

0000000000001320 <setbuf@plt>:
    1320:	endbr64 
    1324:	bnd jmp QWORD PTR [rip+0x22bc5]        # 23ef0 <setbuf@GLIBC_2.2.5>
    132b:	nop    DWORD PTR [rax+rax*1+0x0]

0000000000001330 <strchr@plt>:
    1330:	endbr64 
    1334:	bnd jmp QWORD PTR [rip+0x22bbd]        # 23ef8 <strchr@GLIBC_2.2.5>
    133b:	nop    DWORD PTR [rax+rax*1+0x0]

0000000000001340 <difftime@plt>:
    1340:	endbr64 
    1344:	bnd jmp QWORD PTR [rip+0x22bb5]        # 23f00 <difftime@GLIBC_2.2.5>
    134b:	nop    DWORD PTR [rax+rax*1+0x0]

0000000000001350 <fputs@plt>:
    1350:	endbr64 
    1354:	bnd jmp QWORD PTR [rip+0x22bad]        # 23f08 <fputs@GLIBC_2.2.5>
    135b:	nop    DWORD PTR [rax+rax*1+0x0]

0000000000001360 <memset@plt>:
    1360:	endbr64 
    1364:	bnd jmp QWORD PTR [rip+0x22ba5]        # 23f10 <memset@GLIBC_2.2.5>
    136b:	nop    DWORD PTR [rax+rax*1+0x0]

0000000000001370 <fputc@plt>:
    1370:	endbr64 
    1374:	bnd jmp QWORD PTR [rip+0x22b9d]        # 23f18 <fputc@GLIBC_2.2.5>
    137b:	nop    DWORD PTR [rax+rax*1+0x0]

0000000000001380 <fgets@plt>:
    1380:	endbr64 
    1384:	bnd jmp QWORD PTR [rip+0x22b95]        # 23f20 <fgets@GLIBC_2.2.5>
    138b:	nop    DWORD PTR [rax+rax*1+0x0]

0000000000001390 <calloc@plt>:
    1390:	endbr64 
    1394:	bnd jmp QWORD PTR [rip+0x22b8d]        # 23f28 <calloc@GLIBC_2.2.5>
    139b:	nop    DWORD PTR [rax+rax*1+0x0]

00000000000013a0 <strcmp@plt>:
    13a0:	endbr64 
    13a4:	bnd jmp QWORD PTR [rip+0x22b85]        # 23f30 <strcmp@GLIBC_2.2.5>
    13ab:	nop    DWORD PTR [rax+rax*1+0x0]

00000000000013b0 <signal@plt>:
    13b0:	endbr64 
    13b4:	bnd jmp QWORD PTR [rip+0x22b7d]        # 23f38 <signal@GLIBC_2.2.5>
    13bb:	nop    DWORD PTR [rax+rax*1+0x0]

00000000000013c0 <__memcpy_chk@plt>:
    13c0:	endbr64 
    13c4:	bnd jmp QWORD PTR [rip+0x22b75]        # 23f40 <__memcpy_chk@GLIBC_2.3.4>
    13cb:	nop    DWORD PTR [rax+rax*1+0x0]

00000000000013d0 <strtol@plt>:
    13d0:	endbr64 
    13d4:	bnd jmp QWORD PTR [rip+0x22b6d]        # 23f48 <strtol@GLIBC_2.2.5>
    13db:	nop    DWORD PTR [rax+rax*1+0x0]

00000000000013e0 <__stpcpy_chk@plt>:
    13e0:	endbr64 
    13e4:	bnd jmp QWORD PTR [rip+0x22b65]        # 23f50 <__stpcpy_chk@GLIBC_2.3.4>
    13eb:	nop    DWORD PTR [rax+rax*1+0x0]

00000000000013f0 <malloc@plt>:
    13f0:	endbr64 
    13f4:	bnd jmp QWORD PTR [rip+0x22b5d]        # 23f58 <malloc@GLIBC_2.2.5>
    13fb:	nop    DWORD PTR [rax+rax*1+0x0]

0000000000001400 <__isoc99_sscanf@plt>:
    1400:	endbr64 
    1404:	bnd jmp QWORD PTR [rip+0x22b55]        # 23f60 <__isoc99_sscanf@GLIBC_2.7>
    140b:	nop    DWORD PTR [rax+rax*1+0x0]

0000000000001410 <__strcpy_chk@plt>:
    1410:	endbr64 
    1414:	bnd jmp QWORD PTR [rip+0x22b4d]        # 23f68 <__strcpy_chk@GLIBC_2.3.4>
    141b:	nop    DWORD PTR [rax+rax*1+0x0]

0000000000001420 <__printf_chk@plt>:
    1420:	endbr64 
    1424:	bnd jmp QWORD PTR [rip+0x22b45]        # 23f70 <__printf_chk@GLIBC_2.3.4>
    142b:	nop    DWORD PTR [rax+rax*1+0x0]

0000000000001430 <fopen@plt>:
    1430:	endbr64 
    1434:	bnd jmp QWORD PTR [rip+0x22b3d]        # 23f78 <fopen@GLIBC_2.2.5>
    143b:	nop    DWORD PTR [rax+rax*1+0x0]

0000000000001440 <exit@plt>:
    1440:	endbr64 
    1444:	bnd jmp QWORD PTR [rip+0x22b35]        # 23f80 <exit@GLIBC_2.2.5>
    144b:	nop    DWORD PTR [rax+rax*1+0x0]

0000000000001450 <fwrite@plt>:
    1450:	endbr64 
    1454:	bnd jmp QWORD PTR [rip+0x22b2d]        # 23f88 <fwrite@GLIBC_2.2.5>
    145b:	nop    DWORD PTR [rax+rax*1+0x0]

0000000000001460 <__fprintf_chk@plt>:
    1460:	endbr64 
    1464:	bnd jmp QWORD PTR [rip+0x22b25]        # 23f90 <__fprintf_chk@GLIBC_2.3.4>
    146b:	nop    DWORD PTR [rax+rax*1+0x0]

0000000000001470 <getc@plt>:
    1470:	endbr64 
    1474:	bnd jmp QWORD PTR [rip+0x22b1d]        # 23f98 <getc@GLIBC_2.2.5>
    147b:	nop    DWORD PTR [rax+rax*1+0x0]

0000000000001480 <strstr@plt>:
    1480:	endbr64 
    1484:	bnd jmp QWORD PTR [rip+0x22b15]        # 23fa0 <strstr@GLIBC_2.2.5>
    148b:	nop    DWORD PTR [rax+rax*1+0x0]

0000000000001490 <__ctype_tolower_loc@plt>:
    1490:	endbr64 
    1494:	bnd jmp QWORD PTR [rip+0x22b0d]        # 23fa8 <__ctype_tolower_loc@GLIBC_2.3>
    149b:	nop    DWORD PTR [rax+rax*1+0x0]

00000000000014a0 <__ctype_b_loc@plt>:
    14a0:	endbr64 
    14a4:	bnd jmp QWORD PTR [rip+0x22b05]        # 23fb0 <__ctype_b_loc@GLIBC_2.3>
    14ab:	nop    DWORD PTR [rax+rax*1+0x0]

00000000000014b0 <__sprintf_chk@plt>:
    14b0:	endbr64 
    14b4:	bnd jmp QWORD PTR [rip+0x22afd]        # 23fb8 <__sprintf_chk@GLIBC_2.3.4>
    14bb:	nop    DWORD PTR [rax+rax*1+0x0]

Disassembly of section .text:

00000000000014c0 <update_ancestors.cold>:
    14c0:	mov    eax,DWORD PTR ds:0x24
    14c7:	ud2    
    14c9:	nop    DWORD PTR [rax+0x0]

00000000000014d0 <main>:
    14d0:	endbr64 
    14d4:	push   r15
    14d6:	push   r14
    14d8:	push   r13
    14da:	push   r12
    14dc:	push   rbp
    14dd:	push   rbx
    14de:	lea    r11,[rsp-0x6000]
    14e6:	sub    rsp,0x1000
    14ed:	or     QWORD PTR [rsp],0x0
    14f2:	cmp    rsp,r11
    14f5:	jne    14e6 <main+0x16>
    14f7:	sub    rsp,0x178
    14fe:	mov    rax,QWORD PTR fs:0x28
    1507:	mov    QWORD PTR [rsp+0x6168],rax
    150f:	xor    eax,eax
    1511:	mov    ebx,edi
    1513:	mov    rbp,rsi
    1516:	mov    DWORD PTR [rsp+0x54],0x4
    151e:	call   10e90 <read_rcfile>
    1523:	lea    r14,[rsp+0x2620]
    152b:	call   16710 <initialize_zobrist>
    1530:	movdqu xmm2,XMMWORD PTR [rip+0x22f08]        # 24440 <std_material>
    1538:	movdqu xmm3,XMMWORD PTR [rip+0x22f10]        # 24450 <std_material+0x10>
    1540:	mov    DWORD PTR [rip+0x27a276],0x2        # 27b7c0 <Variant>
    154a:	movdqu xmm4,XMMWORD PTR [rip+0x22f0e]        # 24460 <std_material+0x20>
    1552:	mov    rax,QWORD PTR [rip+0x22f17]        # 24470 <std_material+0x30>
    1559:	movups XMMWORD PTR [rip+0x23020],xmm2        # 24580 <material>
    1560:	movups XMMWORD PTR [rip+0x23029],xmm3        # 24590 <material+0x10>
    1567:	movups XMMWORD PTR [rip+0x23032],xmm4        # 245a0 <material+0x20>
    156e:	mov    QWORD PTR [rip+0x2303b],rax        # 245b0 <material+0x30>
    1575:	call   18a40 <init_game>
    157a:	call   16780 <initialize_hash>
    157f:	call   16680 <clear_tt>
    1584:	call   4450 <reset_ecache>
    1589:	xor    esi,esi
    158b:	mov    edx,0x3840
    1590:	mov    rdi,r14
    1593:	mov    DWORD PTR [rip+0x23c2b],0x0        # 251c8 <ECacheProbes>
    159d:	mov    DWORD PTR [rip+0x23c11],0x0        # 251b8 <ECacheHits>
    15a7:	mov    DWORD PTR [rip+0x2961cf],0x0        # 297780 <TTProbes>
    15b1:	mov    DWORD PTR [rip+0x2961d5],0x0        # 297790 <TTStores>
    15bb:	mov    DWORD PTR [rip+0x2961cf],0x0        # 297794 <TTHits>
    15c5:	mov    DWORD PTR [rip+0x296199],0x0        # 297768 <bookidx>
    15cf:	mov    DWORD PTR [rip+0x3d127],0x0        # 3e700 <total_moves>
    15d9:	mov    DWORD PTR [rip+0x29617d],0x0        # 297760 <ply>
    15e3:	mov    DWORD PTR [rip+0x27bf3b],0x28        # 27d528 <moves_to_tc>
    15ed:	mov    DWORD PTR [rip+0x27c9e1],0x5        # 27dfd8 <min_per_game>
    15f7:	mov    DWORD PTR [rip+0x29616f],0x7530        # 297770 <time_left>
    1601:	mov    DWORD PTR [rip+0x296159],0x7d0        # 297764 <opp_rating>
    160b:	mov    DWORD PTR [rip+0x290def],0x7d0        # 292404 <my_rating>
    1615:	mov    DWORD PTR [rip+0x290de9],0x28        # 292408 <maxdepth>
    161f:	mov    DWORD PTR [rip+0x3d0ff],0xc8        # 3e728 <maxposdiff>
    1629:	mov    DWORD PTR [rip+0x6592d],0x1        # 66f60 <must_go>
    1633:	mov    DWORD PTR [rip+0x66287],0x1        # 678c4 <tradefreely>
    163d:	mov    DWORD PTR [rip+0x296131],0x0        # 297778 <xb_mode>
    1647:	mov    DWORD PTR [rip+0x296103],0x0        # 297754 <comp_color>
    1651:	mov    DWORD PTR [rsp+0x58],0x1
    1659:	mov    DWORD PTR [rip+0x2960f9],0x0        # 29775c <is_pondering>
    1663:	mov    DWORD PTR [rip+0x67b5f],0x1        # 691cc <allow_pondering>
    166d:	mov    DWORD PTR [rip+0x67b51],0x0        # 691c8 <is_analyzing>
    1677:	mov    DWORD PTR [rip+0x2960cb],0x0        # 29774c <have_partner>
    1681:	mov    DWORD PTR [rip+0x27c959],0x0        # 27dfe4 <must_sit>
    168b:	mov    DWORD PTR [rip+0x2960ab],0x0        # 297740 <go_fast>
    1695:	mov    DWORD PTR [rip+0x2960b1],0x0        # 297750 <fixed_time>
    169f:	mov    DWORD PTR [rip+0x29609f],0x0        # 297748 <phase>
    16a9:	mov    DWORD PTR [rip+0x67ffd],0x0        # 696b0 <root_to_move>
    16b3:	mov    DWORD PTR [rip+0x65913],0x0        # 66fd0 <kibitzed>
    16bd:	mov    DWORD PTR [rip+0x67fd9],0x0        # 696a0 <move_number>
    16c7:	call   1360 <memset@plt>
    16cc:	mov    edx,0x2580
    16d1:	xor    esi,esi
    16d3:	lea    rdi,[rsp+0xa0]
    16db:	call   1360 <memset@plt>
    16e0:	mov    eax,DWORD PTR [rip+0x29609e]        # 297784 <hash>
    16e6:	mov    rdi,QWORD PTR [rip+0x22e53]        # 24540 <stdout@@GLIBC_2.2.5>
    16ed:	xor    esi,esi
    16ef:	mov    DWORD PTR [rip+0x27974b],eax        # 27ae40 <hash_history>
    16f5:	call   1320 <setbuf@plt>
    16fa:	mov    rdi,QWORD PTR [rip+0x22e4f]        # 24550 <stdin@@GLIBC_2.2.5>
    1701:	xor    esi,esi
    1703:	call   1320 <setbuf@plt>
    1708:	call   18ca0 <start_up>
    170d:	cmp    ebx,0x2
    1710:	je     1f23 <main+0xa53>
    1716:	mov    DWORD PTR [rsp+0x14],0x0
    171e:	xor    ebp,ebp
    1720:	xor    ebx,ebx
    1722:	xor    r13d,r13d
    1725:	mov    DWORD PTR [rsp+0x20],0x0
    172d:	lea    r15,[rsp+0x5e60]
    1735:	movabs r12,0x6d617267616964
    173f:	nop
    1740:	test   ebx,ebx
    1742:	je     18b8 <main+0x3e8>
    1748:	mov    r10d,DWORD PTR [rip+0x296029]        # 297778 <xb_mode>
    174f:	test   r10d,r10d
    1752:	jne    1900 <main+0x430>
    1758:	mov    r9d,DWORD PTR [rsp+0x58]
    175d:	test   r9d,r9d
    1760:	jne    1bf0 <main+0x720>
    1766:	test   ebp,ebp
    1768:	je     1bc0 <main+0x6f0>
    176e:	test   ebx,ebx
    1770:	je     1970 <main+0x4a0>
    1776:	lea    rsi,[rip+0x1d960]        # 1f0dd <scentral+0x2fd>
    177d:	mov    rdi,r15
    1780:	call   1480 <strstr@plt>
    1785:	test   rax,rax
    1788:	je     1c20 <main+0x750>
    178e:	cmp    DWORD PTR [r15],0x74697571
    1795:	je     1b50 <main+0x680>
    179b:	cmp    DWORD PTR [r15],0x74697865
    17a2:	je     1b70 <main+0x6a0>
    17a8:	cmp    QWORD PTR [r15],r12
    17ab:	je     1bb0 <main+0x6e0>
    17b1:	cmp    WORD PTR [r15],0x64
    17b6:	je     1bb0 <main+0x6e0>
    17bc:	cmp    DWORD PTR [r15],0x66726570
    17c3:	je     1c7b <main+0x7ab>
    17c9:	cmp    DWORD PTR [r15],0x77656e
    17d0:	je     1db9 <main+0x8e9>
    17d6:	lea    rsi,[rip+0x1d94e]        # 1f12b <scentral+0x34b>
    17dd:	mov    rdi,r15
    17e0:	call   13a0 <strcmp@plt>
    17e5:	test   eax,eax
    17e7:	je     1ee0 <main+0xa10>
    17ed:	lea    rsi,[rip+0x1d93e]        # 1f132 <scentral+0x352>
    17f4:	mov    rdi,r15
    17f7:	call   13a0 <strcmp@plt>
    17fc:	test   eax,eax
    17fe:	je     1f59 <main+0xa89>
    1804:	lea    rsi,[rip+0x1d92f]        # 1f13a <scentral+0x35a>
    180b:	mov    rdi,r15
    180e:	call   13a0 <strcmp@plt>
    1813:	test   eax,eax
    1815:	je     2383 <main+0xeb3>
    181b:	lea    rsi,[rip+0x1d916]        # 1f138 <scentral+0x358>
    1822:	mov    rdi,r15
    1825:	call   13a0 <strcmp@plt>
    182a:	test   eax,eax
    182c:	jne    23ba <main+0xeea>
    1832:	mov    DWORD PTR [rip+0x27c2cc],0x0        # 27db08 <post>
    183c:	jmp    1740 <main+0x270>
    1841:	mov    BYTE PTR [rsp+0x8],dl
    1845:	test   ebx,ebx
    1847:	je     29fa <main+0x152a>
    184d:	cmp    DWORD PTR [rip+0x27c788],0x1e        # 27dfdc <wking_loc>
    1854:	jne    1860 <main+0x390>
    1856:	mov    DWORD PTR [rip+0x67960],0x0        # 691c0 <white_castled>
    1860:	cmp    DWORD PTR [rip+0x27bcbd],0x72        # 27d524 <bking_loc>
    1867:	jne    1873 <main+0x3a3>
    1869:	mov    DWORD PTR [rip+0x67951],0x0        # 691c4 <black_castled>
    1873:	lea    rdx,[rip+0x295dc6]        # 297640 <opening_history>
    187a:	xor    eax,eax
    187c:	mov    ecx,0x20
    1881:	mov    DWORD PTR [rip+0x27a04d],0x32        # 27b8d8 <book_ply>
    188b:	mov    DWORD PTR [rip+0x291e4b],0x0        # 2936e0 <ep_square>
    1895:	mov    rdi,rdx
    1898:	rep stos QWORD PTR es:[rdi],rax
    189b:	mov    DWORD PTR [rip+0x67dfb],0x0        # 696a0 <move_number>
    18a5:	call   16680 <clear_tt>
    18aa:	call   16780 <initialize_hash>
    18af:	call   18860 <reset_piece_square>
    18b4:	nop    DWORD PTR [rax+0x0]
    18b8:	mov    eax,DWORD PTR [rip+0x27bc62]        # 27d520 <white_to_move>
    18be:	xor    ebx,ebx
    18c0:	cmp    DWORD PTR [rip+0x295e8e],eax        # 297754 <comp_color>
    18c6:	je     18d0 <main+0x400>
    18c8:	test   ebp,ebp
    18ca:	je     1af0 <main+0x620>
    18d0:	test   r13d,r13d
    18d3:	jne    1748 <main+0x278>
    18d9:	mov    ebx,DWORD PTR [rip+0x27bfc1]        # 27d8a0 <result>
    18df:	or     ebx,DWORD PTR [rip+0x27c6ff]        # 27dfe4 <must_sit>
    18e5:	je     1d1f <main+0x84f>
    18eb:	mov    r10d,DWORD PTR [rip+0x295e86]        # 297778 <xb_mode>
    18f2:	xor    ebx,ebx
    18f4:	test   r10d,r10d
    18f7:	je     1758 <main+0x288>
    18fd:	nop    DWORD PTR [rax]
    1900:	mov    r8d,DWORD PTR [rip+0x27c6dd]        # 27dfe4 <must_sit>
    1907:	test   r8d,r8d
    190a:	jne    1938 <main+0x468>
    190c:	mov    edi,DWORD PTR [rip+0x678ba]        # 691cc <allow_pondering>
    1912:	test   edi,edi
    1914:	je     1b00 <main+0x630>
    191a:	mov    eax,r13d
    191d:	or     eax,ebx
    191f:	jne    1b00 <main+0x630>
    1925:	mov    esi,DWORD PTR [rip+0x67d75]        # 696a0 <move_number>
    192b:	test   esi,esi
    192d:	je     1b00 <main+0x630>
    1933:	nop    DWORD PTR [rax+rax*1+0x0]
    1938:	mov    eax,ebp
    193a:	or     eax,DWORD PTR [rip+0x27bf60]        # 27d8a0 <result>
    1940:	je     1b1c <main+0x64c>
    1946:	test   ebp,ebp
    1948:	jne    176e <main+0x29e>
    194e:	mov    rdx,QWORD PTR [rip+0x22bfb]        # 24550 <stdin@@GLIBC_2.2.5>
    1955:	mov    esi,0x100
    195a:	mov    rdi,r15
    195d:	call   18c30 <rinput>
    1962:	test   ebx,ebx
    1964:	jne    1776 <main+0x2a6>
    196a:	nop    WORD PTR [rax+rax*1+0x0]
    1970:	mov    rdi,r15
    1973:	call   17b80 <is_move>
    1978:	test   eax,eax
    197a:	je     1776 <main+0x2a6>
    1980:	lea    rbx,[rsp+0x60]
    1985:	mov    rdi,r15
    1988:	mov    rsi,rbx
    198b:	call   18e40 <verify_coord>
    1990:	test   eax,eax
    1992:	je     1c60 <main+0x790>
    1998:	movdqa xmm5,XMMWORD PTR [rsp+0x60]
    199e:	mov    rcx,QWORD PTR [rsp+0x70]
    19a3:	mov    rdi,rbx
    19a6:	xor    esi,esi
    19a8:	movsxd rdx,DWORD PTR [rip+0x67cf1]        # 696a0 <move_number>
    19af:	lea    rax,[rdx+rdx*2]
    19b3:	shl    rax,0x3
    19b7:	mov    QWORD PTR [rsp+rax*1+0x2630],rcx
    19bf:	lea    rcx,[rip+0x27947a]        # 27ae40 <hash_history>
    19c6:	movups XMMWORD PTR [rsp+rax*1+0x2620],xmm5
    19ce:	mov    eax,DWORD PTR [rip+0x295db0]        # 297784 <hash>
    19d4:	mov    DWORD PTR [rcx+rdx*4],eax
    19d7:	call   8e00 <make>
    19dc:	movsxd rax,DWORD PTR [rip+0x67cbd]        # 696a0 <move_number>
    19e3:	movdqa xmm6,XMMWORD PTR [rip+0x290a35]        # 292420 <path_x>
    19eb:	lea    edx,[rax+0x1]
    19ee:	shl    rax,0x4
    19f2:	mov    DWORD PTR [rip+0x67ca8],edx        # 696a0 <move_number>
    19f8:	movaps XMMWORD PTR [rsp+rax*1+0xa0],xmm6
    1a00:	call   18860 <reset_piece_square>
    1a05:	mov    ebx,DWORD PTR [rip+0x279ecd]        # 27b8d8 <book_ply>
    1a0b:	xor    DWORD PTR [rip+0x67c9e],0x1        # 696b0 <root_to_move>
    1a12:	cmp    ebx,0x27
    1a15:	jg     1a33 <main+0x563>
    1a17:	mov    edx,0x100
    1a1c:	mov    rsi,r15
    1a1f:	lea    rdi,[rip+0x295c1a]        # 297640 <opening_history>
    1a26:	test   ebx,ebx
    1a28:	jne    1f4f <main+0xa7f>
    1a2e:	call   1410 <__strcpy_chk@plt>
    1a33:	mov    edx,DWORD PTR [rsp+0x58]
    1a37:	add    ebx,0x1
    1a3a:	mov    DWORD PTR [rip+0x279e98],ebx        # 27b8d8 <book_ply>
    1a40:	test   edx,edx
    1a42:	je     18b8 <main+0x3e8>
    1a48:	mov    edi,0xa
    1a4d:	call   12a0 <putchar@plt>
    1a52:	mov    rdi,QWORD PTR [rip+0x22ae7]        # 24540 <stdout@@GLIBC_2.2.5>
    1a59:	mov    esi,0x1
    1a5e:	sub    esi,DWORD PTR [rip+0x295cf0]        # 297754 <comp_color>
    1a64:	call   178e0 <display_board>
    1a69:	jmp    18b8 <main+0x3e8>
    1a6e:	cmp    DWORD PTR [rip+0x295d03],0x0        # 297778 <xb_mode>
    1a75:	mov    ecx,DWORD PTR [rsp+0x80]
    1a7c:	mov    edx,DWORD PTR [rip+0x22b5e]        # 245e0 <dummy>
    1a82:	je     254a <main+0x107a>
    1a88:	cmp    ecx,edx
    1a8a:	jne    1a9b <main+0x5cb>
    1a8c:	mov    ecx,DWORD PTR [rip+0x22b52]        # 245e4 <dummy+0x4>
    1a92:	cmp    DWORD PTR [rsp+0x84],ecx
    1a99:	je     1ab7 <main+0x5e7>
    1a9b:	mov    rdx,r10
    1a9e:	lea    rsi,[rip+0x1d5a7]        # 1f04c <scentral+0x26c>
    1aa5:	mov    edi,0x1
    1aaa:	xor    eax,eax
    1aac:	call   1420 <__printf_chk@plt>
    1ab1:	mov    eax,DWORD PTR [rip+0x27bde9]        # 27d8a0 <result>
    1ab7:	cmp    eax,0x2
    1aba:	je     244c <main+0xf7c>
    1ac0:	cmp    eax,0x3
    1ac3:	je     1da6 <main+0x8d6>
    1ac9:	cmp    eax,0x4
    1acc:	je     24a0 <main+0xfd0>
    1ad2:	cmp    eax,0x5
    1ad5:	je     248d <main+0xfbd>
    1adb:	lea    rdi,[rip+0x1d5d2]        # 1f0b4 <scentral+0x2d4>
    1ae2:	call   12d0 <puts@plt>
    1ae7:	nop    WORD PTR [rax+rax*1+0x0]
    1af0:	xor    ebp,ebp
    1af2:	jmp    1748 <main+0x278>
    1af7:	nop    WORD PTR [rax+rax*1+0x0]
    1b00:	mov    ecx,DWORD PTR [rip+0x676c2]        # 691c8 <is_analyzing>
    1b06:	test   ecx,ecx
    1b08:	je     1946 <main+0x476>
    1b0e:	mov    eax,ebp
    1b10:	or     eax,DWORD PTR [rip+0x27bd8a]        # 27d8a0 <result>
    1b16:	jne    1946 <main+0x476>
    1b1c:	mov    DWORD PTR [rip+0x295c36],0x1        # 29775c <is_pondering>
    1b26:	lea    rdi,[rsp+0x30]
    1b2b:	call   13f80 <think>
    1b30:	mov    DWORD PTR [rip+0x295c22],0x0        # 29775c <is_pondering>
    1b3a:	mov    DWORD PTR [rip+0x295c1c],0x0        # 297760 <ply>
    1b44:	jmp    194e <main+0x47e>
    1b49:	nop    DWORD PTR [rax+0x0]
    1b50:	cmp    BYTE PTR [r15+0x4],0x0
    1b55:	jne    179b <main+0x2cb>
    1b5b:	call   16db0 <free_hash>
    1b60:	call   44d0 <free_ecache>
    1b65:	xor    edi,edi
    1b67:	call   1440 <exit@plt>
    1b6c:	nop    DWORD PTR [rax+0x0]
    1b70:	cmp    BYTE PTR [r15+0x4],0x0
    1b75:	jne    17a8 <main+0x2d8>
    1b7b:	mov    eax,DWORD PTR [rip+0x67647]        # 691c8 <is_analyzing>
    1b81:	test   eax,eax
    1b83:	je     1b5b <main+0x68b>
    1b85:	mov    DWORD PTR [rip+0x67639],0x0        # 691c8 <is_analyzing>
    1b8f:	mov    DWORD PTR [rip+0x295bc3],0x0        # 29775c <is_pondering>
    1b99:	mov    DWORD PTR [rip+0x67b01],0x0        # 696a4 <time_for_move>
    1ba3:	jmp    1740 <main+0x270>
    1ba8:	nop    DWORD PTR [rax+rax*1+0x0]
    1bb0:	lea    rdi,[rsp+0x58]
    1bb5:	call   18cb0 <toggle_bool>
    1bba:	jmp    1740 <main+0x270>
    1bbf:	nop
    1bc0:	lea    rsi,[rip+0x1d4fc]        # 1f0c3 <scentral+0x2e3>
    1bc7:	mov    edi,0x1
    1bcc:	xor    eax,eax
    1bce:	call   1420 <__printf_chk@plt>
    1bd3:	mov    rdx,QWORD PTR [rip+0x22976]        # 24550 <stdin@@GLIBC_2.2.5>
    1bda:	mov    esi,0x100
    1bdf:	mov    rdi,r15
    1be2:	call   18c30 <rinput>
    1be7:	jmp    176e <main+0x29e>
    1bec:	nop    DWORD PTR [rax+0x0]
    1bf0:	mov    edi,0xa
    1bf5:	call   12a0 <putchar@plt>
    1bfa:	mov    rdi,QWORD PTR [rip+0x2293f]        # 24540 <stdout@@GLIBC_2.2.5>
    1c01:	mov    esi,0x1
    1c06:	sub    esi,DWORD PTR [rip+0x295b48]        # 297754 <comp_color>
    1c0c:	call   178e0 <display_board>
    1c11:	jmp    1766 <main+0x296>
    1c16:	nop    WORD PTR cs:[rax+rax*1+0x0]
    1c20:	movzx  edx,BYTE PTR [rsp+0x5e60]
    1c28:	test   dl,dl
    1c2a:	mov    BYTE PTR [rsp+0x8],dl
    1c2e:	je     178e <main+0x2be>
    1c34:	call   1490 <__ctype_tolower_loc@plt>
    1c39:	movsx  rdx,BYTE PTR [rsp+0x8]
    1c3f:	mov    rcx,QWORD PTR [rax]
    1c42:	mov    rax,r15
    1c45:	nop    DWORD PTR [rax]
    1c48:	mov    edx,DWORD PTR [rcx+rdx*4]
    1c4b:	add    rax,0x1
    1c4f:	mov    BYTE PTR [rax-0x1],dl
    1c52:	movsx  rdx,BYTE PTR [rax]
    1c56:	test   dl,dl
    1c58:	jne    1c48 <main+0x778>
    1c5a:	jmp    178e <main+0x2be>
    1c5f:	nop
    1c60:	mov    rdx,r15
    1c63:	lea    rsi,[rip+0x1d461]        # 1f0cb <scentral+0x2eb>
    1c6a:	mov    edi,0x1
    1c6f:	xor    eax,eax
    1c71:	call   1420 <__printf_chk@plt>
    1c76:	jmp    18b8 <main+0x3e8>
    1c7b:	cmp    BYTE PTR [r15+0x4],0x74
    1c80:	jne    17c9 <main+0x2f9>
    1c86:	lea    rdx,[rsp+0x54]
    1c8b:	lea    rdi,[rsp+0x5e66]
    1c93:	xor    eax,eax
    1c95:	lea    rsi,[rip+0x1dc56]        # 1f8f2 <scentral+0xb12>
    1c9c:	call   1400 <__isoc99_sscanf@plt>
    1ca1:	mov    DWORD PTR [rip+0x679fd],0x0        # 696a8 <raw_nodes>
    1cab:	call   18c90 <rtime>
    1cb0:	mov    edi,DWORD PTR [rsp+0x54]
    1cb4:	mov    QWORD PTR [rsp+0x8],rax
    1cb9:	call   116b0 <perft>
    1cbe:	mov    edx,DWORD PTR [rsp+0x54]
    1cc2:	mov    edi,0x1
    1cc7:	xor    eax,eax
    1cc9:	mov    ecx,DWORD PTR [rip+0x679d9]        # 696a8 <raw_nodes>
    1ccf:	lea    rsi,[rip+0x1d428]        # 1f0fe <scentral+0x31e>
    1cd6:	call   1420 <__printf_chk@plt>
    1cdb:	call   18c90 <rtime>
    1ce0:	mov    r8,QWORD PTR [rsp+0x8]
    1ce5:	mov    rdi,rax
    1ce8:	mov    rsi,r8
    1ceb:	call   186f0 <rdifftime>
    1cf0:	pxor   xmm0,xmm0
    1cf4:	mov    edi,0x1
    1cf9:	lea    rsi,[rip+0x1d41a]        # 1f11a <scentral+0x33a>
    1d00:	cvtsi2ss xmm0,eax
    1d04:	mov    eax,0x1
    1d09:	cvtss2sd xmm0,xmm0
    1d0d:	divsd  xmm0,QWORD PTR [rip+0x1cdc3]        # 1ead8 <sbishop+0xcb8>
    1d15:	call   1420 <__printf_chk@plt>
    1d1a:	jmp    1740 <main+0x270>
    1d1f:	mov    DWORD PTR [rip+0x295a33],0x0        # 29775c <is_pondering>
    1d29:	lea    rdi,[rsp+0x30]
    1d2e:	call   13f80 <think>
    1d33:	movdqu xmm7,XMMWORD PTR [rsp+0x30]
    1d39:	mov    rax,QWORD PTR [rsp+0x40]
    1d3e:	mov    DWORD PTR [rip+0x295a18],0x0        # 297760 <ply>
    1d48:	cmp    DWORD PTR [rip+0x27c295],0x0        # 27dfe4 <must_sit>
    1d4f:	mov    QWORD PTR [rsp+0x90],rax
    1d57:	movaps XMMWORD PTR [rsp+0x80],xmm7
    1d5f:	jne    1f3d <main+0xa6d>
    1d65:	mov    edx,DWORD PTR [rip+0x279a55]        # 27b7c0 <Variant>
    1d6b:	mov    eax,DWORD PTR [rip+0x27bb2f]        # 27d8a0 <result>
    1d71:	lea    ecx,[rdx-0x3]
    1d74:	cmp    ecx,0x1
    1d77:	jbe    1f9e <main+0xace>
    1d7d:	cmp    edx,0x2
    1d80:	ja     1ab7 <main+0x5e7>
    1d86:	mov    edx,DWORD PTR [rip+0x2959c8]        # 297754 <comp_color>
    1d8c:	cmp    edx,0x1
    1d8f:	je     246e <main+0xf9e>
    1d95:	test   edx,edx
    1d97:	jne    1ab7 <main+0x5e7>
    1d9d:	cmp    eax,0x3
    1da0:	jne    1faa <main+0xada>
    1da6:	lea    rdi,[rip+0x1d2bf]        # 1f06c <scentral+0x28c>
    1dad:	xor    ebp,ebp
    1daf:	call   12d0 <puts@plt>
    1db4:	jmp    1748 <main+0x278>
    1db9:	cmp    DWORD PTR [rip+0x2959b8],0x0        # 297778 <xb_mode>
    1dc0:	je     1ddc <main+0x90c>
    1dc2:	lea    rdx,[rip+0x2799d7]        # 27b7a0 <setcode>
    1dc9:	lea    rsi,[rip+0x1d558]        # 1f328 <scentral+0x548>
    1dd0:	mov    edi,0x1
    1dd5:	xor    eax,eax
    1dd7:	call   1420 <__printf_chk@plt>
    1ddc:	cmp    DWORD PTR [rip+0x673e5],0x0        # 691c8 <is_analyzing>
    1de3:	jne    1ecc <main+0x9fc>
    1de9:	lea    rsi,[rip+0x22650]        # 24440 <std_material>
    1df0:	mov    ecx,0xe
    1df5:	lea    rdi,[rip+0x22784]        # 24580 <material>
    1dfc:	mov    DWORD PTR [rip+0x2799ba],0x2        # 27b7c0 <Variant>
    1e06:	rep movs DWORD PTR es:[rdi],DWORD PTR ds:[rsi]
    1e08:	call   18a40 <init_game>
    1e0d:	call   16780 <initialize_hash>
    1e12:	cmp    DWORD PTR [rsp+0x14],0x0
    1e17:	je     23ab <main+0xedb>
    1e1d:	mov    edi,0x1
    1e22:	xor    ebp,ebp
    1e24:	xor    r13d,r13d
    1e27:	mov    DWORD PTR [rip+0x27c1b3],0x0        # 27dfe4 <must_sit>
    1e31:	mov    DWORD PTR [rip+0x295905],0x0        # 297740 <go_fast>
    1e3b:	mov    DWORD PTR [rip+0x6511f],0x0        # 66f64 <piecedead>
    1e45:	mov    DWORD PTR [rip+0x65119],0x0        # 66f68 <partnerdead>
    1e4f:	mov    DWORD PTR [rip+0x65177],0x0        # 66fd0 <kibitzed>
    1e59:	mov    DWORD PTR [rip+0x2958ed],0x0        # 297750 <fixed_time>
    1e63:	mov    DWORD PTR [rip+0x67843],0x0        # 696b0 <root_to_move>
    1e6d:	mov    DWORD PTR [rip+0x2958dd],0x0        # 297754 <comp_color>
    1e77:	mov    DWORD PTR [rip+0x6781f],0x0        # 696a0 <move_number>
    1e81:	mov    DWORD PTR [rip+0x278fb5],0x0        # 27ae40 <hash_history>
    1e8b:	mov    DWORD PTR [rip+0x2958d3],0x0        # 297768 <bookidx>
    1e95:	mov    DWORD PTR [rip+0x2958c5],0x7d0        # 297764 <opp_rating>
    1e9f:	mov    DWORD PTR [rip+0x29055b],0x7d0        # 292404 <my_rating>
    1ea9:	mov    DWORD PTR [rip+0x650ad],0x0        # 66f60 <must_go>
    1eb3:	mov    DWORD PTR [rip+0x65a07],0x1        # 678c4 <tradefreely>
    1ebd:	call   dff0 <CheckBadFlow>
    1ec2:	call   d050 <ResetHandValue>
    1ec7:	jmp    1740 <main+0x270>
    1ecc:	call   18a40 <init_game>
    1ed1:	mov    DWORD PTR [rip+0x677c5],0x0        # 696a0 <move_number>
    1edb:	jmp    1740 <main+0x270>
    1ee0:	mov    DWORD PTR [rip+0x29588e],0x1        # 297778 <xb_mode>
    1eea:	lea    rdi,[rsp+0x58]
    1eef:	call   18cb0 <toggle_bool>
    1ef4:	mov    esi,0x1
    1ef9:	mov    edi,0x2
    1efe:	call   13b0 <signal@plt>
    1f03:	mov    edi,0xa
    1f08:	call   12a0 <putchar@plt>
    1f0d:	lea    rdi,[rip+0x1c6a6]        # 1e5ba <sbishop+0x79a>
    1f14:	call   12d0 <puts@plt>
    1f19:	call   d090 <BegForPartner>
    1f1e:	jmp    1740 <main+0x270>
    1f23:	lea    rdi,[rip+0x1d0fa]        # 1f024 <scentral+0x244>
    1f2a:	call   12d0 <puts@plt>
    1f2f:	mov    rdi,QWORD PTR [rbp+0x8]
    1f33:	call   5020 <run_autotest>
    1f38:	jmp    1716 <main+0x246>
    1f3d:	cmp    DWORD PTR [rip+0x6501c],0x0        # 66f60 <must_go>
    1f44:	je     18eb <main+0x41b>
    1f4a:	jmp    1d65 <main+0x895>
    1f4f:	call   1280 <__strcat_chk@plt>
    1f54:	jmp    1a33 <main+0x563>
    1f59:	mov    edx,DWORD PTR [rip+0x27997d]        # 27b8dc <nodes>
    1f5f:	pxor   xmm0,xmm0
    1f63:	pxor   xmm1,xmm1
    1f67:	lea    rsi,[rip+0x1d3e2]        # 1f350 <scentral+0x570>
    1f6e:	cvtsi2ss xmm0,DWORD PTR [rip+0x6992a]        # 6b8a0 <qnodes>
    1f76:	mov    edi,0x1
    1f7b:	mov    eax,0x1
    1f80:	cvtsi2ss xmm1,edx
    1f84:	divss  xmm0,xmm1
    1f88:	mulss  xmm0,DWORD PTR [rip+0x185d0]        # 1a560 <rankoffsets.4429+0x220>
    1f90:	cvtss2sd xmm0,xmm0
    1f94:	call   1420 <__printf_chk@plt>
    1f99:	jmp    1740 <main+0x270>
    1f9e:	lea    edx,[rax-0x2]
    1fa1:	cmp    edx,0x1
    1fa4:	jbe    1ab7 <main+0x5e7>
    1faa:	lea    edx,[rax-0x4]
    1fad:	cmp    edx,0x1
    1fb0:	jbe    1ab7 <main+0x5e7>
    1fb6:	cmp    eax,0x1
    1fb9:	je     1ab7 <main+0x5e7>
    1fbf:	lea    r10,[rsp+0x5f60]
    1fc7:	push   rsi
    1fc8:	push   QWORD PTR [rsp+0x98]
    1fcf:	mov    rdi,r10
    1fd2:	push   QWORD PTR [rsp+0x98]
    1fd9:	push   QWORD PTR [rsp+0x98]
    1fe0:	mov    QWORD PTR [rsp+0x28],r10
    1fe5:	call   17690 <comp_to_coord>
    1fea:	movsxd rax,DWORD PTR [rip+0x676af]        # 696a0 <move_number>
    1ff1:	mov    edx,DWORD PTR [rip+0x29578d]        # 297784 <hash>
    1ff7:	xor    esi,esi
    1ff9:	movdqa xmm1,XMMWORD PTR [rsp+0xa0]
    2002:	lea    rcx,[rip+0x278e37]        # 27ae40 <hash_history>
    2009:	mov    DWORD PTR [rcx+rax*4],edx
    200c:	imul   rax,rax,0x18
    2010:	mov    rdx,QWORD PTR [rsp+0xb0]
    2018:	movups XMMWORD PTR [rsp+rax*1+0x2640],xmm1
    2020:	mov    QWORD PTR [rsp+rax*1+0x2650],rdx
    2028:	add    rsp,0x20
    202c:	lea    rdi,[rsp+0x80]
    2034:	call   8e00 <make>
    2039:	movsxd rax,DWORD PTR [rip+0x67660]        # 696a0 <move_number>
    2040:	movdqa xmm1,XMMWORD PTR [rip+0x2903d8]        # 292420 <path_x>
    2048:	mov    DWORD PTR [rip+0x23152],0x0        # 251a4 <userealholdings>
    2052:	sub    DWORD PTR [rip+0x64f07],0x1        # 66f60 <must_go>
    2059:	lea    edx,[rax+0x1]
    205c:	shl    rax,0x4
    2060:	mov    DWORD PTR [rip+0x6763a],edx        # 696a0 <move_number>
    2066:	movaps XMMWORD PTR [rsp+rax*1+0xa0],xmm1
    206e:	call   42a0 <is_draw>
    2073:	mov    r10,QWORD PTR [rsp+0x8]
    2078:	test   eax,eax
    207a:	je     24b3 <main+0xfe3>
    2080:	mov    DWORD PTR [rip+0x27b816],0x5        # 27d8a0 <result>
    208a:	xor    DWORD PTR [rip+0x6761f],0x1        # 696b0 <root_to_move>
    2091:	mov    QWORD PTR [rsp+0x18],r10
    2096:	call   18860 <reset_piece_square>
    209b:	mov    eax,DWORD PTR [rip+0x279837]        # 27b8d8 <book_ply>
    20a1:	mov    r10,QWORD PTR [rsp+0x18]
    20a6:	cmp    eax,0x27
    20a9:	mov    DWORD PTR [rsp+0x8],eax
    20ad:	jg     20d0 <main+0xc00>
    20af:	mov    edx,0x100
    20b4:	mov    rsi,r10
    20b7:	test   eax,eax
    20b9:	jne    2582 <main+0x10b2>
    20bf:	lea    rdi,[rip+0x29557a]        # 297640 <opening_history>
    20c6:	call   1410 <__strcpy_chk@plt>
    20cb:	mov    r10,QWORD PTR [rsp+0x18]
    20d0:	mov    edx,DWORD PTR [rip+0x279806]        # 27b8dc <nodes>
    20d6:	pxor   xmm0,xmm0
    20da:	pxor   xmm1,xmm1
    20de:	mov    eax,DWORD PTR [rsp+0x8]
    20e2:	cvtsi2ss xmm0,DWORD PTR [rip+0x697b6]        # 6b8a0 <qnodes>
    20ea:	mov    edi,0x1
    20ef:	mov    QWORD PTR [rsp+0x28],r10
    20f4:	lea    rsi,[rip+0x18296]        # 1a391 <rankoffsets.4429+0x51>
    20fb:	cvtsi2ss xmm1,edx
    20ff:	add    eax,0x1
    2102:	mov    DWORD PTR [rip+0x2797d0],eax        # 27b8d8 <book_ply>
    2108:	mov    eax,0x1
    210d:	divss  xmm0,xmm1
    2111:	mulss  xmm0,DWORD PTR [rip+0x18447]        # 1a560 <rankoffsets.4429+0x220>
    2119:	cvtss2sd xmm0,xmm0
    211d:	call   1420 <__printf_chk@plt>
    2122:	mov    eax,DWORD PTR [rip+0x23090]        # 251b8 <ECacheHits>
    2128:	mov    edx,DWORD PTR [rip+0x2309a]        # 251c8 <ECacheProbes>
    212e:	pxor   xmm0,xmm0
    2132:	pxor   xmm1,xmm1
    2136:	mov    edi,0x1
    213b:	mov    rcx,rax
    213e:	cvtsi2ss xmm0,rax
    2143:	mov    eax,edx
    2145:	cvtsi2ss xmm1,rax
    214a:	addss  xmm1,DWORD PTR [rip+0x18412]        # 1a564 <rankoffsets.4429+0x224>
    2152:	mov    eax,0x1
    2157:	lea    rsi,[rip+0x182e2]        # 1a440 <rankoffsets.4429+0x100>
    215e:	divss  xmm0,xmm1
    2162:	mulss  xmm0,DWORD PTR [rip+0x183f6]        # 1a560 <rankoffsets.4429+0x220>
    216a:	cvtss2sd xmm0,xmm0
    216e:	call   1420 <__printf_chk@plt>
    2173:	mov    ecx,DWORD PTR [rip+0x295607]        # 297780 <TTProbes>
    2179:	mov    eax,DWORD PTR [rip+0x295615]        # 297794 <TTHits>
    217f:	pxor   xmm0,xmm0
    2183:	pxor   xmm1,xmm1
    2187:	mov    r8d,DWORD PTR [rip+0x295606]        # 297794 <TTHits>
    218e:	mov    edx,DWORD PTR [rip+0x2955fc]        # 297790 <TTStores>
    2194:	cvtsi2ss xmm0,rax
    2199:	mov    eax,ecx
    219b:	mov    edi,0x1
    21a0:	cvtsi2ss xmm1,rax
    21a5:	addss  xmm1,DWORD PTR [rip+0x183b7]        # 1a564 <rankoffsets.4429+0x224>
    21ad:	mov    eax,0x1
    21b2:	lea    rsi,[rip+0x182bf]        # 1a478 <rankoffsets.4429+0x138>
    21b9:	divss  xmm0,xmm1
    21bd:	mulss  xmm0,DWORD PTR [rip+0x1839b]        # 1a560 <rankoffsets.4429+0x220>
    21c5:	cvtss2sd xmm0,xmm0
    21c9:	call   1420 <__printf_chk@plt>
    21ce:	mov    eax,DWORD PTR [rip+0x27be00]        # 27dfd4 <NCuts>
    21d4:	mov    edx,DWORD PTR [rip+0x295592]        # 29776c <NTries>
    21da:	pxor   xmm0,xmm0
    21de:	pxor   xmm1,xmm1
    21e2:	mov    r8d,DWORD PTR [rip+0x29555b]        # 297744 <TExt>
    21e9:	lea    rsi,[rip+0x182c8]        # 1a4b8 <rankoffsets.4429+0x178>
    21f0:	cvtsi2ss xmm0,rax
    21f5:	mulss  xmm0,DWORD PTR [rip+0x18363]        # 1a560 <rankoffsets.4429+0x220>
    21fd:	mov    rcx,rax
    2200:	mov    eax,edx
    2202:	cvtsi2ss xmm1,rax
    2207:	mov    edi,0x1
    220c:	mov    eax,0x1
    2211:	addss  xmm1,DWORD PTR [rip+0x1834b]        # 1a564 <rankoffsets.4429+0x224>
    2219:	divss  xmm0,xmm1
    221d:	cvtss2sd xmm0,xmm0
    2221:	call   1420 <__printf_chk@plt>
    2226:	mov    ecx,DWORD PTR [rip+0x656b0]        # 678dc <razor_drop>
    222c:	mov    r8d,DWORD PTR [rip+0x66991]        # 68bc4 <razor_material>
    2233:	mov    edx,DWORD PTR [rip+0x6745b]        # 69694 <ext_check>
    2239:	lea    rsi,[rip+0x182b0]        # 1a4f0 <rankoffsets.4429+0x1b0>
    2240:	mov    edi,0x1
    2245:	xor    eax,eax
    2247:	call   1420 <__printf_chk@plt>
    224c:	mov    eax,DWORD PTR [rip+0x6568e]        # 678e0 <FHF>
    2252:	pxor   xmm0,xmm0
    2256:	pxor   xmm1,xmm1
    225a:	lea    rsi,[rip+0x1814d]        # 1a3ae <rankoffsets.4429+0x6e>
    2261:	mov    edi,0x1
    2266:	cvtsi2ss xmm0,rax
    226b:	mov    eax,DWORD PTR [rip+0x66e1f]        # 69090 <FH>
    2271:	mulss  xmm0,DWORD PTR [rip+0x182e7]        # 1a560 <rankoffsets.4429+0x220>
    2279:	add    eax,0x1
    227c:	cvtsi2ss xmm1,rax
    2281:	mov    eax,0x1
    2286:	divss  xmm0,xmm1
    228a:	cvtss2sd xmm0,xmm0
    228e:	call   1420 <__printf_chk@plt>
    2293:	mov    edx,DWORD PTR [rip+0x22f07]        # 251a0 <black_hand_eval>
    2299:	mov    r9d,DWORD PTR [rip+0x22f0c]        # 251ac <white_hand_eval>
    22a0:	mov    r8d,DWORD PTR [rip+0x3c481]        # 3e728 <maxposdiff>
    22a7:	mov    esi,0xf4240
    22ac:	mov    edi,0xfff0bdc0
    22b1:	mov    DWORD PTR [rsp+0x24],edx
    22b5:	mov    DWORD PTR [rsp+0x18],r9d
    22ba:	mov    DWORD PTR [rsp+0x8],r8d
    22bf:	call   53c0 <eval>
    22c4:	lea    rsi,[rip+0x1d005]        # 1f2d0 <scentral+0x4f0>
    22cb:	mov    edi,0x1
    22d0:	push   r11
    22d2:	mov    edx,DWORD PTR [rsp+0x2c]
    22d6:	mov    ecx,eax
    22d8:	xor    eax,eax
    22da:	push   rdx
    22db:	mov    edx,DWORD PTR [rip+0x321ff]        # 344e0 <Material>
    22e1:	mov    r9d,DWORD PTR [rsp+0x28]
    22e6:	mov    r8d,DWORD PTR [rsp+0x18]
    22eb:	call   1420 <__printf_chk@plt>
    22f0:	mov    ecx,DWORD PTR [rip+0x22eb2]        # 251a8 <hold_hash>
    22f6:	xor    eax,eax
    22f8:	mov    edx,DWORD PTR [rip+0x295486]        # 297784 <hash>
    22fe:	lea    rsi,[rip+0x1cd2d]        # 1f032 <scentral+0x252>
    2305:	mov    edi,0x1
    230a:	call   1420 <__printf_chk@plt>
    230f:	mov    eax,DWORD PTR [rip+0x27b58b]        # 27d8a0 <result>
    2315:	pop    rdx
    2316:	pop    rcx
    2317:	mov    r10,QWORD PTR [rsp+0x28]
    231c:	test   eax,eax
    231e:	jne    1a6e <main+0x59e>
    2324:	mov    ebx,DWORD PTR [rip+0x29544e]        # 297778 <xb_mode>
    232a:	mov    eax,DWORD PTR [rsp+0x80]
    2331:	mov    edx,DWORD PTR [rip+0x222a9]        # 245e0 <dummy>
    2337:	test   ebx,ebx
    2339:	je     2518 <main+0x1048>
    233f:	cmp    edx,eax
    2341:	jne    2352 <main+0xe82>
    2343:	mov    eax,DWORD PTR [rip+0x2229b]        # 245e4 <dummy+0x4>
    2349:	cmp    DWORD PTR [rsp+0x84],eax
    2350:	je     2368 <main+0xe98>
    2352:	mov    rdx,r10
    2355:	lea    rsi,[rip+0x1ccf0]        # 1f04c <scentral+0x26c>
    235c:	mov    edi,0x1
    2361:	xor    eax,eax
    2363:	call   1420 <__printf_chk@plt>
    2368:	xor    ebx,ebx
    236a:	cmp    DWORD PTR [rip+0x27944f],0x1        # 27b7c0 <Variant>
    2371:	jne    1748 <main+0x278>
    2377:	xor    edi,edi
    2379:	call   dff0 <CheckBadFlow>
    237e:	jmp    1748 <main+0x278>
    2383:	lea    rdi,[rip+0x27b77e]        # 27db08 <post>
    238a:	call   18cb0 <toggle_bool>
    238f:	cmp    DWORD PTR [rip+0x2953e2],0x0        # 297778 <xb_mode>
    2396:	je     1740 <main+0x270>
    239c:	mov    DWORD PTR [rip+0x27b762],0x1        # 27db08 <post>
    23a6:	jmp    1740 <main+0x270>
    23ab:	call   16680 <clear_tt>
    23b0:	call   4450 <reset_ecache>
    23b5:	jmp    1e1d <main+0x94d>
    23ba:	lea    rsi,[rip+0x1cd7e]        # 1f13f <scentral+0x35f>
    23c1:	mov    rdi,r15
    23c4:	call   13a0 <strcmp@plt>
    23c9:	test   eax,eax
    23cb:	je     1740 <main+0x270>
    23d1:	lea    rsi,[rip+0x1cd6e]        # 1f146 <scentral+0x366>
    23d8:	mov    rdi,r15
    23db:	call   13a0 <strcmp@plt>
    23e0:	test   eax,eax
    23e2:	je     245f <main+0xf8f>
    23e4:	lea    rsi,[rip+0x1cd60]        # 1f14b <scentral+0x36b>
    23eb:	mov    rdi,r15
    23ee:	call   13a0 <strcmp@plt>
    23f3:	test   eax,eax
    23f5:	je     24cf <main+0xfff>
    23fb:	lea    rsi,[rip+0x1d5c1]        # 1f9c3 <scentral+0xbe3>
    2402:	mov    rdi,r15
    2405:	call   13a0 <strcmp@plt>
    240a:	test   eax,eax
    240c:	je     1740 <main+0x270>
    2412:	lea    rsi,[rip+0x1cd37]        # 1f150 <scentral+0x370>
    2419:	mov    rdi,r15
    241c:	call   13a0 <strcmp@plt>
    2421:	test   eax,eax
    2423:	jne    24de <main+0x100e>
    2429:	mov    DWORD PTR [rip+0x27b0ed],0x1        # 27d520 <white_to_move>
    2433:	mov    DWORD PTR [rip+0x67273],0x0        # 696b0 <root_to_move>
    243d:	mov    DWORD PTR [rip+0x29530d],0x0        # 297754 <comp_color>
    2447:	jmp    1740 <main+0x270>
    244c:	lea    rdi,[rip+0x1cc07]        # 1f05a <scentral+0x27a>
    2453:	xor    ebp,ebp
    2455:	call   12d0 <puts@plt>
    245a:	jmp    1748 <main+0x278>
    245f:	mov    DWORD PTR [rip+0x66d63],0x1        # 691cc <allow_pondering>
    2469:	jmp    1740 <main+0x270>
    246e:	cmp    eax,0x2
    2471:	je     244c <main+0xf7c>
    2473:	lea    edx,[rax-0x4]
    2476:	cmp    edx,0x1
    2479:	jbe    1ac0 <main+0x5f0>
    247f:	cmp    eax,0x1
    2482:	je     1ac0 <main+0x5f0>
    2488:	jmp    1fbf <main+0xaef>
    248d:	lea    rdi,[rip+0x1cc04]        # 1f098 <scentral+0x2b8>
    2494:	xor    ebp,ebp
    2496:	call   12d0 <puts@plt>
    249b:	jmp    1748 <main+0x278>
    24a0:	lea    rdi,[rip+0x1cbd7]        # 1f07e <scentral+0x29e>
    24a7:	xor    ebp,ebp
    24a9:	call   12d0 <puts@plt>
    24ae:	jmp    1748 <main+0x278>
    24b3:	cmp    DWORD PTR [rip+0x27b64a],0x64        # 27db04 <fifty>
    24ba:	jle    208a <main+0xbba>
    24c0:	mov    DWORD PTR [rip+0x27b3d6],0x4        # 27d8a0 <result>
    24ca:	jmp    208a <main+0xbba>
    24cf:	mov    DWORD PTR [rip+0x66cf3],0x0        # 691cc <allow_pondering>
    24d9:	jmp    1740 <main+0x270>
    24de:	lea    rsi,[rip+0x1cc71]        # 1f156 <scentral+0x376>
    24e5:	mov    rdi,r15
    24e8:	call   13a0 <strcmp@plt>
    24ed:	test   eax,eax
    24ef:	jne    259d <main+0x10cd>
    24f5:	mov    DWORD PTR [rip+0x27b021],0x0        # 27d520 <white_to_move>
    24ff:	mov    DWORD PTR [rip+0x671a7],0x1        # 696b0 <root_to_move>
    2509:	mov    DWORD PTR [rip+0x295241],0x1        # 297754 <comp_color>
    2513:	jmp    1740 <main+0x270>
    2518:	cmp    edx,eax
    251a:	jne    252f <main+0x105f>
    251c:	mov    eax,DWORD PTR [rip+0x220c2]        # 245e4 <dummy+0x4>
    2522:	cmp    DWORD PTR [rsp+0x84],eax
    2529:	je     1748 <main+0x278>
    252f:	mov    rdx,r10
    2532:	lea    rsi,[rip+0x1cb1c]        # 1f055 <scentral+0x275>
    2539:	mov    edi,0x1
    253e:	xor    eax,eax
    2540:	call   1420 <__printf_chk@plt>
    2545:	jmp    1748 <main+0x278>
    254a:	cmp    ecx,edx
    254c:	jne    2561 <main+0x1091>
    254e:	mov    ecx,DWORD PTR [rip+0x22090]        # 245e4 <dummy+0x4>
    2554:	cmp    DWORD PTR [rsp+0x84],ecx
    255b:	je     1ab7 <main+0x5e7>
    2561:	mov    rdx,r10
    2564:	lea    rsi,[rip+0x1caea]        # 1f055 <scentral+0x275>
    256b:	mov    edi,0x1
    2570:	xor    eax,eax
    2572:	call   1420 <__printf_chk@plt>
    2577:	mov    eax,DWORD PTR [rip+0x27b323]        # 27d8a0 <result>
    257d:	jmp    1ab7 <main+0x5e7>
    2582:	lea    rdi,[rip+0x2950b7]        # 297640 <opening_history>
    2589:	mov    QWORD PTR [rsp+0x18],r10
    258e:	call   1280 <__strcat_chk@plt>
    2593:	mov    r10,QWORD PTR [rsp+0x18]
    2598:	jmp    20d0 <main+0xc00>
    259d:	lea    rsi,[rip+0x1cbb8]        # 1f15c <scentral+0x37c>
    25a4:	mov    rdi,r15
    25a7:	call   13a0 <strcmp@plt>
    25ac:	test   eax,eax
    25ae:	je     25ee <main+0x111e>
    25b0:	lea    rsi,[rip+0x1cbab]        # 1f162 <scentral+0x382>
    25b7:	mov    rdi,r15
    25ba:	call   13a0 <strcmp@plt>
    25bf:	test   eax,eax
    25c1:	je     26d4 <main+0x1204>
    25c7:	lea    rsi,[rip+0x1c22a]        # 1e7f8 <sbishop+0x9d8>
    25ce:	mov    rdi,r15
    25d1:	call   13a0 <strcmp@plt>
    25d6:	test   eax,eax
    25d8:	jne    25f9 <main+0x1129>
    25da:	mov    eax,DWORD PTR [rip+0x27af40]        # 27d520 <white_to_move>
    25e0:	xor    r13d,r13d
    25e3:	mov    DWORD PTR [rip+0x29516b],eax        # 297754 <comp_color>
    25e9:	jmp    1740 <main+0x270>
    25ee:	mov    r13d,0x1
    25f4:	jmp    1740 <main+0x270>
    25f9:	mov    edx,0x4
    25fe:	lea    rsi,[rip+0x1bff6]        # 1e5fb <sbishop+0x7db>
    2605:	mov    rdi,r15
    2608:	call   12c0 <strncmp@plt>
    260d:	test   eax,eax
    260f:	je     27fb <main+0x132b>
    2615:	mov    edx,0x4
    261a:	lea    rsi,[rip+0x1cb50]        # 1f171 <scentral+0x391>
    2621:	mov    rdi,r15
    2624:	call   12c0 <strncmp@plt>
    2629:	test   eax,eax
    262b:	je     27db <main+0x130b>
    2631:	mov    edx,0x5
    2636:	lea    rsi,[rip+0x1cb39]        # 1f176 <scentral+0x396>
    263d:	mov    rdi,r15
    2640:	call   12c0 <strncmp@plt>
    2645:	test   eax,eax
    2647:	jne    2740 <main+0x1270>
    264d:	lea    rdi,[rsp+0x5e66]
    2655:	mov    esi,0x3a
    265a:	mov    QWORD PTR [rsp+0x8],rdi
    265f:	call   1330 <strchr@plt>
    2664:	mov    rdi,QWORD PTR [rsp+0x8]
    2669:	test   rax,rax
    266c:	je     2702 <main+0x1232>
    2672:	lea    rdx,[rip+0x27aeaf]        # 27d528 <moves_to_tc>
    2679:	lea    r9,[rip+0x2950f4]        # 297774 <inc>
    2680:	xor    eax,eax
    2682:	lea    r8,[rip+0x67013]        # 6969c <sec_per_game>
    2689:	lea    rcx,[rip+0x27b948]        # 27dfd8 <min_per_game>
    2690:	lea    rsi,[rip+0x1cae5]        # 1f17c <scentral+0x39c>
    2697:	call   1400 <__isoc99_sscanf@plt>
    269c:	imul   edx,DWORD PTR [rip+0x66ff9],0x64        # 6969c <sec_per_game>
    26a3:	imul   eax,DWORD PTR [rip+0x27b92b],0x1770        # 27dfd8 <min_per_game>
    26ad:	add    eax,edx
    26af:	mov    DWORD PTR [rip+0x2950bb],eax        # 297770 <time_left>
    26b5:	mov    DWORD PTR [rip+0x27b915],eax        # 27dfd0 <opp_time>
    26bb:	mov    DWORD PTR [rip+0x29508b],0x0        # 297750 <fixed_time>
    26c5:	mov    DWORD PTR [rip+0x27b911],0x0        # 27dfe0 <time_cushion>
    26cf:	jmp    1740 <main+0x270>
    26d4:	call   bbb0 <check_phase>
    26d9:	mov    esi,0xf4240
    26de:	mov    edi,0xfff0bdc0
    26e3:	call   53c0 <eval>
    26e8:	lea    rsi,[rip+0x1ca78]        # 1f167 <scentral+0x387>
    26ef:	mov    edi,0x1
    26f4:	mov    edx,eax
    26f6:	xor    eax,eax
    26f8:	call   1420 <__printf_chk@plt>
    26fd:	jmp    1740 <main+0x270>
    2702:	lea    r8,[rip+0x29506b]        # 297774 <inc>
    2709:	lea    rcx,[rip+0x27b8c8]        # 27dfd8 <min_per_game>
    2710:	xor    eax,eax
    2712:	lea    rdx,[rip+0x27ae0f]        # 27d528 <moves_to_tc>
    2719:	lea    rsi,[rip+0x1ca68]        # 1f188 <scentral+0x3a8>
    2720:	call   1400 <__isoc99_sscanf@plt>
    2725:	imul   eax,DWORD PTR [rip+0x27b8a9],0x1770        # 27dfd8 <min_per_game>
    272f:	mov    DWORD PTR [rip+0x29503b],eax        # 297770 <time_left>
    2735:	mov    DWORD PTR [rip+0x27b895],eax        # 27dfd0 <opp_time>
    273b:	jmp    26bb <main+0x11eb>
    2740:	mov    edx,0x6
    2745:	lea    rsi,[rip+0x1ca45]        # 1f191 <scentral+0x3b1>
    274c:	mov    rdi,r15
    274f:	call   12c0 <strncmp@plt>
    2754:	test   eax,eax
    2756:	je     304b <main+0x1b7b>
    275c:	mov    edx,0x7
    2761:	lea    rsi,[rip+0x1ca30]        # 1f198 <scentral+0x3b8>
    2768:	mov    rdi,r15
    276b:	call   12c0 <strncmp@plt>
    2770:	test   eax,eax
    2772:	je     303e <main+0x1b6e>
    2778:	mov    edx,0x7
    277d:	lea    rsi,[rip+0x1ca1c]        # 1f1a0 <scentral+0x3c0>
    2784:	mov    rdi,r15
    2787:	call   12c0 <strncmp@plt>
    278c:	test   eax,eax
    278e:	jne    2857 <main+0x1387>
    2794:	lea    rsi,[rip+0x1ca0d]        # 1f1a8 <scentral+0x3c8>
    279b:	mov    rdi,r15
    279e:	call   1480 <strstr@plt>
    27a3:	test   rax,rax
    27a6:	je     281b <main+0x134b>
    27a8:	mov    DWORD PTR [rip+0x27900e],0x2        # 27b7c0 <Variant>
    27b2:	lea    rsi,[rip+0x21c87]        # 24440 <std_material>
    27b9:	mov    ecx,0xe
    27be:	lea    rdi,[rip+0x21dbb]        # 24580 <material>
    27c5:	rep movs DWORD PTR es:[rdi],DWORD PTR ds:[rsi]
    27c7:	call   16780 <initialize_hash>
    27cc:	call   16680 <clear_tt>
    27d1:	call   4450 <reset_ecache>
    27d6:	jmp    1740 <main+0x270>
    27db:	lea    rdi,[rsp+0x5e65]
    27e3:	lea    rdx,[rip+0x27b7e6]        # 27dfd0 <opp_time>
    27ea:	lea    rsi,[rip+0x1c99d]        # 1f18e <scentral+0x3ae>
    27f1:	call   1400 <__isoc99_sscanf@plt>
    27f6:	jmp    1740 <main+0x270>
    27fb:	lea    rdi,[rsp+0x5e65]
    2803:	lea    rdx,[rip+0x294f66]        # 297770 <time_left>
    280a:	lea    rsi,[rip+0x1c97d]        # 1f18e <scentral+0x3ae>
    2811:	call   1400 <__isoc99_sscanf@plt>
    2816:	jmp    1740 <main+0x270>
    281b:	lea    rsi,[rip+0x1c98d]        # 1f1af <scentral+0x3cf>
    2822:	mov    rdi,r15
    2825:	call   1480 <strstr@plt>
    282a:	test   rax,rax
    282d:	je     2931 <main+0x1461>
    2833:	mov    DWORD PTR [rip+0x278f83],0x0        # 27b7c0 <Variant>
    283d:	lea    rsi,[rip+0x21bbc]        # 24400 <zh_material>
    2844:	mov    ecx,0xe
    2849:	lea    rdi,[rip+0x21d30]        # 24580 <material>
    2850:	rep movs DWORD PTR es:[rdi],DWORD PTR ds:[rsi]
    2852:	jmp    27c7 <main+0x12f7>
    2857:	mov    edx,0x7
    285c:	lea    rsi,[rip+0x1c96f]        # 1f1d2 <scentral+0x3f2>
    2863:	mov    rdi,r15
    2866:	call   12c0 <strncmp@plt>
    286b:	test   eax,eax
    286d:	je     3011 <main+0x1b41>
    2873:	mov    edx,0x4
    2878:	lea    rsi,[rip+0x1c95b]        # 1f1da <scentral+0x3fa>
    287f:	mov    rdi,r15
    2882:	call   12c0 <strncmp@plt>
    2887:	test   eax,eax
    2889:	je     2faa <main+0x1ada>
    288f:	mov    edx,0x5
    2894:	lea    rsi,[rip+0x1c956]        # 1f1f1 <scentral+0x411>
    289b:	mov    rdi,r15
    289e:	call   12c0 <strncmp@plt>
    28a3:	test   eax,eax
    28a5:	jne    296d <main+0x149d>
    28ab:	mov    eax,DWORD PTR [rip+0x66def]        # 696a0 <move_number>
    28b1:	cmp    eax,0x1
    28b4:	jle    1740 <main+0x270>
    28ba:	sub    eax,0x1
    28bd:	xor    esi,esi
    28bf:	mov    DWORD PTR [rip+0x66ddb],eax        # 696a0 <move_number>
    28c5:	cdqe   
    28c7:	mov    rdx,rax
    28ca:	imul   rax,rax,0x18
    28ce:	shl    rdx,0x4
    28d2:	movdqa xmm1,XMMWORD PTR [rsp+rdx*1+0xa0]
    28db:	lea    rdi,[r14+rax*1]
    28df:	movaps XMMWORD PTR [rip+0x28fb3a],xmm1        # 292420 <path_x>
    28e6:	call   ae30 <unmake>
    28eb:	call   18860 <reset_piece_square>
    28f0:	mov    eax,DWORD PTR [rip+0x66daa]        # 696a0 <move_number>
    28f6:	xor    esi,esi
    28f8:	sub    eax,0x1
    28fb:	mov    DWORD PTR [rip+0x66d9f],eax        # 696a0 <move_number>
    2901:	cdqe   
    2903:	mov    rdx,rax
    2906:	imul   rax,rax,0x18
    290a:	shl    rdx,0x4
    290e:	movdqa xmm1,XMMWORD PTR [rsp+rdx*1+0xa0]
    2917:	lea    rdi,[r14+rax*1]
    291b:	movaps XMMWORD PTR [rip+0x28fafe],xmm1        # 292420 <path_x>
    2922:	call   ae30 <unmake>
    2927:	call   18860 <reset_piece_square>
    292c:	jmp    1740 <main+0x270>
    2931:	lea    rsi,[rip+0x1bc6a]        # 1e5a2 <sbishop+0x782>
    2938:	mov    rdi,r15
    293b:	call   1480 <strstr@plt>
    2940:	test   rax,rax
    2943:	je     309c <main+0x1bcc>
    2949:	mov    DWORD PTR [rip+0x278e6d],0x1        # 27b7c0 <Variant>
    2953:	lea    rsi,[rip+0x21aa6]        # 24400 <zh_material>
    295a:	mov    ecx,0xe
    295f:	lea    rdi,[rip+0x21c1a]        # 24580 <material>
    2966:	rep movs DWORD PTR es:[rdi],DWORD PTR ds:[rsi]
    2968:	jmp    27c7 <main+0x12f7>
    296d:	mov    edx,0x4
    2972:	lea    rsi,[rip+0x1c87f]        # 1f1f8 <scentral+0x418>
    2979:	mov    rdi,r15
    297c:	call   12c0 <strncmp@plt>
    2981:	test   eax,eax
    2983:	je     2c00 <main+0x1730>
    2989:	movzx  edx,BYTE PTR [rsp+0x5e60]
    2991:	cmp    dl,0x2e
    2994:	je     1841 <main+0x371>
    299a:	test   ebx,ebx
    299c:	je     29f6 <main+0x1526>
    299e:	cmp    dl,0x63
    29a1:	je     3147 <main+0x1c77>
    29a7:	cmp    dl,0x23
    29aa:	je     3133 <main+0x1c63>
    29b0:	mov    BYTE PTR [rsp+0x8],dl
    29b4:	call   14a0 <__ctype_b_loc@plt>
    29b9:	mov    rsi,QWORD PTR [rax]
    29bc:	movsx  rax,BYTE PTR [rsp+0x8]
    29c2:	mov    rdx,rax
    29c5:	test   BYTE PTR [rsi+rax*2+0x1],0x4
    29ca:	je     29f6 <main+0x1526>
    29cc:	movsx  rcx,BYTE PTR [rsp+0x5e61]
    29d5:	mov    rax,rcx
    29d8:	test   BYTE PTR [rsi+rcx*2+0x1],0x4
    29dd:	je     29f6 <main+0x1526>
    29df:	movsx  rdi,BYTE PTR [rsp+0x5e62]
    29e8:	mov    rcx,rdi
    29eb:	test   BYTE PTR [rsi+rdi*2+0x1],0x8
    29f0:	jne    30de <main+0x1c0e>
    29f6:	mov    BYTE PTR [rsp+0x8],dl
    29fa:	mov    edx,0x7
    29ff:	lea    rsi,[rip+0x1c7f8]        # 1f1fe <scentral+0x41e>
    2a06:	mov    rdi,r15
    2a09:	call   12c0 <strncmp@plt>
    2a0e:	test   eax,eax
    2a10:	je     2f98 <main+0x1ac8>
    2a16:	mov    edx,0x8
    2a1b:	lea    rsi,[rip+0x1c7db]        # 1f1fd <scentral+0x41d>
    2a22:	mov    rdi,r15
    2a25:	call   12c0 <strncmp@plt>
    2a2a:	test   eax,eax
    2a2c:	je     2f86 <main+0x1ab6>
    2a32:	mov    edx,0x5
    2a37:	lea    rsi,[rip+0x1c7c8]        # 1f206 <scentral+0x426>
    2a3e:	mov    rdi,r15
    2a41:	call   12c0 <strncmp@plt>
    2a46:	test   eax,eax
    2a48:	je     2f79 <main+0x1aa9>
    2a4e:	mov    edx,0x4
    2a53:	lea    rsi,[rip+0x1c7b2]        # 1f20c <scentral+0x42c>
    2a5a:	mov    rdi,r15
    2a5d:	call   12c0 <strncmp@plt>
    2a62:	test   eax,eax
    2a64:	je     2f6f <main+0x1a9f>
    2a6a:	mov    edx,0x2
    2a6f:	lea    rsi,[rip+0x1bb82]        # 1e5f8 <sbishop+0x7d8>
    2a76:	mov    rdi,r15
    2a79:	call   12c0 <strncmp@plt>
    2a7e:	test   eax,eax
    2a80:	je     2f42 <main+0x1a72>
    2a86:	mov    edx,0x6
    2a8b:	lea    rsi,[rip+0x1c77f]        # 1f211 <scentral+0x431>
    2a92:	mov    rdi,r15
    2a95:	call   12c0 <strncmp@plt>
    2a9a:	test   eax,eax
    2a9c:	je     1740 <main+0x270>
    2aa2:	mov    edx,0x5
    2aa7:	lea    rsi,[rip+0x1c76a]        # 1f218 <scentral+0x438>
    2aae:	mov    rdi,r15
    2ab1:	call   12c0 <strncmp@plt>
    2ab6:	test   eax,eax
    2ab8:	je     2ed9 <main+0x1a09>
    2abe:	mov    edx,0x4
    2ac3:	lea    rsi,[rip+0x1c76e]        # 1f238 <scentral+0x458>
    2aca:	mov    rdi,r15
    2acd:	call   12c0 <strncmp@plt>
    2ad2:	test   eax,eax
    2ad4:	je     2ea4 <main+0x19d4>
    2ada:	mov    edx,0x5
    2adf:	lea    rsi,[rip+0x1c760]        # 1f246 <scentral+0x466>
    2ae6:	mov    rdi,r15
    2ae9:	call   12c0 <strncmp@plt>
    2aee:	test   eax,eax
    2af0:	je     2e97 <main+0x19c7>
    2af6:	mov    edx,0x5
    2afb:	lea    rsi,[rip+0x1c74a]        # 1f24c <scentral+0x46c>
    2b02:	mov    rdi,r15
    2b05:	call   12c0 <strncmp@plt>
    2b0a:	test   eax,eax
    2b0c:	je     2e16 <main+0x1946>
    2b12:	mov    edx,0x8
    2b17:	lea    rsi,[rip+0x1c5bf]        # 1f0dd <scentral+0x2fd>
    2b1e:	mov    rdi,r15
    2b21:	call   12c0 <strncmp@plt>
    2b26:	test   eax,eax
    2b28:	je     2e04 <main+0x1934>
    2b2e:	cmp    BYTE PTR [rsp+0x8],0x2e
    2b33:	je     1740 <main+0x270>
    2b39:	mov    edx,0x2
    2b3e:	lea    rsi,[rip+0x1c70d]        # 1f252 <scentral+0x472>
    2b45:	mov    rdi,r15
    2b48:	call   12c0 <strncmp@plt>
    2b4d:	test   eax,eax
    2b4f:	je     2dcb <main+0x18fb>
    2b55:	mov    edx,0x4
    2b5a:	lea    rsi,[rip+0x1c70e]        # 1f26f <scentral+0x48f>
    2b61:	mov    rdi,r15
    2b64:	call   12c0 <strncmp@plt>
    2b69:	test   eax,eax
    2b6b:	je     2dc1 <main+0x18f1>
    2b71:	mov    edx,0x8
    2b76:	lea    rsi,[rip+0x1c6f7]        # 1f274 <scentral+0x494>
    2b7d:	mov    rdi,r15
    2b80:	call   12c0 <strncmp@plt>
    2b85:	test   eax,eax
    2b87:	je     2d76 <main+0x18a6>
    2b8d:	mov    edx,0x8
    2b92:	lea    rsi,[rip+0x1c6e4]        # 1f27d <scentral+0x49d>
    2b99:	mov    rdi,r15
    2b9c:	call   12c0 <strncmp@plt>
    2ba1:	test   eax,eax
    2ba3:	je     1740 <main+0x270>
    2ba9:	mov    edx,0x8
    2bae:	lea    rsi,[rip+0x1c6d1]        # 1f286 <scentral+0x4a6>
    2bb5:	mov    rdi,r15
    2bb8:	call   12c0 <strncmp@plt>
    2bbd:	test   eax,eax
    2bbf:	je     2d65 <main+0x1895>
    2bc5:	lea    rsi,[rip+0x1ba01]        # 1e5cd <sbishop+0x7ad>
    2bcc:	mov    rdi,r15
    2bcf:	call   13a0 <strcmp@plt>
    2bd4:	test   eax,eax
    2bd6:	je     2c12 <main+0x1742>
    2bd8:	cmp    DWORD PTR [rip+0x294b99],0x0        # 297778 <xb_mode>
    2bdf:	jne    1740 <main+0x270>
    2be5:	mov    rdx,r15
    2be8:	lea    rsi,[rip+0x1c4dc]        # 1f0cb <scentral+0x2eb>
    2bef:	mov    edi,0x1
    2bf4:	xor    eax,eax
    2bf6:	call   1420 <__printf_chk@plt>
    2bfb:	jmp    1740 <main+0x270>
    2c00:	mov    DWORD PTR [rsp+0x20],0x0
    2c08:	mov    ebx,0x1
    2c0d:	jmp    1748 <main+0x278>
    2c12:	lea    rdx,[rip+0x218e7]        # 24500 <divider>
    2c19:	lea    rsi,[rip+0x1c66f]        # 1f28f <scentral+0x4af>
    2c20:	mov    edi,0x1
    2c25:	call   1420 <__printf_chk@plt>
    2c2a:	lea    rdi,[rip+0x1c897]        # 1f4c8 <scentral+0x6e8>
    2c31:	call   12d0 <puts@plt>
    2c36:	lea    rdi,[rip+0x1c8b3]        # 1f4f0 <scentral+0x710>
    2c3d:	call   12d0 <puts@plt>
    2c42:	lea    rdi,[rip+0x1c8cf]        # 1f518 <scentral+0x738>
    2c49:	call   12d0 <puts@plt>
    2c4e:	lea    rdi,[rip+0x1c8fb]        # 1f550 <scentral+0x770>
    2c55:	call   12d0 <puts@plt>
    2c5a:	lea    rdi,[rip+0x1c917]        # 1f578 <scentral+0x798>
    2c61:	call   12d0 <puts@plt>
    2c66:	lea    rdi,[rip+0x1c943]        # 1f5b0 <scentral+0x7d0>
    2c6d:	call   12d0 <puts@plt>
    2c72:	lea    rdi,[rip+0x1c967]        # 1f5e0 <scentral+0x800>
    2c79:	call   12d0 <puts@plt>
    2c7e:	lea    rdi,[rip+0x1c610]        # 1f295 <scentral+0x4b5>
    2c85:	call   12d0 <puts@plt>
    2c8a:	lea    rdi,[rip+0x1c61c]        # 1f2ad <scentral+0x4cd>
    2c91:	call   12d0 <puts@plt>
    2c96:	lea    rdi,[rip+0x1c973]        # 1f610 <scentral+0x830>
    2c9d:	call   12d0 <puts@plt>
    2ca2:	lea    rdi,[rip+0x1c99f]        # 1f648 <scentral+0x868>
    2ca9:	call   12d0 <puts@plt>
    2cae:	lea    rdi,[rip+0x1c9c3]        # 1f678 <scentral+0x898>
    2cb5:	call   12d0 <puts@plt>
    2cba:	lea    rdi,[rip+0x1c9e7]        # 1f6a8 <scentral+0x8c8>
    2cc1:	call   12d0 <puts@plt>
    2cc6:	lea    rdi,[rip+0x1ca0b]        # 1f6d8 <scentral+0x8f8>
    2ccd:	call   12d0 <puts@plt>
    2cd2:	lea    rdi,[rip+0x1ca27]        # 1f700 <scentral+0x920>
    2cd9:	call   12d0 <puts@plt>
    2cde:	lea    rdi,[rip+0x1ca53]        # 1f738 <scentral+0x958>
    2ce5:	call   12d0 <puts@plt>
    2cea:	lea    rdi,[rip+0x1ca87]        # 1f778 <scentral+0x998>
    2cf1:	call   12d0 <puts@plt>
    2cf6:	lea    rdi,[rip+0x1caab]        # 1f7a8 <scentral+0x9c8>
    2cfd:	call   12d0 <puts@plt>
    2d02:	lea    rdi,[rip+0x1cad7]        # 1f7e0 <scentral+0xa00>
    2d09:	call   12d0 <puts@plt>
    2d0e:	lea    rdi,[rip+0x1cb03]        # 1f818 <scentral+0xa38>
    2d15:	call   12d0 <puts@plt>
    2d1a:	lea    rdi,[rip+0x1cb1f]        # 1f840 <scentral+0xa60>
    2d21:	call   12d0 <puts@plt>
    2d26:	lea    rdi,[rip+0x1cb3b]        # 1f868 <scentral+0xa88>
    2d2d:	call   12d0 <puts@plt>
    2d32:	lea    rdi,[rip+0x1cb5f]        # 1f898 <scentral+0xab8>
    2d39:	call   12d0 <puts@plt>
    2d3e:	lea    rdx,[rip+0x217bb]        # 24500 <divider>
    2d45:	lea    rsi,[rip+0x1c543]        # 1f28f <scentral+0x4af>
    2d4c:	xor    eax,eax
    2d4e:	mov    edi,0x1
    2d53:	call   1420 <__printf_chk@plt>
    2d58:	mov    DWORD PTR [rsp+0x58],0x0
    2d60:	jmp    1740 <main+0x270>
    2d65:	lea    rdi,[rip+0x1c71c]        # 1f488 <scentral+0x6a8>
    2d6c:	call   12d0 <puts@plt>
    2d71:	jmp    1740 <main+0x270>
    2d76:	lea    rdi,[rip+0x1c5fb]        # 1f378 <scentral+0x598>
    2d7d:	call   12d0 <puts@plt>
    2d82:	lea    rdi,[rip+0x1c62f]        # 1f3b8 <scentral+0x5d8>
    2d89:	call   12d0 <puts@plt>
    2d8e:	lea    rdi,[rip+0x1c65b]        # 1f3f0 <scentral+0x610>
    2d95:	call   12d0 <puts@plt>
    2d9a:	lea    rdi,[rip+0x1c66f]        # 1f410 <scentral+0x630>
    2da1:	call   12d0 <puts@plt>
    2da6:	lea    rdi,[rip+0x1c6ab]        # 1f458 <scentral+0x678>
    2dad:	call   12d0 <puts@plt>
    2db2:	mov    DWORD PTR [rip+0x2949bc],0x2        # 297778 <xb_mode>
    2dbc:	jmp    1740 <main+0x270>
    2dc1:	mov    ebp,0x1
    2dc6:	jmp    1740 <main+0x270>
    2dcb:	lea    rdi,[rsp+0x5e63]
    2dd3:	lea    rdx,[rip+0x28f62e]        # 292408 <maxdepth>
    2dda:	lea    rsi,[rip+0x1cb11]        # 1f8f2 <scentral+0xb12>
    2de1:	call   1400 <__isoc99_sscanf@plt>
    2de6:	mov    edx,DWORD PTR [rip+0x28f61c]        # 292408 <maxdepth>
    2dec:	lea    rsi,[rip+0x1c462]        # 1f255 <scentral+0x475>
    2df3:	xor    eax,eax
    2df5:	mov    edi,0x1
    2dfa:	call   1420 <__printf_chk@plt>
    2dff:	jmp    1740 <main+0x270>
    2e04:	lea    rdi,[rsp+0x5e69]
    2e0c:	call   44e0 <setup_epd_line>
    2e11:	jmp    1740 <main+0x270>
    2e16:	lea    rsi,[rip+0x21623]        # 24440 <std_material>
    2e1d:	mov    ecx,0xe
    2e22:	xor    r13d,r13d
    2e25:	mov    DWORD PTR [rip+0x278991],0x2        # 27b7c0 <Variant>
    2e2f:	lea    rdi,[rip+0x2174a]        # 24580 <material>
    2e36:	rep movs DWORD PTR es:[rdi],DWORD PTR ds:[rsi]
    2e38:	call   18a40 <init_game>
    2e3d:	call   16780 <initialize_hash>
    2e42:	call   16680 <clear_tt>
    2e47:	call   4450 <reset_ecache>
    2e4c:	mov    DWORD PTR [rip+0x2948fa],0x0        # 297750 <fixed_time>
    2e56:	mov    DWORD PTR [rip+0x66850],0x0        # 696b0 <root_to_move>
    2e60:	mov    DWORD PTR [rip+0x2948ea],0x0        # 297754 <comp_color>
    2e6a:	mov    DWORD PTR [rip+0x6682c],0x0        # 696a0 <move_number>
    2e74:	mov    DWORD PTR [rip+0x2948ea],0x0        # 297768 <bookidx>
    2e7e:	mov    DWORD PTR [rip+0x2948dc],0x7d0        # 297764 <opp_rating>
    2e88:	mov    DWORD PTR [rip+0x28f572],0x7d0        # 292404 <my_rating>
    2e92:	jmp    1740 <main+0x270>
    2e97:	mov    DWORD PTR [rsp+0x14],0x1
    2e9f:	jmp    1740 <main+0x270>
    2ea4:	lea    rdx,[rsp+0x5c]
    2ea9:	lea    rdi,[rsp+0x5e65]
    2eb1:	lea    rsi,[rip+0x1ca3a]        # 1f8f2 <scentral+0xb12>
    2eb8:	call   1400 <__isoc99_sscanf@plt>
    2ebd:	mov    edx,DWORD PTR [rsp+0x5c]
    2ec1:	mov    edi,0x1
    2ec6:	xor    eax,eax
    2ec8:	lea    rsi,[rip+0x1c36e]        # 1f23d <scentral+0x45d>
    2ecf:	call   1420 <__printf_chk@plt>
    2ed4:	jmp    1740 <main+0x270>
    2ed9:	lea    rsi,[rip+0x1c33e]        # 1f21e <scentral+0x43e>
    2ee0:	mov    edi,0x1
    2ee5:	call   1420 <__printf_chk@plt>
    2eea:	call   18c90 <rtime>
    2eef:	mov    rdx,QWORD PTR [rip+0x2165a]        # 24550 <stdin@@GLIBC_2.2.5>
    2ef6:	mov    esi,0x100
    2efb:	lea    rdi,[rsp+0x6060]
    2f03:	mov    QWORD PTR [rsp+0x8],rdi
    2f08:	mov    QWORD PTR [rip+0x27a731],rax        # 27d640 <start_time>
    2f0f:	call   18c30 <rinput>
    2f14:	mov    rdi,QWORD PTR [rsp+0x8]
    2f19:	mov    edx,0xa
    2f1e:	xor    esi,esi
    2f20:	call   13d0 <strtol@plt>
    2f25:	mov    edi,0xa
    2f2a:	imul   eax,eax,0x64
    2f2d:	mov    DWORD PTR [rip+0x64079],eax        # 66fac <pn_time>
    2f33:	call   12a0 <putchar@plt>
    2f38:	call   10460 <proofnumbersearch>
    2f3d:	jmp    1740 <main+0x270>
    2f42:	lea    rdi,[rsp+0x5e63]
    2f4a:	lea    rdx,[rip+0x2947ff]        # 297750 <fixed_time>
    2f51:	lea    rsi,[rip+0x1c99a]        # 1f8f2 <scentral+0xb12>
    2f58:	call   1400 <__isoc99_sscanf@plt>
    2f5d:	imul   eax,DWORD PTR [rip+0x2947ec],0x64        # 297750 <fixed_time>
    2f64:	mov    DWORD PTR [rip+0x2947e6],eax        # 297750 <fixed_time>
    2f6a:	jmp    1740 <main+0x270>
    2f6f:	call   4c00 <run_epd_testsuite>
    2f74:	jmp    1740 <main+0x270>
    2f79:	mov    rdi,r15
    2f7c:	call   d190 <HandlePtell>
    2f81:	jmp    1740 <main+0x270>
    2f86:	lea    rdi,[rsp+0x5e68]
    2f8e:	call   d0d0 <HandlePartner>
    2f93:	jmp    1740 <main+0x270>
    2f98:	lea    rdi,[rsp+0x5e67]
    2fa0:	call   d0d0 <HandlePartner>
    2fa5:	jmp    1740 <main+0x270>
    2faa:	mov    edx,DWORD PTR [rip+0x666f0]        # 696a0 <move_number>
    2fb0:	lea    rsi,[rip+0x1c228]        # 1f1df <scentral+0x3ff>
    2fb7:	mov    edi,0x1
    2fbc:	call   1420 <__printf_chk@plt>
    2fc1:	mov    eax,DWORD PTR [rip+0x666d9]        # 696a0 <move_number>
    2fc7:	test   eax,eax
    2fc9:	jle    1740 <main+0x270>
    2fcf:	sub    eax,0x1
    2fd2:	xor    esi,esi
    2fd4:	mov    DWORD PTR [rip+0x666c6],eax        # 696a0 <move_number>
    2fda:	cdqe   
    2fdc:	mov    rdx,rax
    2fdf:	imul   rax,rax,0x18
    2fe3:	shl    rdx,0x4
    2fe7:	movdqa xmm1,XMMWORD PTR [rsp+rdx*1+0xa0]
    2ff0:	lea    rdi,[r14+rax*1]
    2ff4:	movaps XMMWORD PTR [rip+0x28f425],xmm1        # 292420 <path_x>
    2ffb:	call   ae30 <unmake>
    3000:	call   18860 <reset_piece_square>
    3005:	xor    DWORD PTR [rip+0x666a4],0x1        # 696b0 <root_to_move>
    300c:	jmp    1740 <main+0x270>
    3011:	mov    DWORD PTR [rip+0x661ad],0x1        # 691c8 <is_analyzing>
    301b:	lea    rdi,[rsp+0x30]
    3020:	mov    DWORD PTR [rip+0x294732],0x1        # 29775c <is_pondering>
    302a:	call   13f80 <think>
    302f:	mov    DWORD PTR [rip+0x294727],0x0        # 297760 <ply>
    3039:	jmp    1740 <main+0x270>
    303e:	mov    rdi,r15
    3041:	call   3a70 <ProcessHoldings>
    3046:	jmp    1740 <main+0x270>
    304b:	lea    rdi,[rsp+0x5e67]
    3053:	lea    rcx,[rip+0x29470a]        # 297764 <opp_rating>
    305a:	lea    rdx,[rip+0x28f3a3]        # 292404 <my_rating>
    3061:	lea    rsi,[rip+0x1c123]        # 1f18b <scentral+0x3ab>
    3068:	call   1400 <__isoc99_sscanf@plt>
    306d:	cmp    DWORD PTR [rip+0x28f390],0x0        # 292404 <my_rating>
    3074:	jne    3080 <main+0x1bb0>
    3076:	mov    DWORD PTR [rip+0x28f384],0x7d0        # 292404 <my_rating>
    3080:	cmp    DWORD PTR [rip+0x2946dd],0x0        # 297764 <opp_rating>
    3087:	jne    1740 <main+0x270>
    308d:	mov    DWORD PTR [rip+0x2946cd],0x7d0        # 297764 <opp_rating>
    3097:	jmp    1740 <main+0x270>
    309c:	lea    rsi,[rip+0x1c117]        # 1f1ba <scentral+0x3da>
    30a3:	mov    rdi,r15
    30a6:	call   1480 <strstr@plt>
    30ab:	test   rax,rax
    30ae:	je     30f1 <main+0x1c21>
    30b0:	mov    DWORD PTR [rip+0x278706],0x3        # 27b7c0 <Variant>
    30ba:	lea    rsi,[rip+0x212ff]        # 243c0 <suicide_material>
    30c1:	lea    rdi,[rip+0x214b8]        # 24580 <material>
    30c8:	mov    ecx,0xe
    30cd:	mov    DWORD PTR [rip+0x294681],0x0        # 297758 <Giveaway>
    30d7:	rep movs DWORD PTR es:[rdi],DWORD PTR ds:[rsi]
    30d9:	jmp    27c7 <main+0x12f7>
    30de:	mov    edi,DWORD PTR [rsp+0x20]
    30e2:	movsx  esi,dl
    30e5:	mov    edx,eax
    30e7:	call   19240 <PutPiece>
    30ec:	jmp    1748 <main+0x278>
    30f1:	lea    rsi,[rip+0x1c0ca]        # 1f1c2 <scentral+0x3e2>
    30f8:	mov    rdi,r15
    30fb:	call   1480 <strstr@plt>
    3100:	test   rax,rax
    3103:	je     3151 <main+0x1c81>
    3105:	mov    DWORD PTR [rip+0x2786b1],0x3        # 27b7c0 <Variant>
    310f:	lea    rsi,[rip+0x212aa]        # 243c0 <suicide_material>
    3116:	lea    rdi,[rip+0x21463]        # 24580 <material>
    311d:	mov    ecx,0xe
    3122:	mov    DWORD PTR [rip+0x29462c],0x1        # 297758 <Giveaway>
    312c:	rep movs DWORD PTR es:[rdi],DWORD PTR ds:[rsi]
    312e:	jmp    27c7 <main+0x12f7>
    3133:	call   19390 <reset_board>
    3138:	mov    DWORD PTR [rip+0x6655e],0x0        # 696a0 <move_number>
    3142:	jmp    1748 <main+0x278>
    3147:	xor    DWORD PTR [rsp+0x20],0x1
    314c:	jmp    1748 <main+0x278>
    3151:	lea    rsi,[rip+0x1c073]        # 1f1cb <scentral+0x3eb>
    3158:	mov    rdi,r15
    315b:	call   1480 <strstr@plt>
    3160:	test   rax,rax
    3163:	je     27c7 <main+0x12f7>
    3169:	mov    DWORD PTR [rip+0x27864d],0x4        # 27b7c0 <Variant>
    3173:	lea    rsi,[rip+0x21206]        # 24380 <losers_material>
    317a:	mov    ecx,0xe
    317f:	lea    rdi,[rip+0x213fa]        # 24580 <material>
    3186:	rep movs DWORD PTR es:[rdi],DWORD PTR ds:[rsi]
    3188:	jmp    27c7 <main+0x12f7>
    318d:	nop    DWORD PTR [rax]

0000000000003190 <_start>:
    3190:	endbr64 
    3194:	xor    ebp,ebp
    3196:	mov    r9,rdx
    3199:	pop    rsi
    319a:	mov    rdx,rsp
    319d:	and    rsp,0xfffffffffffffff0
    31a1:	push   rax
    31a2:	push   rsp
    31a3:	lea    r8,[rip+0x165c6]        # 19770 <__libc_csu_fini>
    31aa:	lea    rcx,[rip+0x1654f]        # 19700 <__libc_csu_init>
    31b1:	lea    rdi,[rip+0xffffffffffffe318]        # 14d0 <main>
    31b8:	call   QWORD PTR [rip+0x20e0a]        # 23fc8 <__libc_start_main@GLIBC_2.2.5>
    31be:	hlt    
    31bf:	nop

00000000000031c0 <deregister_tm_clones>:
    31c0:	lea    rdi,[rip+0x21371]        # 24538 <__TMC_END__>
    31c7:	lea    rax,[rip+0x2136a]        # 24538 <__TMC_END__>
    31ce:	cmp    rax,rdi
    31d1:	je     31e8 <deregister_tm_clones+0x28>
    31d3:	mov    rax,QWORD PTR [rip+0x20de6]        # 23fc0 <_ITM_deregisterTMCloneTable>
    31da:	test   rax,rax
    31dd:	je     31e8 <deregister_tm_clones+0x28>
    31df:	jmp    rax
    31e1:	nop    DWORD PTR [rax+0x0]
    31e8:	ret    
    31e9:	nop    DWORD PTR [rax+0x0]

00000000000031f0 <register_tm_clones>:
    31f0:	lea    rdi,[rip+0x21341]        # 24538 <__TMC_END__>
    31f7:	lea    rsi,[rip+0x2133a]        # 24538 <__TMC_END__>
    31fe:	sub    rsi,rdi
    3201:	mov    rax,rsi
    3204:	shr    rsi,0x3f
    3208:	sar    rax,0x3
    320c:	add    rsi,rax
    320f:	sar    rsi,1
    3212:	je     3228 <register_tm_clones+0x38>
    3214:	mov    rax,QWORD PTR [rip+0x20dbd]        # 23fd8 <_ITM_registerTMCloneTable>
    321b:	test   rax,rax
    321e:	je     3228 <register_tm_clones+0x38>
    3220:	jmp    rax
    3222:	nop    WORD PTR [rax+rax*1+0x0]
    3228:	ret    
    3229:	nop    DWORD PTR [rax+0x0]

0000000000003230 <__do_global_dtors_aux>:
    3230:	endbr64 
    3234:	cmp    BYTE PTR [rip+0x2132d],0x0        # 24568 <completed.8061>
    323b:	jne    3268 <__do_global_dtors_aux+0x38>
    323d:	push   rbp
    323e:	cmp    QWORD PTR [rip+0x20d9a],0x0        # 23fe0 <__cxa_finalize@GLIBC_2.2.5>
    3246:	mov    rbp,rsp
    3249:	je     3257 <__do_global_dtors_aux+0x27>
    324b:	mov    rdi,QWORD PTR [rip+0x20db6]        # 24008 <__dso_handle>
    3252:	call   1270 <__cxa_finalize@plt>
    3257:	call   31c0 <deregister_tm_clones>
    325c:	mov    BYTE PTR [rip+0x21305],0x1        # 24568 <completed.8061>
    3263:	pop    rbp
    3264:	ret    
    3265:	nop    DWORD PTR [rax]
    3268:	ret    
    3269:	nop    DWORD PTR [rax+0x0]

0000000000003270 <frame_dummy>:
    3270:	endbr64 
    3274:	jmp    31f0 <register_tm_clones>
    3279:	nop    DWORD PTR [rax+0x0]

0000000000003280 <calc_attackers>:
    3280:	endbr64 
    3284:	lea    r8,[rip+0x27a635]        # 27d8c0 <board>
    328b:	movsxd rax,edi
    328e:	mov    r9d,DWORD PTR [r8+rax*4]
    3292:	test   r9d,r9d
    3295:	je     3380 <calc_attackers+0x100>
    329b:	lea    r11,[rip+0x16dae]        # 1a050 <rook_o.4424>
    32a2:	xor    r9d,r9d
    32a5:	and    esi,0x1
    32a8:	push   rbx
    32a9:	mov    ecx,0xc
    32ae:	lea    rbx,[r11+0x10]
    32b2:	je     3330 <calc_attackers+0xb0>
    32b4:	lea    edx,[rdi+rcx*1]
    32b7:	movsxd rax,edx
    32ba:	mov    eax,DWORD PTR [r8+rax*4]
    32be:	cmp    eax,0x5
    32c1:	je     3457 <calc_attackers+0x1d7>
    32c7:	test   eax,eax
    32c9:	je     330b <calc_attackers+0x8b>
    32cb:	movsxd rsi,ecx
    32ce:	add    edx,ecx
    32d0:	lea    r10,[rsi*4+0x0]
    32d8:	movsxd rdx,edx
    32db:	neg    rsi
    32de:	lea    rdx,[r8+rdx*4]
    32e2:	shl    rsi,0x2
    32e6:	jmp    32ff <calc_attackers+0x7f>
    32e8:	nop    DWORD PTR [rax+rax*1+0x0]
    32f0:	cmp    eax,0xd
    32f3:	jne    330b <calc_attackers+0x8b>
    32f5:	add    rdx,r10
    32f8:	mov    eax,DWORD PTR [rdx+rsi*1]
    32fb:	test   eax,eax
    32fd:	je     330b <calc_attackers+0x8b>
    32ff:	lea    ecx,[rax-0x7]
    3302:	and    ecx,0xfffffffd
    3305:	jne    32f0 <calc_attackers+0x70>
    3307:	add    r9d,0x1
    330b:	add    r11,0x4
    330f:	cmp    r11,rbx
    3312:	je     3460 <calc_attackers+0x1e0>
    3318:	mov    ecx,DWORD PTR [r11]
    331b:	jmp    32b4 <calc_attackers+0x34>
    331d:	nop    DWORD PTR [rax]
    3320:	add    r9d,0x1
    3324:	add    r11,0x4
    3328:	cmp    r11,rbx
    332b:	je     3390 <calc_attackers+0x110>
    332d:	mov    ecx,DWORD PTR [r11]
    3330:	lea    edx,[rdi+rcx*1]
    3333:	movsxd rax,edx
    3336:	mov    eax,DWORD PTR [r8+rax*4]
    333a:	cmp    eax,0x6
    333d:	je     3384 <calc_attackers+0x104>
    333f:	test   eax,eax
    3341:	je     3324 <calc_attackers+0xa4>
    3343:	movsxd rsi,ecx
    3346:	add    edx,ecx
    3348:	lea    r10,[rsi*4+0x0]
    3350:	movsxd rdx,edx
    3353:	neg    rsi
    3356:	lea    rdx,[r8+rdx*4]
    335a:	shl    rsi,0x2
    335e:	jmp    336f <calc_attackers+0xef>
    3360:	cmp    eax,0xd
    3363:	jne    3324 <calc_attackers+0xa4>
    3365:	add    rdx,r10
    3368:	mov    eax,DWORD PTR [rdx+rsi*1]
    336b:	test   eax,eax
    336d:	je     3324 <calc_attackers+0xa4>
    336f:	mov    ecx,eax
    3371:	and    ecx,0xfffffffd
    3374:	cmp    ecx,0x8
    3377:	jne    3360 <calc_attackers+0xe0>
    3379:	jmp    3320 <calc_attackers+0xa0>
    337b:	nop    DWORD PTR [rax+rax*1+0x0]
    3380:	mov    eax,r9d
    3383:	ret    
    3384:	add    r9d,0x1
    3388:	nop    DWORD PTR [rax+rax*1+0x0]
    3390:	mov    ecx,0xb
    3395:	xor    r11d,r11d
    3398:	lea    rbx,[rip+0x16ca1]        # 1a040 <bishop_o.4425>
    339f:	lea    edx,[rdi+rcx*1]
    33a2:	movsxd rax,edx
    33a5:	mov    eax,DWORD PTR [r8+rax*4]
    33a9:	cmp    eax,0x2
    33ac:	je     3410 <calc_attackers+0x190>
    33ae:	cmp    eax,0x6
    33b1:	je     3416 <calc_attackers+0x196>
    33b3:	test   eax,eax
    33b5:	je     33f3 <calc_attackers+0x173>
    33b7:	movsxd rsi,ecx
    33ba:	add    edx,ecx
    33bc:	lea    r10,[rsi*4+0x0]
    33c4:	movsxd rdx,edx
    33c7:	neg    rsi
    33ca:	lea    rdx,[r8+rdx*4]
    33ce:	shl    rsi,0x2
    33d2:	jmp    33e7 <calc_attackers+0x167>
    33d4:	nop    DWORD PTR [rax+0x0]
    33d8:	cmp    eax,0xd
    33db:	jne    33f3 <calc_attackers+0x173>
    33dd:	add    rdx,r10
    33e0:	mov    eax,DWORD PTR [rdx+rsi*1]
    33e3:	test   eax,eax
    33e5:	je     33f3 <calc_attackers+0x173>
    33e7:	lea    ecx,[rax-0xa]
    33ea:	and    ecx,0xfffffffd
    33ed:	jne    33d8 <calc_attackers+0x158>
    33ef:	add    r9d,0x1
    33f3:	add    r11,0x1
    33f7:	cmp    r11,0x4
    33fb:	je     3420 <calc_attackers+0x1a0>
    33fd:	mov    ecx,DWORD PTR [rbx+r11*4]
    3401:	lea    edx,[rdi+rcx*1]
    3404:	movsxd rax,edx
    3407:	mov    eax,DWORD PTR [r8+rax*4]
    340b:	cmp    eax,0x2
    340e:	jne    33ae <calc_attackers+0x12e>
    3410:	test   r11b,0x1
    3414:	jne    33b7 <calc_attackers+0x137>
    3416:	add    r9d,0x1
    341a:	nop    WORD PTR [rax+rax*1+0x0]
    3420:	lea    rdx,[rip+0x16bfd]        # 1a024 <knight_o.4426+0x4>
    3427:	mov    eax,0xa
    342c:	lea    rcx,[rdx+0x1c]
    3430:	jmp    343e <calc_attackers+0x1be>
    3432:	nop    WORD PTR [rax+rax*1+0x0]
    3438:	mov    eax,DWORD PTR [rdx]
    343a:	add    rdx,0x4
    343e:	add    eax,edi
    3440:	cdqe   
    3442:	cmp    DWORD PTR [r8+rax*4],0x4
    3447:	jne    344d <calc_attackers+0x1cd>
    3449:	add    r9d,0x1
    344d:	cmp    rdx,rcx
    3450:	jne    3438 <calc_attackers+0x1b8>
    3452:	mov    eax,r9d
    3455:	pop    rbx
    3456:	ret    
    3457:	add    r9d,0x1
    345b:	nop    DWORD PTR [rax+rax*1+0x0]
    3460:	mov    ecx,0xb
    3465:	xor    r11d,r11d
    3468:	lea    rbx,[rip+0x16bd1]        # 1a040 <bishop_o.4425>
    346f:	lea    edx,[rdi+rcx*1]
    3472:	movsxd rax,edx
    3475:	mov    eax,DWORD PTR [r8+rax*4]
    3479:	cmp    eax,0x1
    347c:	je     34e2 <calc_attackers+0x262>
    347e:	cmp    eax,0x5
    3481:	je     34e8 <calc_attackers+0x268>
    3483:	test   eax,eax
    3485:	je     34c5 <calc_attackers+0x245>
    3487:	movsxd rsi,ecx
    348a:	add    edx,ecx
    348c:	lea    r10,[rsi*4+0x0]
    3494:	movsxd rdx,edx
    3497:	neg    rsi
    349a:	lea    rdx,[r8+rdx*4]
    349e:	shl    rsi,0x2
    34a2:	jmp    34b7 <calc_attackers+0x237>
    34a4:	nop    DWORD PTR [rax+0x0]
    34a8:	cmp    eax,0xd
    34ab:	jne    34c5 <calc_attackers+0x245>
    34ad:	add    rdx,r10
    34b0:	mov    eax,DWORD PTR [rdx+rsi*1]
    34b3:	test   eax,eax
    34b5:	je     34c5 <calc_attackers+0x245>
    34b7:	mov    ecx,eax
    34b9:	and    ecx,0xfffffffd
    34bc:	cmp    ecx,0x9
    34bf:	jne    34a8 <calc_attackers+0x228>
    34c1:	add    r9d,0x1
    34c5:	add    r11,0x1
    34c9:	cmp    r11,0x4
    34cd:	je     34f0 <calc_attackers+0x270>
    34cf:	mov    ecx,DWORD PTR [rbx+r11*4]
    34d3:	lea    edx,[rdi+rcx*1]
    34d6:	movsxd rax,edx
    34d9:	mov    eax,DWORD PTR [r8+rax*4]
    34dd:	cmp    eax,0x1
    34e0:	jne    347e <calc_attackers+0x1fe>
    34e2:	test   r11b,0x1
    34e6:	je     3487 <calc_attackers+0x207>
    34e8:	add    r9d,0x1
    34ec:	nop    DWORD PTR [rax+0x0]
    34f0:	lea    rdx,[rip+0x16b2d]        # 1a024 <knight_o.4426+0x4>
    34f7:	mov    eax,0xa
    34fc:	lea    rcx,[rdx+0x1c]
    3500:	jmp    350e <calc_attackers+0x28e>
    3502:	nop    WORD PTR [rax+rax*1+0x0]
    3508:	mov    eax,DWORD PTR [rdx]
    350a:	add    rdx,0x4
    350e:	add    eax,edi
    3510:	cdqe   
    3512:	cmp    DWORD PTR [r8+rax*4],0x3
    3517:	jne    351d <calc_attackers+0x29d>
    3519:	add    r9d,0x1
    351d:	cmp    rcx,rdx
    3520:	jne    3508 <calc_attackers+0x288>
    3522:	mov    eax,r9d
    3525:	pop    rbx
    3526:	ret    
    3527:	nop    WORD PTR [rax+rax*1+0x0]

0000000000003530 <is_attacked>:
    3530:	endbr64 
    3534:	xor    r9d,r9d
    3537:	and    esi,0x1
    353a:	mov    ecx,0xb
    353f:	lea    r8,[rip+0x27a37a]        # 27d8c0 <board>
    3546:	lea    r10,[rip+0x16af3]        # 1a040 <bishop_o.4425>
    354d:	jne    3688 <is_attacked+0x158>
    3553:	lea    eax,[rdi+rcx*1]
    3556:	movsxd rdx,eax
    3559:	mov    edx,DWORD PTR [r8+rdx*4]
    355d:	cmp    edx,0x2
    3560:	je     3798 <is_attacked+0x268>
    3566:	cmp    edx,0x6
    3569:	je     37a2 <is_attacked+0x272>
    356f:	test   edx,edx
    3571:	je     35b2 <is_attacked+0x82>
    3573:	lea    esi,[rdx-0xa]
    3576:	and    esi,0xfffffffd
    3579:	je     37a2 <is_attacked+0x272>
    357f:	cmp    edx,0xd
    3582:	jne    35b2 <is_attacked+0x82>
    3584:	add    eax,ecx
    3586:	movsxd rsi,ecx
    3589:	cdqe   
    358b:	shl    rsi,0x2
    358f:	lea    rdx,[r8+rax*4]
    3593:	jmp    35ac <is_attacked+0x7c>
    3595:	nop    DWORD PTR [rax]
    3598:	lea    ecx,[rax-0xa]
    359b:	and    ecx,0xfffffffd
    359e:	je     37a2 <is_attacked+0x272>
    35a4:	add    rdx,rsi
    35a7:	cmp    eax,0xd
    35aa:	jne    35b2 <is_attacked+0x82>
    35ac:	mov    eax,DWORD PTR [rdx]
    35ae:	test   eax,eax
    35b0:	jne    3598 <is_attacked+0x68>
    35b2:	add    r9,0x1
    35b6:	cmp    r9,0x4
    35ba:	jne    37b0 <is_attacked+0x280>
    35c0:	lea    rdx,[rip+0x16a5d]        # 1a024 <knight_o.4426+0x4>
    35c7:	mov    eax,0xa
    35cc:	lea    rcx,[rdx+0x1c]
    35d0:	jmp    35de <is_attacked+0xae>
    35d2:	nop    WORD PTR [rax+rax*1+0x0]
    35d8:	mov    eax,DWORD PTR [rdx]
    35da:	add    rdx,0x4
    35de:	add    eax,edi
    35e0:	cdqe   
    35e2:	cmp    DWORD PTR [r8+rax*4],0x4
    35e7:	je     37a2 <is_attacked+0x272>
    35ed:	cmp    rdx,rcx
    35f0:	jne    35d8 <is_attacked+0xa8>
    35f2:	lea    r9,[rip+0x16a57]        # 1a050 <rook_o.4424>
    35f9:	mov    ecx,0xc
    35fe:	lea    r10,[r9+0x10]
    3602:	lea    eax,[rdi+rcx*1]
    3605:	movsxd rdx,eax
    3608:	mov    edx,DWORD PTR [r8+rdx*4]
    360c:	cmp    edx,0x6
    360f:	je     37a2 <is_attacked+0x272>
    3615:	test   edx,edx
    3617:	je     365c <is_attacked+0x12c>
    3619:	mov    esi,edx
    361b:	and    esi,0xfffffffd
    361e:	cmp    esi,0x8
    3621:	je     37a2 <is_attacked+0x272>
    3627:	cmp    edx,0xd
    362a:	jne    365c <is_attacked+0x12c>
    362c:	add    eax,ecx
    362e:	movsxd rsi,ecx
    3631:	cdqe   
    3633:	shl    rsi,0x2
    3637:	lea    rdx,[r8+rax*4]
    363b:	jmp    3656 <is_attacked+0x126>
    363d:	nop    DWORD PTR [rax]
    3640:	mov    ecx,eax
    3642:	and    ecx,0xfffffffd
    3645:	cmp    ecx,0x8
    3648:	je     37a2 <is_attacked+0x272>
    364e:	add    rdx,rsi
    3651:	cmp    eax,0xd
    3654:	jne    365c <is_attacked+0x12c>
    3656:	mov    eax,DWORD PTR [rdx]
    3658:	test   eax,eax
    365a:	jne    3640 <is_attacked+0x110>
    365c:	add    r9,0x4
    3660:	cmp    r9,r10
    3663:	je     37c0 <is_attacked+0x290>
    3669:	mov    ecx,DWORD PTR [r9]
    366c:	jmp    3602 <is_attacked+0xd2>
    366e:	xchg   ax,ax
    3670:	test   r9b,0x1
    3674:	jne    37a2 <is_attacked+0x272>
    367a:	add    r9,0x1
    367e:	cmp    r9,0x4
    3682:	je     36f6 <is_attacked+0x1c6>
    3684:	mov    ecx,DWORD PTR [r10+r9*4]
    3688:	lea    eax,[rdi+rcx*1]
    368b:	movsxd rdx,eax
    368e:	mov    edx,DWORD PTR [r8+rdx*4]
    3692:	cmp    edx,0x1
    3695:	je     3670 <is_attacked+0x140>
    3697:	cmp    edx,0x5
    369a:	je     37a2 <is_attacked+0x272>
    36a0:	test   edx,edx
    36a2:	je     367a <is_attacked+0x14a>
    36a4:	mov    esi,edx
    36a6:	and    esi,0xfffffffd
    36a9:	cmp    esi,0x9
    36ac:	je     37a2 <is_attacked+0x272>
    36b2:	cmp    edx,0xd
    36b5:	jne    367a <is_attacked+0x14a>
    36b7:	add    eax,ecx
    36b9:	movsxd rsi,ecx
    36bc:	cdqe   
    36be:	shl    rsi,0x2
    36c2:	lea    rdx,[r8+rax*4]
    36c6:	jmp    36e6 <is_attacked+0x1b6>
    36c8:	nop    DWORD PTR [rax+rax*1+0x0]
    36d0:	mov    ecx,eax
    36d2:	and    ecx,0xfffffffd
    36d5:	cmp    ecx,0x9
    36d8:	je     37a2 <is_attacked+0x272>
    36de:	add    rdx,rsi
    36e1:	cmp    eax,0xd
    36e4:	jne    367a <is_attacked+0x14a>
    36e6:	mov    eax,DWORD PTR [rdx]
    36e8:	test   eax,eax
    36ea:	jne    36d0 <is_attacked+0x1a0>
    36ec:	add    r9,0x1
    36f0:	cmp    r9,0x4
    36f4:	jne    3684 <is_attacked+0x154>
    36f6:	lea    rdx,[rip+0x16927]        # 1a024 <knight_o.4426+0x4>
    36fd:	mov    eax,0xa
    3702:	lea    rcx,[rdx+0x1c]
    3706:	jmp    3716 <is_attacked+0x1e6>
    3708:	nop    DWORD PTR [rax+rax*1+0x0]
    3710:	mov    eax,DWORD PTR [rdx]
    3712:	add    rdx,0x4
    3716:	add    eax,edi
    3718:	cdqe   
    371a:	cmp    DWORD PTR [r8+rax*4],0x3
    371f:	je     37a2 <is_attacked+0x272>
    3725:	cmp    rdx,rcx
    3728:	jne    3710 <is_attacked+0x1e0>
    372a:	lea    r9,[rip+0x1691f]        # 1a050 <rook_o.4424>
    3731:	mov    ecx,0xc
    3736:	lea    r10,[r9+0x10]
    373a:	lea    eax,[rdi+rcx*1]
    373d:	movsxd rdx,eax
    3740:	mov    edx,DWORD PTR [r8+rdx*4]
    3744:	cmp    edx,0x5
    3747:	je     37a2 <is_attacked+0x272>
    3749:	test   edx,edx
    374b:	je     3786 <is_attacked+0x256>
    374d:	lea    esi,[rdx-0x7]
    3750:	and    esi,0xfffffffd
    3753:	je     37a2 <is_attacked+0x272>
    3755:	cmp    edx,0xd
    3758:	jne    3786 <is_attacked+0x256>
    375a:	add    eax,ecx
    375c:	movsxd rsi,ecx
    375f:	cdqe   
    3761:	shl    rsi,0x2
    3765:	lea    rdx,[r8+rax*4]
    3769:	jmp    3780 <is_attacked+0x250>
    376b:	nop    DWORD PTR [rax+rax*1+0x0]
    3770:	lea    ecx,[rax-0x7]
    3773:	and    ecx,0xfffffffd
    3776:	je     37a2 <is_attacked+0x272>
    3778:	add    rdx,rsi
    377b:	cmp    eax,0xd
    377e:	jne    3786 <is_attacked+0x256>
    3780:	mov    eax,DWORD PTR [rdx]
    3782:	test   eax,eax
    3784:	jne    3770 <is_attacked+0x240>
    3786:	add    r9,0x4
    378a:	cmp    r10,r9
    378d:	je     37c0 <is_attacked+0x290>
    378f:	mov    ecx,DWORD PTR [r9]
    3792:	jmp    373a <is_attacked+0x20a>
    3794:	nop    DWORD PTR [rax+0x0]
    3798:	test   r9b,0x1
    379c:	jne    35b2 <is_attacked+0x82>
    37a2:	mov    eax,0x1
    37a7:	ret    
    37a8:	nop    DWORD PTR [rax+rax*1+0x0]
    37b0:	mov    ecx,DWORD PTR [r10+r9*4]
    37b4:	jmp    3553 <is_attacked+0x23>
    37b9:	nop    DWORD PTR [rax+0x0]
    37c0:	xor    eax,eax
    37c2:	ret    
    37c3:	data16 nop WORD PTR cs:[rax+rax*1+0x0]
    37ce:	xchg   ax,ax

00000000000037d0 <nk_attacked>:
    37d0:	endbr64 
    37d4:	xor    r9d,r9d
    37d7:	and    esi,0x1
    37da:	mov    ecx,0xb
    37df:	lea    r8,[rip+0x27a0da]        # 27d8c0 <board>
    37e6:	lea    r10,[rip+0x16853]        # 1a040 <bishop_o.4425>
    37ed:	jne    3918 <nk_attacked+0x148>
    37f3:	lea    eax,[rdi+rcx*1]
    37f6:	movsxd rdx,eax
    37f9:	mov    edx,DWORD PTR [r8+rdx*4]
    37fd:	cmp    edx,0x2
    3800:	je     3a10 <nk_attacked+0x240>
    3806:	test   edx,edx
    3808:	je     384a <nk_attacked+0x7a>
    380a:	lea    esi,[rdx-0xa]
    380d:	and    esi,0xfffffffd
    3810:	je     3a1a <nk_attacked+0x24a>
    3816:	cmp    edx,0xd
    3819:	jne    384a <nk_attacked+0x7a>
    381b:	add    eax,ecx
    381d:	movsxd rsi,ecx
    3820:	cdqe   
    3822:	shl    rsi,0x2
    3826:	lea    rdx,[r8+rax*4]
    382a:	jmp    3844 <nk_attacked+0x74>
    382c:	nop    DWORD PTR [rax+0x0]
    3830:	lea    ecx,[rax-0xa]
    3833:	and    ecx,0xfffffffd
    3836:	je     3a1a <nk_attacked+0x24a>
    383c:	add    rdx,rsi
    383f:	cmp    eax,0xd
    3842:	jne    384a <nk_attacked+0x7a>
    3844:	mov    eax,DWORD PTR [rdx]
    3846:	test   eax,eax
    3848:	jne    3830 <nk_attacked+0x60>
    384a:	add    r9,0x1
    384e:	cmp    r9,0x4
    3852:	jne    3a20 <nk_attacked+0x250>
    3858:	lea    rdx,[rip+0x167c5]        # 1a024 <knight_o.4426+0x4>
    385f:	mov    eax,0xa
    3864:	lea    rcx,[rdx+0x1c]
    3868:	jmp    3876 <nk_attacked+0xa6>
    386a:	nop    WORD PTR [rax+rax*1+0x0]
    3870:	mov    eax,DWORD PTR [rdx]
    3872:	add    rdx,0x4
    3876:	add    eax,edi
    3878:	cdqe   
    387a:	cmp    DWORD PTR [r8+rax*4],0x4
    387f:	je     3a1a <nk_attacked+0x24a>
    3885:	cmp    rdx,rcx
    3888:	jne    3870 <nk_attacked+0xa0>
    388a:	lea    r9,[rip+0x167bf]        # 1a050 <rook_o.4424>
    3891:	mov    ecx,0xc
    3896:	lea    r10,[r9+0x10]
    389a:	lea    eax,[rdi+rcx*1]
    389d:	movsxd rdx,eax
    38a0:	mov    edx,DWORD PTR [r8+rdx*4]
    38a4:	test   edx,edx
    38a6:	je     38ec <nk_attacked+0x11c>
    38a8:	mov    esi,edx
    38aa:	and    esi,0xfffffffd
    38ad:	cmp    esi,0x8
    38b0:	je     3a1a <nk_attacked+0x24a>
    38b6:	cmp    edx,0xd
    38b9:	jne    38ec <nk_attacked+0x11c>
    38bb:	add    eax,ecx
    38bd:	movsxd rsi,ecx
    38c0:	cdqe   
    38c2:	shl    rsi,0x2
    38c6:	lea    rdx,[r8+rax*4]
    38ca:	jmp    38e6 <nk_attacked+0x116>
    38cc:	nop    DWORD PTR [rax+0x0]
    38d0:	mov    ecx,eax
    38d2:	and    ecx,0xfffffffd
    38d5:	cmp    ecx,0x8
    38d8:	je     3a1a <nk_attacked+0x24a>
    38de:	add    rdx,rsi
    38e1:	cmp    eax,0xd
    38e4:	jne    38ec <nk_attacked+0x11c>
    38e6:	mov    eax,DWORD PTR [rdx]
    38e8:	test   eax,eax
    38ea:	jne    38d0 <nk_attacked+0x100>
    38ec:	add    r9,0x4
    38f0:	cmp    r9,r10
    38f3:	je     3a30 <nk_attacked+0x260>
    38f9:	mov    ecx,DWORD PTR [r9]
    38fc:	jmp    389a <nk_attacked+0xca>
    38fe:	xchg   ax,ax
    3900:	test   r9b,0x1
    3904:	jne    3a1a <nk_attacked+0x24a>
    390a:	add    r9,0x1
    390e:	cmp    r9,0x4
    3912:	je     3976 <nk_attacked+0x1a6>
    3914:	mov    ecx,DWORD PTR [r10+r9*4]
    3918:	lea    eax,[rdi+rcx*1]
    391b:	movsxd rdx,eax
    391e:	mov    edx,DWORD PTR [r8+rdx*4]
    3922:	cmp    edx,0x1
    3925:	je     3900 <nk_attacked+0x130>
    3927:	test   edx,edx
    3929:	je     390a <nk_attacked+0x13a>
    392b:	mov    esi,edx
    392d:	and    esi,0xfffffffd
    3930:	cmp    esi,0x9
    3933:	je     3a1a <nk_attacked+0x24a>
    3939:	cmp    edx,0xd
    393c:	jne    390a <nk_attacked+0x13a>
    393e:	add    eax,ecx
    3940:	movsxd rsi,ecx
    3943:	cdqe   
    3945:	shl    rsi,0x2
    3949:	lea    rdx,[r8+rax*4]
    394d:	jmp    3966 <nk_attacked+0x196>
    394f:	nop
    3950:	mov    ecx,eax
    3952:	and    ecx,0xfffffffd
    3955:	cmp    ecx,0x9
    3958:	je     3a1a <nk_attacked+0x24a>
    395e:	add    rdx,rsi
    3961:	cmp    eax,0xd
    3964:	jne    390a <nk_attacked+0x13a>
    3966:	mov    eax,DWORD PTR [rdx]
    3968:	test   eax,eax
    396a:	jne    3950 <nk_attacked+0x180>
    396c:	add    r9,0x1
    3970:	cmp    r9,0x4
    3974:	jne    3914 <nk_attacked+0x144>
    3976:	lea    rdx,[rip+0x166a7]        # 1a024 <knight_o.4426+0x4>
    397d:	mov    eax,0xa
    3982:	lea    rcx,[rdx+0x1c]
    3986:	jmp    3996 <nk_attacked+0x1c6>
    3988:	nop    DWORD PTR [rax+rax*1+0x0]
    3990:	mov    eax,DWORD PTR [rdx]
    3992:	add    rdx,0x4
    3996:	add    eax,edi
    3998:	cdqe   
    399a:	cmp    DWORD PTR [r8+rax*4],0x3
    399f:	je     3a1a <nk_attacked+0x24a>
    39a1:	cmp    rcx,rdx
    39a4:	jne    3990 <nk_attacked+0x1c0>
    39a6:	lea    r9,[rip+0x166a3]        # 1a050 <rook_o.4424>
    39ad:	mov    ecx,0xc
    39b2:	lea    r10,[r9+0x10]
    39b6:	lea    eax,[rdi+rcx*1]
    39b9:	movsxd rdx,eax
    39bc:	mov    edx,DWORD PTR [r8+rdx*4]
    39c0:	test   edx,edx
    39c2:	je     39fe <nk_attacked+0x22e>
    39c4:	lea    esi,[rdx-0x7]
    39c7:	and    esi,0xfffffffd
    39ca:	je     3a1a <nk_attacked+0x24a>
    39cc:	cmp    edx,0xd
    39cf:	jne    39fe <nk_attacked+0x22e>
    39d1:	add    eax,ecx
    39d3:	movsxd rsi,ecx
    39d6:	cdqe   
    39d8:	shl    rsi,0x2
    39dc:	lea    rdx,[r8+rax*4]
    39e0:	jmp    39f8 <nk_attacked+0x228>
    39e2:	nop    WORD PTR [rax+rax*1+0x0]
    39e8:	lea    ecx,[rax-0x7]
    39eb:	and    ecx,0xfffffffd
    39ee:	je     3a1a <nk_attacked+0x24a>
    39f0:	add    rdx,rsi
    39f3:	cmp    eax,0xd
    39f6:	jne    39fe <nk_attacked+0x22e>
    39f8:	mov    eax,DWORD PTR [rdx]
    39fa:	test   eax,eax
    39fc:	jne    39e8 <nk_attacked+0x218>
    39fe:	add    r9,0x4
    3a02:	cmp    r10,r9
    3a05:	je     3a30 <nk_attacked+0x260>
    3a07:	mov    ecx,DWORD PTR [r9]
    3a0a:	jmp    39b6 <nk_attacked+0x1e6>
    3a0c:	nop    DWORD PTR [rax+0x0]
    3a10:	test   r9b,0x1
    3a14:	jne    384a <nk_attacked+0x7a>
    3a1a:	mov    eax,0x1
    3a1f:	ret    
    3a20:	mov    ecx,DWORD PTR [r10+r9*4]
    3a24:	jmp    37f3 <nk_attacked+0x23>
    3a29:	nop    DWORD PTR [rax+0x0]
    3a30:	xor    eax,eax
    3a32:	ret    
    3a33:	nop    WORD PTR cs:[rax+rax*1+0x0]
    3a3d:	nop    DWORD PTR [rax]

0000000000003a40 <init_book>:
    3a40:	endbr64 
    3a44:	mov    eax,0x1
    3a49:	ret    
    3a4a:	nop    WORD PTR [rax+rax*1+0x0]

0000000000003a50 <choose_book_move>:
    3a50:	endbr64 
    3a54:	movdqu xmm0,XMMWORD PTR [rip+0x20b84]        # 245e0 <dummy>
    3a5c:	mov    rdx,QWORD PTR [rip+0x20b8d]        # 245f0 <dummy+0x10>
    3a63:	mov    rax,rdi
    3a66:	mov    QWORD PTR [rdi+0x10],rdx
    3a6a:	movups XMMWORD PTR [rdi],xmm0
    3a6d:	ret    
    3a6e:	xchg   ax,ax

0000000000003a70 <ProcessHoldings>:
    3a70:	endbr64 
    3a74:	push   r15
    3a76:	xor    eax,eax
    3a78:	mov    ecx,0x10
    3a7d:	push   r14
    3a7f:	push   r13
    3a81:	lea    r13,[rip+0x293d38]        # 2977c0 <zobrist>
    3a88:	push   r12
    3a8a:	push   rbp
    3a8b:	mov    rbp,rdi
    3a8e:	push   rbx
    3a8f:	lea    rbx,[rip+0x2158a]        # 25020 <holding>
    3a96:	mov    rdi,rbx
    3a99:	sub    rsp,0x28
    3a9d:	mov    DWORD PTR [rip+0x21701],0xc0ffee00        # 251a8 <hold_hash>
    3aa7:	rep stos QWORD PTR es:[rdi],rax
    3aaa:	mov    DWORD PTR [rip+0x216f8],0x0        # 251ac <white_hand_eval>
    3ab4:	mov    DWORD PTR [rip+0x216e2],0x0        # 251a0 <black_hand_eval>
    3abe:	call   4450 <reset_ecache>
    3ac3:	lea    r11,[rip+0x21536]        # 25000 <num_holding>
    3aca:	xor    eax,eax
    3acc:	mov    QWORD PTR [rip+0x21529],0x0        # 25000 <num_holding>
    3ad7:	xor    r10d,r10d
    3ada:	lea    r9,[rip+0x1657f]        # 1a060 <rook_o.4424+0x10>
    3ae1:	movsxd rdx,eax
    3ae4:	add    eax,0x1
    3ae7:	movzx  edi,BYTE PTR [rbp+rdx*1+0x0]
    3aec:	movsxd rdx,eax
    3aef:	jmp    3b05 <ProcessHoldings+0x95>
    3af1:	nop    DWORD PTR [rax+0x0]
    3af8:	add    rdx,0x1
    3afc:	test   dil,dil
    3aff:	je     3ced <ProcessHoldings+0x27d>
    3b05:	mov    ecx,edi
    3b07:	mov    eax,edx
    3b09:	movzx  edi,BYTE PTR [rbp+rdx*1+0x0]
    3b0e:	cmp    cl,0x5b
    3b11:	jne    3af8 <ProcessHoldings+0x88>
    3b13:	cmp    dil,0x5d
    3b17:	je     3bde <ProcessHoldings+0x16e>
    3b1d:	cmp    r10d,0x1
    3b21:	sbb    r12d,r12d
    3b24:	add    r12d,0x8
    3b28:	cmp    r10d,0x1
    3b2c:	sbb    r8d,r8d
    3b2f:	add    r8d,0xa
    3b33:	cmp    r10d,0x1
    3b37:	sbb    esi,esi
    3b39:	add    esi,0x2
    3b3c:	cmp    r10d,0x1
    3b40:	mov    DWORD PTR [rsp+0x18],esi
    3b44:	sbb    esi,esi
    3b46:	add    esi,0x4
    3b49:	cmp    r10d,0x1
    3b4d:	sbb    ecx,ecx
    3b4f:	add    eax,0x1
    3b52:	movsxd rdx,eax
    3b55:	movsxd rax,esi
    3b58:	movsxd rsi,r10d
    3b5b:	add    ecx,0xc
    3b5e:	shl    rsi,0x4
    3b62:	movsxd rcx,ecx
    3b65:	lea    r15,[rsi+rax*1]
    3b69:	lea    rax,[rax+rax*8]
    3b6d:	mov    QWORD PTR [rsp+0x8],rax
    3b72:	lea    rax,[rcx+rcx*8]
    3b76:	shl    rax,0x4
    3b7a:	mov    QWORD PTR [rsp],r15
    3b7e:	mov    QWORD PTR [rsp+0x10],rax
    3b83:	sub    edi,0x42
    3b86:	mov    eax,edx
    3b88:	cmp    dil,0x30
    3b8c:	ja     3ced <ProcessHoldings+0x27d>
    3b92:	movzx  edi,dil
    3b96:	movsxd rdi,DWORD PTR [r9+rdi*4]
    3b9a:	add    rdi,r9
    3b9d:	notrack jmp rdi
    3ba0:	movsxd r14,r12d
    3ba3:	lea    r15,[rsi+r14*1]
    3ba7:	mov    edi,DWORD PTR [rbx+r15*4]
    3bab:	add    edi,0x1
    3bae:	mov    DWORD PTR [rbx+r15*4],edi
    3bb2:	movsxd r15,edi
    3bb5:	lea    rdi,[r14+r14*8]
    3bb9:	shl    rdi,0x4
    3bbd:	add    DWORD PTR [r11],0x1
    3bc1:	add    rdi,r15
    3bc4:	mov    edi,DWORD PTR [r13+rdi*4+0x0]
    3bc9:	xor    DWORD PTR [rip+0x215d9],edi        # 251a8 <hold_hash>
    3bcf:	add    rdx,0x1
    3bd3:	movzx  edi,BYTE PTR [rbp+rdx*1-0x1]
    3bd8:	cmp    dil,0x5d
    3bdc:	jne    3b83 <ProcessHoldings+0x113>
    3bde:	add    r11,0x4
    3be2:	cmp    r10d,0x1
    3be6:	jne    3e43 <ProcessHoldings+0x3d3>
    3bec:	cmp    DWORD PTR [rip+0x277bcd],0x1        # 27b7c0 <Variant>
    3bf3:	jne    3ced <ProcessHoldings+0x27d>
    3bf9:	mov    r12d,DWORD PTR [rip+0x215a4]        # 251a4 <userealholdings>
    3c00:	test   r12d,r12d
    3c03:	jne    3ced <ProcessHoldings+0x27d>
    3c09:	mov    edx,0xc8
    3c0e:	mov    rsi,rbp
    3c11:	lea    rdi,[rip+0x21488]        # 250a0 <realholdings>
    3c18:	call   12b0 <strncpy@plt>
    3c1d:	cmp    DWORD PTR [rip+0x293b30],0x1        # 297754 <comp_color>
    3c24:	je     3d6f <ProcessHoldings+0x2ff>
    3c2a:	mov    edi,DWORD PTR [rip+0x21414]        # 25044 <holding+0x24>
    3c30:	test   edi,edi
    3c32:	jne    3c51 <ProcessHoldings+0x1e1>
    3c34:	mov    eax,DWORD PTR [rip+0x294fca]        # 298c04 <zobrist+0x1444>
    3c3a:	xor    DWORD PTR [rip+0x21568],eax        # 251a8 <hold_hash>
    3c40:	add    DWORD PTR [rip+0x213b9],0x1        # 25000 <num_holding>
    3c47:	mov    DWORD PTR [rip+0x213f3],0x1        # 25044 <holding+0x24>
    3c51:	mov    esi,DWORD PTR [rip+0x213e5]        # 2503c <holding+0x1c>
    3c57:	test   esi,esi
    3c59:	jne    3c78 <ProcessHoldings+0x208>
    3c5b:	mov    eax,DWORD PTR [rip+0x294fa3]        # 298c04 <zobrist+0x1444>
    3c61:	xor    DWORD PTR [rip+0x21541],eax        # 251a8 <hold_hash>
    3c67:	add    DWORD PTR [rip+0x21392],0x1        # 25000 <num_holding>
    3c6e:	mov    DWORD PTR [rip+0x213c4],0x1        # 2503c <holding+0x1c>
    3c78:	mov    ecx,DWORD PTR [rip+0x213ce]        # 2504c <holding+0x2c>
    3c7e:	test   ecx,ecx
    3c80:	jne    3c9f <ProcessHoldings+0x22f>
    3c82:	mov    eax,DWORD PTR [rip+0x294f7c]        # 298c04 <zobrist+0x1444>
    3c88:	xor    DWORD PTR [rip+0x2151a],eax        # 251a8 <hold_hash>
    3c8e:	add    DWORD PTR [rip+0x2136b],0x1        # 25000 <num_holding>
    3c95:	mov    DWORD PTR [rip+0x213ad],0x1        # 2504c <holding+0x2c>
    3c9f:	mov    edx,DWORD PTR [rip+0x21387]        # 2502c <holding+0xc>
    3ca5:	test   edx,edx
    3ca7:	jne    3cc6 <ProcessHoldings+0x256>
    3ca9:	mov    eax,DWORD PTR [rip+0x294f55]        # 298c04 <zobrist+0x1444>
    3caf:	xor    DWORD PTR [rip+0x214f3],eax        # 251a8 <hold_hash>
    3cb5:	add    DWORD PTR [rip+0x21344],0x1        # 25000 <num_holding>
    3cbc:	mov    DWORD PTR [rip+0x21366],0x1        # 2502c <holding+0xc>
    3cc6:	mov    eax,DWORD PTR [rip+0x21358]        # 25024 <holding+0x4>
    3ccc:	test   eax,eax
    3cce:	jne    3ced <ProcessHoldings+0x27d>
    3cd0:	mov    eax,DWORD PTR [rip+0x294f2e]        # 298c04 <zobrist+0x1444>
    3cd6:	xor    DWORD PTR [rip+0x214cc],eax        # 251a8 <hold_hash>
    3cdc:	add    DWORD PTR [rip+0x2131d],0x1        # 25000 <num_holding>
    3ce3:	mov    DWORD PTR [rip+0x21337],0x1        # 25024 <holding+0x4>
    3ced:	add    rsp,0x28
    3cf1:	pop    rbx
    3cf2:	pop    rbp
    3cf3:	pop    r12
    3cf5:	pop    r13
    3cf7:	pop    r14
    3cf9:	pop    r15
    3cfb:	ret    
    3cfc:	movsxd r14,r8d
    3cff:	jmp    3ba3 <ProcessHoldings+0x133>
    3d04:	movsxd r14,DWORD PTR [rsp+0x18]
    3d09:	jmp    3ba3 <ProcessHoldings+0x133>
    3d0e:	lea    r14,[rsi+rcx*1]
    3d12:	add    DWORD PTR [r11],0x1
    3d16:	mov    edi,DWORD PTR [rbx+r14*4]
    3d1a:	add    edi,0x1
    3d1d:	mov    DWORD PTR [rbx+r14*4],edi
    3d21:	movsxd rdi,edi
    3d24:	add    rdi,QWORD PTR [rsp+0x10]
    3d29:	mov    edi,DWORD PTR [r13+rdi*4+0x0]
    3d2e:	xor    DWORD PTR [rip+0x21474],edi        # 251a8 <hold_hash>
    3d34:	jmp    3bcf <ProcessHoldings+0x15f>
    3d39:	mov    r14,QWORD PTR [rsp]
    3d3d:	add    DWORD PTR [r11],0x1
    3d41:	mov    edi,DWORD PTR [rbx+r14*4]
    3d45:	mov    DWORD PTR [rsp+0x1c],edi
    3d49:	add    edi,0x1
    3d4c:	mov    DWORD PTR [rbx+r14*4],edi
    3d50:	mov    r14,QWORD PTR [rsp+0x8]
    3d55:	movsxd rdi,edi
    3d58:	shl    r14,0x4
    3d5c:	add    rdi,r14
    3d5f:	mov    edi,DWORD PTR [r13+rdi*4+0x0]
    3d64:	xor    DWORD PTR [rip+0x2143e],edi        # 251a8 <hold_hash>
    3d6a:	jmp    3bcf <ProcessHoldings+0x15f>
    3d6f:	mov    ebx,DWORD PTR [rip+0x212f3]        # 25068 <holding+0x48>
    3d75:	test   ebx,ebx
    3d77:	jne    3d96 <ProcessHoldings+0x326>
    3d79:	mov    eax,DWORD PTR [rip+0x293ec5]        # 297c44 <zobrist+0x484>
    3d7f:	xor    DWORD PTR [rip+0x21423],eax        # 251a8 <hold_hash>
    3d85:	add    DWORD PTR [rip+0x21278],0x1        # 25004 <num_holding+0x4>
    3d8c:	mov    DWORD PTR [rip+0x212d2],0x1        # 25068 <holding+0x48>
    3d96:	mov    r11d,DWORD PTR [rip+0x212f3]        # 25090 <holding+0x70>
    3d9d:	test   r11d,r11d
    3da0:	jne    3dbf <ProcessHoldings+0x34f>
    3da2:	mov    eax,DWORD PTR [rip+0x293e9c]        # 297c44 <zobrist+0x484>
    3da8:	xor    DWORD PTR [rip+0x213fa],eax        # 251a8 <hold_hash>
    3dae:	add    DWORD PTR [rip+0x2124f],0x1        # 25004 <num_holding+0x4>
    3db5:	mov    DWORD PTR [rip+0x212d1],0x1        # 25090 <holding+0x70>
    3dbf:	mov    r10d,DWORD PTR [rip+0x212aa]        # 25070 <holding+0x50>
    3dc6:	test   r10d,r10d
    3dc9:	jne    3de8 <ProcessHoldings+0x378>
    3dcb:	mov    eax,DWORD PTR [rip+0x2942f3]        # 2980c4 <zobrist+0x904>
    3dd1:	xor    DWORD PTR [rip+0x213d1],eax        # 251a8 <hold_hash>
    3dd7:	add    DWORD PTR [rip+0x21226],0x1        # 25004 <num_holding+0x4>
    3dde:	mov    DWORD PTR [rip+0x21288],0x1        # 25070 <holding+0x50>
    3de8:	mov    r9d,DWORD PTR [rip+0x21291]        # 25080 <holding+0x60>
    3def:	test   r9d,r9d
    3df2:	jne    3e11 <ProcessHoldings+0x3a1>
    3df4:	mov    eax,DWORD PTR [rip+0x2942ca]        # 2980c4 <zobrist+0x904>
    3dfa:	xor    DWORD PTR [rip+0x213a8],eax        # 251a8 <hold_hash>
    3e00:	add    DWORD PTR [rip+0x211fd],0x1        # 25004 <num_holding+0x4>
    3e07:	mov    DWORD PTR [rip+0x2126f],0x1        # 25080 <holding+0x60>
    3e11:	mov    r8d,DWORD PTR [rip+0x21270]        # 25088 <holding+0x68>
    3e18:	test   r8d,r8d
    3e1b:	jne    3ced <ProcessHoldings+0x27d>
    3e21:	mov    eax,DWORD PTR [rip+0x29429d]        # 2980c4 <zobrist+0x904>
    3e27:	xor    DWORD PTR [rip+0x2137b],eax        # 251a8 <hold_hash>
    3e2d:	add    DWORD PTR [rip+0x211d0],0x1        # 25004 <num_holding+0x4>
    3e34:	mov    DWORD PTR [rip+0x2124a],0x1        # 25088 <holding+0x68>
    3e3e:	jmp    3ced <ProcessHoldings+0x27d>
    3e43:	mov    r10d,0x1
    3e49:	jmp    3ae1 <ProcessHoldings+0x71>
    3e4e:	xchg   ax,ax

0000000000003e50 <text_to_piece>:
    3e50:	endbr64 
    3e54:	sub    edi,0x42
    3e57:	cmp    dil,0x30
    3e5b:	ja     3e78 <text_to_piece+0x28>
    3e5d:	lea    rdx,[rip+0x162c0]        # 1a124 <rook_o.4424+0xd4>
    3e64:	movzx  edi,dil
    3e68:	movsxd rax,DWORD PTR [rdx+rdi*4]
    3e6c:	add    rax,rdx
    3e6f:	notrack jmp rax
    3e72:	nop    WORD PTR [rax+rax*1+0x0]
    3e78:	mov    eax,0xd
    3e7d:	ret    
    3e7e:	xchg   ax,ax
    3e80:	xor    eax,eax
    3e82:	test   esi,esi
    3e84:	setne  al
    3e87:	add    eax,0x7
    3e8a:	ret    
    3e8b:	nop    DWORD PTR [rax+rax*1+0x0]
    3e90:	xor    eax,eax
    3e92:	test   esi,esi
    3e94:	setne  al
    3e97:	add    eax,0xb
    3e9a:	ret    
    3e9b:	nop    DWORD PTR [rax+rax*1+0x0]
    3ea0:	xor    eax,eax
    3ea2:	test   esi,esi
    3ea4:	setne  al
    3ea7:	add    eax,0x3
    3eaa:	ret    
    3eab:	nop    DWORD PTR [rax+rax*1+0x0]
    3eb0:	xor    eax,eax
    3eb2:	test   esi,esi
    3eb4:	setne  al
    3eb7:	add    eax,0x1
    3eba:	ret    
    3ebb:	nop    DWORD PTR [rax+rax*1+0x0]
    3ec0:	xor    eax,eax
    3ec2:	test   esi,esi
    3ec4:	setne  al
    3ec7:	add    eax,0x9
    3eca:	ret    
    3ecb:	nop    DWORD PTR [rax+rax*1+0x0]

0000000000003ed0 <SwitchColor>:
    3ed0:	endbr64 
    3ed4:	sub    rsp,0x48
    3ed8:	movsxd rdi,edi
    3edb:	mov    rax,QWORD PTR fs:0x28
    3ee4:	mov    QWORD PTR [rsp+0x38],rax
    3ee9:	xor    eax,eax
    3eeb:	mov    DWORD PTR [rsp+0x30],0xb
    3ef3:	movabs rax,0x200000000
    3efd:	mov    QWORD PTR [rsp],rax
    3f01:	movabs rax,0x400000001
    3f0b:	mov    QWORD PTR [rsp+0x8],rax
    3f10:	movabs rax,0x800000000
    3f1a:	mov    QWORD PTR [rsp+0x18],rax
    3f1f:	movabs rax,0xa00000007
    3f29:	mov    QWORD PTR [rsp+0x20],rax
    3f2e:	movabs rax,0xc00000009
    3f38:	mov    QWORD PTR [rsp+0x10],0x3
    3f41:	mov    QWORD PTR [rsp+0x28],rax
    3f46:	mov    eax,DWORD PTR [rsp+rdi*4]
    3f49:	mov    rdx,QWORD PTR [rsp+0x38]
    3f4e:	xor    rdx,QWORD PTR fs:0x28
    3f57:	jne    3f5e <SwitchColor+0x8e>
    3f59:	add    rsp,0x48
    3f5d:	ret    
    3f5e:	call   1310 <__stack_chk_fail@plt>
    3f63:	data16 nop WORD PTR cs:[rax+rax*1+0x0]
    3f6e:	xchg   ax,ax

0000000000003f70 <SwitchPromoted>:
    3f70:	endbr64 
    3f74:	sub    rsp,0x48
    3f78:	movsxd rdi,edi
    3f7b:	movabs rdx,0x200000000
    3f85:	mov    rax,QWORD PTR fs:0x28
    3f8e:	mov    QWORD PTR [rsp+0x38],rax
    3f93:	xor    eax,eax
    3f95:	mov    QWORD PTR [rsp],rdx
    3f99:	movabs rax,0x200000001
    3fa3:	mov    QWORD PTR [rsp+0x8],rax
    3fa8:	mov    QWORD PTR [rsp+0x10],0x1
    3fb1:	mov    QWORD PTR [rsp+0x18],rdx
    3fb6:	mov    QWORD PTR [rsp+0x20],rax
    3fbb:	mov    QWORD PTR [rsp+0x28],rax
    3fc0:	mov    DWORD PTR [rsp+0x30],0x1
    3fc8:	mov    eax,DWORD PTR [rsp+rdi*4]
    3fcb:	mov    rcx,QWORD PTR [rsp+0x38]
    3fd0:	xor    rcx,QWORD PTR fs:0x28
    3fd9:	jne    3fe0 <SwitchPromoted+0x70>
    3fdb:	add    rsp,0x48
    3fdf:	ret    
    3fe0:	call   1310 <__stack_chk_fail@plt>
    3fe5:	data16 nop WORD PTR cs:[rax+rax*1+0x0]

0000000000003ff0 <addHolding>:
    3ff0:	endbr64 
    3ff4:	mov    eax,DWORD PTR [rip+0x2777c6]        # 27b7c0 <Variant>
    3ffa:	movsxd rdi,edi
    3ffd:	test   eax,eax
    3fff:	jne    4048 <addHolding+0x58>
    4001:	movsxd rcx,esi
    4004:	lea    r8,[rip+0x21015]        # 25020 <holding>
    400b:	mov    rdx,rcx
    400e:	shl    rdx,0x4
    4012:	add    rdx,rdi
    4015:	mov    eax,DWORD PTR [r8+rdx*4]
    4019:	add    eax,0x1
    401c:	mov    DWORD PTR [r8+rdx*4],eax
    4020:	lea    rdx,[rip+0x20fd9]        # 25000 <num_holding>
    4027:	cdqe   
    4029:	add    DWORD PTR [rdx+rcx*4],0x1
    402d:	lea    rdx,[rdi+rdi*8]
    4031:	shl    rdx,0x4
    4035:	add    rax,rdx
    4038:	lea    rdx,[rip+0x293781]        # 2977c0 <zobrist>
    403f:	mov    eax,DWORD PTR [rdx+rax*4]
    4042:	xor    DWORD PTR [rip+0x21160],eax        # 251a8 <hold_hash>
    4048:	lea    rax,[rip+0x20471]        # 244c0 <hand_value>
    404f:	mov    eax,DWORD PTR [rax+rdi*4]
    4052:	test   esi,esi
    4054:	jne    4070 <addHolding+0x80>
    4056:	add    DWORD PTR [rip+0x21150],eax        # 251ac <white_hand_eval>
    405c:	lea    rax,[rip+0x2051d]        # 24580 <material>
    4063:	mov    eax,DWORD PTR [rax+rdi*4]
    4066:	add    DWORD PTR [rip+0x30474],eax        # 344e0 <Material>
    406c:	ret    
    406d:	nop    DWORD PTR [rax]
    4070:	add    DWORD PTR [rip+0x2112a],eax        # 251a0 <black_hand_eval>
    4076:	jmp    405c <addHolding+0x6c>
    4078:	nop    DWORD PTR [rax+rax*1+0x0]

0000000000004080 <removeHolding>:
    4080:	endbr64 
    4084:	mov    eax,DWORD PTR [rip+0x277736]        # 27b7c0 <Variant>
    408a:	movsxd rdi,edi
    408d:	test   eax,eax
    408f:	jne    40db <removeHolding+0x5b>
    4091:	movsxd r8,esi
    4094:	lea    r9,[rip+0x20f85]        # 25020 <holding>
    409b:	lea    rax,[rdi+rdi*8]
    409f:	mov    rdx,r8
    40a2:	shl    rax,0x4
    40a6:	shl    rdx,0x4
    40aa:	add    rdx,rdi
    40ad:	movsxd r10,DWORD PTR [r9+rdx*4]
    40b1:	mov    rcx,r10
    40b4:	add    rax,r10
    40b7:	lea    r10,[rip+0x293702]        # 2977c0 <zobrist>
    40be:	mov    eax,DWORD PTR [r10+rax*4]
    40c2:	xor    DWORD PTR [rip+0x210e0],eax        # 251a8 <hold_hash>
    40c8:	sub    ecx,0x1
    40cb:	lea    rax,[rip+0x20f2e]        # 25000 <num_holding>
    40d2:	sub    DWORD PTR [rax+r8*4],0x1
    40d7:	mov    DWORD PTR [r9+rdx*4],ecx
    40db:	lea    rax,[rip+0x203de]        # 244c0 <hand_value>
    40e2:	mov    eax,DWORD PTR [rax+rdi*4]
    40e5:	test   esi,esi
    40e7:	jne    4100 <removeHolding+0x80>
    40e9:	sub    DWORD PTR [rip+0x210bd],eax        # 251ac <white_hand_eval>
    40ef:	lea    rax,[rip+0x2048a]        # 24580 <material>
    40f6:	mov    eax,DWORD PTR [rax+rdi*4]
    40f9:	sub    DWORD PTR [rip+0x303e1],eax        # 344e0 <Material>
    40ff:	ret    
    4100:	sub    DWORD PTR [rip+0x2109a],eax        # 251a0 <black_hand_eval>
    4106:	jmp    40ef <removeHolding+0x6f>
    4108:	nop    DWORD PTR [rax+rax*1+0x0]

0000000000004110 <DropaddHolding>:
    4110:	endbr64 
    4114:	movsxd rcx,esi
    4117:	movsxd rdi,edi
    411a:	lea    r8,[rip+0x20eff]        # 25020 <holding>
    4121:	mov    rdx,rcx
    4124:	shl    rdx,0x4
    4128:	add    rdx,rdi
    412b:	mov    eax,DWORD PTR [r8+rdx*4]
    412f:	add    eax,0x1
    4132:	mov    DWORD PTR [r8+rdx*4],eax
    4136:	lea    rdx,[rip+0x20ec3]        # 25000 <num_holding>
    413d:	cdqe   
    413f:	add    DWORD PTR [rdx+rcx*4],0x1
    4143:	lea    rdx,[rdi+rdi*8]
    4147:	shl    rdx,0x4
    414b:	add    rax,rdx
    414e:	lea    rdx,[rip+0x29366b]        # 2977c0 <zobrist>
    4155:	mov    eax,DWORD PTR [rdx+rax*4]
    4158:	xor    DWORD PTR [rip+0x2104a],eax        # 251a8 <hold_hash>
    415e:	lea    rax,[rip+0x2035b]        # 244c0 <hand_value>
    4165:	mov    eax,DWORD PTR [rax+rdi*4]
    4168:	test   esi,esi
    416a:	jne    4188 <DropaddHolding+0x78>
    416c:	add    DWORD PTR [rip+0x2103a],eax        # 251ac <white_hand_eval>
    4172:	lea    rax,[rip+0x20407]        # 24580 <material>
    4179:	mov    eax,DWORD PTR [rax+rdi*4]
    417c:	add    DWORD PTR [rip+0x3035e],eax        # 344e0 <Material>
    4182:	ret    
    4183:	nop    DWORD PTR [rax+rax*1+0x0]
    4188:	add    DWORD PTR [rip+0x21012],eax        # 251a0 <black_hand_eval>
    418e:	jmp    4172 <DropaddHolding+0x62>

0000000000004190 <DropremoveHolding>:
    4190:	endbr64 
    4194:	movsxd r8,esi
    4197:	movsxd rdi,edi
    419a:	lea    r9,[rip+0x20e7f]        # 25020 <holding>
    41a1:	mov    rdx,r8
    41a4:	lea    rax,[rdi+rdi*8]
    41a8:	shl    rdx,0x4
    41ac:	shl    rax,0x4
    41b0:	add    rdx,rdi
    41b3:	movsxd r10,DWORD PTR [r9+rdx*4]
    41b7:	mov    rcx,r10
    41ba:	add    rax,r10
    41bd:	lea    r10,[rip+0x2935fc]        # 2977c0 <zobrist>
    41c4:	mov    eax,DWORD PTR [r10+rax*4]
    41c8:	xor    DWORD PTR [rip+0x20fda],eax        # 251a8 <hold_hash>
    41ce:	sub    ecx,0x1
    41d1:	lea    rax,[rip+0x20e28]        # 25000 <num_holding>
    41d8:	sub    DWORD PTR [rax+r8*4],0x1
    41dd:	lea    rax,[rip+0x202dc]        # 244c0 <hand_value>
    41e4:	mov    DWORD PTR [r9+rdx*4],ecx
    41e8:	mov    eax,DWORD PTR [rax+rdi*4]
    41eb:	test   esi,esi
    41ed:	jne    4210 <DropremoveHolding+0x80>
    41ef:	sub    DWORD PTR [rip+0x20fb7],eax        # 251ac <white_hand_eval>
    41f5:	lea    rax,[rip+0x20384]        # 24580 <material>
    41fc:	mov    eax,DWORD PTR [rax+rdi*4]
    41ff:	sub    DWORD PTR [rip+0x302db],eax        # 344e0 <Material>
    4205:	ret    
    4206:	nop    WORD PTR cs:[rax+rax*1+0x0]
    4210:	sub    DWORD PTR [rip+0x20f8a],eax        # 251a0 <black_hand_eval>
    4216:	jmp    41f5 <DropremoveHolding+0x65>
    4218:	nop    DWORD PTR [rax+rax*1+0x0]

0000000000004220 <printHolding>:
    4220:	endbr64 
    4224:	sub    rsp,0x10
    4228:	mov    eax,DWORD PTR [rip+0x20e16]        # 25044 <holding+0x24>
    422e:	mov    ecx,DWORD PTR [rip+0x20e08]        # 2503c <holding+0x1c>
    4234:	lea    rsi,[rip+0x15fad]        # 1a1e8 <rook_o.4424+0x198>
    423b:	mov    r9d,DWORD PTR [rip+0x20dea]        # 2502c <holding+0xc>
    4242:	mov    edx,DWORD PTR [rip+0x20ddc]        # 25024 <holding+0x4>
    4248:	mov    edi,0x1
    424d:	push   rax
    424e:	mov    r8d,DWORD PTR [rip+0x20df7]        # 2504c <holding+0x2c>
    4255:	xor    eax,eax
    4257:	call   1420 <__printf_chk@plt>
    425c:	mov    eax,DWORD PTR [rip+0x20e26]        # 25088 <holding+0x68>
    4262:	mov    edi,0x1
    4267:	mov    r9d,DWORD PTR [rip+0x20e02]        # 25070 <holding+0x50>
    426e:	mov    r8d,DWORD PTR [rip+0x20e1b]        # 25090 <holding+0x70>
    4275:	mov    ecx,DWORD PTR [rip+0x20e05]        # 25080 <holding+0x60>
    427b:	lea    rsi,[rip+0x15f8e]        # 1a210 <rook_o.4424+0x1c0>
    4282:	mov    edx,DWORD PTR [rip+0x20de0]        # 25068 <holding+0x48>
    4288:	mov    DWORD PTR [rsp],eax
    428b:	xor    eax,eax
    428d:	call   1420 <__printf_chk@plt>
    4292:	add    rsp,0x18
    4296:	ret    
    4297:	nop    WORD PTR [rax+rax*1+0x0]

00000000000042a0 <is_draw>:
    42a0:	endbr64 
    42a4:	mov    r11d,DWORD PTR [rip+0x279859]        # 27db04 <fifty>
    42ab:	xor    eax,eax
    42ad:	cmp    r11d,0x3
    42b1:	jle    4323 <is_draw+0x83>
    42b3:	mov    ecx,DWORD PTR [rip+0x653e7]        # 696a0 <move_number>
    42b9:	mov    r9d,DWORD PTR [rip+0x2934a0]        # 297760 <ply>
    42c0:	lea    r8d,[rcx+r9*1]
    42c4:	lea    edi,[r8-0x1]
    42c8:	lea    r10d,[r8-0x3]
    42cc:	sub    edi,r11d
    42cf:	test   ecx,ecx
    42d1:	cmovns eax,ecx
    42d4:	cmp    eax,edi
    42d6:	cmovl  eax,edi
    42d9:	mov    edx,eax
    42db:	cmp    r10d,eax
    42de:	jl     4328 <is_draw+0x88>
    42e0:	sub    r10,rdx
    42e3:	movsxd r8,r8d
    42e6:	lea    rax,[rip+0x276b53]        # 27ae40 <hash_history>
    42ed:	mov    esi,DWORD PTR [rip+0x293491]        # 297784 <hash>
    42f3:	and    r10d,0xfffffffe
    42f7:	lea    rax,[rax+r8*4]
    42fb:	lea    rdx,[rip+0x276b36]        # 27ae38 <pv+0x20f578>
    4302:	sub    r8,r10
    4305:	lea    rdx,[rdx+r8*4]
    4309:	jmp    4319 <is_draw+0x79>
    430b:	nop    DWORD PTR [rax+rax*1+0x0]
    4310:	sub    rax,0x8
    4314:	cmp    rax,rdx
    4317:	je     4328 <is_draw+0x88>
    4319:	cmp    DWORD PTR [rax-0xc],esi
    431c:	jne    4310 <is_draw+0x70>
    431e:	mov    eax,0x1
    4323:	ret    
    4324:	nop    DWORD PTR [rax+0x0]
    4328:	cmp    r11d,0x5
    432c:	jle    43a0 <is_draw+0x100>
    432e:	mov    eax,r9d
    4331:	sub    ecx,0x1
    4334:	shr    eax,0x1f
    4337:	add    r9d,eax
    433a:	and    r9d,0x1
    433e:	sub    r9d,eax
    4341:	mov    eax,0x0
    4346:	sub    ecx,r9d
    4349:	test   edi,edi
    434b:	cmovs  edi,eax
    434e:	cmp    ecx,edi
    4350:	jl     43a0 <is_draw+0x100>
    4352:	movsxd rsi,ecx
    4355:	sub    rcx,rdi
    4358:	lea    rax,[rip+0x276ae1]        # 27ae40 <hash_history>
    435f:	mov    edx,DWORD PTR [rip+0x29341f]        # 297784 <hash>
    4365:	and    ecx,0xfffffffe
    4368:	lea    rax,[rax+rsi*4]
    436c:	sub    rsi,rcx
    436f:	lea    rcx,[rip+0x276ac2]        # 27ae38 <pv+0x20f578>
    4376:	lea    rcx,[rcx+rsi*4]
    437a:	xor    esi,esi
    437c:	jmp    4389 <is_draw+0xe9>
    437e:	xchg   ax,ax
    4380:	sub    rax,0x8
    4384:	cmp    rax,rcx
    4387:	je     43a0 <is_draw+0x100>
    4389:	cmp    DWORD PTR [rax],edx
    438b:	jne    4380 <is_draw+0xe0>
    438d:	cmp    esi,0x1
    4390:	je     431e <is_draw+0x7e>
    4392:	sub    rax,0x8
    4396:	mov    esi,0x1
    439b:	cmp    rax,rcx
    439e:	jne    4389 <is_draw+0xe9>
    43a0:	xor    eax,eax
    43a2:	ret    
    43a3:	nop    WORD PTR cs:[rax+rax*1+0x0]
    43ad:	nop    DWORD PTR [rax]

00000000000043b0 <storeECache>:
    43b0:	endbr64 
    43b4:	mov    ecx,DWORD PTR [rip+0x2933ca]        # 297784 <hash>
    43ba:	xor    edx,edx
    43bc:	mov    eax,ecx
    43be:	div    DWORD PTR [rip+0x63110]        # 674d4 <ECacheSize>
    43c4:	mov    rax,QWORD PTR [rip+0x20df5]        # 251c0 <ECache>
    43cb:	movsxd rdx,edx
    43ce:	lea    rdx,[rdx+rdx*2]
    43d2:	lea    rax,[rax+rdx*4]
    43d6:	mov    edx,DWORD PTR [rip+0x20dcc]        # 251a8 <hold_hash>
    43dc:	mov    DWORD PTR [rax],ecx
    43de:	mov    DWORD PTR [rax+0x4],edx
    43e1:	mov    DWORD PTR [rax+0x8],edi
    43e4:	ret    
    43e5:	data16 nop WORD PTR cs:[rax+rax*1+0x0]

00000000000043f0 <checkECache>:
    43f0:	endbr64 
    43f4:	mov    ecx,DWORD PTR [rip+0x29338a]        # 297784 <hash>
    43fa:	xor    edx,edx
    43fc:	add    DWORD PTR [rip+0x20dc5],0x1        # 251c8 <ECacheProbes>
    4403:	mov    eax,ecx
    4405:	div    DWORD PTR [rip+0x630c9]        # 674d4 <ECacheSize>
    440b:	mov    rax,QWORD PTR [rip+0x20dae]        # 251c0 <ECache>
    4412:	movsxd rdx,edx
    4415:	lea    rdx,[rdx+rdx*2]
    4419:	lea    rax,[rax+rdx*4]
    441d:	cmp    ecx,DWORD PTR [rax]
    441f:	je     4428 <checkECache+0x38>
    4421:	ret    
    4422:	nop    WORD PTR [rax+rax*1+0x0]
    4428:	mov    ecx,DWORD PTR [rip+0x20d7a]        # 251a8 <hold_hash>
    442e:	cmp    DWORD PTR [rax+0x4],ecx
    4431:	jne    4421 <checkECache+0x31>
    4433:	add    DWORD PTR [rip+0x20d7e],0x1        # 251b8 <ECacheHits>
    443a:	mov    DWORD PTR [rsi],0x1
    4440:	mov    eax,DWORD PTR [rax+0x8]
    4443:	mov    DWORD PTR [rdi],eax
    4445:	ret    
    4446:	nop    WORD PTR cs:[rax+rax*1+0x0]

0000000000004450 <reset_ecache>:
    4450:	endbr64 
    4454:	movsxd rax,DWORD PTR [rip+0x63079]        # 674d4 <ECacheSize>
    445b:	mov    rdi,QWORD PTR [rip+0x20d5e]        # 251c0 <ECache>
    4462:	xor    esi,esi
    4464:	lea    rdx,[rax+rax*2]
    4468:	shl    rdx,0x2
    446c:	jmp    1360 <memset@plt>
    4471:	data16 nop WORD PTR cs:[rax+rax*1+0x0]
    447c:	nop    DWORD PTR [rax+0x0]

0000000000004480 <alloc_ecache>:
    4480:	endbr64 
    4484:	sub    rsp,0x8
    4488:	movsxd rax,DWORD PTR [rip+0x63045]        # 674d4 <ECacheSize>
    448f:	lea    rdi,[rax+rax*2]
    4493:	shl    rdi,0x2
    4497:	call   13f0 <malloc@plt>
    449c:	mov    QWORD PTR [rip+0x20d1d],rax        # 251c0 <ECache>
    44a3:	test   rax,rax
    44a6:	je     44ad <alloc_ecache+0x2d>
    44a8:	add    rsp,0x8
    44ac:	ret    
    44ad:	lea    rdi,[rip+0x15d84]        # 1a238 <rook_o.4424+0x1e8>
    44b4:	call   12d0 <puts@plt>
    44b9:	mov    edi,0x1
    44be:	call   1440 <exit@plt>
    44c3:	data16 nop WORD PTR cs:[rax+rax*1+0x0]
    44ce:	xchg   ax,ax

00000000000044d0 <free_ecache>:
    44d0:	endbr64 
    44d4:	mov    rdi,QWORD PTR [rip+0x20ce5]        # 251c0 <ECache>
    44db:	jmp    1290 <free@plt>

00000000000044e0 <setup_epd_line>:
    44e0:	endbr64 
    44e4:	push   r15
    44e6:	lea    rcx,[rip+0x2793d3]        # 27d8c0 <board>
    44ed:	xor    eax,eax
    44ef:	push   r14
    44f1:	push   r13
    44f3:	mov    r13,rdi
    44f6:	lea    rdi,[rip+0x2793cb]        # 27d8c8 <board+0x8>
    44fd:	and    rdi,0xfffffffffffffff8
    4501:	push   r12
    4503:	sub    rcx,rdi
    4506:	push   rbp
    4507:	push   rbx
    4508:	add    ecx,0x240
    450e:	shr    ecx,0x3
    4511:	sub    rsp,0x28
    4515:	mov    QWORD PTR [rip+0x2793a0],0x0        # 27d8c0 <board>
    4520:	mov    QWORD PTR [rip+0x2795cd],0x0        # 27daf8 <board+0x238>
    452b:	rep stos QWORD PTR es:[rdi],rax
    452e:	mov    DWORD PTR [rip+0x64c88],0x0        # 691c0 <white_castled>
    4538:	mov    DWORD PTR [rip+0x64c82],0x0        # 691c4 <black_castled>
    4542:	mov    DWORD PTR [rip+0x27738c],0x32        # 27b8d8 <book_ply>
    454c:	movzx  r15d,BYTE PTR [r13+0x0]
    4551:	cmp    r15b,0x20
    4555:	jne    4af0 <setup_epd_line+0x610>
    455b:	mov    edx,r13d
    455e:	lea    rax,[r13+0x1]
    4562:	neg    edx
    4564:	nop    DWORD PTR [rax+0x0]
    4568:	lea    ecx,[rdx+rax*1]
    456b:	mov    r14,rax
    456e:	movzx  r15d,BYTE PTR [rax]
    4572:	add    rax,0x1
    4576:	cmp    r15b,0x20
    457a:	je     4568 <setup_epd_line+0x88>
    457c:	cmp    r15b,0xa
    4580:	je     4692 <setup_epd_line+0x1b2>
    4586:	test   r15b,r15b
    4589:	je     4692 <setup_epd_line+0x1b2>
    458f:	mov    DWORD PTR [rsp+0x4],0x0
    4597:	lea    r12,[rip+0x15cc2]        # 1a260 <rook_o.4424+0x210>
    459e:	mov    DWORD PTR [rsp+0x14],0x0
    45a6:	mov    DWORD PTR [rsp+0x18],0x6e
    45ae:	mov    DWORD PTR [rsp+0x1c],0x0
    45b6:	jmp    45e7 <setup_epd_line+0x107>
    45b8:	nop    DWORD PTR [rax+rax*1+0x0]
    45c0:	cmp    r15b,0x20
    45c4:	je     46f8 <setup_epd_line+0x218>
    45ca:	movzx  r15d,BYTE PTR [rbp+0x0]
    45cf:	cmp    r15b,0xa
    45d3:	je     4692 <setup_epd_line+0x1b2>
    45d9:	test   r15b,r15b
    45dc:	je     4692 <setup_epd_line+0x1b2>
    45e2:	mov    ecx,ebx
    45e4:	mov    r14,rbp
    45e7:	lea    eax,[rcx+0x1]
    45ea:	mov    esi,DWORD PTR [rsp+0x4]
    45ee:	movsxd rdx,eax
    45f1:	mov    rbx,rdx
    45f4:	lea    rbp,[r13+rdx*1+0x0]
    45f9:	test   esi,esi
    45fb:	jne    45c0 <setup_epd_line+0xe0>
    45fd:	mov    DWORD PTR [rsp+0x10],ecx
    4601:	mov    QWORD PTR [rsp+0x8],rdx
    4606:	call   14a0 <__ctype_b_loc@plt>
    460b:	mov    rdx,QWORD PTR [rsp+0x8]
    4610:	movsxd rcx,DWORD PTR [rsp+0x10]
    4615:	mov    r8,rax
    4618:	movsx  rax,r15b
    461c:	mov    rsi,QWORD PTR [r8]
    461f:	movzx  eax,WORD PTR [rsi+rax*2]
    4623:	test   ah,0x8
    4626:	jne    47a0 <setup_epd_line+0x2c0>
    462c:	cmp    r15b,0x2f
    4630:	je     4770 <setup_epd_line+0x290>
    4636:	test   ah,0x4
    4639:	jne    46b0 <setup_epd_line+0x1d0>
    463b:	cmp    r15b,0x20
    463f:	jne    45ca <setup_epd_line+0xea>
    4641:	movzx  eax,BYTE PTR [r13+rcx*1+0x0]
    4647:	cmp    al,0x20
    4649:	jne    4669 <setup_epd_line+0x189>
    464b:	nop    DWORD PTR [rax+rax*1+0x0]
    4650:	mov    ebx,edx
    4652:	add    rdx,0x1
    4656:	movzx  eax,BYTE PTR [r13+rdx*1-0x1]
    465c:	cmp    al,0x20
    465e:	je     4650 <setup_epd_line+0x170>
    4660:	add    ebx,0x1
    4663:	movsxd rbp,ebx
    4666:	add    rbp,r13
    4669:	cmp    al,0x77
    466b:	je     49bb <setup_epd_line+0x4db>
    4671:	mov    DWORD PTR [rip+0x278ea5],0x0        # 27d520 <white_to_move>
    467b:	movzx  r15d,BYTE PTR [rbp+0x0]
    4680:	mov    DWORD PTR [rsp+0x4],0x1
    4688:	cmp    r15b,0xa
    468c:	jne    45d9 <setup_epd_line+0xf9>
    4692:	call   18860 <reset_piece_square>
    4697:	add    rsp,0x28
    469b:	pop    rbx
    469c:	pop    rbp
    469d:	pop    r12
    469f:	pop    r13
    46a1:	pop    r14
    46a3:	pop    r15
    46a5:	jmp    16780 <initialize_hash>
    46aa:	nop    WORD PTR [rax+rax*1+0x0]
    46b0:	sub    r15d,0x42
    46b4:	cmp    r15b,0x30
    46b8:	ja     46e6 <setup_epd_line+0x206>
    46ba:	movzx  r15d,r15b
    46be:	movsxd rax,DWORD PTR [r12+r15*4]
    46c2:	add    rax,r12
    46c5:	notrack jmp rax
    46c8:	mov    eax,DWORD PTR [rsp+0x18]
    46cc:	add    eax,DWORD PTR [rsp+0x14]
    46d0:	lea    rsi,[rip+0x2791e9]        # 27d8c0 <board>
    46d7:	mov    DWORD PTR [rip+0x2798ff],eax        # 27dfdc <wking_loc>
    46dd:	cdqe   
    46df:	mov    DWORD PTR [rsi+rax*4],0x5
    46e6:	add    DWORD PTR [rsp+0x14],0x1
    46eb:	movzx  r15d,BYTE PTR [rbp+0x0]
    46f0:	jmp    45cf <setup_epd_line+0xef>
    46f5:	nop    DWORD PTR [rax]
    46f8:	add    DWORD PTR [rsp+0x4],0x1
    46fd:	mov    esi,DWORD PTR [rsp+0x4]
    4701:	cmp    esi,0x2
    4704:	je     49e0 <setup_epd_line+0x500>
    470a:	cmp    DWORD PTR [rsp+0x4],0x3
    470f:	jne    45ca <setup_epd_line+0xea>
    4715:	movsxd rax,ecx
    4718:	movsx  eax,BYTE PTR [r13+rax*1+0x0]
    471e:	cmp    al,0x20
    4720:	jne    4741 <setup_epd_line+0x261>
    4722:	nop    WORD PTR [rax+rax*1+0x0]
    4728:	mov    ecx,edx
    472a:	add    rdx,0x1
    472e:	movsx  eax,BYTE PTR [r13+rdx*1-0x1]
    4734:	cmp    al,0x20
    4736:	je     4728 <setup_epd_line+0x248>
    4738:	lea    ebx,[rcx+0x1]
    473b:	movsxd rbp,ebx
    473e:	add    rbp,r13
    4741:	cmp    al,0x2d
    4743:	je     4afa <setup_epd_line+0x61a>
    4749:	movsx  edx,BYTE PTR [rbp+0x0]
    474d:	lea    ebx,[rcx+0x3]
    4750:	movsxd rbp,ebx
    4753:	lea    edx,[rdx+rdx*2-0x93]
    475a:	add    rbp,r13
    475d:	lea    eax,[rax+rdx*4-0x47]
    4761:	mov    DWORD PTR [rip+0x28ef79],eax        # 2936e0 <ep_square>
    4767:	jmp    45ca <setup_epd_line+0xea>
    476c:	nop    DWORD PTR [rax+0x0]
    4770:	add    DWORD PTR [rsp+0x1c],0x1
    4775:	movsxd rax,DWORD PTR [rsp+0x1c]
    477a:	lea    rsi,[rip+0x15bbf]        # 1a340 <rankoffsets.4429>
    4781:	mov    DWORD PTR [rsp+0x14],0x0
    4789:	movzx  r15d,BYTE PTR [rbp+0x0]
    478e:	mov    eax,DWORD PTR [rsi+rax*4]
    4791:	mov    DWORD PTR [rsp+0x18],eax
    4795:	jmp    45cf <setup_epd_line+0xef>
    479a:	nop    WORD PTR [rax+rax*1+0x0]
    47a0:	mov    eax,DWORD PTR [rsp+0x14]
    47a4:	add    eax,DWORD PTR [rsp+0x18]
    47a8:	xor    r15d,r15d
    47ab:	mov    DWORD PTR [rsp+0x8],ebx
    47af:	cdqe   
    47b1:	lea    rsi,[rip+0x279108]        # 27d8c0 <board>
    47b8:	mov    rbx,r15
    47bb:	lea    rax,[rsi+rax*4]
    47bf:	mov    r15,rax
    47c2:	jmp    47d4 <setup_epd_line+0x2f4>
    47c4:	nop    DWORD PTR [rax+0x0]
    47c8:	mov    DWORD PTR [r15+rbx*4],0xd
    47d0:	add    rbx,0x1
    47d4:	xor    esi,esi
    47d6:	mov    edx,0xa
    47db:	mov    rdi,r14
    47de:	call   13d0 <strtol@plt>
    47e3:	cmp    eax,ebx
    47e5:	jg     47c8 <setup_epd_line+0x2e8>
    47e7:	mov    edx,0xa
    47ec:	xor    esi,esi
    47ee:	mov    rdi,r14
    47f1:	mov    ebx,DWORD PTR [rsp+0x8]
    47f5:	call   13d0 <strtol@plt>
    47fa:	add    DWORD PTR [rsp+0x14],eax
    47fe:	movzx  r15d,BYTE PTR [rbp+0x0]
    4803:	jmp    45cf <setup_epd_line+0xef>
    4808:	mov    eax,DWORD PTR [rsp+0x18]
    480c:	add    eax,DWORD PTR [rsp+0x14]
    4810:	lea    rsi,[rip+0x2790a9]        # 27d8c0 <board>
    4817:	cdqe   
    4819:	add    DWORD PTR [rsp+0x14],0x1
    481e:	mov    DWORD PTR [rsi+rax*4],0x8
    4825:	movzx  r15d,BYTE PTR [rbp+0x0]
    482a:	jmp    45cf <setup_epd_line+0xef>
    482f:	mov    eax,DWORD PTR [rsp+0x18]
    4833:	add    eax,DWORD PTR [rsp+0x14]
    4837:	lea    rsi,[rip+0x279082]        # 27d8c0 <board>
    483e:	cdqe   
    4840:	add    DWORD PTR [rsp+0x14],0x1
    4845:	mov    DWORD PTR [rsi+rax*4],0xb
    484c:	movzx  r15d,BYTE PTR [rbp+0x0]
    4851:	jmp    45cf <setup_epd_line+0xef>
    4856:	mov    eax,DWORD PTR [rsp+0x18]
    485a:	add    eax,DWORD PTR [rsp+0x14]
    485e:	lea    rsi,[rip+0x27905b]        # 27d8c0 <board>
    4865:	cdqe   
    4867:	add    DWORD PTR [rsp+0x14],0x1
    486c:	mov    DWORD PTR [rsi+rax*4],0x3
    4873:	movzx  r15d,BYTE PTR [rbp+0x0]
    4878:	jmp    45cf <setup_epd_line+0xef>
    487d:	mov    eax,DWORD PTR [rsp+0x18]
    4881:	add    eax,DWORD PTR [rsp+0x14]
    4885:	lea    rsi,[rip+0x279034]        # 27d8c0 <board>
    488c:	cdqe   
    488e:	add    DWORD PTR [rsp+0x14],0x1
    4893:	mov    DWORD PTR [rsi+rax*4],0x1
    489a:	movzx  r15d,BYTE PTR [rbp+0x0]
    489f:	jmp    45cf <setup_epd_line+0xef>
    48a4:	mov    eax,DWORD PTR [rsp+0x18]
    48a8:	add    eax,DWORD PTR [rsp+0x14]
    48ac:	lea    rsi,[rip+0x27900d]        # 27d8c0 <board>
    48b3:	cdqe   
    48b5:	add    DWORD PTR [rsp+0x14],0x1
    48ba:	mov    DWORD PTR [rsi+rax*4],0x9
    48c1:	movzx  r15d,BYTE PTR [rbp+0x0]
    48c6:	jmp    45cf <setup_epd_line+0xef>
    48cb:	mov    eax,DWORD PTR [rsp+0x18]
    48cf:	add    eax,DWORD PTR [rsp+0x14]
    48d3:	lea    rsi,[rip+0x278fe6]        # 27d8c0 <board>
    48da:	cdqe   
    48dc:	add    DWORD PTR [rsp+0x14],0x1
    48e1:	mov    DWORD PTR [rsi+rax*4],0x7
    48e8:	movzx  r15d,BYTE PTR [rbp+0x0]
    48ed:	jmp    45cf <setup_epd_line+0xef>
    48f2:	mov    eax,DWORD PTR [rsp+0x18]
    48f6:	add    eax,DWORD PTR [rsp+0x14]
    48fa:	lea    rsi,[rip+0x278fbf]        # 27d8c0 <board>
    4901:	cdqe   
    4903:	add    DWORD PTR [rsp+0x14],0x1
    4908:	mov    DWORD PTR [rsi+rax*4],0xc
    490f:	movzx  r15d,BYTE PTR [rbp+0x0]
    4914:	jmp    45cf <setup_epd_line+0xef>
    4919:	mov    eax,DWORD PTR [rsp+0x18]
    491d:	add    eax,DWORD PTR [rsp+0x14]
    4921:	lea    rsi,[rip+0x278f98]        # 27d8c0 <board>
    4928:	mov    DWORD PTR [rip+0x278bf6],eax        # 27d524 <bking_loc>
    492e:	cdqe   
    4930:	add    DWORD PTR [rsp+0x14],0x1
    4935:	mov    DWORD PTR [rsi+rax*4],0x6
    493c:	movzx  r15d,BYTE PTR [rbp+0x0]
    4941:	jmp    45cf <setup_epd_line+0xef>
    4946:	mov    eax,DWORD PTR [rsp+0x18]
    494a:	add    eax,DWORD PTR [rsp+0x14]
    494e:	lea    rsi,[rip+0x278f6b]        # 27d8c0 <board>
    4955:	cdqe   
    4957:	add    DWORD PTR [rsp+0x14],0x1
    495c:	mov    DWORD PTR [rsi+rax*4],0x4
    4963:	movzx  r15d,BYTE PTR [rbp+0x0]
    4968:	jmp    45cf <setup_epd_line+0xef>
    496d:	mov    eax,DWORD PTR [rsp+0x18]
    4971:	add    eax,DWORD PTR [rsp+0x14]
    4975:	lea    rdi,[rip+0x278f44]        # 27d8c0 <board>
    497c:	cdqe   
    497e:	add    DWORD PTR [rsp+0x14],0x1
    4983:	mov    DWORD PTR [rdi+rax*4],0x2
    498a:	movzx  r15d,BYTE PTR [rbp+0x0]
    498f:	jmp    45cf <setup_epd_line+0xef>
    4994:	mov    eax,DWORD PTR [rsp+0x18]
    4998:	add    eax,DWORD PTR [rsp+0x14]
    499c:	lea    rsi,[rip+0x278f1d]        # 27d8c0 <board>
    49a3:	cdqe   
    49a5:	add    DWORD PTR [rsp+0x14],0x1
    49aa:	mov    DWORD PTR [rsi+rax*4],0xa
    49b1:	movzx  r15d,BYTE PTR [rbp+0x0]
    49b6:	jmp    45cf <setup_epd_line+0xef>
    49bb:	mov    DWORD PTR [rip+0x278b5b],0x1        # 27d520 <white_to_move>
    49c5:	movzx  r15d,BYTE PTR [rbp+0x0]
    49ca:	mov    DWORD PTR [rsp+0x4],0x1
    49d2:	jmp    45cf <setup_epd_line+0xef>
    49d7:	nop    WORD PTR [rax+rax*1+0x0]
    49e0:	mov    DWORD PTR [rip+0x28f24e],0x1        # 293c38 <moved+0x78>
    49ea:	movsxd rcx,ecx
    49ed:	mov    DWORD PTR [rip+0x28f24d],0x1        # 293c44 <moved+0x84>
    49f7:	mov    DWORD PTR [rip+0x28f227],0x1        # 293c28 <moved+0x68>
    4a01:	mov    DWORD PTR [rip+0x28f389],0x1        # 293d94 <moved+0x1d4>
    4a0b:	mov    DWORD PTR [rip+0x28f373],0x1        # 293d88 <moved+0x1c8>
    4a15:	mov    DWORD PTR [rip+0x28f359],0x1        # 293d78 <moved+0x1b8>
    4a1f:	movzx  r15d,BYTE PTR [r13+rcx*1+0x0]
    4a25:	cmp    r15b,0x20
    4a29:	jne    4a46 <setup_epd_line+0x566>
    4a2b:	nop    DWORD PTR [rax+rax*1+0x0]
    4a30:	movsxd rcx,edx
    4a33:	add    rdx,0x1
    4a37:	movzx  r15d,BYTE PTR [r13+rdx*1-0x1]
    4a3d:	cmp    r15b,0x20
    4a41:	je     4a30 <setup_epd_line+0x550>
    4a43:	lea    eax,[rcx+0x1]
    4a46:	lea    rdx,[r13+rcx*1+0x1]
    4a4b:	sub    eax,edx
    4a4d:	jmp    4a88 <setup_epd_line+0x5a8>
    4a4f:	nop
    4a50:	cmp    r15b,0x51
    4a54:	jne    4a70 <setup_epd_line+0x590>
    4a56:	mov    DWORD PTR [rip+0x28f1c8],0x0        # 293c28 <moved+0x68>
    4a60:	mov    DWORD PTR [rip+0x28f1ce],0x0        # 293c38 <moved+0x78>
    4a6a:	nop    WORD PTR [rax+rax*1+0x0]
    4a70:	lea    ebx,[rax+rdx*1]
    4a73:	mov    rbp,rdx
    4a76:	movzx  r15d,BYTE PTR [rdx]
    4a7a:	add    rdx,0x1
    4a7e:	cmp    r15b,0x20
    4a82:	je     45e2 <setup_epd_line+0x102>
    4a88:	cmp    r15b,0x6b
    4a8c:	je     4ad0 <setup_epd_line+0x5f0>
    4a8e:	jg     4ab0 <setup_epd_line+0x5d0>
    4a90:	cmp    r15b,0x4b
    4a94:	jne    4a50 <setup_epd_line+0x570>
    4a96:	mov    DWORD PTR [rip+0x28f1a4],0x0        # 293c44 <moved+0x84>
    4aa0:	mov    DWORD PTR [rip+0x28f18e],0x0        # 293c38 <moved+0x78>
    4aaa:	jmp    4a70 <setup_epd_line+0x590>
    4aac:	nop    DWORD PTR [rax+0x0]
    4ab0:	cmp    r15b,0x71
    4ab4:	jne    4a70 <setup_epd_line+0x590>
    4ab6:	mov    DWORD PTR [rip+0x28f2b8],0x0        # 293d78 <moved+0x1b8>
    4ac0:	mov    DWORD PTR [rip+0x28f2be],0x0        # 293d88 <moved+0x1c8>
    4aca:	jmp    4a70 <setup_epd_line+0x590>
    4acc:	nop    DWORD PTR [rax+0x0]
    4ad0:	mov    DWORD PTR [rip+0x28f2ba],0x0        # 293d94 <moved+0x1d4>
    4ada:	mov    DWORD PTR [rip+0x28f2a4],0x0        # 293d88 <moved+0x1c8>
    4ae4:	jmp    4a70 <setup_epd_line+0x590>
    4ae6:	nop    WORD PTR cs:[rax+rax*1+0x0]
    4af0:	mov    r14,r13
    4af3:	xor    ecx,ecx
    4af5:	jmp    457c <setup_epd_line+0x9c>
    4afa:	mov    DWORD PTR [rip+0x28ebdc],0x0        # 2936e0 <ep_square>
    4b04:	movzx  r15d,BYTE PTR [rbp+0x0]
    4b09:	jmp    45cf <setup_epd_line+0xef>
    4b0e:	xchg   ax,ax

0000000000004b10 <check_solution>:
    4b10:	endbr64 
    4b14:	push   r12
    4b16:	push   rbp
    4b17:	mov    rbp,rdi
    4b1a:	sub    rsp,0x118
    4b21:	mov    rax,QWORD PTR fs:0x28
    4b2a:	mov    QWORD PTR [rsp+0x108],rax
    4b32:	xor    eax,eax
    4b34:	mov    r12,rsp
    4b37:	sub    rsp,0x8
    4b3b:	push   QWORD PTR [rsp+0x148]
    4b42:	mov    rdi,r12
    4b45:	push   QWORD PTR [rsp+0x148]
    4b4c:	push   QWORD PTR [rsp+0x148]
    4b53:	call   170f0 <comp_to_san>
    4b58:	add    rsp,0x20
    4b5c:	lea    rsi,[rip+0x157fd]        # 1a360 <rankoffsets.4429+0x20>
    4b63:	mov    rdi,rbp
    4b66:	call   1480 <strstr@plt>
    4b6b:	test   rax,rax
    4b6e:	je     4ba8 <check_solution+0x98>
    4b70:	mov    rsi,r12
    4b73:	mov    rdi,rbp
    4b76:	call   1480 <strstr@plt>
    4b7b:	test   rax,rax
    4b7e:	setne  al
    4b81:	movzx  eax,al
    4b84:	mov    rdx,QWORD PTR [rsp+0x108]
    4b8c:	xor    rdx,QWORD PTR fs:0x28
    4b95:	jne    4bef <check_solution+0xdf>
    4b97:	add    rsp,0x118
    4b9e:	pop    rbp
    4b9f:	pop    r12
    4ba1:	ret    
    4ba2:	nop    WORD PTR [rax+rax*1+0x0]
    4ba8:	lea    rsi,[rip+0x1a546]        # 1f0f5 <scentral+0x315>
    4baf:	mov    rdi,rbp
    4bb2:	call   1480 <strstr@plt>
    4bb7:	test   rax,rax
    4bba:	je     4bd8 <check_solution+0xc8>
    4bbc:	mov    rsi,r12
    4bbf:	mov    rdi,rbp
    4bc2:	call   1480 <strstr@plt>
    4bc7:	test   rax,rax
    4bca:	sete   al
    4bcd:	movzx  eax,al
    4bd0:	jmp    4b84 <check_solution+0x74>
    4bd2:	nop    WORD PTR [rax+rax*1+0x0]
    4bd8:	lea    rsi,[rip+0x15839]        # 1a418 <rankoffsets.4429+0xd8>
    4bdf:	mov    edi,0x1
    4be4:	xor    eax,eax
    4be6:	call   1420 <__printf_chk@plt>
    4beb:	xor    eax,eax
    4bed:	jmp    4b84 <check_solution+0x74>
    4bef:	call   1310 <__stack_chk_fail@plt>
    4bf4:	data16 nop WORD PTR cs:[rax+rax*1+0x0]
    4bff:	nop

0000000000004c00 <run_epd_testsuite>:
    4c00:	endbr64 
    4c04:	push   r15
    4c06:	push   r14
    4c08:	push   r13
    4c0a:	push   r12
    4c0c:	push   rbp
    4c0d:	push   rbx
    4c0e:	sub    rsp,0x1000
    4c15:	or     QWORD PTR [rsp],0x0
    4c1a:	sub    rsp,0xfe8
    4c21:	lea    rsi,[rip+0x1573b]        # 1a363 <rankoffsets.4429+0x23>
    4c28:	mov    edi,0x1
    4c2d:	xor    ebx,ebx
    4c2f:	mov    rax,QWORD PTR fs:0x28
    4c38:	mov    QWORD PTR [rsp+0x1fd8],rax
    4c40:	xor    eax,eax
    4c42:	lea    rbp,[rsp+0x30]
    4c47:	lea    r15,[rsp+0x10]
    4c4c:	lea    r12,[rsp+0xfd0]
    4c54:	call   1420 <__printf_chk@plt>
    4c59:	mov    rdx,QWORD PTR [rip+0x1f8f0]        # 24550 <stdin@@GLIBC_2.2.5>
    4c60:	mov    rdi,r12
    4c63:	mov    esi,0x100
    4c68:	call   18c30 <rinput>
    4c6d:	lea    rsi,[rip+0x15708]        # 1a37c <rankoffsets.4429+0x3c>
    4c74:	mov    edi,0x1
    4c79:	xor    eax,eax
    4c7b:	call   1420 <__printf_chk@plt>
    4c80:	mov    rdx,QWORD PTR [rip+0x1f8c9]        # 24550 <stdin@@GLIBC_2.2.5>
    4c87:	mov    esi,0x100
    4c8c:	mov    rdi,rbp
    4c8f:	call   18c30 <rinput>
    4c94:	mov    edx,0xa
    4c99:	xor    esi,esi
    4c9b:	mov    rdi,rbp
    4c9e:	call   13d0 <strtol@plt>
    4ca3:	mov    edi,0xa
    4ca8:	mov    r13,rax
    4cab:	call   12a0 <putchar@plt>
    4cb0:	imul   eax,r13d,0x64
    4cb4:	mov    rdi,r12
    4cb7:	lea    rsi,[rip+0x19b07]        # 1e7c5 <sbishop+0x9a5>
    4cbe:	xor    r12d,r12d
    4cc1:	mov    DWORD PTR [rsp+0x4],eax
    4cc5:	call   1430 <fopen@plt>
    4cca:	mov    r14,rax
    4ccd:	lea    rax,[rsp+0x800]
    4cd5:	mov    QWORD PTR [rsp+0x8],rax
    4cda:	jmp    4cfc <run_epd_testsuite+0xfc>
    4cdc:	nop    DWORD PTR [rax+0x0]
    4ce0:	add    r12d,0x1
    4ce4:	mov    ecx,ebx
    4ce6:	mov    edx,r12d
    4ce9:	lea    rsi,[rip+0x156f8]        # 1a3e8 <rankoffsets.4429+0xa8>
    4cf0:	xor    eax,eax
    4cf2:	mov    edi,0x1
    4cf7:	call   1420 <__printf_chk@plt>
    4cfc:	mov    rdx,r14
    4cff:	mov    esi,0x7d0
    4d04:	mov    rdi,rbp
    4d07:	call   1380 <fgets@plt>
    4d0c:	test   rax,rax
    4d0f:	je     4fe8 <run_epd_testsuite+0x3e8>
    4d15:	mov    rdi,rbp
    4d18:	add    ebx,0x1
    4d1b:	call   44e0 <setup_epd_line>
    4d20:	mov    edx,DWORD PTR [rip+0x2787fa]        # 27d520 <white_to_move>
    4d26:	xor    eax,eax
    4d28:	test   edx,edx
    4d2a:	sete   al
    4d2d:	mov    DWORD PTR [rip+0x6497d],eax        # 696b0 <root_to_move>
    4d33:	call   16680 <clear_tt>
    4d38:	call   16780 <initialize_hash>
    4d3d:	mov    rdi,QWORD PTR [rip+0x1f7fc]        # 24540 <stdout@@GLIBC_2.2.5>
    4d44:	mov    esi,0x1
    4d49:	call   178e0 <display_board>
    4d4e:	mov    DWORD PTR [rip+0x62228],0x0        # 66f80 <forcedwin>
    4d58:	call   19230 <interrupt>
    4d5d:	test   eax,eax
    4d5f:	jne    4fb0 <run_epd_testsuite+0x3b0>
    4d65:	mov    eax,DWORD PTR [rsp+0x4]
    4d69:	mov    rdi,r15
    4d6c:	mov    DWORD PTR [rip+0x2929de],eax        # 297750 <fixed_time>
    4d72:	call   13f80 <think>
    4d77:	mov    edx,DWORD PTR [rip+0x276b5f]        # 27b8dc <nodes>
    4d7d:	pxor   xmm0,xmm0
    4d81:	pxor   xmm1,xmm1
    4d85:	cvtsi2ss xmm0,DWORD PTR [rip+0x66b13]        # 6b8a0 <qnodes>
    4d8d:	mov    edi,0x1
    4d92:	mov    eax,0x1
    4d97:	cvtsi2ss xmm1,edx
    4d9b:	lea    rsi,[rip+0x155ef]        # 1a391 <rankoffsets.4429+0x51>
    4da2:	divss  xmm0,xmm1
    4da6:	mulss  xmm0,DWORD PTR [rip+0x157b2]        # 1a560 <rankoffsets.4429+0x220>
    4dae:	cvtss2sd xmm0,xmm0
    4db2:	call   1420 <__printf_chk@plt>
    4db7:	mov    eax,DWORD PTR [rip+0x203fb]        # 251b8 <ECacheHits>
    4dbd:	mov    edx,DWORD PTR [rip+0x20405]        # 251c8 <ECacheProbes>
    4dc3:	pxor   xmm0,xmm0
    4dc7:	pxor   xmm1,xmm1
    4dcb:	mov    edi,0x1
    4dd0:	mov    rcx,rax
    4dd3:	cvtsi2ss xmm0,rax
    4dd8:	mov    eax,edx
    4dda:	cvtsi2ss xmm1,rax
    4ddf:	addss  xmm1,DWORD PTR [rip+0x1577d]        # 1a564 <rankoffsets.4429+0x224>
    4de7:	mov    eax,0x1
    4dec:	lea    rsi,[rip+0x1564d]        # 1a440 <rankoffsets.4429+0x100>
    4df3:	divss  xmm0,xmm1
    4df7:	mulss  xmm0,DWORD PTR [rip+0x15761]        # 1a560 <rankoffsets.4429+0x220>
    4dff:	cvtss2sd xmm0,xmm0
    4e03:	call   1420 <__printf_chk@plt>
    4e08:	mov    ecx,DWORD PTR [rip+0x292972]        # 297780 <TTProbes>
    4e0e:	mov    eax,DWORD PTR [rip+0x292980]        # 297794 <TTHits>
    4e14:	pxor   xmm0,xmm0
    4e18:	pxor   xmm1,xmm1
    4e1c:	mov    r8d,DWORD PTR [rip+0x292971]        # 297794 <TTHits>
    4e23:	mov    edx,DWORD PTR [rip+0x292967]        # 297790 <TTStores>
    4e29:	cvtsi2ss xmm0,rax
    4e2e:	mov    eax,ecx
    4e30:	mov    edi,0x1
    4e35:	cvtsi2ss xmm1,rax
    4e3a:	addss  xmm1,DWORD PTR [rip+0x15722]        # 1a564 <rankoffsets.4429+0x224>
    4e42:	mov    eax,0x1
    4e47:	lea    rsi,[rip+0x1562a]        # 1a478 <rankoffsets.4429+0x138>
    4e4e:	divss  xmm0,xmm1
    4e52:	mulss  xmm0,DWORD PTR [rip+0x15706]        # 1a560 <rankoffsets.4429+0x220>
    4e5a:	cvtss2sd xmm0,xmm0
    4e5e:	call   1420 <__printf_chk@plt>
    4e63:	mov    eax,DWORD PTR [rip+0x27916b]        # 27dfd4 <NCuts>
    4e69:	mov    edx,DWORD PTR [rip+0x2928fd]        # 29776c <NTries>
    4e6f:	pxor   xmm0,xmm0
    4e73:	pxor   xmm1,xmm1
    4e77:	mov    r8d,DWORD PTR [rip+0x2928c6]        # 297744 <TExt>
    4e7e:	lea    rsi,[rip+0x15633]        # 1a4b8 <rankoffsets.4429+0x178>
    4e85:	cvtsi2ss xmm0,rax
    4e8a:	mulss  xmm0,DWORD PTR [rip+0x156ce]        # 1a560 <rankoffsets.4429+0x220>
    4e92:	mov    rcx,rax
    4e95:	mov    eax,edx
    4e97:	cvtsi2ss xmm1,rax
    4e9c:	mov    edi,0x1
    4ea1:	mov    eax,0x1
    4ea6:	addss  xmm1,DWORD PTR [rip+0x156b6]        # 1a564 <rankoffsets.4429+0x224>
    4eae:	divss  xmm0,xmm1
    4eb2:	cvtss2sd xmm0,xmm0
    4eb6:	call   1420 <__printf_chk@plt>
    4ebb:	mov    r8d,DWORD PTR [rip+0x63d02]        # 68bc4 <razor_material>
    4ec2:	mov    ecx,DWORD PTR [rip+0x62a14]        # 678dc <razor_drop>
    4ec8:	mov    edx,DWORD PTR [rip+0x647c6]        # 69694 <ext_check>
    4ece:	lea    rsi,[rip+0x1561b]        # 1a4f0 <rankoffsets.4429+0x1b0>
    4ed5:	mov    edi,0x1
    4eda:	xor    eax,eax
    4edc:	call   1420 <__printf_chk@plt>
    4ee1:	mov    eax,DWORD PTR [rip+0x629f9]        # 678e0 <FHF>
    4ee7:	pxor   xmm0,xmm0
    4eeb:	pxor   xmm1,xmm1
    4eef:	lea    rsi,[rip+0x154b8]        # 1a3ae <rankoffsets.4429+0x6e>
    4ef6:	mov    edi,0x1
    4efb:	cvtsi2ss xmm0,rax
    4f00:	mov    eax,DWORD PTR [rip+0x6418a]        # 69090 <FH>
    4f06:	mulss  xmm0,DWORD PTR [rip+0x15652]        # 1a560 <rankoffsets.4429+0x220>
    4f0e:	cvtsi2ss xmm1,rax
    4f13:	mov    eax,0x1
    4f18:	divss  xmm0,xmm1
    4f1c:	addss  xmm0,DWORD PTR [rip+0x15640]        # 1a564 <rankoffsets.4429+0x224>
    4f24:	cvtss2sd xmm0,xmm0
    4f28:	call   1420 <__printf_chk@plt>
    4f2d:	mov    r13d,DWORD PTR [rip+0x397f4]        # 3e728 <maxposdiff>
    4f34:	mov    esi,0xf4240
    4f39:	mov    edi,0xfff0bdc0
    4f3e:	call   53c0 <eval>
    4f43:	mov    edx,DWORD PTR [rip+0x2f597]        # 344e0 <Material>
    4f49:	mov    r8d,r13d
    4f4c:	lea    rsi,[rip+0x155dd]        # 1a530 <rankoffsets.4429+0x1f0>
    4f53:	mov    ecx,eax
    4f55:	mov    edi,0x1
    4f5a:	xor    eax,eax
    4f5c:	call   1420 <__printf_chk@plt>
    4f61:	mov    edi,0xa
    4f66:	call   12a0 <putchar@plt>
    4f6b:	mov    eax,DWORD PTR [rip+0x6200f]        # 66f80 <forcedwin>
    4f71:	test   eax,eax
    4f73:	jne    4ce0 <run_epd_testsuite+0xe0>
    4f79:	sub    rsp,0x8
    4f7d:	mov    rdi,rbp
    4f80:	push   QWORD PTR [rsp+0x28]
    4f84:	push   QWORD PTR [rsp+0x28]
    4f88:	push   QWORD PTR [rsp+0x28]
    4f8c:	call   4b10 <check_solution>
    4f91:	add    rsp,0x20
    4f95:	test   eax,eax
    4f97:	je     4fd0 <run_epd_testsuite+0x3d0>
    4f99:	lea    rdi,[rip+0x15424]        # 1a3c4 <rankoffsets.4429+0x84>
    4fa0:	add    r12d,0x1
    4fa4:	call   12d0 <puts@plt>
    4fa9:	jmp    4ce4 <run_epd_testsuite+0xe4>
    4fae:	xchg   ax,ax
    4fb0:	mov    rdx,QWORD PTR [rip+0x1f599]        # 24550 <stdin@@GLIBC_2.2.5>
    4fb7:	mov    rdi,QWORD PTR [rsp+0x8]
    4fbc:	mov    esi,0x100
    4fc1:	call   18c30 <rinput>
    4fc6:	jmp    4d65 <run_epd_testsuite+0x165>
    4fcb:	nop    DWORD PTR [rax+rax*1+0x0]
    4fd0:	lea    rdi,[rip+0x153fd]        # 1a3d4 <rankoffsets.4429+0x94>
    4fd7:	call   12d0 <puts@plt>
    4fdc:	jmp    4ce4 <run_epd_testsuite+0xe4>
    4fe1:	nop    DWORD PTR [rax+0x0]
    4fe8:	mov    edi,0xa
    4fed:	call   12a0 <putchar@plt>
    4ff2:	mov    rax,QWORD PTR [rsp+0x1fd8]
    4ffa:	xor    rax,QWORD PTR fs:0x28
    5003:	jne    5017 <run_epd_testsuite+0x417>
    5005:	add    rsp,0x1fe8
    500c:	pop    rbx
    500d:	pop    rbp
    500e:	pop    r12
    5010:	pop    r13
    5012:	pop    r14
    5014:	pop    r15
    5016:	ret    
    5017:	call   1310 <__stack_chk_fail@plt>
    501c:	nop    DWORD PTR [rax+0x0]

0000000000005020 <run_autotest>:
    5020:	endbr64 
    5024:	push   r13
    5026:	lea    rsi,[rip+0x19798]        # 1e7c5 <sbishop+0x9a5>
    502d:	push   r12
    502f:	push   rbp
    5030:	push   rbx
    5031:	sub    rsp,0x138
    5038:	mov    rax,QWORD PTR fs:0x28
    5041:	mov    QWORD PTR [rsp+0x128],rax
    5049:	xor    eax,eax
    504b:	call   1430 <fopen@plt>
    5050:	test   rax,rax
    5053:	je     5147 <run_autotest+0x127>
    5059:	mov    r12,rax
    505c:	lea    rbx,[rsp+0x20]
    5061:	mov    r13,rsp
    5064:	call   18c90 <rtime>
    5069:	jmp    511a <run_autotest+0xfa>
    506e:	xchg   ax,ax
    5070:	mov    rdi,rbx
    5073:	call   44e0 <setup_epd_line>
    5078:	mov    edx,DWORD PTR [rip+0x2784a2]        # 27d520 <white_to_move>
    507e:	xor    eax,eax
    5080:	test   edx,edx
    5082:	sete   al
    5085:	mov    DWORD PTR [rip+0x64625],eax        # 696b0 <root_to_move>
    508b:	call   16680 <clear_tt>
    5090:	call   16780 <initialize_hash>
    5095:	mov    edi,0xa
    509a:	call   12a0 <putchar@plt>
    509f:	mov    rdi,QWORD PTR [rip+0x1f49a]        # 24540 <stdout@@GLIBC_2.2.5>
    50a6:	mov    esi,0x1
    50ab:	call   178e0 <display_board>
    50b0:	mov    rdx,rbx
    50b3:	mov    edi,0x1
    50b8:	xor    eax,eax
    50ba:	lea    rsi,[rip+0x15336]        # 1a3f7 <rankoffsets.4429+0xb7>
    50c1:	call   1420 <__printf_chk@plt>
    50c6:	mov    rdx,r12
    50c9:	mov    esi,0x100
    50ce:	mov    rdi,rbx
    50d1:	call   1380 <fgets@plt>
    50d6:	test   rax,rax
    50d9:	je     5147 <run_autotest+0x127>
    50db:	mov    edx,0xa
    50e0:	xor    esi,esi
    50e2:	mov    rdi,rbx
    50e5:	call   13d0 <strtol@plt>
    50ea:	mov    edi,0x1
    50ef:	lea    rsi,[rip+0x1530a]        # 1a400 <rankoffsets.4429+0xc0>
    50f6:	mov    rbp,rax
    50f9:	mov    edx,eax
    50fb:	xor    eax,eax
    50fd:	call   1420 <__printf_chk@plt>
    5102:	mov    rdi,r13
    5105:	mov    DWORD PTR [rip+0x28d2fd],ebp        # 292408 <maxdepth>
    510b:	mov    DWORD PTR [rip+0x29263b],0xf4240        # 297750 <fixed_time>
    5115:	call   13f80 <think>
    511a:	mov    rdx,r12
    511d:	mov    esi,0x100
    5122:	mov    rdi,rbx
    5125:	call   1380 <fgets@plt>
    512a:	test   rax,rax
    512d:	jne    5070 <run_autotest+0x50>
    5133:	call   18c90 <rtime>
    5138:	mov    rdi,r12
    513b:	call   12e0 <fclose@plt>
    5140:	xor    edi,edi
    5142:	call   1440 <exit@plt>
    5147:	mov    edi,0x1
    514c:	call   1440 <exit@plt>
    5151:	nop    WORD PTR cs:[rax+rax*1+0x0]
    515b:	nop    DWORD PTR [rax+rax*1+0x0]

0000000000005160 <initialize_eval>:
    5160:	endbr64 
    5164:	push   r15
    5166:	mov    eax,0x1a
    516b:	lea    r11,[rip+0x4d9ee]        # 52b60 <distance>
    5172:	lea    r10,[rip+0x15447]        # 1a5c0 <upscale>
    5179:	push   r14
    517b:	push   r13
    517d:	push   r12
    517f:	push   rbp
    5180:	xor    ebp,ebp
    5182:	push   rbx
    5183:	lea    rbx,[rip+0x395b6]        # 3e740 <rookdistance>
    518a:	mov    r9d,ebp
    518d:	mov    r8d,ebp
    5190:	lea    rdi,[rax+rax*8]
    5194:	xor    esi,esi
    5196:	sar    r9d,0x3
    519a:	and    r8d,0x7
    519e:	mov    ecx,0x1a
    51a3:	shl    rdi,0x4
    51a7:	jmp    51b4 <initialize_eval+0x54>
    51a9:	nop    DWORD PTR [rax+0x0]
    51b0:	movsxd rcx,DWORD PTR [r10+rsi*4]
    51b4:	mov    eax,esi
    51b6:	mov    edx,r8d
    51b9:	mov    r14d,r9d
    51bc:	add    rcx,rdi
    51bf:	and    eax,0x7
    51c2:	sub    edx,eax
    51c4:	mov    eax,edx
    51c6:	cdq    
    51c7:	xor    eax,edx
    51c9:	sub    eax,edx
    51cb:	mov    edx,esi
    51cd:	sar    edx,0x3
    51d0:	sub    r14d,edx
    51d3:	mov    r12d,r14d
    51d6:	mov    edx,r14d
    51d9:	sar    r12d,0x1f
    51dd:	xor    edx,r12d
    51e0:	sub    edx,r12d
    51e3:	cmp    eax,edx
    51e5:	lea    r12d,[rax+rdx*1]
    51e9:	cmovl  eax,edx
    51ec:	add    rsi,0x1
    51f0:	mov    DWORD PTR [rbx+rcx*4],r12d
    51f4:	mov    DWORD PTR [r11+rcx*4],eax
    51f8:	cmp    rsi,0x40
    51fc:	jne    51b0 <initialize_eval+0x50>
    51fe:	add    rbp,0x1
    5202:	cmp    rbp,0x40
    5206:	je     5211 <initialize_eval+0xb1>
    5208:	movsxd rax,DWORD PTR [r10+rbp*4]
    520c:	jmp    518a <initialize_eval+0x2a>
    5211:	lea    rax,[rip+0x1ffc8]        # 251e0 <p_tropism>
    5218:	mov    DWORD PTR [rsp-0x34],0x0
    5220:	lea    r15,[rip+0x1f119]        # 24340 <pre_p_tropism>
    5227:	mov    QWORD PTR [rsp-0x30],rax
    522c:	lea    rax,[rip+0x2f2cd]        # 34500 <b_tropism>
    5233:	lea    r14,[rip+0x1f006]        # 24240 <pre_b_tropism>
    523a:	mov    QWORD PTR [rsp-0x8],rax
    523f:	lea    rax,[rip+0x343ba]        # 39600 <n_tropism>
    5246:	lea    r13,[rip+0x1f073]        # 242c0 <pre_n_tropism>
    524d:	mov    QWORD PTR [rsp-0x18],rax
    5252:	lea    rax,[rip+0x25087]        # 2a2e0 <r_tropism>
    5259:	lea    r12,[rip+0x1f0a0]        # 24300 <pre_r_tropism>
    5260:	mov    QWORD PTR [rsp-0x10],rax
    5265:	lea    rax,[rip+0x2a174]        # 2f3e0 <q_tropism>
    526c:	lea    rbp,[rip+0x1f00d]        # 24280 <pre_q_tropism>
    5273:	mov    QWORD PTR [rsp-0x20],rax
    5278:	mov    QWORD PTR [rsp-0x28],0x0
    5281:	mov    DWORD PTR [rsp-0x38],0x0
    5289:	mov    r10,QWORD PTR [rsp-0x20]
    528e:	mov    r9,QWORD PTR [rsp-0x10]
    5293:	xor    edx,edx
    5295:	xor    eax,eax
    5297:	mov    r8,QWORD PTR [rsp-0x18]
    529c:	mov    rdi,QWORD PTR [rsp-0x8]
    52a1:	lea    rcx,[rip+0x175dc]        # 1c884 <Xfile+0x4>
    52a8:	lea    rbx,[rip+0x17395]        # 1c644 <Xrank+0x4>
    52af:	mov    rsi,QWORD PTR [rsp-0x30]
    52b4:	jmp    52cc <initialize_eval+0x16c>
    52b6:	nop    WORD PTR cs:[rax+rax*1+0x0]
    52c0:	mov    eax,DWORD PTR [rcx]
    52c2:	mov    edx,DWORD PTR [rbx]
    52c4:	add    rcx,0x4
    52c8:	add    rbx,0x4
    52cc:	mov    r11d,DWORD PTR [rsp-0x38]
    52d1:	sub    r11d,eax
    52d4:	mov    eax,r11d
    52d7:	sar    r11d,0x1f
    52db:	xor    eax,r11d
    52de:	sub    eax,r11d
    52e1:	mov    r11d,DWORD PTR [rsp-0x34]
    52e6:	sub    r11d,edx
    52e9:	mov    edx,r11d
    52ec:	sar    r11d,0x1f
    52f0:	xor    edx,r11d
    52f3:	sub    edx,r11d
    52f6:	cmp    eax,edx
    52f8:	cmovge edx,eax
    52fb:	add    rsi,0x1
    52ff:	add    rdi,0x1
    5303:	add    r8,0x1
    5307:	add    r9,0x1
    530b:	add    r10,0x1
    530f:	movsxd rdx,edx
    5312:	mov    eax,DWORD PTR [r15+rdx*4]
    5316:	mov    BYTE PTR [rsi-0x1],al
    5319:	mov    eax,DWORD PTR [r14+rdx*4]
    531d:	mov    BYTE PTR [rdi-0x1],al
    5320:	mov    eax,DWORD PTR [r13+rdx*4+0x0]
    5325:	mov    BYTE PTR [r8-0x1],al
    5329:	mov    eax,DWORD PTR [r12+rdx*4]
    532d:	mov    BYTE PTR [r9-0x1],al
    5331:	mov    eax,DWORD PTR [rbp+rdx*4+0x0]
    5335:	mov    BYTE PTR [r10-0x1],al
    5339:	lea    rax,[rip+0x17780]        # 1cac0 <Xfile+0x240>
    5340:	cmp    rcx,rax
    5343:	jne    52c0 <initialize_eval+0x160>
    5349:	add    QWORD PTR [rsp-0x30],0x90
    5352:	mov    rbx,QWORD PTR [rsp-0x30]
    5357:	lea    rdi,[rip+0x24f82]        # 2a2e0 <r_tropism>
    535e:	add    QWORD PTR [rsp-0x28],0x4
    5364:	mov    rax,QWORD PTR [rsp-0x28]
    5369:	add    QWORD PTR [rsp-0x8],0x90
    5372:	add    QWORD PTR [rsp-0x18],0x90
    537b:	add    QWORD PTR [rsp-0x10],0x90
    5384:	add    QWORD PTR [rsp-0x20],0x90
    538d:	cmp    rbx,rdi
    5390:	je     53b3 <initialize_eval+0x253>
    5392:	lea    rdi,[rip+0x174e7]        # 1c880 <Xfile>
    5399:	lea    rbx,[rip+0x172a0]        # 1c640 <Xrank>
    53a0:	mov    edi,DWORD PTR [rdi+rax*1]
    53a3:	mov    eax,DWORD PTR [rbx+rax*1]
    53a6:	mov    DWORD PTR [rsp-0x38],edi
    53aa:	mov    DWORD PTR [rsp-0x34],eax
    53ae:	jmp    5289 <initialize_eval+0x129>
    53b3:	pop    rbx
    53b4:	pop    rbp
    53b5:	pop    r12
    53b7:	pop    r13
    53b9:	pop    r14
    53bb:	pop    r15
    53bd:	ret    
    53be:	xchg   ax,ax

00000000000053c0 <eval>:
    53c0:	endbr64 
    53c4:	push   r15
    53c6:	push   r14
    53c8:	push   r13
    53ca:	push   r12
    53cc:	push   rbp
    53cd:	push   rbx
    53ce:	sub    rsp,0x28
    53d2:	mov    rax,QWORD PTR fs:0x28
    53db:	mov    QWORD PTR [rsp+0x18],rax
    53e0:	xor    eax,eax
    53e2:	mov    eax,DWORD PTR [rip+0x2763d8]        # 27b7c0 <Variant>
    53e8:	mov    DWORD PTR [rsp+0x10],0x0
    53f0:	cmp    eax,0x2
    53f3:	je     5e70 <eval+0xab0>
    53f9:	cmp    eax,0x3
    53fc:	je     5e80 <eval+0xac0>
    5402:	cmp    eax,0x4
    5405:	je     5e60 <eval+0xaa0>
    540b:	lea    rsi,[rsp+0x14]
    5410:	lea    rdi,[rsp+0x10]
    5415:	mov    DWORD PTR [rsp+0x14],0x0
    541d:	call   43f0 <checkECache>
    5422:	mov    ebx,DWORD PTR [rsp+0x14]
    5426:	test   ebx,ebx
    5428:	je     5460 <eval+0xa0>
    542a:	cmp    DWORD PTR [rip+0x2780ef],0x1        # 27d520 <white_to_move>
    5431:	mov    eax,DWORD PTR [rsp+0x10]
    5435:	je     5439 <eval+0x79>
    5437:	neg    eax
    5439:	mov    rbx,QWORD PTR [rsp+0x18]
    543e:	xor    rbx,QWORD PTR fs:0x28
    5447:	jne    63eb <eval+0x102b>
    544d:	add    rsp,0x28
    5451:	pop    rbx
    5452:	pop    rbp
    5453:	pop    r12
    5455:	pop    r13
    5457:	pop    r14
    5459:	pop    r15
    545b:	ret    
    545c:	nop    DWORD PTR [rax+0x0]
    5460:	mov    ebp,DWORD PTR [rip+0x62126]        # 6758c <cfg_devscale>
    5466:	xor    r12d,r12d
    5469:	test   ebp,ebp
    546b:	jne    5b08 <eval+0x748>
    5471:	mov    eax,DWORD PTR [rip+0x278b65]        # 27dfdc <wking_loc>
    5477:	mov    edx,DWORD PTR [rsp+0x10]
    547b:	mov    r10d,DWORD PTR [rip+0x66422]        # 6b8a4 <piece_count>
    5482:	mov    r11d,DWORD PTR [rip+0x27809b]        # 27d524 <bking_loc>
    5489:	mov    DWORD PTR [rsp+0x8],eax
    548d:	mov    DWORD PTR [rsp+0x4],edx
    5491:	test   r10d,r10d
    5494:	jle    62d0 <eval+0xf10>
    549a:	lea    rsi,[rip+0x276343]        # 27b7e4 <pieces+0x4>
    54a1:	xor    r15d,r15d
    54a4:	movsxd r13,r11d
    54a7:	movsxd r14,eax
    54aa:	mov    edi,0x1
    54af:	lea    r8,[rip+0x27840a]        # 27d8c0 <board>
    54b6:	lea    r9,[rip+0x150c3]        # 1a580 <rankoffsets.4429+0x240>
    54bd:	nop    DWORD PTR [rax]
    54c0:	movsxd rax,DWORD PTR [rsi]
    54c3:	test   eax,eax
    54c5:	je     5520 <eval+0x160>
    54c7:	add    edi,0x1
    54ca:	cmp    DWORD PTR [r8+rax*4],0xc
    54cf:	ja     5520 <eval+0x160>
    54d1:	mov    ecx,DWORD PTR [r8+rax*4]
    54d5:	movsxd rcx,DWORD PTR [r9+rcx*4]
    54d9:	add    rcx,r9
    54dc:	notrack jmp rcx
    54df:	nop
    54e0:	lea    rcx,[rip+0x15899]        # 1ad80 <black_queen>
    54e7:	sub    edx,0x1c2
    54ed:	mov    ecx,DWORD PTR [rcx+rax*4]
    54f0:	lea    rax,[rax+rax*8]
    54f4:	shl    rax,0x4
    54f8:	mov    DWORD PTR [rsp+0xc],ecx
    54fc:	mov    r15d,ecx
    54ff:	mov    ecx,r12d
    5502:	sar    r15d,cl
    5505:	lea    rcx,[rip+0x29ed4]        # 2f3e0 <q_tropism>
    550c:	add    rax,rcx
    550f:	sub    edx,r15d
    5512:	mov    r15d,0x1
    5518:	movzx  eax,BYTE PTR [rax+r14*1]
    551d:	sub    edx,eax
    551f:	nop
    5520:	add    rsi,0x4
    5524:	cmp    edi,r10d
    5527:	jle    54c0 <eval+0x100>
    5529:	test   r15b,r15b
    552c:	cmove  edx,DWORD PTR [rsp+0x4]
    5531:	lea    rax,[rip+0x15cc8]        # 1b200 <white_king>
    5538:	mov    ecx,r12d
    553b:	mov    edi,DWORD PTR [rip+0x63c7f]        # 691c0 <white_castled>
    5541:	mov    eax,DWORD PTR [rax+r14*4]
    5545:	sar    eax,cl
    5547:	mov    ecx,ebp
    5549:	add    edx,eax
    554b:	lea    rax,[rip+0x15a6e]        # 1afc0 <black_king>
    5552:	mov    eax,DWORD PTR [rax+r13*4]
    5556:	sar    eax,cl
    5558:	sub    edx,eax
    555a:	mov    DWORD PTR [rsp+0x10],edx
    555e:	test   edi,edi
    5560:	jne    5575 <eval+0x1b5>
    5562:	mov    r14d,DWORD PTR [rip+0x28e6cf]        # 293c38 <moved+0x78>
    5569:	test   r14d,r14d
    556c:	je     5575 <eval+0x1b5>
    556e:	sub    edx,0x1e
    5571:	mov    DWORD PTR [rsp+0x10],edx
    5575:	mov    esi,DWORD PTR [rip+0x63c49]        # 691c4 <black_castled>
    557b:	test   esi,esi
    557d:	jne    5590 <eval+0x1d0>
    557f:	mov    r13d,DWORD PTR [rip+0x28e802]        # 293d88 <moved+0x1c8>
    5586:	test   r13d,r13d
    5589:	je     5590 <eval+0x1d0>
    558b:	add    DWORD PTR [rsp+0x10],0x1e
    5590:	mov    r9d,DWORD PTR [rip+0x28e6cd]        # 293c64 <moved+0xa4>
    5597:	test   r9d,r9d
    559a:	jne    55aa <eval+0x1ea>
    559c:	cmp    DWORD PTR [rip+0x2783f1],0xd        # 27d994 <board+0xd4>
    55a3:	je     55aa <eval+0x1ea>
    55a5:	sub    DWORD PTR [rsp+0x10],0xf
    55aa:	mov    ecx,DWORD PTR [rip+0x28e6b8]        # 293c68 <moved+0xa8>
    55b0:	test   ecx,ecx
    55b2:	jne    55c2 <eval+0x202>
    55b4:	cmp    DWORD PTR [rip+0x2783dd],0xd        # 27d998 <board+0xd8>
    55bb:	je     55c2 <eval+0x202>
    55bd:	sub    DWORD PTR [rsp+0x10],0xf
    55c2:	mov    r8d,DWORD PTR [rip+0x28e78b]        # 293d54 <moved+0x194>
    55c9:	test   r8d,r8d
    55cc:	jne    55dc <eval+0x21c>
    55ce:	cmp    DWORD PTR [rip+0x27844f],0xd        # 27da24 <board+0x164>
    55d5:	je     55dc <eval+0x21c>
    55d7:	add    DWORD PTR [rsp+0x10],0xf
    55dc:	mov    edx,DWORD PTR [rip+0x28e776]        # 293d58 <moved+0x198>
    55e2:	test   edx,edx
    55e4:	jne    55f4 <eval+0x234>
    55e6:	cmp    DWORD PTR [rip+0x27843b],0xd        # 27da28 <board+0x168>
    55ed:	je     55f4 <eval+0x234>
    55ef:	add    DWORD PTR [rsp+0x10],0xf
    55f4:	mov    r10d,DWORD PTR [rip+0x61ec5]        # 674c0 <cfg_smarteval>
    55fb:	test   r10d,r10d
    55fe:	je     58f0 <eval+0x530>
    5604:	mov    r15d,DWORD PTR [rsp+0x8]
    5609:	lea    r13,[rip+0x2782b0]        # 27d8c0 <board>
    5610:	lea    r10d,[r15+0xc]
    5614:	movsxd rax,r10d
    5617:	mov    r14d,DWORD PTR [r13+rax*4+0x0]
    561c:	lea    eax,[r15-0x1d]
    5620:	cmp    eax,0x1
    5623:	jbe    5661 <eval+0x2a1>
    5625:	lea    eax,[r15+0xb]
    5629:	cdqe   
    562b:	cmp    DWORD PTR [r13+rax*4+0x0],0x1
    5631:	je     5638 <eval+0x278>
    5633:	sub    DWORD PTR [rsp+0x10],0x18
    5638:	cmp    r14d,0x1
    563c:	je     5643 <eval+0x283>
    563e:	sub    DWORD PTR [rsp+0x10],0x23
    5643:	mov    eax,DWORD PTR [rsp+0x8]
    5647:	add    eax,0xd
    564a:	cdqe   
    564c:	cmp    DWORD PTR [r13+rax*4+0x0],0x1
    5652:	je     5659 <eval+0x299>
    5654:	sub    DWORD PTR [rsp+0x10],0x18
    5659:	test   edi,edi
    565b:	jne    61c0 <eval+0xe00>
    5661:	lea    eax,[r11-0x71]
    5665:	cmp    eax,0x1
    5668:	jbe    56e0 <eval+0x320>
    566a:	lea    eax,[r11-0xd]
    566e:	cdqe   
    5670:	cmp    DWORD PTR [r13+rax*4+0x0],0x2
    5676:	je     567d <eval+0x2bd>
    5678:	add    DWORD PTR [rsp+0x10],0x18
    567d:	lea    eax,[r11-0xc]
    5681:	cdqe   
    5683:	cmp    DWORD PTR [r13+rax*4+0x0],0x2
    5689:	je     5690 <eval+0x2d0>
    568b:	add    DWORD PTR [rsp+0x10],0x23
    5690:	lea    eax,[r11-0xb]
    5694:	cdqe   
    5696:	cmp    DWORD PTR [r13+rax*4+0x0],0x2
    569c:	je     56a3 <eval+0x2e3>
    569e:	add    DWORD PTR [rsp+0x10],0x18
    56a3:	test   esi,esi
    56a5:	je     56e0 <eval+0x320>
    56a7:	lea    eax,[r11-0x19]
    56ab:	cdqe   
    56ad:	cmp    DWORD PTR [r13+rax*4+0x0],0x2
    56b3:	jne    56ba <eval+0x2fa>
    56b5:	sub    DWORD PTR [rsp+0x10],0xb
    56ba:	lea    eax,[r11-0x18]
    56be:	cdqe   
    56c0:	cmp    DWORD PTR [r13+rax*4+0x0],0x2
    56c6:	jne    56cd <eval+0x30d>
    56c8:	sub    DWORD PTR [rsp+0x10],0xf
    56cd:	lea    eax,[r11-0x17]
    56d1:	cdqe   
    56d3:	cmp    DWORD PTR [r13+rax*4+0x0],0x2
    56d9:	jne    56e0 <eval+0x320>
    56db:	sub    DWORD PTR [rsp+0x10],0xb
    56e0:	test   ecx,ecx
    56e2:	je     5724 <eval+0x364>
    56e4:	mov    eax,DWORD PTR [rsp+0x10]
    56e8:	lea    ecx,[rax+0x37]
    56eb:	add    eax,0x1e
    56ee:	test   r9d,r9d
    56f1:	cmovne eax,ecx
    56f4:	mov    DWORD PTR [rsp+0x10],eax
    56f8:	mov    eax,DWORD PTR [rip+0x28e542]        # 293c40 <moved+0x80>
    56fe:	test   eax,eax
    5700:	je     5707 <eval+0x347>
    5702:	add    DWORD PTR [rsp+0x10],0x14
    5707:	mov    eax,DWORD PTR [rip+0x28e51f]        # 293c2c <moved+0x6c>
    570d:	test   eax,eax
    570f:	je     5716 <eval+0x356>
    5711:	add    DWORD PTR [rsp+0x10],0xf
    5716:	mov    eax,DWORD PTR [rip+0x28e514]        # 293c30 <moved+0x70>
    571c:	test   eax,eax
    571e:	jne    6238 <eval+0xe78>
    5724:	test   edx,edx
    5726:	je     576a <eval+0x3aa>
    5728:	mov    eax,DWORD PTR [rsp+0x10]
    572c:	lea    edx,[rax-0x37]
    572f:	sub    eax,0x1e
    5732:	test   r8d,r8d
    5735:	cmovne eax,edx
    5738:	mov    DWORD PTR [rsp+0x10],eax
    573c:	mov    eax,DWORD PTR [rip+0x28e64e]        # 293d90 <moved+0x1d0>
    5742:	test   eax,eax
    5744:	je     574b <eval+0x38b>
    5746:	sub    DWORD PTR [rsp+0x10],0x14
    574b:	mov    eax,DWORD PTR [rip+0x28e62b]        # 293d7c <moved+0x1bc>
    5751:	test   eax,eax
    5753:	je     575a <eval+0x39a>
    5755:	sub    DWORD PTR [rsp+0x10],0xf
    575a:	mov    r15d,DWORD PTR [rip+0x28e61f]        # 293d80 <moved+0x1c0>
    5761:	test   r15d,r15d
    5764:	jne    6228 <eval+0xe68>
    576a:	cmp    DWORD PTR [rip+0x2781ff],0x1        # 27d970 <board+0xb0>
    5771:	je     578d <eval+0x3cd>
    5773:	cmp    DWORD PTR [rip+0x278222],0x2        # 27d99c <board+0xdc>
    577a:	je     5e40 <eval+0xa80>
    5780:	cmp    DWORD PTR [rip+0x278241],0x2        # 27d9c8 <board+0x108>
    5787:	je     5e40 <eval+0xa80>
    578d:	cmp    DWORD PTR [rip+0x2782cc],0x2        # 27da60 <board+0x1a0>
    5794:	je     57b0 <eval+0x3f0>
    5796:	cmp    DWORD PTR [rip+0x27828f],0x1        # 27da2c <board+0x16c>
    579d:	je     5e50 <eval+0xa90>
    57a3:	cmp    DWORD PTR [rip+0x27824e],0x1        # 27d9f8 <board+0x138>
    57aa:	je     5e50 <eval+0xa90>
    57b0:	cmp    r14d,0x2
    57b4:	je     5ec8 <eval+0xb08>
    57ba:	cmp    r14d,0xc
    57be:	je     5ec8 <eval+0xb08>
    57c4:	lea    edi,[r11-0xc]
    57c8:	movsxd rax,edi
    57cb:	mov    eax,DWORD PTR [r13+rax*4+0x0]
    57d0:	cmp    eax,0x1
    57d3:	je     5e90 <eval+0xad0>
    57d9:	cmp    eax,0xb
    57dc:	je     5e90 <eval+0xad0>
    57e2:	cmp    DWORD PTR [rip+0x278183],0x1        # 27d96c <board+0xac>
    57e9:	mov    eax,DWORD PTR [rip+0x2781a9]        # 27d998 <board+0xd8>
    57ef:	je     5f20 <eval+0xb60>
    57f5:	sub    eax,0x1
    57f8:	cmp    eax,0x1
    57fb:	ja     5838 <eval+0x478>
    57fd:	xor    esi,esi
    57ff:	mov    edi,0x36
    5804:	call   3530 <is_attacked>
    5809:	test   eax,eax
    580b:	je     5838 <eval+0x478>
    580d:	cmp    DWORD PTR [rip+0x278158],0x1        # 27d96c <board+0xac>
    5814:	jne    581b <eval+0x45b>
    5816:	add    DWORD PTR [rsp+0x10],0xa
    581b:	mov    eax,DWORD PTR [rip+0x278177]        # 27d998 <board+0xd8>
    5821:	cmp    eax,0x1
    5824:	je     63d7 <eval+0x1017>
    582a:	cmp    eax,0x2
    582d:	jne    5838 <eval+0x478>
    582f:	sub    DWORD PTR [rsp+0x10],0xf
    5834:	nop    DWORD PTR [rax+0x0]
    5838:	cmp    DWORD PTR [rip+0x27821d],0x2        # 27da5c <board+0x19c>
    583f:	mov    eax,DWORD PTR [rip+0x2781e3]        # 27da28 <board+0x168>
    5845:	je     5f10 <eval+0xb50>
    584b:	sub    eax,0x1
    584e:	cmp    eax,0x1
    5851:	ja     5870 <eval+0x4b0>
    5853:	mov    esi,0x1
    5858:	mov    edi,0x5a
    585d:	call   3530 <is_attacked>
    5862:	test   eax,eax
    5864:	jne    6271 <eval+0xeb1>
    586a:	nop    WORD PTR [rax+rax*1+0x0]
    5870:	movsxd rax,DWORD PTR [rip+0x277cad]        # 27d524 <bking_loc>
    5877:	mov    r9d,DWORD PTR [r13+rax*4+0x0]
    587c:	mov    rdi,rax
    587f:	test   r9d,r9d
    5882:	jne    5f90 <eval+0xbd0>
    5888:	movsxd rax,DWORD PTR [rip+0x27874d]        # 27dfdc <wking_loc>
    588f:	mov    r8d,DWORD PTR [r13+rax*4+0x0]
    5894:	mov    rdi,rax
    5897:	test   r8d,r8d
    589a:	jne    62a8 <eval+0xee8>
    58a0:	cmp    DWORD PTR [rip+0x2780c9],0x4        # 27d970 <board+0xb0>
    58a7:	je     6330 <eval+0xf70>
    58ad:	cmp    DWORD PTR [rip+0x2781ac],0x3        # 27da60 <board+0x1a0>
    58b4:	je     62e8 <eval+0xf28>
    58ba:	cmp    DWORD PTR [rip+0x2780e3],0xc        # 27d9a4 <board+0xe4>
    58c1:	je     5f30 <eval+0xb70>
    58c7:	cmp    DWORD PTR [rip+0x278166],0xb        # 27da34 <board+0x174>
    58ce:	jne    58f0 <eval+0x530>
    58d0:	mov    edx,DWORD PTR [rip+0x27818a]        # 27da60 <board+0x1a0>
    58d6:	cmp    edx,0x2
    58d9:	je     58f0 <eval+0x530>
    58db:	mov    eax,DWORD PTR [rsp+0x10]
    58df:	cmp    edx,0x3
    58e2:	je     63a3 <eval+0xfe3>
    58e8:	add    eax,0x14
    58eb:	mov    DWORD PTR [rsp+0x10],eax
    58ef:	nop
    58f0:	mov    edi,DWORD PTR [rip+0x61c8a]        # 67580 <cfg_attackeval>
    58f6:	test   edi,edi
    58f8:	je     5ad0 <eval+0x710>
    58fe:	mov    edi,DWORD PTR [rip+0x2786d8]        # 27dfdc <wking_loc>
    5904:	lea    r13,[rip+0x277fb5]        # 27d8c0 <board>
    590b:	xor    r12d,r12d
    590e:	lea    r8d,[rdi-0xd]
    5912:	movsxd rax,r8d
    5915:	mov    esi,DWORD PTR [r13+rax*4+0x0]
    591a:	test   esi,esi
    591c:	jne    5ff0 <eval+0xc30>
    5922:	lea    r8d,[rdi-0xc]
    5926:	movsxd rax,r8d
    5929:	mov    ecx,DWORD PTR [r13+rax*4+0x0]
    592e:	test   ecx,ecx
    5930:	jne    5fd0 <eval+0xc10>
    5936:	lea    r8d,[rdi-0xb]
    593a:	movsxd rax,r8d
    593d:	mov    edx,DWORD PTR [r13+rax*4+0x0]
    5942:	test   edx,edx
    5944:	jne    61a0 <eval+0xde0>
    594a:	lea    r8d,[rdi-0x1]
    594e:	movsxd rax,r8d
    5951:	mov    eax,DWORD PTR [r13+rax*4+0x0]
    5956:	test   eax,eax
    5958:	jne    6180 <eval+0xdc0>
    595e:	lea    r8d,[rdi+0x1]
    5962:	movsxd rax,r8d
    5965:	mov    eax,DWORD PTR [r13+rax*4+0x0]
    596a:	test   eax,eax
    596c:	jne    6160 <eval+0xda0>
    5972:	lea    r8d,[rdi+0xb]
    5976:	movsxd rax,r8d
    5979:	mov    eax,DWORD PTR [r13+rax*4+0x0]
    597e:	test   eax,eax
    5980:	jne    6140 <eval+0xd80>
    5986:	lea    r8d,[rdi+0xc]
    598a:	movsxd rax,r8d
    598d:	mov    eax,DWORD PTR [r13+rax*4+0x0]
    5992:	test   eax,eax
    5994:	jne    6120 <eval+0xd60>
    599a:	add    edi,0xd
    599d:	movsxd rax,edi
    59a0:	mov    eax,DWORD PTR [r13+rax*4+0x0]
    59a5:	test   eax,eax
    59a7:	jne    6108 <eval+0xd48>
    59ad:	mov    edx,DWORD PTR [rip+0x1f7ed]        # 251a0 <black_hand_eval>
    59b3:	mov    eax,0xe
    59b8:	cmp    edx,0xfffffa25
    59be:	jl     59cb <eval+0x60b>
    59c0:	xor    eax,eax
    59c2:	cmp    edx,0x63
    59c5:	jle    6208 <eval+0xe48>
    59cb:	mov    edi,DWORD PTR [rip+0x277b53]        # 27d524 <bking_loc>
    59d1:	cdqe   
    59d3:	movsxd r12,r12d
    59d6:	xor    r14d,r14d
    59d9:	lea    rax,[rax+rax*8]
    59dd:	lea    rbp,[rip+0x1e63c]        # 24020 <ksafety_scaled>
    59e4:	lea    r8d,[rdi-0xd]
    59e8:	add    r12,rax
    59eb:	movsxd rax,r8d
    59ee:	mov    r12d,DWORD PTR [rbp+r12*4+0x0]
    59f3:	mov    r15d,DWORD PTR [r13+rax*4+0x0]
    59f8:	test   r15d,r15d
    59fb:	jne    60d0 <eval+0xd10>
    5a01:	lea    r8d,[rdi-0xc]
    5a05:	movsxd rax,r8d
    5a08:	mov    r11d,DWORD PTR [r13+rax*4+0x0]
    5a0d:	test   r11d,r11d
    5a10:	jne    60b0 <eval+0xcf0>
    5a16:	lea    r8d,[rdi-0xb]
    5a1a:	movsxd rax,r8d
    5a1d:	mov    r10d,DWORD PTR [r13+rax*4+0x0]
    5a22:	test   r10d,r10d
    5a25:	jne    6090 <eval+0xcd0>
    5a2b:	lea    r8d,[rdi-0x1]
    5a2f:	movsxd rax,r8d
    5a32:	mov    r9d,DWORD PTR [r13+rax*4+0x0]
    5a37:	test   r9d,r9d
    5a3a:	jne    6070 <eval+0xcb0>
    5a40:	lea    r8d,[rdi+0x1]
    5a44:	movsxd rax,r8d
    5a47:	mov    esi,DWORD PTR [r13+rax*4+0x0]
    5a4c:	test   esi,esi
    5a4e:	jne    6050 <eval+0xc90>
    5a54:	lea    r8d,[rdi+0xb]
    5a58:	movsxd rax,r8d
    5a5b:	mov    ecx,DWORD PTR [r13+rax*4+0x0]
    5a60:	test   ecx,ecx
    5a62:	jne    6030 <eval+0xc70>
    5a68:	lea    r8d,[rdi+0xc]
    5a6c:	movsxd rax,r8d
    5a6f:	mov    edx,DWORD PTR [r13+rax*4+0x0]
    5a74:	test   edx,edx
    5a76:	jne    6010 <eval+0xc50>
    5a7c:	add    edi,0xd
    5a7f:	movsxd rax,edi
    5a82:	mov    eax,DWORD PTR [r13+rax*4+0x0]
    5a87:	test   eax,eax
    5a89:	jne    60f0 <eval+0xd30>
    5a8f:	mov    eax,DWORD PTR [rip+0x1f717]        # 251ac <white_hand_eval>
    5a95:	cmp    eax,0x5db
    5a9a:	jg     5f00 <eval+0xb40>
    5aa0:	cmp    eax,0xffffff9d
    5aa3:	jge    6248 <eval+0xe88>
    5aa9:	movsxd rbx,ebx
    5aac:	movsxd r14,r14d
    5aaf:	lea    rdx,[rbx+rbx*8]
    5ab3:	add    r14,rdx
    5ab6:	mov    edx,DWORD PTR [rsp+0x10]
    5aba:	mov    edi,DWORD PTR [rbp+r14*4+0x0]
    5abf:	sub    edi,r12d
    5ac2:	add    edx,edi
    5ac4:	jmp    5ada <eval+0x71a>
    5ac6:	nop    WORD PTR cs:[rax+rax*1+0x0]
    5ad0:	mov    eax,DWORD PTR [rip+0x1f6d6]        # 251ac <white_hand_eval>
    5ad6:	mov    edx,DWORD PTR [rsp+0x10]
    5ada:	add    eax,DWORD PTR [rip+0x1f6c0]        # 251a0 <black_hand_eval>
    5ae0:	mov    edi,eax
    5ae2:	add    edi,edx
    5ae4:	mov    DWORD PTR [rsp+0x10],edi
    5ae8:	call   43b0 <storeECache>
    5aed:	cmp    DWORD PTR [rip+0x277a2c],0x1        # 27d520 <white_to_move>
    5af4:	mov    eax,DWORD PTR [rsp+0x10]
    5af8:	jne    5437 <eval+0x77>
    5afe:	jmp    5439 <eval+0x79>
    5b03:	nop    DWORD PTR [rax+rax*1+0x0]
    5b08:	mov    eax,DWORD PTR [rip+0x291c46]        # 297754 <comp_color>
    5b0e:	cmp    DWORD PTR [rip+0x277a0c],eax        # 27d520 <white_to_move>
    5b14:	je     5f60 <eval+0xba0>
    5b1a:	mov    eax,DWORD PTR [rip+0x1f68c]        # 251ac <white_hand_eval>
    5b20:	cmp    eax,0xc8
    5b25:	jg     5fb8 <eval+0xbf8>
    5b2b:	mov    ebp,DWORD PTR [rip+0x275c8f]        # 27b7c0 <Variant>
    5b31:	mov    r12d,ebx
    5b34:	cmp    ebp,0x1
    5b37:	je     5471 <eval+0xb1>
    5b3d:	mov    ebp,0x2
    5b42:	jmp    5471 <eval+0xb1>
    5b47:	nop    WORD PTR [rax+rax*1+0x0]
    5b50:	lea    rcx,[rip+0x158e9]        # 1b440 <black_pawn>
    5b57:	sub    edx,0x64
    5b5a:	add    rsi,0x4
    5b5e:	mov    r15d,DWORD PTR [rcx+rax*4]
    5b62:	lea    rax,[rax+rax*8]
    5b66:	mov    ecx,r12d
    5b69:	shl    rax,0x4
    5b6d:	sar    r15d,cl
    5b70:	mov    rcx,rax
    5b73:	lea    rax,[rip+0x1f666]        # 251e0 <p_tropism>
    5b7a:	add    rax,rcx
    5b7d:	sub    edx,r15d
    5b80:	mov    r15d,0x1
    5b86:	movzx  eax,BYTE PTR [rax+r14*1]
    5b8b:	sub    edx,eax
    5b8d:	cmp    edi,r10d
    5b90:	jle    54c0 <eval+0x100>
    5b96:	jmp    5529 <eval+0x169>
    5b9b:	nop    DWORD PTR [rax+rax*1+0x0]
    5ba0:	lea    rcx,[rip+0x15ad9]        # 1b680 <white_pawn>
    5ba7:	add    rsi,0x4
    5bab:	mov    r15d,DWORD PTR [rcx+rax*4]
    5baf:	lea    rax,[rax+rax*8]
    5bb3:	mov    ecx,ebp
    5bb5:	shl    rax,0x4
    5bb9:	sar    r15d,cl
    5bbc:	mov    rcx,rax
    5bbf:	lea    rax,[rip+0x1f61a]        # 251e0 <p_tropism>
    5bc6:	add    rax,rcx
    5bc9:	lea    edx,[rdx+r15*1+0x64]
    5bce:	mov    r15d,0x1
    5bd4:	movzx  eax,BYTE PTR [rax+r13*1]
    5bd9:	add    edx,eax
    5bdb:	cmp    edi,r10d
    5bde:	jle    54c0 <eval+0x100>
    5be4:	jmp    5529 <eval+0x169>
    5be9:	nop    DWORD PTR [rax+0x0]
    5bf0:	lea    rcx,[rip+0x16149]        # 1bd40 <pcsqbishop>
    5bf7:	sub    edx,0xe6
    5bfd:	add    rsi,0x4
    5c01:	mov    ecx,DWORD PTR [rcx+rax*4]
    5c04:	lea    rax,[rax+rax*8]
    5c08:	shl    rax,0x4
    5c0c:	mov    DWORD PTR [rsp+0xc],ecx
    5c10:	mov    r15d,ecx
    5c13:	mov    ecx,r12d
    5c16:	sar    r15d,cl
    5c19:	lea    rcx,[rip+0x2e8e0]        # 34500 <b_tropism>
    5c20:	add    rax,rcx
    5c23:	sub    edx,r15d
    5c26:	mov    r15d,0x1
    5c2c:	movzx  eax,BYTE PTR [rax+r14*1]
    5c31:	sub    edx,eax
    5c33:	cmp    edi,r10d
    5c36:	jle    54c0 <eval+0x100>
    5c3c:	jmp    5529 <eval+0x169>
    5c41:	nop    DWORD PTR [rax+0x0]
    5c48:	lea    rcx,[rip+0x160f1]        # 1bd40 <pcsqbishop>
    5c4f:	add    rsi,0x4
    5c53:	mov    ecx,DWORD PTR [rcx+rax*4]
    5c56:	lea    rax,[rax+rax*8]
    5c5a:	shl    rax,0x4
    5c5e:	mov    DWORD PTR [rsp+0xc],ecx
    5c62:	mov    r15d,ecx
    5c65:	mov    ecx,ebp
    5c67:	sar    r15d,cl
    5c6a:	lea    rcx,[rip+0x2e88f]        # 34500 <b_tropism>
    5c71:	add    rax,rcx
    5c74:	lea    edx,[rdx+r15*1+0xe6]
    5c7c:	mov    r15d,0x1
    5c82:	movzx  eax,BYTE PTR [rax+r13*1]
    5c87:	add    edx,eax
    5c89:	cmp    edi,r10d
    5c8c:	jle    54c0 <eval+0x100>
    5c92:	jmp    5529 <eval+0x169>
    5c97:	nop    WORD PTR [rax+rax*1+0x0]
    5ca0:	lea    rcx,[rip+0x14e99]        # 1ab40 <white_queen>
    5ca7:	add    rsi,0x4
    5cab:	mov    ecx,DWORD PTR [rcx+rax*4]
    5cae:	lea    rax,[rax+rax*8]
    5cb2:	shl    rax,0x4
    5cb6:	mov    DWORD PTR [rsp+0xc],ecx
    5cba:	mov    r15d,ecx
    5cbd:	mov    ecx,ebp
    5cbf:	sar    r15d,cl
    5cc2:	lea    rcx,[rip+0x29717]        # 2f3e0 <q_tropism>
    5cc9:	add    rax,rcx
    5ccc:	lea    edx,[rdx+r15*1+0x1c2]
    5cd4:	mov    r15d,0x1
    5cda:	movzx  eax,BYTE PTR [rax+r13*1]
    5cdf:	add    edx,eax
    5ce1:	cmp    edi,r10d
    5ce4:	jle    54c0 <eval+0x100>
    5cea:	jmp    5529 <eval+0x169>
    5cef:	nop
    5cf0:	lea    rcx,[rip+0x14c09]        # 1a900 <black_rook>
    5cf7:	sub    edx,0xfa
    5cfd:	add    rsi,0x4
    5d01:	mov    r15d,DWORD PTR [rcx+rax*4]
    5d05:	lea    rax,[rax+rax*8]
    5d09:	mov    ecx,r12d
    5d0c:	shl    rax,0x4
    5d10:	sar    r15d,cl
    5d13:	mov    rcx,rax
    5d16:	lea    rax,[rip+0x245c3]        # 2a2e0 <r_tropism>
    5d1d:	add    rax,rcx
    5d20:	sub    edx,r15d
    5d23:	mov    r15d,0x1
    5d29:	movzx  eax,BYTE PTR [rax+r14*1]
    5d2e:	sub    edx,eax
    5d30:	cmp    edi,r10d
    5d33:	jle    54c0 <eval+0x100>
    5d39:	jmp    5529 <eval+0x169>
    5d3e:	xchg   ax,ax
    5d40:	lea    rcx,[rip+0x14979]        # 1a6c0 <white_rook>
    5d47:	add    rsi,0x4
    5d4b:	mov    r15d,DWORD PTR [rcx+rax*4]
    5d4f:	lea    rax,[rax+rax*8]
    5d53:	mov    ecx,ebp
    5d55:	shl    rax,0x4
    5d59:	sar    r15d,cl
    5d5c:	mov    rcx,rax
    5d5f:	lea    rax,[rip+0x2457a]        # 2a2e0 <r_tropism>
    5d66:	add    rax,rcx
    5d69:	lea    edx,[rdx+r15*1+0xfa]
    5d71:	mov    r15d,0x1
    5d77:	movzx  eax,BYTE PTR [rax+r13*1]
    5d7c:	add    edx,eax
    5d7e:	cmp    edi,r10d
    5d81:	jle    54c0 <eval+0x100>
    5d87:	jmp    5529 <eval+0x169>
    5d8c:	nop    DWORD PTR [rax+0x0]
    5d90:	lea    rcx,[rip+0x15d69]        # 1bb00 <black_knight>
    5d97:	sub    edx,0xd2
    5d9d:	add    rsi,0x4
    5da1:	mov    ecx,DWORD PTR [rcx+rax*4]
    5da4:	lea    rax,[rax+rax*8]
    5da8:	shl    rax,0x4
    5dac:	mov    DWORD PTR [rsp+0xc],ecx
    5db0:	mov    r15d,ecx
    5db3:	mov    ecx,r12d
    5db6:	sar    r15d,cl
    5db9:	lea    rcx,[rip+0x33840]        # 39600 <n_tropism>
    5dc0:	add    rax,rcx
    5dc3:	sub    edx,r15d
    5dc6:	mov    r15d,0x1
    5dcc:	movzx  eax,BYTE PTR [rax+r14*1]
    5dd1:	sub    edx,eax
    5dd3:	cmp    edi,r10d
    5dd6:	jle    54c0 <eval+0x100>
    5ddc:	jmp    5529 <eval+0x169>
    5de1:	nop    DWORD PTR [rax+0x0]
    5de8:	lea    rcx,[rip+0x15ad1]        # 1b8c0 <white_knight>
    5def:	add    rsi,0x4
    5df3:	mov    ecx,DWORD PTR [rcx+rax*4]
    5df6:	lea    rax,[rax+rax*8]
    5dfa:	shl    rax,0x4
    5dfe:	mov    DWORD PTR [rsp+0xc],ecx
    5e02:	mov    r15d,ecx
    5e05:	mov    ecx,ebp
    5e07:	sar    r15d,cl
    5e0a:	lea    rcx,[rip+0x337ef]        # 39600 <n_tropism>
    5e11:	add    rax,rcx
    5e14:	lea    edx,[rdx+r15*1+0xd2]
    5e1c:	mov    r15d,0x1
    5e22:	movzx  eax,BYTE PTR [rax+r13*1]
    5e27:	add    edx,eax
    5e29:	cmp    edi,r10d
    5e2c:	jle    54c0 <eval+0x100>
    5e32:	jmp    5529 <eval+0x169>
    5e37:	nop    WORD PTR [rax+rax*1+0x0]
    5e40:	sub    DWORD PTR [rsp+0x10],0x1e
    5e45:	jmp    578d <eval+0x3cd>
    5e4a:	nop    WORD PTR [rax+rax*1+0x0]
    5e50:	add    DWORD PTR [rsp+0x10],0x1e
    5e55:	jmp    57b0 <eval+0x3f0>
    5e5a:	nop    WORD PTR [rax+rax*1+0x0]
    5e60:	call   6530 <losers_eval>
    5e65:	jmp    5439 <eval+0x79>
    5e6a:	nop    WORD PTR [rax+rax*1+0x0]
    5e70:	call   bc70 <std_eval>
    5e75:	jmp    5439 <eval+0x79>
    5e7a:	nop    WORD PTR [rax+rax*1+0x0]
    5e80:	call   16670 <suicide_eval>
    5e85:	jmp    5439 <eval+0x79>
    5e8a:	nop    WORD PTR [rax+rax*1+0x0]
    5e90:	add    DWORD PTR [rsp+0x10],0x23
    5e95:	test   eax,eax
    5e97:	je     57e2 <eval+0x422>
    5e9d:	mov    esi,0x1
    5ea2:	call   3530 <is_attacked>
    5ea7:	test   eax,eax
    5ea9:	je     57e2 <eval+0x422>
    5eaf:	mov    eax,0x96
    5eb4:	mov    ecx,ebp
    5eb6:	sar    eax,cl
    5eb8:	add    DWORD PTR [rsp+0x10],eax
    5ebc:	jmp    57e2 <eval+0x422>
    5ec1:	nop    DWORD PTR [rax+0x0]
    5ec8:	sub    DWORD PTR [rsp+0x10],0x23
    5ecd:	test   r14d,r14d
    5ed0:	je     57c4 <eval+0x404>
    5ed6:	xor    esi,esi
    5ed8:	mov    edi,r10d
    5edb:	call   3530 <is_attacked>
    5ee0:	test   eax,eax
    5ee2:	je     5ef2 <eval+0xb32>
    5ee4:	mov    eax,0x96
    5ee9:	mov    ecx,r12d
    5eec:	sar    eax,cl
    5eee:	sub    DWORD PTR [rsp+0x10],eax
    5ef2:	mov    r11d,DWORD PTR [rip+0x27762b]        # 27d524 <bking_loc>
    5ef9:	jmp    57c4 <eval+0x404>
    5efe:	xchg   ax,ax
    5f00:	mov    ebx,0xe
    5f05:	jmp    5aa9 <eval+0x6e9>
    5f0a:	nop    WORD PTR [rax+rax*1+0x0]
    5f10:	test   eax,eax
    5f12:	je     5870 <eval+0x4b0>
    5f18:	jmp    5853 <eval+0x493>
    5f1d:	nop    DWORD PTR [rax]
    5f20:	test   eax,eax
    5f22:	je     5838 <eval+0x478>
    5f28:	jmp    57fd <eval+0x43d>
    5f2d:	nop    DWORD PTR [rax]
    5f30:	mov    edx,DWORD PTR [rip+0x277a3a]        # 27d970 <board+0xb0>
    5f36:	cmp    edx,0x1
    5f39:	je     58c7 <eval+0x507>
    5f3f:	mov    eax,DWORD PTR [rsp+0x10]
    5f43:	cmp    edx,0x4
    5f46:	je     636f <eval+0xfaf>
    5f4c:	sub    eax,0x14
    5f4f:	mov    DWORD PTR [rsp+0x10],eax
    5f53:	jmp    58c7 <eval+0x507>
    5f58:	nop    DWORD PTR [rax+rax*1+0x0]
    5f60:	mov    eax,DWORD PTR [rip+0x1f23a]        # 251a0 <black_hand_eval>
    5f66:	cmp    eax,0xffffff38
    5f6b:	jl     625e <eval+0xe9e>
    5f71:	mov    r12d,DWORD PTR [rip+0x275848]        # 27b7c0 <Variant>
    5f78:	xor    ebp,ebp
    5f7a:	cmp    r12d,0x1
    5f7e:	je     5471 <eval+0xb1>
    5f84:	mov    r12d,0x2
    5f8a:	jmp    5471 <eval+0xb1>
    5f8f:	nop
    5f90:	mov    esi,0x1
    5f95:	call   3530 <is_attacked>
    5f9a:	test   eax,eax
    5f9c:	je     5888 <eval+0x4c8>
    5fa2:	mov    eax,0x32
    5fa7:	mov    ecx,ebp
    5fa9:	sar    eax,cl
    5fab:	add    DWORD PTR [rsp+0x10],eax
    5faf:	jmp    58a0 <eval+0x4e0>
    5fb4:	nop    DWORD PTR [rax+0x0]
    5fb8:	xor    ebp,ebp
    5fba:	cmp    eax,0x2bb
    5fbf:	mov    r12d,ebx
    5fc2:	setle  bpl
    5fc6:	jmp    5471 <eval+0xb1>
    5fcb:	nop    DWORD PTR [rax+rax*1+0x0]
    5fd0:	mov    edi,r8d
    5fd3:	xor    esi,esi
    5fd5:	call   37d0 <nk_attacked>
    5fda:	mov    edi,DWORD PTR [rip+0x277ffc]        # 27dfdc <wking_loc>
    5fe0:	add    r12d,eax
    5fe3:	jmp    5936 <eval+0x576>
    5fe8:	nop    DWORD PTR [rax+rax*1+0x0]
    5ff0:	mov    edi,r8d
    5ff3:	xor    esi,esi
    5ff5:	call   37d0 <nk_attacked>
    5ffa:	mov    edi,DWORD PTR [rip+0x277fdc]        # 27dfdc <wking_loc>
    6000:	mov    r12d,eax
    6003:	jmp    5922 <eval+0x562>
    6008:	nop    DWORD PTR [rax+rax*1+0x0]
    6010:	mov    edi,r8d
    6013:	mov    esi,0x1
    6018:	call   37d0 <nk_attacked>
    601d:	mov    edi,DWORD PTR [rip+0x277501]        # 27d524 <bking_loc>
    6023:	add    r14d,eax
    6026:	jmp    5a7c <eval+0x6bc>
    602b:	nop    DWORD PTR [rax+rax*1+0x0]
    6030:	mov    edi,r8d
    6033:	mov    esi,0x1
    6038:	call   37d0 <nk_attacked>
    603d:	mov    edi,DWORD PTR [rip+0x2774e1]        # 27d524 <bking_loc>
    6043:	add    r14d,eax
    6046:	jmp    5a68 <eval+0x6a8>
    604b:	nop    DWORD PTR [rax+rax*1+0x0]
    6050:	mov    edi,r8d
    6053:	mov    esi,0x1
    6058:	call   37d0 <nk_attacked>
    605d:	mov    edi,DWORD PTR [rip+0x2774c1]        # 27d524 <bking_loc>
    6063:	add    r14d,eax
    6066:	jmp    5a54 <eval+0x694>
    606b:	nop    DWORD PTR [rax+rax*1+0x0]
    6070:	mov    edi,r8d
    6073:	mov    esi,0x1
    6078:	call   37d0 <nk_attacked>
    607d:	mov    edi,DWORD PTR [rip+0x2774a1]        # 27d524 <bking_loc>
    6083:	add    r14d,eax
    6086:	jmp    5a40 <eval+0x680>
    608b:	nop    DWORD PTR [rax+rax*1+0x0]
    6090:	mov    edi,r8d
    6093:	mov    esi,0x1
    6098:	call   37d0 <nk_attacked>
    609d:	mov    edi,DWORD PTR [rip+0x277481]        # 27d524 <bking_loc>
    60a3:	add    r14d,eax
    60a6:	jmp    5a2b <eval+0x66b>
    60ab:	nop    DWORD PTR [rax+rax*1+0x0]
    60b0:	mov    edi,r8d
    60b3:	mov    esi,0x1
    60b8:	call   37d0 <nk_attacked>
    60bd:	mov    edi,DWORD PTR [rip+0x277461]        # 27d524 <bking_loc>
    60c3:	add    r14d,eax
    60c6:	jmp    5a16 <eval+0x656>
    60cb:	nop    DWORD PTR [rax+rax*1+0x0]
    60d0:	mov    edi,r8d
    60d3:	mov    esi,0x1
    60d8:	call   37d0 <nk_attacked>
    60dd:	mov    edi,DWORD PTR [rip+0x277441]        # 27d524 <bking_loc>
    60e3:	mov    r14d,eax
    60e6:	jmp    5a01 <eval+0x641>
    60eb:	nop    DWORD PTR [rax+rax*1+0x0]
    60f0:	mov    esi,0x1
    60f5:	call   37d0 <nk_attacked>
    60fa:	add    r14d,eax
    60fd:	jmp    5a8f <eval+0x6cf>
    6102:	nop    WORD PTR [rax+rax*1+0x0]
    6108:	xor    esi,esi
    610a:	call   37d0 <nk_attacked>
    610f:	add    r12d,eax
    6112:	jmp    59ad <eval+0x5ed>
    6117:	nop    WORD PTR [rax+rax*1+0x0]
    6120:	mov    edi,r8d
    6123:	xor    esi,esi
    6125:	call   37d0 <nk_attacked>
    612a:	mov    edi,DWORD PTR [rip+0x277eac]        # 27dfdc <wking_loc>
    6130:	add    r12d,eax
    6133:	jmp    599a <eval+0x5da>
    6138:	nop    DWORD PTR [rax+rax*1+0x0]
    6140:	mov    edi,r8d
    6143:	xor    esi,esi
    6145:	call   37d0 <nk_attacked>
    614a:	mov    edi,DWORD PTR [rip+0x277e8c]        # 27dfdc <wking_loc>
    6150:	add    r12d,eax
    6153:	jmp    5986 <eval+0x5c6>
    6158:	nop    DWORD PTR [rax+rax*1+0x0]
    6160:	mov    edi,r8d
    6163:	xor    esi,esi
    6165:	call   37d0 <nk_attacked>
    616a:	mov    edi,DWORD PTR [rip+0x277e6c]        # 27dfdc <wking_loc>
    6170:	add    r12d,eax
    6173:	jmp    5972 <eval+0x5b2>
    6178:	nop    DWORD PTR [rax+rax*1+0x0]
    6180:	mov    edi,r8d
    6183:	xor    esi,esi
    6185:	call   37d0 <nk_attacked>
    618a:	mov    edi,DWORD PTR [rip+0x277e4c]        # 27dfdc <wking_loc>
    6190:	add    r12d,eax
    6193:	jmp    595e <eval+0x59e>
    6198:	nop    DWORD PTR [rax+rax*1+0x0]
    61a0:	mov    edi,r8d
    61a3:	xor    esi,esi
    61a5:	call   37d0 <nk_attacked>
    61aa:	mov    edi,DWORD PTR [rip+0x277e2c]        # 27dfdc <wking_loc>
    61b0:	add    r12d,eax
    61b3:	jmp    594a <eval+0x58a>
    61b8:	nop    DWORD PTR [rax+rax*1+0x0]
    61c0:	lea    eax,[r11-0x19]
    61c4:	cdqe   
    61c6:	cmp    DWORD PTR [r13+rax*4+0x0],0x2
    61cc:	jne    61d3 <eval+0xe13>
    61ce:	add    DWORD PTR [rsp+0x10],0xb
    61d3:	lea    eax,[r11-0x18]
    61d7:	cdqe   
    61d9:	cmp    DWORD PTR [r13+rax*4+0x0],0x2
    61df:	jne    61e6 <eval+0xe26>
    61e1:	add    DWORD PTR [rsp+0x10],0xf
    61e6:	lea    eax,[r11-0x17]
    61ea:	cdqe   
    61ec:	cmp    DWORD PTR [r13+rax*4+0x0],0x2
    61f2:	jne    5661 <eval+0x2a1>
    61f8:	add    DWORD PTR [rsp+0x10],0xb
    61fd:	jmp    5661 <eval+0x2a1>
    6202:	nop    WORD PTR [rax+rax*1+0x0]
    6208:	movsxd rcx,edx
    620b:	mov    eax,edx
    620d:	imul   rcx,rcx,0x51eb851f
    6214:	sar    eax,0x1f
    6217:	sar    rcx,0x25
    621b:	sub    eax,ecx
    621d:	jmp    59cb <eval+0x60b>
    6222:	nop    WORD PTR [rax+rax*1+0x0]
    6228:	sub    DWORD PTR [rsp+0x10],0xa
    622d:	jmp    576a <eval+0x3aa>
    6232:	nop    WORD PTR [rax+rax*1+0x0]
    6238:	add    DWORD PTR [rsp+0x10],0xa
    623d:	jmp    5724 <eval+0x364>
    6242:	nop    WORD PTR [rax+rax*1+0x0]
    6248:	movsxd rbx,eax
    624b:	cdq    
    624c:	imul   rbx,rbx,0x51eb851f
    6253:	sar    rbx,0x25
    6257:	sub    ebx,edx
    6259:	jmp    5aa9 <eval+0x6e9>
    625e:	xor    r12d,r12d
    6261:	cmp    eax,0xfffffd45
    6266:	setge  r12b
    626a:	xor    ebp,ebp
    626c:	jmp    5471 <eval+0xb1>
    6271:	cmp    DWORD PTR [rip+0x2777e4],0x2        # 27da5c <board+0x19c>
    6278:	jne    627f <eval+0xebf>
    627a:	sub    DWORD PTR [rsp+0x10],0xa
    627f:	mov    eax,DWORD PTR [rip+0x2777a3]        # 27da28 <board+0x168>
    6285:	cmp    eax,0x2
    6288:	je     63e1 <eval+0x1021>
    628e:	cmp    eax,0x1
    6291:	jne    5870 <eval+0x4b0>
    6297:	add    DWORD PTR [rsp+0x10],0xf
    629c:	jmp    5870 <eval+0x4b0>
    62a1:	nop    DWORD PTR [rax+0x0]
    62a8:	xor    esi,esi
    62aa:	call   3530 <is_attacked>
    62af:	test   eax,eax
    62b1:	je     58a0 <eval+0x4e0>
    62b7:	mov    eax,0x32
    62bc:	mov    ecx,r12d
    62bf:	sar    eax,cl
    62c1:	sub    DWORD PTR [rsp+0x10],eax
    62c5:	jmp    58a0 <eval+0x4e0>
    62ca:	nop    WORD PTR [rax+rax*1+0x0]
    62d0:	mov    edx,DWORD PTR [rsp+0x4]
    62d4:	movsxd r14,DWORD PTR [rsp+0x8]
    62d9:	movsxd r13,r11d
    62dc:	jmp    5531 <eval+0x171>
    62e1:	nop    DWORD PTR [rax+0x0]
    62e8:	mov    esi,0x1
    62ed:	mov    edi,0x68
    62f2:	add    DWORD PTR [rsp+0x10],0x14
    62f7:	call   3530 <is_attacked>
    62fc:	test   eax,eax
    62fe:	je     6305 <eval+0xf45>
    6300:	add    DWORD PTR [rsp+0x10],0x28
    6305:	cmp    DWORD PTR [rip+0x277784],0x8        # 27da90 <board+0x1d0>
    630c:	jne    6313 <eval+0xf53>
    630e:	sub    DWORD PTR [rsp+0x10],0xa
    6313:	cmp    DWORD PTR [rip+0x277772],0xc        # 27da8c <board+0x1cc>
    631a:	jne    58ba <eval+0x4fa>
    6320:	sub    DWORD PTR [rsp+0x10],0xa
    6325:	jmp    58ba <eval+0x4fa>
    632a:	nop    WORD PTR [rax+rax*1+0x0]
    6330:	xor    esi,esi
    6332:	mov    edi,0x2c
    6337:	sub    DWORD PTR [rsp+0x10],0x14
    633c:	call   3530 <is_attacked>
    6341:	test   eax,eax
    6343:	je     634a <eval+0xf8a>
    6345:	sub    DWORD PTR [rsp+0x10],0x28
    634a:	cmp    DWORD PTR [rip+0x2775ef],0x7        # 27d940 <board+0x80>
    6351:	jne    6358 <eval+0xf98>
    6353:	add    DWORD PTR [rsp+0x10],0xa
    6358:	cmp    DWORD PTR [rip+0x2775dd],0xb        # 27d93c <board+0x7c>
    635f:	jne    58ad <eval+0x4ed>
    6365:	add    DWORD PTR [rsp+0x10],0xa
    636a:	jmp    58ad <eval+0x4ed>
    636f:	lea    edx,[rax-0x3c]
    6372:	cmp    DWORD PTR [rip+0x2775c3],0x5        # 27d93c <board+0x7c>
    6379:	mov    DWORD PTR [rsp+0x10],edx
    637d:	je     6395 <eval+0xfd5>
    637f:	cmp    DWORD PTR [rip+0x2775ba],0x5        # 27d940 <board+0x80>
    6386:	je     6395 <eval+0xfd5>
    6388:	cmp    DWORD PTR [rip+0x2775b5],0x5        # 27d944 <board+0x84>
    638f:	jne    58c7 <eval+0x507>
    6395:	sub    eax,0x8c
    639a:	mov    DWORD PTR [rsp+0x10],eax
    639e:	jmp    58c7 <eval+0x507>
    63a3:	lea    edx,[rax+0x3c]
    63a6:	cmp    DWORD PTR [rip+0x2776df],0x6        # 27da8c <board+0x1cc>
    63ad:	mov    DWORD PTR [rsp+0x10],edx
    63b1:	je     63c9 <eval+0x1009>
    63b3:	cmp    DWORD PTR [rip+0x2776d6],0x6        # 27da90 <board+0x1d0>
    63ba:	je     63c9 <eval+0x1009>
    63bc:	cmp    DWORD PTR [rip+0x2776d1],0x6        # 27da94 <board+0x1d4>
    63c3:	jne    58f0 <eval+0x530>
    63c9:	add    eax,0x8c
    63ce:	mov    DWORD PTR [rsp+0x10],eax
    63d2:	jmp    58f0 <eval+0x530>
    63d7:	add    DWORD PTR [rsp+0x10],0x14
    63dc:	jmp    5838 <eval+0x478>
    63e1:	sub    DWORD PTR [rsp+0x10],0x14
    63e6:	jmp    5870 <eval+0x4b0>
    63eb:	call   1310 <__stack_chk_fail@plt>

00000000000063f0 <l_bishop_mobility>:
    63f0:	lea    eax,[rdi-0xd]
    63f3:	lea    rcx,[rip+0x2774c6]        # 27d8c0 <board>
    63fa:	cdqe   
    63fc:	cmp    DWORD PTR [rcx+rax*4],0xd
    6400:	jne    6480 <l_bishop_mobility+0x90>
    6402:	movsxd rax,edi
    6405:	lea    rdx,[rcx+rax*4]
    6409:	xor    eax,eax
    640b:	nop    DWORD PTR [rax+rax*1+0x0]
    6410:	sub    rdx,0x34
    6414:	add    eax,0x1
    6417:	cmp    DWORD PTR [rdx-0x34],0xd
    641b:	je     6410 <l_bishop_mobility+0x20>
    641d:	lea    edx,[rdi-0xb]
    6420:	movsxd rdx,edx
    6423:	cmp    DWORD PTR [rcx+rdx*4],0xd
    6427:	jne    643d <l_bishop_mobility+0x4d>
    6429:	movsxd rdx,edi
    642c:	lea    rdx,[rcx+rdx*4]
    6430:	sub    rdx,0x2c
    6434:	add    eax,0x1
    6437:	cmp    DWORD PTR [rdx-0x2c],0xd
    643b:	je     6430 <l_bishop_mobility+0x40>
    643d:	lea    edx,[rdi+0xb]
    6440:	movsxd rdx,edx
    6443:	cmp    DWORD PTR [rcx+rdx*4],0xd
    6447:	jne    645d <l_bishop_mobility+0x6d>
    6449:	movsxd rdx,edi
    644c:	lea    rdx,[rcx+rdx*4]
    6450:	add    rdx,0x2c
    6454:	add    eax,0x1
    6457:	cmp    DWORD PTR [rdx+0x2c],0xd
    645b:	je     6450 <l_bishop_mobility+0x60>
    645d:	lea    edx,[rdi+0xd]
    6460:	movsxd rdx,edx
    6463:	cmp    DWORD PTR [rcx+rdx*4],0xd
    6467:	jne    647d <l_bishop_mobility+0x8d>
    6469:	movsxd rdi,edi
    646c:	lea    rdx,[rcx+rdi*4]
    6470:	add    rdx,0x34
    6474:	add    eax,0x1
    6477:	cmp    DWORD PTR [rdx+0x34],0xd
    647b:	je     6470 <l_bishop_mobility+0x80>
    647d:	ret    
    647e:	xchg   ax,ax
    6480:	xor    eax,eax
    6482:	jmp    641d <l_bishop_mobility+0x2d>
    6484:	data16 nop WORD PTR cs:[rax+rax*1+0x0]
    648f:	nop

0000000000006490 <l_rook_mobility>:
    6490:	lea    eax,[rdi-0xc]
    6493:	lea    rcx,[rip+0x277426]        # 27d8c0 <board>
    649a:	cdqe   
    649c:	cmp    DWORD PTR [rcx+rax*4],0xd
    64a0:	jne    6520 <l_rook_mobility+0x90>
    64a2:	movsxd rax,edi
    64a5:	lea    rdx,[rcx+rax*4]
    64a9:	xor    eax,eax
    64ab:	nop    DWORD PTR [rax+rax*1+0x0]
    64b0:	sub    rdx,0x30
    64b4:	add    eax,0x1
    64b7:	cmp    DWORD PTR [rdx-0x30],0xd
    64bb:	je     64b0 <l_rook_mobility+0x20>
    64bd:	lea    edx,[rdi-0x1]
    64c0:	movsxd rdx,edx
    64c3:	cmp    DWORD PTR [rcx+rdx*4],0xd
    64c7:	jne    64dd <l_rook_mobility+0x4d>
    64c9:	movsxd rdx,edi
    64cc:	lea    rdx,[rcx+rdx*4]
    64d0:	sub    rdx,0x4
    64d4:	add    eax,0x1
    64d7:	cmp    DWORD PTR [rdx-0x4],0xd
    64db:	je     64d0 <l_rook_mobility+0x40>
    64dd:	lea    edx,[rdi+0x1]
    64e0:	movsxd rdx,edx
    64e3:	cmp    DWORD PTR [rcx+rdx*4],0xd
    64e7:	jne    64fd <l_rook_mobility+0x6d>
    64e9:	movsxd rdx,edi
    64ec:	lea    rdx,[rcx+rdx*4]
    64f0:	add    rdx,0x4
    64f4:	add    eax,0x1
    64f7:	cmp    DWORD PTR [rdx+0x4],0xd
    64fb:	je     64f0 <l_rook_mobility+0x60>
    64fd:	lea    edx,[rdi+0xc]
    6500:	movsxd rdx,edx
    6503:	cmp    DWORD PTR [rcx+rdx*4],0xd
    6507:	jne    651d <l_rook_mobility+0x8d>
    6509:	movsxd rdi,edi
    650c:	lea    rdx,[rcx+rdi*4]
    6510:	add    rdx,0x30
    6514:	add    eax,0x1
    6517:	cmp    DWORD PTR [rdx+0x30],0xd
    651b:	je     6510 <l_rook_mobility+0x80>
    651d:	ret    
    651e:	xchg   ax,ax
    6520:	xor    eax,eax
    6522:	jmp    64bd <l_rook_mobility+0x2d>
    6524:	data16 nop WORD PTR cs:[rax+rax*1+0x0]
    652f:	nop

0000000000006530 <losers_eval>:
    6530:	endbr64 
    6534:	push   r15
    6536:	push   r14
    6538:	push   r13
    653a:	push   r12
    653c:	push   rbp
    653d:	push   rbx
    653e:	sub    rsp,0x128
    6545:	mov    rax,QWORD PTR fs:0x28
    654e:	mov    QWORD PTR [rsp+0x118],rax
    6556:	xor    eax,eax
    6558:	lea    rsi,[rsp+0x5c]
    655d:	lea    rdi,[rsp+0x58]
    6562:	mov    DWORD PTR [rsp+0x58],0x0
    656a:	mov    DWORD PTR [rsp+0x5c],0x0
    6572:	call   43f0 <checkECache>
    6577:	mov    r12d,DWORD PTR [rsp+0x5c]
    657c:	test   r12d,r12d
    657f:	je     65c0 <losers_eval+0x90>
    6581:	cmp    DWORD PTR [rip+0x276f98],0x1        # 27d520 <white_to_move>
    6588:	mov    eax,DWORD PTR [rsp+0x58]
    658c:	je     6590 <losers_eval+0x60>
    658e:	neg    eax
    6590:	mov    rbx,QWORD PTR [rsp+0x118]
    6598:	xor    rbx,QWORD PTR fs:0x28
    65a1:	jne    6f27 <losers_eval+0x9f7>
    65a7:	add    rsp,0x128
    65ae:	pop    rbx
    65af:	pop    rbp
    65b0:	pop    r12
    65b2:	pop    r13
    65b4:	pop    r14
    65b6:	pop    r15
    65b8:	ret    
    65b9:	nop    DWORD PTR [rax+0x0]
    65c0:	lea    rdx,[rsp+0xc0]
    65c8:	mov    ecx,0xb
    65cd:	xor    eax,eax
    65cf:	mov    rdi,rdx
    65d2:	lea    rdx,[rsp+0x90]
    65da:	rep stos QWORD PTR es:[rdi],rax
    65dd:	lea    rcx,[rsp+0x60]
    65e2:	nop    WORD PTR [rax+rax*1+0x0]
    65e8:	mov    DWORD PTR [rcx+rax*1],0x7
    65ef:	mov    DWORD PTR [rdx+rax*1],0x2
    65f6:	add    rax,0x4
    65fa:	cmp    rax,0x2c
    65fe:	jne    65e8 <losers_eval+0xb8>
    6600:	mov    ebx,DWORD PTR [rip+0x6529e]        # 6b8a4 <piece_count>
    6606:	mov    esi,DWORD PTR [rsp+0x58]
    660a:	test   ebx,ebx
    660c:	jle    6e72 <losers_eval+0x942>
    6612:	lea    r9,[rip+0x2751cb]        # 27b7e4 <pieces+0x4>
    6619:	xor    ecx,ecx
    661b:	xor    r12d,r12d
    661e:	mov    edi,0x1
    6623:	mov    rdx,r9
    6626:	lea    r11,[rip+0x16253]        # 1c880 <Xfile>
    662d:	lea    r10,[rip+0x1600c]        # 1c640 <Xrank>
    6634:	lea    r8,[rip+0x277285]        # 27d8c0 <board>
    663b:	jmp    6651 <losers_eval+0x121>
    663d:	nop    DWORD PTR [rax]
    6640:	cmp    eax,0x2
    6643:	je     6748 <losers_eval+0x218>
    6649:	add    rdx,0x4
    664d:	cmp    edi,ebx
    664f:	jg     6690 <losers_eval+0x160>
    6651:	movsxd rax,DWORD PTR [rdx]
    6654:	test   eax,eax
    6656:	je     6649 <losers_eval+0x119>
    6658:	mov    ecx,DWORD PTR [r11+rax*4]
    665c:	mov    r12d,DWORD PTR [r10+rax*4]
    6660:	add    edi,0x1
    6663:	mov    eax,DWORD PTR [r8+rax*4]
    6667:	add    ecx,0x1
    666a:	cmp    eax,0x1
    666d:	jne    6640 <losers_eval+0x110>
    666f:	movsxd rax,ecx
    6672:	add    DWORD PTR [rsp+rax*4+0xec],0x1
    667a:	cmp    DWORD PTR [rsp+rax*4+0x60],r12d
    667f:	jle    6649 <losers_eval+0x119>
    6681:	mov    DWORD PTR [rsp+rax*4+0x60],r12d
    6686:	add    rdx,0x4
    668a:	cmp    edi,ebx
    668c:	jle    6651 <losers_eval+0x121>
    668e:	xchg   ax,ax
    6690:	movsxd rdi,ecx
    6693:	lea    eax,[rcx+0x1]
    6696:	lea    edx,[rcx-0x1]
    6699:	mov    DWORD PTR [rsp],0x0
    66a0:	lea    rcx,[rdi+0xb]
    66a4:	cdqe   
    66a6:	mov    QWORD PTR [rsp+0x20],rdi
    66ab:	movsxd rdi,edx
    66ae:	mov    QWORD PTR [rsp+0x8],rdi
    66b3:	add    rdi,0xb
    66b7:	xor    r15d,r15d
    66ba:	xor    r14d,r14d
    66bd:	mov    QWORD PTR [rsp+0x18],rax
    66c2:	add    rax,0xb
    66c6:	mov    r11d,0x1
    66cc:	lea    r10,[rip+0x2771ed]        # 27d8c0 <board>
    66d3:	mov    DWORD PTR [rsp+0x14],0x0
    66db:	lea    r13,[rip+0x163de]        # 1cac0 <Xfile+0x240>
    66e2:	mov    DWORD PTR [rsp+0x38],0x0
    66ea:	mov    DWORD PTR [rsp+0x3c],0x0
    66f2:	mov    DWORD PTR [rsp+0x10],0x0
    66fa:	mov    DWORD PTR [rsp+0x4],0x0
    6702:	mov    QWORD PTR [rsp+0x28],rcx
    6707:	mov    QWORD PTR [rsp+0x30],rdi
    670c:	mov    QWORD PTR [rsp+0x40],rax
    6711:	nop    DWORD PTR [rax+0x0]
    6718:	mov    ebp,DWORD PTR [r9]
    671b:	test   ebp,ebp
    671d:	je     6810 <losers_eval+0x2e0>
    6723:	movsxd r8,ebp
    6726:	add    r11d,0x1
    672a:	mov    eax,DWORD PTR [r10+r8*4]
    672e:	cmp    eax,0xc
    6731:	ja     6810 <losers_eval+0x2e0>
    6737:	mov    edx,eax
    6739:	movsxd rdx,DWORD PTR [r13+rdx*4+0x0]
    673e:	add    rdx,r13
    6741:	notrack jmp rdx
    6744:	nop    DWORD PTR [rax+0x0]
    6748:	movsxd rax,ecx
    674b:	add    DWORD PTR [rsp+rax*4+0xc0],0x1
    6753:	cmp    DWORD PTR [rsp+rax*4+0x90],r12d
    675b:	jge    6649 <losers_eval+0x119>
    6761:	mov    DWORD PTR [rsp+rax*4+0x90],r12d
    6769:	jmp    6649 <losers_eval+0x119>
    676e:	sub    esi,0xd
    6771:	mov    DWORD PTR [rsp+0x58],esi
    6775:	nop    DWORD PTR [rax]
    6778:	mov    rax,QWORD PTR [rsp+0x28]
    677d:	mov    eax,DWORD PTR [rsp+rax*4+0xc0]
    6784:	cmp    eax,0x1
    6787:	jle    6796 <losers_eval+0x266>
    6789:	lea    eax,[rax*8-0x8]
    6790:	sub    esi,eax
    6792:	mov    DWORD PTR [rsp+0x58],esi
    6796:	mov    rax,QWORD PTR [rsp+0x8]
    679b:	cmp    DWORD PTR [rsp+rax*4+0x90],r12d
    67a3:	jg     67f8 <losers_eval+0x2c8>
    67a5:	mov    rax,QWORD PTR [rsp+0x18]
    67aa:	cmp    DWORD PTR [rsp+rax*4+0x90],r12d
    67b2:	jg     67f8 <losers_eval+0x2c8>
    67b4:	lea    eax,[rcx+rcx*4]
    67b7:	lea    esi,[rsi+rax*2+0x19]
    67bb:	cmp    edi,0x7
    67be:	jne    67c3 <losers_eval+0x293>
    67c0:	add    esi,0x32
    67c3:	lea    rax,[rip+0x160b6]        # 1c880 <Xfile>
    67ca:	add    DWORD PTR [rsp+0x3c],0x1
    67cf:	mov    eax,DWORD PTR [rax+r8*4]
    67d3:	mov    DWORD PTR [rsp+0x58],esi
    67d7:	cmp    eax,0x1
    67da:	je     6efa <losers_eval+0x9ca>
    67e0:	cmp    eax,0x8
    67e3:	je     6efa <losers_eval+0x9ca>
    67e9:	test   edx,edx
    67eb:	jne    67f8 <losers_eval+0x2c8>
    67ed:	add    esi,0x18
    67f0:	mov    DWORD PTR [rsp+0x58],esi
    67f4:	nop    DWORD PTR [rax+0x0]
    67f8:	mov    edi,DWORD PTR [rsp+0x48]
    67fc:	test   edi,edi
    67fe:	jne    6810 <losers_eval+0x2e0>
    6800:	sub    esi,0x5
    6803:	mov    DWORD PTR [rsp+0x58],esi
    6807:	nop    WORD PTR [rax+rax*1+0x0]
    6810:	add    r9,0x4
    6814:	cmp    r11d,ebx
    6817:	jle    6718 <losers_eval+0x1e8>
    681d:	mov    ebx,esi
    681f:	mov    eax,DWORD PTR [rsp+0x4]
    6823:	lea    edx,[r14+r15*1]
    6827:	sub    eax,DWORD PTR [rsp+0x10]
    682b:	sub    ebx,eax
    682d:	cmp    edx,0xa
    6830:	cmovg  esi,ebx
    6833:	mov    eax,DWORD PTR [rip+0x2dca7]        # 344e0 <Material>
    6839:	lea    edx,[rax+0x384]
    683f:	cmp    edx,0x708
    6845:	jbe    6868 <losers_eval+0x338>
    6847:	test   eax,eax
    6849:	jle    6e40 <losers_eval+0x910>
    684f:	cmp    DWORD PTR [rip+0x290efe],0x1        # 297754 <comp_color>
    6856:	jne    6868 <losers_eval+0x338>
    6858:	mov    ecx,DWORD PTR [rsp+0x3c]
    685c:	test   ecx,ecx
    685e:	je     6e61 <losers_eval+0x931>
    6864:	nop    DWORD PTR [rax+0x0]
    6868:	add    esi,eax
    686a:	mov    DWORD PTR [rsp+0x58],esi
    686e:	mov    edx,DWORD PTR [rsp]
    6871:	test   edx,edx
    6873:	je     68a8 <losers_eval+0x378>
    6875:	mov    eax,DWORD PTR [rsp+0x14]
    6879:	test   eax,eax
    687b:	jne    6885 <losers_eval+0x355>
    687d:	sub    DWORD PTR [rsp+0x58],0xc8
    6885:	test   r14d,r14d
    6888:	jne    68b5 <losers_eval+0x385>
    688a:	mov    DWORD PTR [rsp+0x58],0xf4240
    6892:	mov    edi,0xf4240
    6897:	call   43b0 <storeECache>
    689c:	jmp    6581 <losers_eval+0x51>
    68a1:	nop    DWORD PTR [rax+0x0]
    68a8:	add    DWORD PTR [rsp+0x58],0xc8
    68b0:	test   r14d,r14d
    68b3:	je     688a <losers_eval+0x35a>
    68b5:	test   r15d,r15d
    68b8:	je     6df8 <losers_eval+0x8c8>
    68be:	mov    edi,DWORD PTR [rsp+0x58]
    68c2:	jmp    6897 <losers_eval+0x367>
    68c4:	nop    DWORD PTR [rax+0x0]
    68c8:	mov    edi,ebp
    68ca:	add    r15d,0x1
    68ce:	call   63f0 <l_bishop_mobility>
    68d3:	shl    eax,0x2
    68d6:	add    r9,0x4
    68da:	sub    esi,eax
    68dc:	lea    rax,[rip+0x1625d]        # 1cb40 <lcentral>
    68e3:	sub    esi,DWORD PTR [rax+r8*4]
    68e7:	mov    DWORD PTR [rsp+0x58],esi
    68eb:	cmp    r11d,ebx
    68ee:	jle    6718 <losers_eval+0x1e8>
    68f4:	jmp    681d <losers_eval+0x2ed>
    68f9:	nop    DWORD PTR [rax+0x0]
    6900:	mov    edi,ebp
    6902:	add    r14d,0x1
    6906:	call   63f0 <l_bishop_mobility>
    690b:	lea    esi,[rsi+rax*4]
    690e:	lea    rax,[rip+0x1622b]        # 1cb40 <lcentral>
    6915:	add    r9,0x4
    6919:	add    esi,DWORD PTR [rax+r8*4]
    691d:	mov    DWORD PTR [rsp+0x58],esi
    6921:	cmp    r11d,ebx
    6924:	jle    6718 <losers_eval+0x1e8>
    692a:	jmp    681d <losers_eval+0x2ed>
    692f:	nop
    6930:	mov    edi,ebp
    6932:	add    r15d,0x1
    6936:	call   63f0 <l_bishop_mobility>
    693b:	mov    edi,ebp
    693d:	add    eax,eax
    693f:	sub    esi,eax
    6941:	mov    DWORD PTR [rsp+0x58],esi
    6945:	call   6490 <l_rook_mobility>
    694a:	add    eax,eax
    694c:	add    r9,0x4
    6950:	sub    esi,eax
    6952:	lea    rax,[rip+0x161e7]        # 1cb40 <lcentral>
    6959:	sub    esi,DWORD PTR [rax+r8*4]
    695d:	mov    DWORD PTR [rsp+0x58],esi
    6961:	cmp    r11d,ebx
    6964:	jle    6718 <losers_eval+0x1e8>
    696a:	jmp    681d <losers_eval+0x2ed>
    696f:	nop
    6970:	mov    edi,ebp
    6972:	add    r14d,0x1
    6976:	call   63f0 <l_bishop_mobility>
    697b:	mov    edi,ebp
    697d:	lea    esi,[rsi+rax*2]
    6980:	mov    DWORD PTR [rsp+0x58],esi
    6984:	call   6490 <l_rook_mobility>
    6989:	lea    esi,[rsi+rax*2]
    698c:	lea    rax,[rip+0x161ad]        # 1cb40 <lcentral>
    6993:	add    r9,0x4
    6997:	add    esi,DWORD PTR [rax+r8*4]
    699b:	mov    DWORD PTR [rsp+0x58],esi
    699f:	cmp    r11d,ebx
    69a2:	jle    6718 <losers_eval+0x1e8>
    69a8:	jmp    681d <losers_eval+0x2ed>
    69ad:	nop    DWORD PTR [rax]
    69b0:	mov    edi,ebp
    69b2:	add    r15d,0x1
    69b6:	call   6490 <l_rook_mobility>
    69bb:	jmp    68d3 <losers_eval+0x3a3>
    69c0:	mov    edi,ebp
    69c2:	add    r14d,0x1
    69c6:	call   6490 <l_rook_mobility>
    69cb:	lea    esi,[rsi+rax*4]
    69ce:	lea    rax,[rip+0x1616b]        # 1cb40 <lcentral>
    69d5:	add    r9,0x4
    69d9:	add    esi,DWORD PTR [rax+r8*4]
    69dd:	mov    DWORD PTR [rsp+0x58],esi
    69e1:	cmp    r11d,ebx
    69e4:	jle    6718 <losers_eval+0x1e8>
    69ea:	jmp    681d <losers_eval+0x2ed>
    69ef:	nop
    69f0:	lea    rax,[rip+0x16149]        # 1cb40 <lcentral>
    69f7:	lea    rdx,[rip+0x16106]        # 1cb04 <king_o.4471+0x4>
    69fe:	xor    edi,edi
    6a00:	mov    eax,DWORD PTR [rax+r8*4]
    6a04:	lea    rcx,[rdx+0x1c]
    6a08:	add    eax,eax
    6a0a:	mov    DWORD PTR [rsp+0x10],eax
    6a0e:	mov    eax,0xd
    6a13:	jmp    6a1e <losers_eval+0x4ee>
    6a15:	nop    DWORD PTR [rax]
    6a18:	mov    eax,DWORD PTR [rdx]
    6a1a:	add    rdx,0x4
    6a1e:	add    eax,ebp
    6a20:	cdqe   
    6a22:	cmp    DWORD PTR [r10+rax*4],0xd
    6a27:	jne    6a2c <losers_eval+0x4fc>
    6a29:	add    edi,0x1
    6a2c:	cmp    rdx,rcx
    6a2f:	jne    6a18 <losers_eval+0x4e8>
    6a31:	sub    esi,edi
    6a33:	add    r9,0x4
    6a37:	mov    DWORD PTR [rsp+0x58],esi
    6a3b:	cmp    r11d,ebx
    6a3e:	jle    6718 <losers_eval+0x1e8>
    6a44:	jmp    681d <losers_eval+0x2ed>
    6a49:	nop    DWORD PTR [rax+0x0]
    6a50:	lea    rax,[rip+0x160e9]        # 1cb40 <lcentral>
    6a57:	lea    rdx,[rip+0x160a6]        # 1cb04 <king_o.4471+0x4>
    6a5e:	xor    edi,edi
    6a60:	mov    eax,DWORD PTR [rax+r8*4]
    6a64:	lea    rcx,[rdx+0x1c]
    6a68:	add    eax,eax
    6a6a:	mov    DWORD PTR [rsp+0x4],eax
    6a6e:	mov    eax,0xd
    6a73:	jmp    6a7e <losers_eval+0x54e>
    6a75:	nop    DWORD PTR [rax]
    6a78:	mov    eax,DWORD PTR [rdx]
    6a7a:	add    rdx,0x4
    6a7e:	add    eax,ebp
    6a80:	cdqe   
    6a82:	cmp    DWORD PTR [r10+rax*4],0xd
    6a87:	jne    6a8c <losers_eval+0x55c>
    6a89:	add    edi,0x1
    6a8c:	cmp    rdx,rcx
    6a8f:	jne    6a78 <losers_eval+0x548>
    6a91:	add    esi,edi
    6a93:	add    r9,0x4
    6a97:	mov    DWORD PTR [rsp+0x58],esi
    6a9b:	cmp    r11d,ebx
    6a9e:	jle    6718 <losers_eval+0x1e8>
    6aa4:	jmp    681d <losers_eval+0x2ed>
    6aa9:	nop    DWORD PTR [rax+0x0]
    6ab0:	lea    rax,[rip+0x16089]        # 1cb40 <lcentral>
    6ab7:	lea    rdx,[rip+0x16066]        # 1cb24 <knight_o.4458+0x4>
    6abe:	add    r15d,0x1
    6ac2:	xor    ecx,ecx
    6ac4:	mov    eax,DWORD PTR [rax+r8*4]
    6ac8:	lea    rdi,[rdx+0x1c]
    6acc:	add    eax,eax
    6ace:	sub    esi,eax
    6ad0:	mov    eax,0xa
    6ad5:	jmp    6ae6 <losers_eval+0x5b6>
    6ad7:	nop    WORD PTR [rax+rax*1+0x0]
    6ae0:	mov    eax,DWORD PTR [rdx]
    6ae2:	add    rdx,0x4
    6ae6:	add    eax,ebp
    6ae8:	cdqe   
    6aea:	cmp    DWORD PTR [r10+rax*4],0xd
    6aef:	jne    6af4 <losers_eval+0x5c4>
    6af1:	add    ecx,0x1
    6af4:	cmp    rdx,rdi
    6af7:	jne    6ae0 <losers_eval+0x5b0>
    6af9:	shl    ecx,0x2
    6afc:	add    r9,0x4
    6b00:	sub    esi,ecx
    6b02:	mov    DWORD PTR [rsp+0x58],esi
    6b06:	cmp    r11d,ebx
    6b09:	jle    6718 <losers_eval+0x1e8>
    6b0f:	jmp    681d <losers_eval+0x2ed>
    6b14:	nop    DWORD PTR [rax+0x0]
    6b18:	lea    rax,[rip+0x15b21]        # 1c640 <Xrank>
    6b1f:	sub    ebp,0xc
    6b22:	lea    rdx,[rip+0x16017]        # 1cb40 <lcentral>
    6b29:	add    DWORD PTR [rsp+0x14],0x1
    6b2e:	mov    eax,DWORD PTR [rax+r8*4]
    6b32:	movsxd rbp,ebp
    6b35:	sub    esi,DWORD PTR [rdx+r8*4]
    6b39:	add    r15d,0x1
    6b3d:	xor    edx,edx
    6b3f:	mov    rdi,QWORD PTR [rsp+0x8]
    6b44:	mov    ecx,eax
    6b46:	mov    DWORD PTR [rsp+0x48],eax
    6b4a:	mov    eax,0x7
    6b4f:	sub    eax,ecx
    6b51:	cmp    DWORD PTR [r10+rbp*4],0xd
    6b56:	mov    rcx,QWORD PTR [rsp+0x28]
    6b5b:	sete   dl
    6b5e:	mov    rbp,QWORD PTR [rsp+0x18]
    6b63:	shl    edx,0x2
    6b66:	sub    esi,edx
    6b68:	lea    edx,[rax*8+0x0]
    6b6f:	sub    esi,edx
    6b71:	mov    edx,DWORD PTR [rsp+rcx*4+0xc0]
    6b78:	mov    ecx,DWORD PTR [rsp+rdi*4+0xc0]
    6b7f:	mov    DWORD PTR [rsp+0x58],esi
    6b83:	cmp    DWORD PTR [rsp+rbp*4+0x90],r12d
    6b8b:	jge    6d50 <losers_eval+0x820>
    6b91:	cmp    DWORD PTR [rsp+rdi*4+0x90],r12d
    6b99:	jge    6d50 <losers_eval+0x820>
    6b9f:	mov    ebp,DWORD PTR [rsp+rbp*4+0xc0]
    6ba6:	lea    edi,[rsi+0x8]
    6ba9:	mov    DWORD PTR [rsp+0x58],edi
    6bad:	test   ebp,ebp
    6baf:	jne    6eaa <losers_eval+0x97a>
    6bb5:	test   ecx,ecx
    6bb7:	jne    6f06 <losers_eval+0x9d6>
    6bbd:	test   edx,edx
    6bbf:	je     6e0a <losers_eval+0x8da>
    6bc5:	add    esi,0x14
    6bc8:	mov    ebp,0x1
    6bcd:	mov    DWORD PTR [rsp+0x58],esi
    6bd1:	jmp    6d5a <losers_eval+0x82a>
    6bd6:	nop    WORD PTR cs:[rax+rax*1+0x0]
    6be0:	lea    rax,[rip+0x15f59]        # 1cb40 <lcentral>
    6be7:	lea    rdx,[rip+0x15f36]        # 1cb24 <knight_o.4458+0x4>
    6bee:	add    r14d,0x1
    6bf2:	mov    eax,DWORD PTR [rax+r8*4]
    6bf6:	lea    rcx,[rdx+0x1c]
    6bfa:	lea    edi,[rsi+rax*2]
    6bfd:	xor    esi,esi
    6bff:	mov    eax,0xa
    6c04:	jmp    6c16 <losers_eval+0x6e6>
    6c06:	nop    WORD PTR cs:[rax+rax*1+0x0]
    6c10:	mov    eax,DWORD PTR [rdx]
    6c12:	add    rdx,0x4
    6c16:	add    eax,ebp
    6c18:	cdqe   
    6c1a:	cmp    DWORD PTR [r10+rax*4],0xd
    6c1f:	jne    6c24 <losers_eval+0x6f4>
    6c21:	add    esi,0x1
    6c24:	cmp    rdx,rcx
    6c27:	jne    6c10 <losers_eval+0x6e0>
    6c29:	lea    esi,[rdi+rsi*4]
    6c2c:	add    r9,0x4
    6c30:	mov    DWORD PTR [rsp+0x58],esi
    6c34:	cmp    r11d,ebx
    6c37:	jle    6718 <losers_eval+0x1e8>
    6c3d:	jmp    681d <losers_eval+0x2ed>
    6c42:	nop    WORD PTR [rax+rax*1+0x0]
    6c48:	add    ebp,0xc
    6c4b:	lea    rdx,[rip+0x159ee]        # 1c640 <Xrank>
    6c52:	add    DWORD PTR [rsp],0x1
    6c56:	add    r14d,0x1
    6c5a:	movsxd rbp,ebp
    6c5d:	mov    edi,DWORD PTR [rdx+r8*4]
    6c61:	xor    edx,edx
    6c63:	cmp    DWORD PTR [r10+rbp*4],0xd
    6c68:	lea    rbp,[rip+0x15ed1]        # 1cb40 <lcentral>
    6c6f:	sete   dl
    6c72:	add    esi,DWORD PTR [rbp+r8*4+0x0]
    6c77:	mov    rbp,QWORD PTR [rsp+0x30]
    6c7c:	lea    ecx,[rdi-0x2]
    6c7f:	lea    edx,[rsi+rdx*4]
    6c82:	mov    ebp,DWORD PTR [rsp+rbp*4+0xc0]
    6c89:	lea    esi,[rdx+rcx*8]
    6c8c:	mov    rdx,QWORD PTR [rsp+0x20]
    6c91:	mov    DWORD PTR [rsp+0x58],esi
    6c95:	mov    DWORD PTR [rsp+0x48],ebp
    6c99:	mov    rbp,QWORD PTR [rsp+0x18]
    6c9e:	mov    edx,DWORD PTR [rsp+rdx*4+0xc0]
    6ca5:	cmp    DWORD PTR [rsp+rbp*4+0x60],r12d
    6caa:	jle    6d28 <losers_eval+0x7f8>
    6cac:	mov    rbp,QWORD PTR [rsp+0x8]
    6cb1:	cmp    DWORD PTR [rsp+rbp*4+0x60],r12d
    6cb6:	jle    6d28 <losers_eval+0x7f8>
    6cb8:	lea    ebp,[rsi-0x8]
    6cbb:	mov    DWORD PTR [rsp+0x4c],ebp
    6cbf:	mov    DWORD PTR [rsp+0x58],ebp
    6cc3:	mov    rbp,QWORD PTR [rsp+0x40]
    6cc8:	mov    ebp,DWORD PTR [rsp+rbp*4+0xc0]
    6ccf:	test   ebp,ebp
    6cd1:	jne    6eb7 <losers_eval+0x987>
    6cd7:	mov    ebp,DWORD PTR [rsp+0x48]
    6cdb:	test   ebp,ebp
    6cdd:	jne    6ed4 <losers_eval+0x9a4>
    6ce3:	test   edx,edx
    6ce5:	je     6e9c <losers_eval+0x96c>
    6ceb:	mov    rax,QWORD PTR [rsp+0x28]
    6cf0:	sub    esi,0x14
    6cf3:	mov    DWORD PTR [rsp+0x58],esi
    6cf7:	mov    eax,DWORD PTR [rsp+rax*4+0xc0]
    6cfe:	cmp    eax,0x1
    6d01:	jle    6800 <losers_eval+0x2d0>
    6d07:	nop    WORD PTR [rax+rax*1+0x0]
    6d10:	lea    eax,[rax*8-0x8]
    6d17:	sub    esi,eax
    6d19:	mov    DWORD PTR [rsp+0x58],esi
    6d1d:	jmp    67f8 <losers_eval+0x2c8>
    6d22:	nop    WORD PTR [rax+rax*1+0x0]
    6d28:	test   edx,edx
    6d2a:	je     6778 <losers_eval+0x248>
    6d30:	mov    rax,QWORD PTR [rsp+0x28]
    6d35:	mov    eax,DWORD PTR [rsp+rax*4+0xc0]
    6d3c:	cmp    eax,0x1
    6d3f:	jg     6d10 <losers_eval+0x7e0>
    6d41:	jmp    67f8 <losers_eval+0x2c8>
    6d46:	nop    WORD PTR cs:[rax+rax*1+0x0]
    6d50:	xor    ebp,ebp
    6d52:	test   edx,edx
    6d54:	je     6e16 <losers_eval+0x8e6>
    6d5a:	mov    rdi,QWORD PTR [rsp+0x20]
    6d5f:	mov    edi,DWORD PTR [rsp+rdi*4+0xc0]
    6d66:	cmp    edi,0x1
    6d69:	jle    6de0 <losers_eval+0x8b0>
    6d6b:	lea    esi,[rsi+rdi*8-0x8]
    6d6f:	mov    DWORD PTR [rsp+0x58],esi
    6d73:	test   edx,edx
    6d75:	jne    6de0 <losers_eval+0x8b0>
    6d77:	mov    edx,ebp
    6d79:	nop    DWORD PTR [rax+0x0]
    6d80:	mov    rdi,QWORD PTR [rsp+0x8]
    6d85:	cmp    DWORD PTR [rsp+rdi*4+0x60],r12d
    6d8a:	jl     6de0 <losers_eval+0x8b0>
    6d8c:	mov    rdi,QWORD PTR [rsp+0x18]
    6d91:	cmp    DWORD PTR [rsp+rdi*4+0x60],r12d
    6d96:	jl     6de0 <losers_eval+0x8b0>
    6d98:	lea    eax,[rax+rax*4]
    6d9b:	lea    eax,[rax+rax*1+0x19]
    6d9f:	sub    esi,eax
    6da1:	cmp    DWORD PTR [rsp+0x48],0x2
    6da6:	jne    6dab <losers_eval+0x87b>
    6da8:	sub    esi,0x32
    6dab:	lea    rax,[rip+0x15ace]        # 1c880 <Xfile>
    6db2:	add    DWORD PTR [rsp+0x38],0x1
    6db7:	mov    eax,DWORD PTR [rax+r8*4]
    6dbb:	mov    DWORD PTR [rsp+0x58],esi
    6dbf:	cmp    eax,0x1
    6dc2:	je     6f11 <losers_eval+0x9e1>
    6dc8:	cmp    eax,0x8
    6dcb:	je     6f11 <losers_eval+0x9e1>
    6dd1:	test   edx,edx
    6dd3:	jne    6de0 <losers_eval+0x8b0>
    6dd5:	sub    esi,0x18
    6dd8:	mov    DWORD PTR [rsp+0x58],esi
    6ddc:	nop    DWORD PTR [rax+0x0]
    6de0:	test   ecx,ecx
    6de2:	jne    6810 <losers_eval+0x2e0>
    6de8:	add    esi,0x5
    6deb:	mov    DWORD PTR [rsp+0x58],esi
    6def:	jmp    6810 <losers_eval+0x2e0>
    6df4:	nop    DWORD PTR [rax+0x0]
    6df8:	mov    DWORD PTR [rsp+0x58],0xfff0bdc0
    6e00:	mov    edi,0xfff0bdc0
    6e05:	jmp    6897 <losers_eval+0x367>
    6e0a:	add    esi,0x21
    6e0d:	mov    edx,0x1
    6e12:	mov    DWORD PTR [rsp+0x58],esi
    6e16:	mov    rdi,QWORD PTR [rsp+0x20]
    6e1b:	mov    edi,DWORD PTR [rsp+rdi*4+0xc0]
    6e22:	cmp    edi,0x1
    6e25:	jle    6d80 <losers_eval+0x850>
    6e2b:	lea    esi,[rsi+rdi*8-0x8]
    6e2f:	mov    DWORD PTR [rsp+0x58],esi
    6e33:	jmp    6d80 <losers_eval+0x850>
    6e38:	nop    DWORD PTR [rax+rax*1+0x0]
    6e40:	mov    ebx,DWORD PTR [rsp+0x38]
    6e44:	or     ebx,DWORD PTR [rip+0x29090a]        # 297754 <comp_color>
    6e4a:	jne    6868 <losers_eval+0x338>
    6e50:	sub    esi,eax
    6e52:	lea    eax,[rsi-0x708]
    6e58:	mov    DWORD PTR [rsp+0x58],eax
    6e5c:	jmp    686e <losers_eval+0x33e>
    6e61:	sub    esi,eax
    6e63:	lea    eax,[rsi+0x708]
    6e69:	mov    DWORD PTR [rsp+0x58],eax
    6e6d:	jmp    686e <losers_eval+0x33e>
    6e72:	mov    DWORD PTR [rsp+0x3c],0x0
    6e7a:	xor    r14d,r14d
    6e7d:	xor    r15d,r15d
    6e80:	mov    DWORD PTR [rsp],0x0
    6e87:	mov    DWORD PTR [rsp+0x38],0x0
    6e8f:	mov    DWORD PTR [rsp+0x14],0x0
    6e97:	jmp    6833 <losers_eval+0x303>
    6e9c:	sub    esi,0x21
    6e9f:	mov    edx,eax
    6ea1:	mov    DWORD PTR [rsp+0x58],esi
    6ea5:	jmp    6778 <losers_eval+0x248>
    6eaa:	test   edx,edx
    6eac:	je     6ec8 <losers_eval+0x998>
    6eae:	mov    esi,edi
    6eb0:	xor    ebp,ebp
    6eb2:	jmp    6d5a <losers_eval+0x82a>
    6eb7:	test   edx,edx
    6eb9:	je     676e <losers_eval+0x23e>
    6ebf:	mov    esi,DWORD PTR [rsp+0x4c]
    6ec3:	jmp    6d30 <losers_eval+0x800>
    6ec8:	add    esi,0xd
    6ecb:	mov    DWORD PTR [rsp+0x58],esi
    6ecf:	jmp    6e16 <losers_eval+0x8e6>
    6ed4:	test   edx,edx
    6ed6:	je     676e <losers_eval+0x23e>
    6edc:	mov    rax,QWORD PTR [rsp+0x28]
    6ee1:	mov    esi,DWORD PTR [rsp+0x4c]
    6ee5:	mov    eax,DWORD PTR [rsp+rax*4+0xc0]
    6eec:	cmp    eax,0x1
    6eef:	jg     6d10 <losers_eval+0x7e0>
    6ef5:	jmp    6810 <losers_eval+0x2e0>
    6efa:	lea    esi,[rsi+rdi*2]
    6efd:	mov    DWORD PTR [rsp+0x58],esi
    6f01:	jmp    67e9 <losers_eval+0x2b9>
    6f06:	test   edx,edx
    6f08:	je     6ec8 <losers_eval+0x998>
    6f0a:	mov    esi,edi
    6f0c:	jmp    6d5a <losers_eval+0x82a>
    6f11:	mov    eax,0x9
    6f16:	sub    eax,DWORD PTR [rsp+0x48]
    6f1a:	add    eax,eax
    6f1c:	sub    esi,eax
    6f1e:	mov    DWORD PTR [rsp+0x58],esi
    6f22:	jmp    6dd1 <losers_eval+0x8a1>
    6f27:	call   1310 <__stack_chk_fail@plt>
    6f2c:	nop    DWORD PTR [rax+0x0]

0000000000006f30 <push_king.part.0>:
    6f30:	movsxd rdx,DWORD PTR [rip+0x377d1]        # 3e708 <numb_moves>
    6f37:	lea    rcx,[rdx+rdx*2]
    6f3b:	mov    rax,rdx
    6f3e:	mov    rdx,QWORD PTR [rip+0x1d673]        # 245b8 <genfor>
    6f45:	add    eax,0x1
    6f48:	lea    rdx,[rdx+rcx*8]
    6f4c:	mov    ecx,DWORD PTR [rip+0x377be]        # 3e710 <gfrom>
    6f52:	mov    DWORD PTR [rdx+0x4],edi
    6f55:	mov    DWORD PTR [rdx],ecx
    6f57:	mov    QWORD PTR [rdx+0x8],0xd
    6f5f:	mov    QWORD PTR [rdx+0x10],0x0
    6f67:	mov    DWORD PTR [rip+0x3779b],eax        # 3e708 <numb_moves>
    6f6d:	ret    
    6f6e:	xchg   ax,ax

0000000000006f70 <check_legal>:
    6f70:	endbr64 
    6f74:	movsxd rsi,esi
    6f77:	cmp    DWORD PTR [rip+0x274842],0x3        # 27b7c0 <Variant>
    6f7e:	mov    r8d,0x1
    6f84:	lea    rax,[rsi+rsi*2]
    6f88:	lea    rax,[rdi+rax*8]
    6f8c:	je     7038 <check_legal+0xc8>
    6f92:	push   r14
    6f94:	push   r13
    6f96:	push   r12
    6f98:	push   rbp
    6f99:	push   rbx
    6f9a:	mov    ecx,DWORD PTR [rax+0x10]
    6f9d:	test   ecx,ecx
    6f9f:	je     6fd8 <check_legal+0x68>
    6fa1:	cmp    ecx,0x1
    6fa4:	je     7250 <check_legal+0x2e0>
    6faa:	cmp    ecx,0x2
    6fad:	je     72e0 <check_legal+0x370>
    6fb3:	cmp    ecx,0x3
    6fb6:	je     7328 <check_legal+0x3b8>
    6fbc:	cmp    ecx,0x4
    6fbf:	je     7378 <check_legal+0x408>
    6fc5:	xor    r8d,r8d
    6fc8:	pop    rbx
    6fc9:	mov    eax,r8d
    6fcc:	pop    rbp
    6fcd:	pop    r12
    6fcf:	pop    r13
    6fd1:	pop    r14
    6fd3:	ret    
    6fd4:	nop    DWORD PTR [rax+0x0]
    6fd8:	mov    ecx,DWORD PTR [rax]
    6fda:	movsxd rsi,DWORD PTR [rax+0x4]
    6fde:	test   BYTE PTR [rip+0x27653b],0x1        # 27d520 <white_to_move>
    6fe5:	je     7040 <check_legal+0xd0>
    6fe7:	test   edx,edx
    6fe9:	jne    7298 <check_legal+0x328>
    6fef:	test   ecx,ecx
    6ff1:	je     6fc8 <check_legal+0x58>
    6ff3:	mov    r8d,DWORD PTR [rax+0xc]
    6ff7:	mov    edi,DWORD PTR [rip+0x276527]        # 27d524 <bking_loc>
    6ffd:	test   r8d,r8d
    7000:	jne    7090 <check_legal+0x120>
    7006:	lea    rdx,[rip+0x2768b3]        # 27d8c0 <board>
    700d:	movsxd r8,esi
    7010:	mov    r9d,DWORD PTR [rdx+r8*4]
    7014:	cmp    r9d,0xc
    7018:	ja     74ee <check_legal+0x57e>
    701e:	lea    rbx,[rip+0x15d5b]        # 1cd80 <lcentral+0x240>
    7025:	mov    r11d,r9d
    7028:	movsxd r10,DWORD PTR [rbx+r11*4]
    702c:	add    r10,rbx
    702f:	notrack jmp r10
    7033:	nop    DWORD PTR [rax+rax*1+0x0]
    7038:	mov    eax,r8d
    703b:	ret    
    703c:	nop    DWORD PTR [rax+0x0]
    7040:	test   edx,edx
    7042:	jne    72c0 <check_legal+0x350>
    7048:	test   ecx,ecx
    704a:	je     6fc8 <check_legal+0x58>
    7050:	mov    edx,DWORD PTR [rax+0xc]
    7053:	mov    edi,DWORD PTR [rip+0x276f83]        # 27dfdc <wking_loc>
    7059:	test   edx,edx
    705b:	jne    7170 <check_legal+0x200>
    7061:	lea    rdx,[rip+0x276858]        # 27d8c0 <board>
    7068:	movsxd r8,esi
    706b:	mov    r9d,DWORD PTR [rdx+r8*4]
    706f:	cmp    r9d,0xb
    7073:	ja     7416 <check_legal+0x4a6>
    7079:	lea    rbx,[rip+0x15d34]        # 1cdb4 <lcentral+0x274>
    7080:	mov    r11d,r9d
    7083:	movsxd r10,DWORD PTR [rbx+r11*4]
    7087:	add    r10,rbx
    708a:	notrack jmp r10
    708e:	xchg   ax,ax
    7090:	cmp    DWORD PTR [rax+0x8],0xd
    7094:	je     74a0 <check_legal+0x530>
    709a:	lea    rdx,[rip+0x157df]        # 1c880 <Xfile>
    70a1:	movsxd r11,edi
    70a4:	movsxd rax,ecx
    70a7:	mov    ebx,DWORD PTR [rdx+r11*4]
    70ab:	cmp    DWORD PTR [rdx+rax*4],ebx
    70ae:	je     7978 <check_legal+0xa08>
    70b4:	lea    rdx,[rip+0x15585]        # 1c640 <Xrank>
    70bb:	mov    ebx,DWORD PTR [rdx+r11*4]
    70bf:	cmp    DWORD PTR [rdx+rax*4],ebx
    70c2:	je     79e1 <check_legal+0xa71>
    70c8:	lea    r9,[rip+0x15331]        # 1c400 <Xdiagl>
    70cf:	mov    ebx,DWORD PTR [r9+r11*4]
    70d3:	cmp    DWORD PTR [r9+rax*4],ebx
    70d7:	je     70f3 <check_legal+0x183>
    70d9:	lea    rdx,[rip+0x150e0]        # 1c1c0 <Xdiagr>
    70e0:	mov    r8d,0x1
    70e6:	mov    ebx,DWORD PTR [rdx+r11*4]
    70ea:	cmp    DWORD PTR [rdx+rax*4],ebx
    70ed:	jne    6fc8 <check_legal+0x58>
    70f3:	lea    rdx,[rip+0x2767c6]        # 27d8c0 <board>
    70fa:	cmp    DWORD PTR [rdx+rsi*4],0x6
    70fe:	je     729e <check_legal+0x32e>
    7104:	mov    ebx,DWORD PTR [r9+r11*4]
    7108:	cmp    DWORD PTR [r9+rax*4],ebx
    710c:	je     7a0d <check_legal+0xa9d>
    7112:	lea    rsi,[rip+0x150a7]        # 1c1c0 <Xdiagr>
    7119:	mov    r8d,0x1
    711f:	mov    ebx,DWORD PTR [rsi+r11*4]
    7123:	cmp    DWORD PTR [rsi+rax*4],ebx
    7126:	jne    6fc8 <check_legal+0x58>
    712c:	cmp    ecx,edi
    712e:	jge    7b61 <check_legal+0xbf1>
    7134:	lea    eax,[rdi-0xb]
    7137:	cdqe   
    7139:	mov    ecx,DWORD PTR [rdx+rax*4]
    713c:	cmp    ecx,0xd
    713f:	jne    7154 <check_legal+0x1e4>
    7141:	lea    rax,[rdx+r11*4]
    7145:	nop    DWORD PTR [rax]
    7148:	mov    ecx,DWORD PTR [rax-0x58]
    714b:	sub    rax,0x2c
    714f:	cmp    ecx,0xd
    7152:	je     7148 <check_legal+0x1d8>
    7154:	and    ecx,0xfffffffd
    7157:	xor    r8d,r8d
    715a:	cmp    ecx,0x9
    715d:	setne  r8b
    7161:	jmp    6fc8 <check_legal+0x58>
    7166:	nop    WORD PTR cs:[rax+rax*1+0x0]
    7170:	cmp    DWORD PTR [rax+0x8],0xd
    7174:	je     73c8 <check_legal+0x458>
    717a:	lea    rdx,[rip+0x156ff]        # 1c880 <Xfile>
    7181:	movsxd r11,edi
    7184:	movsxd rax,ecx
    7187:	mov    ebx,DWORD PTR [rdx+r11*4]
    718b:	cmp    DWORD PTR [rdx+rax*4],ebx
    718e:	je     7960 <check_legal+0x9f0>
    7194:	lea    rdx,[rip+0x154a5]        # 1c640 <Xrank>
    719b:	mov    ebx,DWORD PTR [rdx+r11*4]
    719f:	cmp    DWORD PTR [rdx+rax*4],ebx
    71a2:	je     79f7 <check_legal+0xa87>
    71a8:	lea    r9,[rip+0x15251]        # 1c400 <Xdiagl>
    71af:	mov    ebx,DWORD PTR [r9+r11*4]
    71b3:	cmp    DWORD PTR [r9+rax*4],ebx
    71b7:	je     71d3 <check_legal+0x263>
    71b9:	lea    rdx,[rip+0x15000]        # 1c1c0 <Xdiagr>
    71c0:	mov    r8d,0x1
    71c6:	mov    ebx,DWORD PTR [rdx+r11*4]
    71ca:	cmp    DWORD PTR [rdx+rax*4],ebx
    71cd:	jne    6fc8 <check_legal+0x58>
    71d3:	lea    rdx,[rip+0x2766e6]        # 27d8c0 <board>
    71da:	cmp    DWORD PTR [rdx+rsi*4],0x5
    71de:	je     72c6 <check_legal+0x356>
    71e4:	mov    ebx,DWORD PTR [r9+r11*4]
    71e8:	cmp    DWORD PTR [r9+rax*4],ebx
    71ec:	je     7a41 <check_legal+0xad1>
    71f2:	lea    rsi,[rip+0x14fc7]        # 1c1c0 <Xdiagr>
    71f9:	mov    r8d,0x1
    71ff:	mov    ebx,DWORD PTR [rsi+r11*4]
    7203:	cmp    DWORD PTR [rsi+rax*4],ebx
    7206:	jne    6fc8 <check_legal+0x58>
    720c:	cmp    ecx,edi
    720e:	jge    7b31 <check_legal+0xbc1>
    7214:	lea    eax,[rdi-0xb]
    7217:	cdqe   
    7219:	mov    ecx,DWORD PTR [rdx+rax*4]
    721c:	cmp    ecx,0xd
    721f:	jne    7234 <check_legal+0x2c4>
    7221:	lea    rax,[rdx+r11*4]
    7225:	nop    DWORD PTR [rax]
    7228:	mov    ecx,DWORD PTR [rax-0x58]
    722b:	sub    rax,0x2c
    722f:	cmp    ecx,0xd
    7232:	je     7228 <check_legal+0x2b8>
    7234:	sub    ecx,0xa
    7237:	xor    r8d,r8d
    723a:	and    ecx,0xfffffffd
    723d:	setne  r8b
    7241:	jmp    6fc8 <check_legal+0x58>
    7246:	nop    WORD PTR cs:[rax+rax*1+0x0]
    7250:	xor    esi,esi
    7252:	mov    edi,0x1e
    7257:	call   3530 <is_attacked>
    725c:	test   eax,eax
    725e:	jne    6fc5 <check_legal+0x55>
    7264:	xor    esi,esi
    7266:	mov    edi,0x1f
    726b:	call   3530 <is_attacked>
    7270:	test   eax,eax
    7272:	jne    6fc5 <check_legal+0x55>
    7278:	xor    esi,esi
    727a:	mov    edi,0x20
    727f:	call   3530 <is_attacked>
    7284:	xor    r8d,r8d
    7287:	test   eax,eax
    7289:	sete   r8b
    728d:	jmp    6fc8 <check_legal+0x58>
    7292:	nop    WORD PTR [rax+rax*1+0x0]
    7298:	mov    edi,DWORD PTR [rip+0x276286]        # 27d524 <bking_loc>
    729e:	mov    esi,0x1
    72a3:	call   3530 <is_attacked>
    72a8:	xor    r8d,r8d
    72ab:	test   eax,eax
    72ad:	sete   r8b
    72b1:	jmp    6fc8 <check_legal+0x58>
    72b6:	nop    WORD PTR cs:[rax+rax*1+0x0]
    72c0:	mov    edi,DWORD PTR [rip+0x276d16]        # 27dfdc <wking_loc>
    72c6:	xor    esi,esi
    72c8:	call   3530 <is_attacked>
    72cd:	xor    r8d,r8d
    72d0:	test   eax,eax
    72d2:	sete   r8b
    72d6:	jmp    6fc8 <check_legal+0x58>
    72db:	nop    DWORD PTR [rax+rax*1+0x0]
    72e0:	xor    esi,esi
    72e2:	mov    edi,0x1e
    72e7:	call   3530 <is_attacked>
    72ec:	test   eax,eax
    72ee:	jne    6fc5 <check_legal+0x55>
    72f4:	xor    esi,esi
    72f6:	mov    edi,0x1d
    72fb:	call   3530 <is_attacked>
    7300:	test   eax,eax
    7302:	jne    6fc5 <check_legal+0x55>
    7308:	xor    esi,esi
    730a:	mov    edi,0x1c
    730f:	call   3530 <is_attacked>
    7314:	xor    r8d,r8d
    7317:	test   eax,eax
    7319:	sete   r8b
    731d:	jmp    6fc8 <check_legal+0x58>
    7322:	nop    WORD PTR [rax+rax*1+0x0]
    7328:	mov    esi,0x1
    732d:	mov    edi,0x72
    7332:	call   3530 <is_attacked>
    7337:	test   eax,eax
    7339:	jne    6fc5 <check_legal+0x55>
    733f:	mov    esi,0x1
    7344:	mov    edi,0x73
    7349:	call   3530 <is_attacked>
    734e:	test   eax,eax
    7350:	jne    6fc5 <check_legal+0x55>
    7356:	mov    esi,0x1
    735b:	mov    edi,0x74
    7360:	call   3530 <is_attacked>
    7365:	xor    r8d,r8d
    7368:	test   eax,eax
    736a:	sete   r8b
    736e:	jmp    6fc8 <check_legal+0x58>
    7373:	nop    DWORD PTR [rax+rax*1+0x0]
    7378:	mov    esi,0x1
    737d:	mov    edi,0x72
    7382:	call   3530 <is_attacked>
    7387:	test   eax,eax
    7389:	jne    6fc5 <check_legal+0x55>
    738f:	mov    esi,0x1
    7394:	mov    edi,0x71
    7399:	call   3530 <is_attacked>
    739e:	test   eax,eax
    73a0:	jne    6fc5 <check_legal+0x55>
    73a6:	mov    esi,0x1
    73ab:	mov    edi,0x70
    73b0:	call   3530 <is_attacked>
    73b5:	xor    r8d,r8d
    73b8:	test   eax,eax
    73ba:	sete   r8b
    73be:	jmp    6fc8 <check_legal+0x58>
    73c3:	nop    DWORD PTR [rax+rax*1+0x0]
    73c8:	lea    r10,[rip+0x15271]        # 1c640 <Xrank>
    73cf:	movsxd rax,edi
    73d2:	movsxd rdx,ecx
    73d5:	mov    ebx,DWORD PTR [r10+rax*4]
    73d9:	cmp    DWORD PTR [r10+rdx*4],ebx
    73dd:	je     740b <check_legal+0x49b>
    73df:	lea    r9,[rip+0x1501a]        # 1c400 <Xdiagl>
    73e6:	mov    ebx,DWORD PTR [r9+rax*4]
    73ea:	cmp    DWORD PTR [r9+rdx*4],ebx
    73ee:	je     740b <check_legal+0x49b>
    73f0:	lea    r9,[rip+0x14dc9]        # 1c1c0 <Xdiagr>
    73f7:	mov    r8d,0x1
    73fd:	mov    eax,DWORD PTR [r9+rax*4]
    7401:	cmp    DWORD PTR [r9+rdx*4],eax
    7405:	jne    6fc8 <check_legal+0x58>
    740b:	lea    rdx,[rip+0x2764ae]        # 27d8c0 <board>
    7412:	mov    r9d,DWORD PTR [rdx+rsi*4]
    7416:	cmp    r9d,0x5
    741a:	je     72c6 <check_legal+0x356>
    7420:	lea    r8,[rip+0x15459]        # 1c880 <Xfile>
    7427:	movsxd rax,ecx
    742a:	movsxd r11,edi
    742d:	mov    esi,DWORD PTR [r8+rax*4]
    7431:	mov    ebx,DWORD PTR [r8+r11*4]
    7435:	lea    r10,[rip+0x15204]        # 1c640 <Xrank>
    743c:	cmp    esi,ebx
    743e:	je     7928 <check_legal+0x9b8>
    7444:	mov    ebx,DWORD PTR [r10+r11*4]
    7448:	lea    r9,[rip+0x14fb1]        # 1c400 <Xdiagl>
    744f:	cmp    DWORD PTR [r10+rax*4],ebx
    7453:	jne    71e4 <check_legal+0x274>
    7459:	cmp    ecx,edi
    745b:	jge    7a71 <check_legal+0xb01>
    7461:	lea    eax,[rdi-0x1]
    7464:	cdqe   
    7466:	mov    ecx,DWORD PTR [rdx+rax*4]
    7469:	cmp    ecx,0xd
    746c:	jne    7488 <check_legal+0x518>
    746e:	lea    rax,[rdx+r11*4]
    7472:	nop    WORD PTR [rax+rax*1+0x0]
    7478:	mov    ecx,DWORD PTR [rax-0x8]
    747b:	sub    rax,0x4
    747f:	cmp    ecx,0xd
    7482:	je     7478 <check_legal+0x508>
    7484:	nop    DWORD PTR [rax+0x0]
    7488:	and    ecx,0xfffffffd
    748b:	xor    r8d,r8d
    748e:	cmp    ecx,0x8
    7491:	setne  r8b
    7495:	jmp    6fc8 <check_legal+0x58>
    749a:	nop    WORD PTR [rax+rax*1+0x0]
    74a0:	lea    r10,[rip+0x15199]        # 1c640 <Xrank>
    74a7:	movsxd rax,edi
    74aa:	movsxd rdx,ecx
    74ad:	mov    ebx,DWORD PTR [r10+rax*4]
    74b1:	cmp    DWORD PTR [r10+rdx*4],ebx
    74b5:	je     74e3 <check_legal+0x573>
    74b7:	lea    r9,[rip+0x14f42]        # 1c400 <Xdiagl>
    74be:	mov    ebx,DWORD PTR [r9+rax*4]
    74c2:	cmp    DWORD PTR [r9+rdx*4],ebx
    74c6:	je     74e3 <check_legal+0x573>
    74c8:	lea    r9,[rip+0x14cf1]        # 1c1c0 <Xdiagr>
    74cf:	mov    r8d,0x1
    74d5:	mov    eax,DWORD PTR [r9+rax*4]
    74d9:	cmp    DWORD PTR [r9+rdx*4],eax
    74dd:	jne    6fc8 <check_legal+0x58>
    74e3:	lea    rdx,[rip+0x2763d6]        # 27d8c0 <board>
    74ea:	mov    r9d,DWORD PTR [rdx+rsi*4]
    74ee:	cmp    r9d,0x6
    74f2:	je     729e <check_legal+0x32e>
    74f8:	lea    rsi,[rip+0x15381]        # 1c880 <Xfile>
    74ff:	movsxd r11,edi
    7502:	movsxd rax,ecx
    7505:	mov    ebx,DWORD PTR [rsi+r11*4]
    7509:	mov    esi,DWORD PTR [rsi+rax*4]
    750c:	lea    r10,[rip+0x1512d]        # 1c640 <Xrank>
    7513:	cmp    ebx,esi
    7515:	je     78d8 <check_legal+0x968>
    751b:	mov    ebx,DWORD PTR [r10+rax*4]
    751f:	lea    r9,[rip+0x14eda]        # 1c400 <Xdiagl>
    7526:	cmp    DWORD PTR [r10+r11*4],ebx
    752a:	jne    7104 <check_legal+0x194>
    7530:	cmp    ecx,edi
    7532:	jge    7aa1 <check_legal+0xb31>
    7538:	lea    eax,[rdi-0x1]
    753b:	cdqe   
    753d:	mov    ecx,DWORD PTR [rdx+rax*4]
    7540:	cmp    ecx,0xd
    7543:	jne    7560 <check_legal+0x5f0>
    7545:	lea    rax,[rdx+r11*4]
    7549:	nop    DWORD PTR [rax+0x0]
    7550:	mov    ecx,DWORD PTR [rax-0x8]
    7553:	sub    rax,0x4
    7557:	cmp    ecx,0xd
    755a:	je     7550 <check_legal+0x5e0>
    755c:	nop    DWORD PTR [rax+0x0]
    7560:	sub    ecx,0x7
    7563:	xor    r8d,r8d
    7566:	and    ecx,0xfffffffd
    7569:	setne  r8b
    756d:	jmp    6fc8 <check_legal+0x58>
    7572:	lea    rsi,[rip+0x15307]        # 1c880 <Xfile>
    7579:	movsxd r11,edi
    757c:	movsxd rax,ecx
    757f:	mov    ebx,DWORD PTR [rsi+r11*4]
    7583:	cmp    DWORD PTR [rsi+rax*4],ebx
    7586:	je     78d8 <check_legal+0x968>
    758c:	lea    r10,[rip+0x150ad]        # 1c640 <Xrank>
    7593:	mov    ebx,DWORD PTR [r10+r11*4]
    7597:	cmp    DWORD PTR [r10+rax*4],ebx
    759b:	je     751b <check_legal+0x5ab>
    75a1:	lea    r9,[rip+0x14e58]        # 1c400 <Xdiagl>
    75a8:	mov    ebx,DWORD PTR [r9+r11*4]
    75ac:	cmp    DWORD PTR [r9+rax*4],ebx
    75b0:	je     751b <check_legal+0x5ab>
    75b6:	lea    rsi,[rip+0x14c03]        # 1c1c0 <Xdiagr>
    75bd:	mov    r8d,0x1
    75c3:	mov    ebx,DWORD PTR [rsi+r11*4]
    75c7:	cmp    DWORD PTR [rsi+rax*4],ebx
    75ca:	jne    6fc8 <check_legal+0x58>
    75d0:	jmp    751b <check_legal+0x5ab>
    75d5:	lea    rsi,[rip+0x152a4]        # 1c880 <Xfile>
    75dc:	movsxd r11,edi
    75df:	movsxd rax,ecx
    75e2:	mov    ebx,DWORD PTR [rsi+r11*4]
    75e6:	cmp    DWORD PTR [rsi+rax*4],ebx
    75e9:	je     78d8 <check_legal+0x968>
    75ef:	lea    r10,[rip+0x1504a]        # 1c640 <Xrank>
    75f6:	mov    ebx,DWORD PTR [r10+r11*4]
    75fa:	cmp    DWORD PTR [r10+rax*4],ebx
    75fe:	je     751b <check_legal+0x5ab>
    7604:	lea    r9,[rip+0x14df5]        # 1c400 <Xdiagl>
    760b:	mov    esi,DWORD PTR [r9+rax*4]
    760f:	cmp    esi,DWORD PTR [r9+r8*4]
    7613:	je     75b6 <check_legal+0x646>
    7615:	mov    r8d,0x1
    761b:	cmp    esi,DWORD PTR [r9+r11*4]
    761f:	jne    6fc8 <check_legal+0x58>
    7625:	jmp    751b <check_legal+0x5ab>
    762a:	lea    rsi,[rip+0x1524f]        # 1c880 <Xfile>
    7631:	movsxd r11,edi
    7634:	movsxd rax,ecx
    7637:	mov    ebx,DWORD PTR [rsi+r11*4]
    763b:	cmp    DWORD PTR [rsi+rax*4],ebx
    763e:	je     7928 <check_legal+0x9b8>
    7644:	lea    r10,[rip+0x14ff5]        # 1c640 <Xrank>
    764b:	mov    ebx,DWORD PTR [r10+r11*4]
    764f:	cmp    DWORD PTR [r10+rax*4],ebx
    7653:	je     7444 <check_legal+0x4d4>
    7659:	lea    r9,[rip+0x14da0]        # 1c400 <Xdiagl>
    7660:	mov    esi,DWORD PTR [r9+rax*4]
    7664:	cmp    esi,DWORD PTR [r9+r8*4]
    7668:	je     7754 <check_legal+0x7e4>
    766e:	mov    r8d,0x1
    7674:	cmp    esi,DWORD PTR [r9+r11*4]
    7678:	jne    6fc8 <check_legal+0x58>
    767e:	jmp    7444 <check_legal+0x4d4>
    7683:	movsxd rax,ecx
    7686:	lea    rbx,[rip+0x151f3]        # 1c880 <Xfile>
    768d:	lea    rbp,[rip+0x14b2c]        # 1c1c0 <Xdiagr>
    7694:	mov    esi,DWORD PTR [rbx+rax*4]
    7697:	mov    r12d,DWORD PTR [rbp+rax*4+0x0]
    769c:	cmp    esi,DWORD PTR [rbx+r8*4]
    76a0:	je     7b91 <check_legal+0xc21>
    76a6:	lea    r10,[rip+0x14f93]        # 1c640 <Xrank>
    76ad:	movsxd r11,edi
    76b0:	mov    r13d,DWORD PTR [r10+rax*4]
    76b4:	mov    ebx,DWORD PTR [rbx+r11*4]
    76b8:	cmp    r13d,DWORD PTR [r10+r8*4]
    76bc:	je     7c0f <check_legal+0xc9f>
    76c2:	lea    r9,[rip+0x14d37]        # 1c400 <Xdiagl>
    76c9:	mov    r14d,DWORD PTR [r9+rax*4]
    76cd:	cmp    r14d,DWORD PTR [r9+r8*4]
    76d1:	je     7c75 <check_legal+0xd05>
    76d7:	cmp    DWORD PTR [rbp+r8*4+0x0],r12d
    76dc:	jne    750c <check_legal+0x59c>
    76e2:	cmp    r14d,DWORD PTR [r9+r11*4]
    76e6:	je     750c <check_legal+0x59c>
    76ec:	cmp    esi,ebx
    76ee:	je     78d8 <check_legal+0x968>
    76f4:	mov    r8d,0x1
    76fa:	cmp    r13d,DWORD PTR [r10+r11*4]
    76fe:	jne    6fc8 <check_legal+0x58>
    7704:	jmp    751b <check_legal+0x5ab>
    7709:	nop    DWORD PTR [rax+0x0]
    7710:	lea    rsi,[rip+0x15169]        # 1c880 <Xfile>
    7717:	movsxd r11,edi
    771a:	movsxd rax,ecx
    771d:	mov    ebx,DWORD PTR [rsi+r11*4]
    7721:	cmp    DWORD PTR [rsi+rax*4],ebx
    7724:	je     7928 <check_legal+0x9b8>
    772a:	lea    r10,[rip+0x14f0f]        # 1c640 <Xrank>
    7731:	mov    ebx,DWORD PTR [r10+r11*4]
    7735:	cmp    DWORD PTR [r10+rax*4],ebx
    7739:	je     7444 <check_legal+0x4d4>
    773f:	lea    r9,[rip+0x14cba]        # 1c400 <Xdiagl>
    7746:	mov    ebx,DWORD PTR [r9+r11*4]
    774a:	cmp    DWORD PTR [r9+rax*4],ebx
    774e:	je     7444 <check_legal+0x4d4>
    7754:	lea    rsi,[rip+0x14a65]        # 1c1c0 <Xdiagr>
    775b:	mov    r8d,0x1
    7761:	mov    ebx,DWORD PTR [rsi+r11*4]
    7765:	cmp    DWORD PTR [rsi+rax*4],ebx
    7768:	jne    6fc8 <check_legal+0x58>
    776e:	jmp    7444 <check_legal+0x4d4>
    7773:	movsxd rax,ecx
    7776:	lea    rbx,[rip+0x15103]        # 1c880 <Xfile>
    777d:	lea    rbp,[rip+0x14a3c]        # 1c1c0 <Xdiagr>
    7784:	mov    esi,DWORD PTR [rbx+rax*4]
    7787:	mov    r12d,DWORD PTR [rbp+rax*4+0x0]
    778c:	cmp    esi,DWORD PTR [rbx+r8*4]
    7790:	je     7bd0 <check_legal+0xc60>
    7796:	lea    r10,[rip+0x14ea3]        # 1c640 <Xrank>
    779d:	movsxd r11,edi
    77a0:	mov    r13d,DWORD PTR [r10+rax*4]
    77a4:	mov    ebx,DWORD PTR [rbx+r11*4]
    77a8:	cmp    r13d,DWORD PTR [r10+r8*4]
    77ac:	je     7c42 <check_legal+0xcd2>
    77b2:	lea    r9,[rip+0x14c47]        # 1c400 <Xdiagl>
    77b9:	mov    r14d,DWORD PTR [r9+rax*4]
    77bd:	cmp    r14d,DWORD PTR [r9+r8*4]
    77c1:	je     7c85 <check_legal+0xd15>
    77c7:	cmp    DWORD PTR [rbp+r8*4+0x0],r12d
    77cc:	jne    7435 <check_legal+0x4c5>
    77d2:	cmp    r14d,DWORD PTR [r9+r11*4]
    77d6:	je     7435 <check_legal+0x4c5>
    77dc:	cmp    esi,ebx
    77de:	je     7928 <check_legal+0x9b8>
    77e4:	mov    r8d,0x1
    77ea:	cmp    r13d,DWORD PTR [r10+r11*4]
    77ee:	jne    6fc8 <check_legal+0x58>
    77f4:	jmp    7444 <check_legal+0x4d4>
    77f9:	nop    DWORD PTR [rax+0x0]
    7800:	lea    rsi,[rip+0x149b9]        # 1c1c0 <Xdiagr>
    7807:	movsxd r11,edi
    780a:	movsxd rax,ecx
    780d:	mov    ebx,DWORD PTR [rsi+r11*4]
    7811:	cmp    DWORD PTR [rsi+rax*4],ebx
    7814:	je     784c <check_legal+0x8dc>
    7816:	lea    r9,[rip+0x14be3]        # 1c400 <Xdiagl>
    781d:	mov    ebx,DWORD PTR [r9+r11*4]
    7821:	cmp    DWORD PTR [r9+rax*4],ebx
    7825:	je     784c <check_legal+0x8dc>
    7827:	lea    r10,[rip+0x14e12]        # 1c640 <Xrank>
    782e:	mov    esi,DWORD PTR [r10+rax*4]
    7832:	cmp    esi,DWORD PTR [r10+r8*4]
    7836:	je     7909 <check_legal+0x999>
    783c:	mov    r8d,0x1
    7842:	cmp    esi,DWORD PTR [r10+r11*4]
    7846:	jne    6fc8 <check_legal+0x58>
    784c:	lea    r8,[rip+0x1502d]        # 1c880 <Xfile>
    7853:	mov    esi,DWORD PTR [r8+rax*4]
    7857:	mov    ebx,DWORD PTR [r8+r11*4]
    785b:	jmp    7435 <check_legal+0x4c5>
    7860:	lea    rsi,[rip+0x14959]        # 1c1c0 <Xdiagr>
    7867:	movsxd r11,edi
    786a:	movsxd rax,ecx
    786d:	mov    ebx,DWORD PTR [rsi+r11*4]
    7871:	cmp    DWORD PTR [rsi+rax*4],ebx
    7874:	je     78a8 <check_legal+0x938>
    7876:	lea    r9,[rip+0x14b83]        # 1c400 <Xdiagl>
    787d:	mov    ebx,DWORD PTR [r9+r11*4]
    7881:	cmp    DWORD PTR [r9+rax*4],ebx
    7885:	je     78a8 <check_legal+0x938>
    7887:	lea    r10,[rip+0x14db2]        # 1c640 <Xrank>
    788e:	mov    esi,DWORD PTR [r10+rax*4]
    7892:	cmp    esi,DWORD PTR [r10+r8*4]
    7896:	je     78bb <check_legal+0x94b>
    7898:	mov    r8d,0x1
    789e:	cmp    esi,DWORD PTR [r10+r11*4]
    78a2:	jne    6fc8 <check_legal+0x58>
    78a8:	lea    rsi,[rip+0x14fd1]        # 1c880 <Xfile>
    78af:	mov    ebx,DWORD PTR [rsi+r11*4]
    78b3:	mov    esi,DWORD PTR [rsi+rax*4]
    78b6:	jmp    750c <check_legal+0x59c>
    78bb:	lea    rsi,[rip+0x14fbe]        # 1c880 <Xfile>
    78c2:	mov    r8d,0x1
    78c8:	mov    ebx,DWORD PTR [rsi+r11*4]
    78cc:	cmp    DWORD PTR [rsi+rax*4],ebx
    78cf:	jne    6fc8 <check_legal+0x58>
    78d5:	nop    DWORD PTR [rax]
    78d8:	cmp    ecx,edi
    78da:	jge    798e <check_legal+0xa1e>
    78e0:	lea    eax,[rdi-0xc]
    78e3:	cdqe   
    78e5:	mov    ecx,DWORD PTR [rdx+rax*4]
    78e8:	cmp    ecx,0xd
    78eb:	jne    7560 <check_legal+0x5f0>
    78f1:	lea    rax,[rdx+r11*4]
    78f5:	nop    DWORD PTR [rax]
    78f8:	mov    ecx,DWORD PTR [rax-0x60]
    78fb:	sub    rax,0x30
    78ff:	cmp    ecx,0xd
    7902:	je     78f8 <check_legal+0x988>
    7904:	jmp    7560 <check_legal+0x5f0>
    7909:	lea    rsi,[rip+0x14f70]        # 1c880 <Xfile>
    7910:	mov    r8d,0x1
    7916:	mov    ebx,DWORD PTR [rsi+r11*4]
    791a:	cmp    DWORD PTR [rsi+rax*4],ebx
    791d:	jne    6fc8 <check_legal+0x58>
    7923:	nop    DWORD PTR [rax+rax*1+0x0]
    7928:	cmp    ecx,edi
    792a:	jge    79b9 <check_legal+0xa49>
    7930:	lea    eax,[rdi-0xc]
    7933:	cdqe   
    7935:	mov    ecx,DWORD PTR [rdx+rax*4]
    7938:	cmp    ecx,0xd
    793b:	jne    7488 <check_legal+0x518>
    7941:	lea    rax,[rdx+r11*4]
    7945:	nop    DWORD PTR [rax]
    7948:	mov    ecx,DWORD PTR [rax-0x60]
    794b:	sub    rax,0x30
    794f:	cmp    ecx,0xd
    7952:	je     7948 <check_legal+0x9d8>
    7954:	jmp    7488 <check_legal+0x518>
    7959:	nop    DWORD PTR [rax+0x0]
    7960:	lea    rdx,[rip+0x275f59]        # 27d8c0 <board>
    7967:	cmp    DWORD PTR [rdx+rsi*4],0x5
    796b:	je     72c6 <check_legal+0x356>
    7971:	jmp    7928 <check_legal+0x9b8>
    7973:	nop    DWORD PTR [rax+rax*1+0x0]
    7978:	lea    rdx,[rip+0x275f41]        # 27d8c0 <board>
    797f:	cmp    DWORD PTR [rdx+rsi*4],0x6
    7983:	je     729e <check_legal+0x32e>
    7989:	jmp    78d8 <check_legal+0x968>
    798e:	lea    eax,[rdi+0xc]
    7991:	cdqe   
    7993:	mov    ecx,DWORD PTR [rdx+rax*4]
    7996:	cmp    ecx,0xd
    7999:	jne    7560 <check_legal+0x5f0>
    799f:	lea    rax,[rdx+r11*4]
    79a3:	nop    DWORD PTR [rax+rax*1+0x0]
    79a8:	mov    ecx,DWORD PTR [rax+0x60]
    79ab:	add    rax,0x30
    79af:	cmp    ecx,0xd
    79b2:	je     79a8 <check_legal+0xa38>
    79b4:	jmp    7560 <check_legal+0x5f0>
    79b9:	lea    eax,[rdi+0xc]
    79bc:	cdqe   
    79be:	mov    ecx,DWORD PTR [rdx+rax*4]
    79c1:	cmp    ecx,0xd
    79c4:	jne    7488 <check_legal+0x518>
    79ca:	lea    rax,[rdx+r11*4]
    79ce:	xchg   ax,ax
    79d0:	mov    ecx,DWORD PTR [rax+0x60]
    79d3:	add    rax,0x30
    79d7:	cmp    ecx,0xd
    79da:	je     79d0 <check_legal+0xa60>
    79dc:	jmp    7488 <check_legal+0x518>
    79e1:	lea    rdx,[rip+0x275ed8]        # 27d8c0 <board>
    79e8:	cmp    DWORD PTR [rdx+rsi*4],0x6
    79ec:	je     729e <check_legal+0x32e>
    79f2:	jmp    7530 <check_legal+0x5c0>
    79f7:	lea    rdx,[rip+0x275ec2]        # 27d8c0 <board>
    79fe:	cmp    DWORD PTR [rdx+rsi*4],0x5
    7a02:	je     72c6 <check_legal+0x356>
    7a08:	jmp    7459 <check_legal+0x4e9>
    7a0d:	cmp    ecx,edi
    7a0f:	jge    7b01 <check_legal+0xb91>
    7a15:	lea    eax,[rdi-0xd]
    7a18:	cdqe   
    7a1a:	mov    ecx,DWORD PTR [rdx+rax*4]
    7a1d:	cmp    ecx,0xd
    7a20:	jne    7154 <check_legal+0x1e4>
    7a26:	lea    rax,[rdx+r11*4]
    7a2a:	nop    WORD PTR [rax+rax*1+0x0]
    7a30:	mov    ecx,DWORD PTR [rax-0x68]
    7a33:	sub    rax,0x34
    7a37:	cmp    ecx,0xd
    7a3a:	je     7a30 <check_legal+0xac0>
    7a3c:	jmp    7154 <check_legal+0x1e4>
    7a41:	cmp    ecx,edi
    7a43:	jge    7ad1 <check_legal+0xb61>
    7a49:	lea    eax,[rdi-0xd]
    7a4c:	cdqe   
    7a4e:	mov    ecx,DWORD PTR [rdx+rax*4]
    7a51:	cmp    ecx,0xd
    7a54:	jne    7234 <check_legal+0x2c4>
    7a5a:	lea    rax,[rdx+r11*4]
    7a5e:	xchg   ax,ax
    7a60:	mov    ecx,DWORD PTR [rax-0x68]
    7a63:	sub    rax,0x34
    7a67:	cmp    ecx,0xd
    7a6a:	je     7a60 <check_legal+0xaf0>
    7a6c:	jmp    7234 <check_legal+0x2c4>
    7a71:	lea    eax,[rdi+0x1]
    7a74:	cdqe   
    7a76:	mov    ecx,DWORD PTR [rdx+rax*4]
    7a79:	cmp    ecx,0xd
    7a7c:	jne    7488 <check_legal+0x518>
    7a82:	lea    rax,[rdx+r11*4]
    7a86:	nop    WORD PTR cs:[rax+rax*1+0x0]
    7a90:	mov    ecx,DWORD PTR [rax+0x8]
    7a93:	add    rax,0x4
    7a97:	cmp    ecx,0xd
    7a9a:	je     7a90 <check_legal+0xb20>
    7a9c:	jmp    7488 <check_legal+0x518>
    7aa1:	lea    eax,[rdi+0x1]
    7aa4:	cdqe   
    7aa6:	mov    ecx,DWORD PTR [rdx+rax*4]
    7aa9:	cmp    ecx,0xd
    7aac:	jne    7560 <check_legal+0x5f0>
    7ab2:	lea    rax,[rdx+r11*4]
    7ab6:	nop    WORD PTR cs:[rax+rax*1+0x0]
    7ac0:	mov    ecx,DWORD PTR [rax+0x8]
    7ac3:	add    rax,0x4
    7ac7:	cmp    ecx,0xd
    7aca:	je     7ac0 <check_legal+0xb50>
    7acc:	jmp    7560 <check_legal+0x5f0>
    7ad1:	lea    eax,[rdi+0xd]
    7ad4:	cdqe   
    7ad6:	mov    ecx,DWORD PTR [rdx+rax*4]
    7ad9:	cmp    ecx,0xd
    7adc:	jne    7234 <check_legal+0x2c4>
    7ae2:	lea    rax,[rdx+r11*4]
    7ae6:	nop    WORD PTR cs:[rax+rax*1+0x0]
    7af0:	mov    ecx,DWORD PTR [rax+0x68]
    7af3:	add    rax,0x34
    7af7:	cmp    ecx,0xd
    7afa:	je     7af0 <check_legal+0xb80>
    7afc:	jmp    7234 <check_legal+0x2c4>
    7b01:	lea    eax,[rdi+0xd]
    7b04:	cdqe   
    7b06:	mov    ecx,DWORD PTR [rdx+rax*4]
    7b09:	cmp    ecx,0xd
    7b0c:	jne    7154 <check_legal+0x1e4>
    7b12:	lea    rax,[rdx+r11*4]
    7b16:	nop    WORD PTR cs:[rax+rax*1+0x0]
    7b20:	mov    ecx,DWORD PTR [rax+0x68]
    7b23:	add    rax,0x34
    7b27:	cmp    ecx,0xd
    7b2a:	je     7b20 <check_legal+0xbb0>
    7b2c:	jmp    7154 <check_legal+0x1e4>
    7b31:	lea    eax,[rdi+0xb]
    7b34:	cdqe   
    7b36:	mov    ecx,DWORD PTR [rdx+rax*4]
    7b39:	cmp    ecx,0xd
    7b3c:	jne    7234 <check_legal+0x2c4>
    7b42:	lea    rax,[rdx+r11*4]
    7b46:	nop    WORD PTR cs:[rax+rax*1+0x0]
    7b50:	mov    ecx,DWORD PTR [rax+0x58]
    7b53:	add    rax,0x2c
    7b57:	cmp    ecx,0xd
    7b5a:	je     7b50 <check_legal+0xbe0>
    7b5c:	jmp    7234 <check_legal+0x2c4>
    7b61:	lea    eax,[rdi+0xb]
    7b64:	cdqe   
    7b66:	mov    ecx,DWORD PTR [rdx+rax*4]
    7b69:	cmp    ecx,0xd
    7b6c:	jne    7154 <check_legal+0x1e4>
    7b72:	lea    rax,[rdx+r11*4]
    7b76:	nop    WORD PTR cs:[rax+rax*1+0x0]
    7b80:	mov    ecx,DWORD PTR [rax+0x58]
    7b83:	add    rax,0x2c
    7b87:	cmp    ecx,0xd
    7b8a:	je     7b80 <check_legal+0xc10>
    7b8c:	jmp    7154 <check_legal+0x1e4>
    7b91:	movsxd r11,edi
    7b94:	cmp    DWORD PTR [rbp+r11*4+0x0],r12d
    7b99:	je     7bc7 <check_legal+0xc57>
    7b9b:	lea    r9,[rip+0x1485e]        # 1c400 <Xdiagl>
    7ba2:	mov    r14d,DWORD PTR [r9+r11*4]
    7ba6:	cmp    DWORD PTR [r9+rax*4],r14d
    7baa:	je     7bc7 <check_legal+0xc57>
    7bac:	lea    r10,[rip+0x14a8d]        # 1c640 <Xrank>
    7bb3:	mov    r8d,0x1
    7bb9:	mov    r14d,DWORD PTR [r10+r11*4]
    7bbd:	cmp    DWORD PTR [r10+rax*4],r14d
    7bc1:	jne    6fc8 <check_legal+0x58>
    7bc7:	mov    ebx,DWORD PTR [rbx+r11*4]
    7bcb:	jmp    750c <check_legal+0x59c>
    7bd0:	movsxd r11,edi
    7bd3:	cmp    DWORD PTR [rbp+r11*4+0x0],r12d
    7bd8:	je     7c06 <check_legal+0xc96>
    7bda:	lea    r9,[rip+0x1481f]        # 1c400 <Xdiagl>
    7be1:	mov    r14d,DWORD PTR [r9+r11*4]
    7be5:	cmp    DWORD PTR [r9+rax*4],r14d
    7be9:	je     7c06 <check_legal+0xc96>
    7beb:	lea    r10,[rip+0x14a4e]        # 1c640 <Xrank>
    7bf2:	mov    r8d,0x1
    7bf8:	mov    r14d,DWORD PTR [r10+r11*4]
    7bfc:	cmp    DWORD PTR [r10+rax*4],r14d
    7c00:	jne    6fc8 <check_legal+0x58>
    7c06:	mov    ebx,DWORD PTR [rbx+r11*4]
    7c0a:	jmp    7435 <check_legal+0x4c5>
    7c0f:	cmp    DWORD PTR [rbp+r11*4+0x0],r12d
    7c14:	je     750c <check_legal+0x59c>
    7c1a:	cmp    esi,ebx
    7c1c:	je     78d8 <check_legal+0x968>
    7c22:	lea    r9,[rip+0x147d7]        # 1c400 <Xdiagl>
    7c29:	mov    r8d,0x1
    7c2f:	mov    ebx,DWORD PTR [r9+r11*4]
    7c33:	cmp    DWORD PTR [r9+rax*4],ebx
    7c37:	jne    6fc8 <check_legal+0x58>
    7c3d:	jmp    751b <check_legal+0x5ab>
    7c42:	cmp    DWORD PTR [rbp+r11*4+0x0],r12d
    7c47:	je     7435 <check_legal+0x4c5>
    7c4d:	cmp    esi,ebx
    7c4f:	je     7928 <check_legal+0x9b8>
    7c55:	lea    r9,[rip+0x147a4]        # 1c400 <Xdiagl>
    7c5c:	mov    r8d,0x1
    7c62:	mov    ebx,DWORD PTR [r9+r11*4]
    7c66:	cmp    DWORD PTR [r9+rax*4],ebx
    7c6a:	jne    6fc8 <check_legal+0x58>
    7c70:	jmp    7444 <check_legal+0x4d4>
    7c75:	cmp    DWORD PTR [rbp+r11*4+0x0],r12d
    7c7a:	jne    76ec <check_legal+0x77c>
    7c80:	jmp    750c <check_legal+0x59c>
    7c85:	cmp    DWORD PTR [rbp+r11*4+0x0],r12d
    7c8a:	jne    77dc <check_legal+0x86c>
    7c90:	jmp    7435 <check_legal+0x4c5>
    7c95:	data16 nop WORD PTR cs:[rax+rax*1+0x0]

0000000000007ca0 <in_check>:
    7ca0:	endbr64 
    7ca4:	xor    eax,eax
    7ca6:	cmp    DWORD PTR [rip+0x273b13],0x3        # 27b7c0 <Variant>
    7cad:	je     7d00 <in_check+0x60>
    7caf:	sub    rsp,0x8
    7cb3:	cmp    DWORD PTR [rip+0x275866],0x1        # 27d520 <white_to_move>
    7cba:	je     7ce0 <in_check+0x40>
    7cbc:	mov    edi,DWORD PTR [rip+0x275862]        # 27d524 <bking_loc>
    7cc2:	mov    esi,0x1
    7cc7:	call   3530 <is_attacked>
    7ccc:	test   eax,eax
    7cce:	setne  al
    7cd1:	add    rsp,0x8
    7cd5:	movzx  eax,al
    7cd8:	ret    
    7cd9:	nop    DWORD PTR [rax+0x0]
    7ce0:	mov    edi,DWORD PTR [rip+0x2762f6]        # 27dfdc <wking_loc>
    7ce6:	xor    esi,esi
    7ce8:	call   3530 <is_attacked>
    7ced:	test   eax,eax
    7cef:	setne  al
    7cf2:	add    rsp,0x8
    7cf6:	movzx  eax,al
    7cf9:	ret    
    7cfa:	nop    WORD PTR [rax+rax*1+0x0]
    7d00:	ret    
    7d01:	data16 nop WORD PTR cs:[rax+rax*1+0x0]
    7d0c:	nop    DWORD PTR [rax+0x0]

0000000000007d10 <f_in_check>:
    7d10:	endbr64 
    7d14:	movsxd rsi,esi
    7d17:	lea    rax,[rsi+rsi*2]
    7d1b:	lea    rsi,[rdi+rax*8]
    7d1f:	xor    eax,eax
    7d21:	cmp    DWORD PTR [rip+0x273a98],0x3        # 27b7c0 <Variant>
    7d28:	je     7f18 <f_in_check+0x208>
    7d2e:	sub    rsp,0x8
    7d32:	movsxd r9,DWORD PTR [rsi+0x4]
    7d36:	lea    rdi,[rip+0x275b83]        # 27d8c0 <board>
    7d3d:	mov    r8d,DWORD PTR [rsi]
    7d40:	cmp    DWORD PTR [rip+0x2757d9],0x1        # 27d520 <white_to_move>
    7d47:	mov    eax,DWORD PTR [rdi+r9*4]
    7d4b:	mov    rdx,r9
    7d4e:	je     7d70 <f_in_check+0x60>
    7d50:	cmp    eax,0xb
    7d53:	ja     7db0 <f_in_check+0xa0>
    7d55:	lea    rcx,[rip+0x15088]        # 1cde4 <lcentral+0x2a4>
    7d5c:	movsxd rax,DWORD PTR [rcx+rax*4]
    7d60:	add    rax,rcx
    7d63:	notrack jmp rax
    7d66:	nop    WORD PTR cs:[rax+rax*1+0x0]
    7d70:	cmp    eax,0xc
    7d73:	ja     7e72 <f_in_check+0x162>
    7d79:	lea    rcx,[rip+0x15094]        # 1ce14 <lcentral+0x2d4>
    7d80:	movsxd rax,DWORD PTR [rcx+rax*4]
    7d84:	add    rax,rcx
    7d87:	notrack jmp rax
    7d8a:	lea    ecx,[r9+0xb]
    7d8e:	mov    eax,0x1
    7d93:	movsxd rcx,ecx
    7d96:	cmp    DWORD PTR [rdi+rcx*4],0x6
    7d9a:	je     7e4f <f_in_check+0x13f>
    7da0:	add    edx,0xd
    7da3:	movsxd rdx,edx
    7da6:	cmp    DWORD PTR [rdi+rdx*4],0x6
    7daa:	je     7e4f <f_in_check+0x13f>
    7db0:	xor    eax,eax
    7db2:	test   r8d,r8d
    7db5:	je     7e4f <f_in_check+0x13f>
    7dbb:	movsxd rcx,DWORD PTR [rip+0x275762]        # 27d524 <bking_loc>
    7dc2:	lea    r9,[rip+0x14877]        # 1c640 <Xrank>
    7dc9:	movsxd rsi,r8d
    7dcc:	mov    r10d,DWORD PTR [r9+rcx*4]
    7dd0:	mov    rdx,rcx
    7dd3:	cmp    DWORD PTR [r9+rsi*4],r10d
    7dd7:	je     8100 <f_in_check+0x3f0>
    7ddd:	lea    r9,[rip+0x14a9c]        # 1c880 <Xfile>
    7de4:	mov    r11d,DWORD PTR [r9+rcx*4]
    7de8:	cmp    DWORD PTR [r9+rsi*4],r11d
    7dec:	je     8140 <f_in_check+0x430>
    7df2:	lea    r9,[rip+0x14607]        # 1c400 <Xdiagl>
    7df9:	mov    r10d,DWORD PTR [r9+rcx*4]
    7dfd:	cmp    DWORD PTR [r9+rsi*4],r10d
    7e01:	je     84f8 <f_in_check+0x7e8>
    7e07:	lea    r9,[rip+0x143b2]        # 1c1c0 <Xdiagr>
    7e0e:	mov    r10d,DWORD PTR [r9+rcx*4]
    7e12:	cmp    DWORD PTR [r9+rsi*4],r10d
    7e16:	jne    7e4f <f_in_check+0x13f>
    7e18:	cmp    ecx,r8d
    7e1b:	jle    85e8 <f_in_check+0x8d8>
    7e21:	sub    edx,0xb
    7e24:	movsxd rdx,edx
    7e27:	mov    edx,DWORD PTR [rdi+rdx*4]
    7e2a:	cmp    edx,0xd
    7e2d:	jne    7e44 <f_in_check+0x134>
    7e2f:	lea    rax,[rdi+rcx*4]
    7e33:	nop    DWORD PTR [rax+rax*1+0x0]
    7e38:	mov    edx,DWORD PTR [rax-0x58]
    7e3b:	sub    rax,0x2c
    7e3f:	cmp    edx,0xd
    7e42:	je     7e38 <f_in_check+0x128>
    7e44:	and    edx,0xfffffffd
    7e47:	xor    eax,eax
    7e49:	cmp    edx,0x9
    7e4c:	sete   al
    7e4f:	add    rsp,0x8
    7e53:	ret    
    7e54:	lea    ecx,[r9-0xb]
    7e58:	mov    eax,0x1
    7e5d:	movsxd rcx,ecx
    7e60:	cmp    DWORD PTR [rdi+rcx*4],0x5
    7e64:	je     7e4f <f_in_check+0x13f>
    7e66:	sub    edx,0xd
    7e69:	movsxd rdx,edx
    7e6c:	cmp    DWORD PTR [rdi+rdx*4],0x5
    7e70:	je     7e4f <f_in_check+0x13f>
    7e72:	xor    eax,eax
    7e74:	test   r8d,r8d
    7e77:	je     7e4f <f_in_check+0x13f>
    7e79:	movsxd rcx,DWORD PTR [rip+0x27615c]        # 27dfdc <wking_loc>
    7e80:	lea    r9,[rip+0x147b9]        # 1c640 <Xrank>
    7e87:	movsxd rsi,r8d
    7e8a:	mov    r11d,DWORD PTR [r9+rcx*4]
    7e8e:	mov    rdx,rcx
    7e91:	cmp    DWORD PTR [r9+rsi*4],r11d
    7e95:	je     84b8 <f_in_check+0x7a8>
    7e9b:	lea    r9,[rip+0x149de]        # 1c880 <Xfile>
    7ea2:	mov    r11d,DWORD PTR [r9+rcx*4]
    7ea6:	cmp    DWORD PTR [r9+rsi*4],r11d
    7eaa:	je     8548 <f_in_check+0x838>
    7eb0:	lea    r9,[rip+0x14549]        # 1c400 <Xdiagl>
    7eb7:	mov    r10d,DWORD PTR [r9+rcx*4]
    7ebb:	cmp    DWORD PTR [r9+rsi*4],r10d
    7ebf:	je     8478 <f_in_check+0x768>
    7ec5:	lea    r9,[rip+0x142f4]        # 1c1c0 <Xdiagr>
    7ecc:	mov    r10d,DWORD PTR [r9+rcx*4]
    7ed0:	cmp    DWORD PTR [r9+rsi*4],r10d
    7ed4:	jne    7e4f <f_in_check+0x13f>
    7eda:	cmp    ecx,r8d
    7edd:	jle    8860 <f_in_check+0xb50>
    7ee3:	lea    eax,[rcx-0xb]
    7ee6:	cdqe   
    7ee8:	mov    edx,DWORD PTR [rdi+rax*4]
    7eeb:	cmp    edx,0xd
    7eee:	jne    7f04 <f_in_check+0x1f4>
    7ef0:	lea    rax,[rdi+rcx*4]
    7ef4:	nop    DWORD PTR [rax+0x0]
    7ef8:	mov    edx,DWORD PTR [rax-0x58]
    7efb:	sub    rax,0x2c
    7eff:	cmp    edx,0xd
    7f02:	je     7ef8 <f_in_check+0x1e8>
    7f04:	sub    edx,0xa
    7f07:	xor    eax,eax
    7f09:	and    edx,0xfffffffd
    7f0c:	sete   al
    7f0f:	jmp    7e4f <f_in_check+0x13f>
    7f14:	nop    DWORD PTR [rax+0x0]
    7f18:	ret    
    7f19:	movsxd rsi,DWORD PTR [rip+0x275604]        # 27d524 <bking_loc>
    7f20:	lea    rcx,[rip+0x14959]        # 1c880 <Xfile>
    7f27:	mov    r10d,DWORD PTR [rcx+rsi*4]
    7f2b:	mov    rax,rsi
    7f2e:	cmp    DWORD PTR [rcx+r9*4],r10d
    7f32:	je     83f8 <f_in_check+0x6e8>
    7f38:	lea    rcx,[rip+0x14701]        # 1c640 <Xrank>
    7f3f:	mov    esi,DWORD PTR [rcx+rsi*4]
    7f42:	cmp    DWORD PTR [rcx+r9*4],esi
    7f46:	jne    7db0 <f_in_check+0xa0>
    7f4c:	cmp    eax,r9d
    7f4f:	jge    88c1 <f_in_check+0xbb1>
    7f55:	lea    esi,[rax+0x1]
    7f58:	movsxd rcx,esi
    7f5b:	cmp    DWORD PTR [rdi+rcx*4],0xd
    7f5f:	jne    7f80 <f_in_check+0x270>
    7f61:	add    eax,0x2
    7f64:	lea    rcx,[rip+0x275951]        # 27d8bc <FULL+0x18>
    7f6b:	cdqe   
    7f6d:	nop    DWORD PTR [rax]
    7f70:	mov    esi,eax
    7f72:	add    rax,0x1
    7f76:	cmp    DWORD PTR [rcx+rax*4],0xd
    7f7a:	je     7f70 <f_in_check+0x260>
    7f7c:	nop    DWORD PTR [rax+0x0]
    7f80:	mov    eax,0x1
    7f85:	cmp    edx,esi
    7f87:	jne    7db0 <f_in_check+0xa0>
    7f8d:	jmp    7e4f <f_in_check+0x13f>
    7f92:	movsxd rcx,DWORD PTR [rip+0x27558b]        # 27d524 <bking_loc>
    7f99:	lea    rsi,[rip+0x148e0]        # 1c880 <Xfile>
    7fa0:	mov    r11d,DWORD PTR [rsi+rcx*4]
    7fa4:	mov    rax,rcx
    7fa7:	cmp    DWORD PTR [rsi+r9*4],r11d
    7fab:	je     83b8 <f_in_check+0x6a8>
    7fb1:	lea    rsi,[rip+0x14688]        # 1c640 <Xrank>
    7fb8:	mov    r11d,DWORD PTR [rsi+rcx*4]
    7fbc:	cmp    DWORD PTR [rsi+r9*4],r11d
    7fc0:	je     8618 <f_in_check+0x908>
    7fc6:	lea    rsi,[rip+0x14433]        # 1c400 <Xdiagl>
    7fcd:	mov    r10d,DWORD PTR [rsi+rcx*4]
    7fd1:	cmp    DWORD PTR [rsi+r9*4],r10d
    7fd5:	je     87f0 <f_in_check+0xae0>
    7fdb:	lea    rsi,[rip+0x141de]        # 1c1c0 <Xdiagr>
    7fe2:	mov    ecx,DWORD PTR [rsi+rcx*4]
    7fe5:	cmp    DWORD PTR [rsi+r9*4],ecx
    7fe9:	jne    7db0 <f_in_check+0xa0>
    7fef:	cmp    eax,r9d
    7ff2:	jge    8ae1 <f_in_check+0xdd1>
    7ff8:	lea    esi,[rax+0xb]
    7ffb:	movsxd rcx,esi
    7ffe:	cmp    DWORD PTR [rdi+rcx*4],0xd
    8002:	jne    7f80 <f_in_check+0x270>
    8008:	add    eax,0x16
    800b:	lea    rcx,[rip+0x275882]        # 27d894 <squares+0x234>
    8012:	cdqe   
    8014:	nop    DWORD PTR [rax+0x0]
    8018:	mov    esi,eax
    801a:	add    rax,0xb
