
milc:     file format elf64-x86-64


Disassembly of section .init:

0000000000002000 <_init>:
    2000:	endbr64 
    2004:	sub    rsp,0x8
    2008:	mov    rax,QWORD PTR [rip+0x1ffd9]        # 21fe8 <__gmon_start__>
    200f:	test   rax,rax
    2012:	je     2016 <_init+0x16>
    2014:	call   rax
    2016:	add    rsp,0x8
    201a:	ret    

Disassembly of section .plt:

0000000000002020 <.plt>:
    2020:	push   QWORD PTR [rip+0x1fe72]        # 21e98 <_GLOBAL_OFFSET_TABLE_+0x8>
    2026:	bnd jmp QWORD PTR [rip+0x1fe73]        # 21ea0 <_GLOBAL_OFFSET_TABLE_+0x10>
    202d:	nop    DWORD PTR [rax]
    2030:	endbr64 
    2034:	push   0x0
    2039:	bnd jmp 2020 <.plt>
    203f:	nop
    2040:	endbr64 
    2044:	push   0x1
    2049:	bnd jmp 2020 <.plt>
    204f:	nop
    2050:	endbr64 
    2054:	push   0x2
    2059:	bnd jmp 2020 <.plt>
    205f:	nop
    2060:	endbr64 
    2064:	push   0x3
    2069:	bnd jmp 2020 <.plt>
    206f:	nop
    2070:	endbr64 
    2074:	push   0x4
    2079:	bnd jmp 2020 <.plt>
    207f:	nop
    2080:	endbr64 
    2084:	push   0x5
    2089:	bnd jmp 2020 <.plt>
    208f:	nop
    2090:	endbr64 
    2094:	push   0x6
    2099:	bnd jmp 2020 <.plt>
    209f:	nop
    20a0:	endbr64 
    20a4:	push   0x7
    20a9:	bnd jmp 2020 <.plt>
    20af:	nop
    20b0:	endbr64 
    20b4:	push   0x8
    20b9:	bnd jmp 2020 <.plt>
    20bf:	nop
    20c0:	endbr64 
    20c4:	push   0x9
    20c9:	bnd jmp 2020 <.plt>
    20cf:	nop
    20d0:	endbr64 
    20d4:	push   0xa
    20d9:	bnd jmp 2020 <.plt>
    20df:	nop
    20e0:	endbr64 
    20e4:	push   0xb
    20e9:	bnd jmp 2020 <.plt>
    20ef:	nop
    20f0:	endbr64 
    20f4:	push   0xc
    20f9:	bnd jmp 2020 <.plt>
    20ff:	nop
    2100:	endbr64 
    2104:	push   0xd
    2109:	bnd jmp 2020 <.plt>
    210f:	nop
    2110:	endbr64 
    2114:	push   0xe
    2119:	bnd jmp 2020 <.plt>
    211f:	nop
    2120:	endbr64 
    2124:	push   0xf
    2129:	bnd jmp 2020 <.plt>
    212f:	nop
    2130:	endbr64 
    2134:	push   0x10
    2139:	bnd jmp 2020 <.plt>
    213f:	nop
    2140:	endbr64 
    2144:	push   0x11
    2149:	bnd jmp 2020 <.plt>
    214f:	nop
    2150:	endbr64 
    2154:	push   0x12
    2159:	bnd jmp 2020 <.plt>
    215f:	nop
    2160:	endbr64 
    2164:	push   0x13
    2169:	bnd jmp 2020 <.plt>
    216f:	nop
    2170:	endbr64 
    2174:	push   0x14
    2179:	bnd jmp 2020 <.plt>
    217f:	nop
    2180:	endbr64 
    2184:	push   0x15
    2189:	bnd jmp 2020 <.plt>
    218f:	nop
    2190:	endbr64 
    2194:	push   0x16
    2199:	bnd jmp 2020 <.plt>
    219f:	nop
    21a0:	endbr64 
    21a4:	push   0x17
    21a9:	bnd jmp 2020 <.plt>
    21af:	nop
    21b0:	endbr64 
    21b4:	push   0x18
    21b9:	bnd jmp 2020 <.plt>
    21bf:	nop
    21c0:	endbr64 
    21c4:	push   0x19
    21c9:	bnd jmp 2020 <.plt>
    21cf:	nop
    21d0:	endbr64 
    21d4:	push   0x1a
    21d9:	bnd jmp 2020 <.plt>
    21df:	nop
    21e0:	endbr64 
    21e4:	push   0x1b
    21e9:	bnd jmp 2020 <.plt>
    21ef:	nop
    21f0:	endbr64 
    21f4:	push   0x1c
    21f9:	bnd jmp 2020 <.plt>
    21ff:	nop
    2200:	endbr64 
    2204:	push   0x1d
    2209:	bnd jmp 2020 <.plt>
    220f:	nop
    2210:	endbr64 
    2214:	push   0x1e
    2219:	bnd jmp 2020 <.plt>
    221f:	nop
    2220:	endbr64 
    2224:	push   0x1f
    2229:	bnd jmp 2020 <.plt>
    222f:	nop
    2230:	endbr64 
    2234:	push   0x20
    2239:	bnd jmp 2020 <.plt>
    223f:	nop
    2240:	endbr64 
    2244:	push   0x21
    2249:	bnd jmp 2020 <.plt>
    224f:	nop
    2250:	endbr64 
    2254:	push   0x22
    2259:	bnd jmp 2020 <.plt>
    225f:	nop
    2260:	endbr64 
    2264:	push   0x23
    2269:	bnd jmp 2020 <.plt>
    226f:	nop
    2270:	endbr64 
    2274:	push   0x24
    2279:	bnd jmp 2020 <.plt>
    227f:	nop
    2280:	endbr64 
    2284:	push   0x25
    2289:	bnd jmp 2020 <.plt>
    228f:	nop

Disassembly of section .plt.got:

0000000000002290 <__cxa_finalize@plt>:
    2290:	endbr64 
    2294:	bnd jmp QWORD PTR [rip+0x1fd5d]        # 21ff8 <__cxa_finalize@GLIBC_2.2.5>
    229b:	nop    DWORD PTR [rax+rax*1+0x0]

Disassembly of section .plt.sec:

00000000000022a0 <free@plt>:
    22a0:	endbr64 
    22a4:	bnd jmp QWORD PTR [rip+0x1fbfd]        # 21ea8 <free@GLIBC_2.2.5>
    22ab:	nop    DWORD PTR [rax+rax*1+0x0]

00000000000022b0 <putchar@plt>:
    22b0:	endbr64 
    22b4:	bnd jmp QWORD PTR [rip+0x1fbf5]        # 21eb0 <putchar@GLIBC_2.2.5>
    22bb:	nop    DWORD PTR [rax+rax*1+0x0]

00000000000022c0 <__errno_location@plt>:
    22c0:	endbr64 
    22c4:	bnd jmp QWORD PTR [rip+0x1fbed]        # 21eb8 <__errno_location@GLIBC_2.2.5>
    22cb:	nop    DWORD PTR [rax+rax*1+0x0]

00000000000022d0 <strcpy@plt>:
    22d0:	endbr64 
    22d4:	bnd jmp QWORD PTR [rip+0x1fbe5]        # 21ec0 <strcpy@GLIBC_2.2.5>
    22db:	nop    DWORD PTR [rax+rax*1+0x0]

00000000000022e0 <__isoc99_fscanf@plt>:
    22e0:	endbr64 
    22e4:	bnd jmp QWORD PTR [rip+0x1fbdd]        # 21ec8 <__isoc99_fscanf@GLIBC_2.7>
    22eb:	nop    DWORD PTR [rax+rax*1+0x0]

00000000000022f0 <puts@plt>:
    22f0:	endbr64 
    22f4:	bnd jmp QWORD PTR [rip+0x1fbd5]        # 21ed0 <puts@GLIBC_2.2.5>
    22fb:	nop    DWORD PTR [rax+rax*1+0x0]

0000000000002300 <fread@plt>:
    2300:	endbr64 
    2304:	bnd jmp QWORD PTR [rip+0x1fbcd]        # 21ed8 <fread@GLIBC_2.2.5>
    230b:	nop    DWORD PTR [rax+rax*1+0x0]

0000000000002310 <write@plt>:
    2310:	endbr64 
    2314:	bnd jmp QWORD PTR [rip+0x1fbc5]        # 21ee0 <write@GLIBC_2.2.5>
    231b:	nop    DWORD PTR [rax+rax*1+0x0]

0000000000002320 <fclose@plt>:
    2320:	endbr64 
    2324:	bnd jmp QWORD PTR [rip+0x1fbbd]        # 21ee8 <fclose@GLIBC_2.2.5>
    232b:	nop    DWORD PTR [rax+rax*1+0x0]

0000000000002330 <ctime@plt>:
    2330:	endbr64 
    2334:	bnd jmp QWORD PTR [rip+0x1fbb5]        # 21ef0 <ctime@GLIBC_2.2.5>
    233b:	nop    DWORD PTR [rax+rax*1+0x0]

0000000000002340 <strlen@plt>:
    2340:	endbr64 
    2344:	bnd jmp QWORD PTR [rip+0x1fbad]        # 21ef8 <strlen@GLIBC_2.2.5>
    234b:	nop    DWORD PTR [rax+rax*1+0x0]

0000000000002350 <__stack_chk_fail@plt>:
    2350:	endbr64 
    2354:	bnd jmp QWORD PTR [rip+0x1fba5]        # 21f00 <__stack_chk_fail@GLIBC_2.4>
    235b:	nop    DWORD PTR [rax+rax*1+0x0]

0000000000002360 <strchr@plt>:
    2360:	endbr64 
    2364:	bnd jmp QWORD PTR [rip+0x1fb9d]        # 21f08 <strchr@GLIBC_2.2.5>
    236b:	nop    DWORD PTR [rax+rax*1+0x0]

0000000000002370 <lseek@plt>:
    2370:	endbr64 
    2374:	bnd jmp QWORD PTR [rip+0x1fb95]        # 21f10 <lseek@GLIBC_2.2.5>
    237b:	nop    DWORD PTR [rax+rax*1+0x0]

0000000000002380 <close@plt>:
    2380:	endbr64 
    2384:	bnd jmp QWORD PTR [rip+0x1fb8d]        # 21f18 <close@GLIBC_2.2.5>
    238b:	nop    DWORD PTR [rax+rax*1+0x0]

0000000000002390 <log@plt>:
    2390:	endbr64 
    2394:	bnd jmp QWORD PTR [rip+0x1fb85]        # 21f20 <log@GLIBC_2.29>
    239b:	nop    DWORD PTR [rax+rax*1+0x0]

00000000000023a0 <fputc@plt>:
    23a0:	endbr64 
    23a4:	bnd jmp QWORD PTR [rip+0x1fb7d]        # 21f28 <fputc@GLIBC_2.2.5>
    23ab:	nop    DWORD PTR [rax+rax*1+0x0]

00000000000023b0 <read@plt>:
    23b0:	endbr64 
    23b4:	bnd jmp QWORD PTR [rip+0x1fb75]        # 21f30 <read@GLIBC_2.2.5>
    23bb:	nop    DWORD PTR [rax+rax*1+0x0]

00000000000023c0 <fgets@plt>:
    23c0:	endbr64 
    23c4:	bnd jmp QWORD PTR [rip+0x1fb6d]        # 21f38 <fgets@GLIBC_2.2.5>
    23cb:	nop    DWORD PTR [rax+rax*1+0x0]

00000000000023d0 <calloc@plt>:
    23d0:	endbr64 
    23d4:	bnd jmp QWORD PTR [rip+0x1fb65]        # 21f40 <calloc@GLIBC_2.2.5>
    23db:	nop    DWORD PTR [rax+rax*1+0x0]

00000000000023e0 <strcmp@plt>:
    23e0:	endbr64 
    23e4:	bnd jmp QWORD PTR [rip+0x1fb5d]        # 21f48 <strcmp@GLIBC_2.2.5>
    23eb:	nop    DWORD PTR [rax+rax*1+0x0]

00000000000023f0 <__memcpy_chk@plt>:
    23f0:	endbr64 
    23f4:	bnd jmp QWORD PTR [rip+0x1fb55]        # 21f50 <__memcpy_chk@GLIBC_2.3.4>
    23fb:	nop    DWORD PTR [rax+rax*1+0x0]

0000000000002400 <time@plt>:
    2400:	endbr64 
    2404:	bnd jmp QWORD PTR [rip+0x1fb4d]        # 21f58 <time@GLIBC_2.2.5>
    240b:	nop    DWORD PTR [rax+rax*1+0x0]

0000000000002410 <__stpcpy_chk@plt>:
    2410:	endbr64 
    2414:	bnd jmp QWORD PTR [rip+0x1fb45]        # 21f60 <__stpcpy_chk@GLIBC_2.3.4>
    241b:	nop    DWORD PTR [rax+rax*1+0x0]

0000000000002420 <fflush@plt>:
    2420:	endbr64 
    2424:	bnd jmp QWORD PTR [rip+0x1fb3d]        # 21f68 <fflush@GLIBC_2.2.5>
    242b:	nop    DWORD PTR [rax+rax*1+0x0]

0000000000002430 <__isoc99_sscanf@plt>:
    2430:	endbr64 
    2434:	bnd jmp QWORD PTR [rip+0x1fb35]        # 21f70 <__isoc99_sscanf@GLIBC_2.7>
    243b:	nop    DWORD PTR [rax+rax*1+0x0]

0000000000002440 <fseek@plt>:
    2440:	endbr64 
    2444:	bnd jmp QWORD PTR [rip+0x1fb2d]        # 21f78 <fseek@GLIBC_2.2.5>
    244b:	nop    DWORD PTR [rax+rax*1+0x0]

0000000000002450 <realloc@plt>:
    2450:	endbr64 
    2454:	bnd jmp QWORD PTR [rip+0x1fb25]        # 21f80 <realloc@GLIBC_2.2.5>
    245b:	nop    DWORD PTR [rax+rax*1+0x0]

0000000000002460 <__strcpy_chk@plt>:
    2460:	endbr64 
    2464:	bnd jmp QWORD PTR [rip+0x1fb1d]        # 21f88 <__strcpy_chk@GLIBC_2.3.4>
    246b:	nop    DWORD PTR [rax+rax*1+0x0]

0000000000002470 <__printf_chk@plt>:
    2470:	endbr64 
    2474:	bnd jmp QWORD PTR [rip+0x1fb15]        # 21f90 <__printf_chk@GLIBC_2.3.4>
    247b:	nop    DWORD PTR [rax+rax*1+0x0]

0000000000002480 <open@plt>:
    2480:	endbr64 
    2484:	bnd jmp QWORD PTR [rip+0x1fb0d]        # 21f98 <open@GLIBC_2.2.5>
    248b:	nop    DWORD PTR [rax+rax*1+0x0]

0000000000002490 <fopen@plt>:
    2490:	endbr64 
    2494:	bnd jmp QWORD PTR [rip+0x1fb05]        # 21fa0 <fopen@GLIBC_2.2.5>
    249b:	nop    DWORD PTR [rax+rax*1+0x0]

00000000000024a0 <__isoc99_scanf@plt>:
    24a0:	endbr64 
    24a4:	bnd jmp QWORD PTR [rip+0x1fafd]        # 21fa8 <__isoc99_scanf@GLIBC_2.7>
    24ab:	nop    DWORD PTR [rax+rax*1+0x0]

00000000000024b0 <exit@plt>:
    24b0:	endbr64 
    24b4:	bnd jmp QWORD PTR [rip+0x1faf5]        # 21fb0 <exit@GLIBC_2.2.5>
    24bb:	nop    DWORD PTR [rax+rax*1+0x0]

00000000000024c0 <fwrite@plt>:
    24c0:	endbr64 
    24c4:	bnd jmp QWORD PTR [rip+0x1faed]        # 21fb8 <fwrite@GLIBC_2.2.5>
    24cb:	nop    DWORD PTR [rax+rax*1+0x0]

00000000000024d0 <__fprintf_chk@plt>:
    24d0:	endbr64 
    24d4:	bnd jmp QWORD PTR [rip+0x1fae5]        # 21fc0 <__fprintf_chk@GLIBC_2.3.4>
    24db:	nop    DWORD PTR [rax+rax*1+0x0]

00000000000024e0 <sqrt@plt>:
    24e0:	endbr64 
    24e4:	bnd jmp QWORD PTR [rip+0x1fadd]        # 21fc8 <sqrt@GLIBC_2.2.5>
    24eb:	nop    DWORD PTR [rax+rax*1+0x0]

00000000000024f0 <__sprintf_chk@plt>:
    24f0:	endbr64 
    24f4:	bnd jmp QWORD PTR [rip+0x1fad5]        # 21fd0 <__sprintf_chk@GLIBC_2.3.4>
    24fb:	nop    DWORD PTR [rax+rax*1+0x0]

Disassembly of section .text:

0000000000002500 <main>:
    2500:	endbr64 
    2504:	push   r15
    2506:	push   r14
    2508:	push   r13
    250a:	lea    r13,[rip+0x17af3]        # 1a004 <_IO_stdin_used+0x4>
    2511:	push   r12
    2513:	push   rbp
    2514:	push   rbx
    2515:	sub    rsp,0x8
    2519:	call   18d50 <initialize_machine>
    251e:	xor    eax,eax
    2520:	call   193d0 <g_sync>
    2525:	xor    eax,eax
    2527:	call   33b0 <setup>
    252c:	mov    r12d,eax
    252f:	nop
    2530:	mov    edi,r12d
    2533:	call   2fb0 <readin>
    2538:	mov    ebx,eax
    253a:	test   eax,eax
    253c:	jne    26a9 <main+0x1a9>
    2542:	xor    eax,eax
    2544:	call   194f0 <dclock>
    2549:	mov    r9d,DWORD PTR [rip+0x203a8]        # 228f8 <warms>
    2550:	test   r9d,r9d
    2553:	jle    2572 <main+0x72>
    2555:	xor    ebp,ebp
    2557:	nop    WORD PTR [rax+rax*1+0x0]
    2560:	xor    eax,eax
    2562:	add    ebp,0x1
    2565:	call   34b0 <update>
    256a:	cmp    DWORD PTR [rip+0x20388],ebp        # 228f8 <warms>
    2570:	jg     2560 <main+0x60>
    2572:	mov    r8d,DWORD PTR [rip+0x2036b]        # 228e4 <this_node>
    2579:	test   r8d,r8d
    257c:	je     26e0 <main+0x1e0>
    2582:	mov    rdi,QWORD PTR [rip+0x1fd57]        # 222e0 <stdout@@GLIBC_2.2.5>
    2589:	call   2420 <fflush@plt>
    258e:	mov    edi,DWORD PTR [rip+0x200ec]        # 22680 <trajecs>
    2594:	test   edi,edi
    2596:	jle    2740 <main+0x240>
    259c:	xor    r14d,r14d
    259f:	xor    ebp,ebp
    25a1:	jmp    25b5 <main+0xb5>
    25a3:	nop    DWORD PTR [rax+rax*1+0x0]
    25a8:	add    r14d,0x1
    25ac:	cmp    DWORD PTR [rip+0x200cd],r14d        # 22680 <trajecs>
    25b3:	jle    261e <main+0x11e>
    25b5:	xor    eax,eax
    25b7:	call   34b0 <update>
    25bc:	mov    ecx,DWORD PTR [rip+0x1fe1e]        # 223e0 <propinterval>
    25c2:	mov    r15d,eax
    25c5:	mov    eax,r14d
    25c8:	cdq    
    25c9:	idiv   ecx
    25cb:	sub    ecx,0x1
    25ce:	cmp    edx,ecx
    25d0:	jne    25a8 <main+0xa8>
    25d2:	xor    edi,edi
    25d4:	add    ebx,r15d
    25d7:	add    ebp,0x1
    25da:	add    r14d,0x1
    25de:	call   13de0 <rephase>
    25e3:	call   fac0 <g_measure>
    25e8:	mov    edi,0x1
    25ed:	call   13de0 <rephase>
    25f2:	mov    esi,0x4a0
    25f7:	mov    edi,0x410
    25fc:	movsd  xmm0,QWORD PTR [rip+0x202fc]        # 22900 <mass>
    2604:	call   2860 <f_meas_imp>
    2609:	mov    rdi,QWORD PTR [rip+0x1fcd0]        # 222e0 <stdout@@GLIBC_2.2.5>
    2610:	call   2420 <fflush@plt>
    2615:	cmp    DWORD PTR [rip+0x20064],r14d        # 22680 <trajecs>
    261c:	jg     25b5 <main+0xb5>
    261e:	mov    esi,DWORD PTR [rip+0x202c0]        # 228e4 <this_node>
    2624:	test   esi,esi
    2626:	je     26f0 <main+0x1f0>
    262c:	mov    rdi,QWORD PTR [rip+0x1fcad]        # 222e0 <stdout@@GLIBC_2.2.5>
    2633:	call   2420 <fflush@plt>
    2638:	test   ebp,ebp
    263a:	je     264a <main+0x14a>
    263c:	mov    ecx,DWORD PTR [rip+0x202a2]        # 228e4 <this_node>
    2642:	test   ecx,ecx
    2644:	je     2708 <main+0x208>
    264a:	xor    eax,eax
    264c:	call   194f0 <dclock>
    2651:	mov    edx,DWORD PTR [rip+0x2028d]        # 228e4 <this_node>
    2657:	test   edx,edx
    2659:	je     26c0 <main+0x1c0>
    265b:	mov    rdi,QWORD PTR [rip+0x1fc7e]        # 222e0 <stdout@@GLIBC_2.2.5>
    2662:	call   2420 <fflush@plt>
    2667:	cmp    DWORD PTR [rip+0x20272],0x14        # 228e0 <saveflag>
    266e:	je     2530 <main+0x30>
    2674:	xor    edi,edi
    2676:	call   13de0 <rephase>
    267b:	mov    edi,DWORD PTR [rip+0x2025f]        # 228e0 <saveflag>
    2681:	lea    rsi,[rip+0x20018]        # 226a0 <savefile>
    2688:	call   57c0 <save_lattice>
    268d:	mov    edi,0x1
    2692:	call   13de0 <rephase>
    2697:	mov    edi,r12d
    269a:	call   2fb0 <readin>
    269f:	mov    ebx,eax
    26a1:	test   eax,eax
    26a3:	je     2542 <main+0x42>
    26a9:	add    rsp,0x8
    26ad:	xor    eax,eax
    26af:	pop    rbx
    26b0:	pop    rbp
    26b1:	pop    r12
    26b3:	pop    r13
    26b5:	pop    r14
    26b7:	pop    r15
    26b9:	ret    
    26ba:	nop    WORD PTR [rax+rax*1+0x0]
    26c0:	mov    edx,DWORD PTR [rip+0x1fd26]        # 223ec <total_iters>
    26c6:	lea    rsi,[rip+0x1795b]        # 1a028 <_IO_stdin_used+0x28>
    26cd:	mov    edi,0x1
    26d2:	xor    eax,eax
    26d4:	call   2470 <__printf_chk@plt>
    26d9:	jmp    265b <main+0x15b>
    26db:	nop    DWORD PTR [rax+rax*1+0x0]
    26e0:	mov    rdi,r13
    26e3:	call   22f0 <puts@plt>
    26e8:	jmp    2582 <main+0x82>
    26ed:	nop    DWORD PTR [rax]
    26f0:	lea    rdi,[rip+0x1791f]        # 1a016 <_IO_stdin_used+0x16>
    26f7:	call   22f0 <puts@plt>
    26fc:	jmp    262c <main+0x12c>
    2701:	nop    DWORD PTR [rax+0x0]
    2708:	pxor   xmm0,xmm0
    270c:	pxor   xmm1,xmm1
    2710:	mov    edi,0x1
    2715:	mov    eax,0x1
    271a:	cvtsi2sd xmm0,ebx
    271e:	lea    rsi,[rip+0x17b03]        # 1a228 <_IO_stdin_used+0x228>
    2725:	cvtsi2sd xmm1,ebp
    2729:	divsd  xmm0,xmm1
    272d:	call   2470 <__printf_chk@plt>
    2732:	jmp    264a <main+0x14a>
    2737:	nop    WORD PTR [rax+rax*1+0x0]
    2740:	mov    eax,DWORD PTR [rip+0x2019e]        # 228e4 <this_node>
    2746:	test   eax,eax
    2748:	je     275b <main+0x25b>
    274a:	mov    rdi,QWORD PTR [rip+0x1fb8f]        # 222e0 <stdout@@GLIBC_2.2.5>
    2751:	call   2420 <fflush@plt>
    2756:	jmp    264a <main+0x14a>
    275b:	lea    rdi,[rip+0x178b4]        # 1a016 <_IO_stdin_used+0x16>
    2762:	call   22f0 <puts@plt>
    2767:	jmp    274a <main+0x24a>
    2769:	nop    DWORD PTR [rax+0x0]

0000000000002770 <_start>:
    2770:	endbr64 
    2774:	xor    ebp,ebp
    2776:	mov    r9,rdx
    2779:	pop    rsi
    277a:	mov    rdx,rsp
    277d:	and    rsp,0xfffffffffffffff0
    2781:	push   rax
    2782:	push   rsp
    2783:	lea    r8,[rip+0x176c6]        # 19e50 <__libc_csu_fini>
    278a:	lea    rcx,[rip+0x1764f]        # 19de0 <__libc_csu_init>
    2791:	lea    rdi,[rip+0xfffffffffffffd68]        # 2500 <main>
    2798:	call   QWORD PTR [rip+0x1f842]        # 21fe0 <__libc_start_main@GLIBC_2.2.5>
    279e:	hlt    
    279f:	nop

00000000000027a0 <deregister_tm_clones>:
    27a0:	lea    rdi,[rip+0x1fb21]        # 222c8 <__TMC_END__>
    27a7:	lea    rax,[rip+0x1fb1a]        # 222c8 <__TMC_END__>
    27ae:	cmp    rax,rdi
    27b1:	je     27c8 <deregister_tm_clones+0x28>
    27b3:	mov    rax,QWORD PTR [rip+0x1f81e]        # 21fd8 <_ITM_deregisterTMCloneTable>
    27ba:	test   rax,rax
    27bd:	je     27c8 <deregister_tm_clones+0x28>
    27bf:	jmp    rax
    27c1:	nop    DWORD PTR [rax+0x0]
    27c8:	ret    
    27c9:	nop    DWORD PTR [rax+0x0]

00000000000027d0 <register_tm_clones>:
    27d0:	lea    rdi,[rip+0x1faf1]        # 222c8 <__TMC_END__>
    27d7:	lea    rsi,[rip+0x1faea]        # 222c8 <__TMC_END__>
    27de:	sub    rsi,rdi
    27e1:	mov    rax,rsi
    27e4:	shr    rsi,0x3f
    27e8:	sar    rax,0x3
    27ec:	add    rsi,rax
    27ef:	sar    rsi,1
    27f2:	je     2808 <register_tm_clones+0x38>
    27f4:	mov    rax,QWORD PTR [rip+0x1f7f5]        # 21ff0 <_ITM_registerTMCloneTable>
    27fb:	test   rax,rax
    27fe:	je     2808 <register_tm_clones+0x38>
    2800:	jmp    rax
    2802:	nop    WORD PTR [rax+rax*1+0x0]
    2808:	ret    
    2809:	nop    DWORD PTR [rax+0x0]

0000000000002810 <__do_global_dtors_aux>:
    2810:	endbr64 
    2814:	cmp    BYTE PTR [rip+0x1faed],0x0        # 22308 <completed.8061>
    281b:	jne    2848 <__do_global_dtors_aux+0x38>
    281d:	push   rbp
    281e:	cmp    QWORD PTR [rip+0x1f7d2],0x0        # 21ff8 <__cxa_finalize@GLIBC_2.2.5>
    2826:	mov    rbp,rsp
    2829:	je     2837 <__do_global_dtors_aux+0x27>
    282b:	mov    rdi,QWORD PTR [rip+0x1f7d6]        # 22008 <__dso_handle>
    2832:	call   2290 <__cxa_finalize@plt>
    2837:	call   27a0 <deregister_tm_clones>
    283c:	mov    BYTE PTR [rip+0x1fac5],0x1        # 22308 <completed.8061>
    2843:	pop    rbp
    2844:	ret    
    2845:	nop    DWORD PTR [rax]
    2848:	ret    
    2849:	nop    DWORD PTR [rax+0x0]

0000000000002850 <frame_dummy>:
    2850:	endbr64 
    2854:	jmp    27d0 <register_tm_clones>
    2859:	nop    DWORD PTR [rax+0x0]

0000000000002860 <f_meas_imp>:
    2860:	endbr64 
    2864:	push   r15
    2866:	push   r14
    2868:	push   r13
    286a:	push   r12
    286c:	movsxd r12,edi
    286f:	push   rbp
    2870:	push   rbx
    2871:	sub    rsp,0x48
    2875:	mov    DWORD PTR [rsp+0x10],esi
    2879:	movsd  QWORD PTR [rsp+0x8],xmm0
    287f:	mov    rax,QWORD PTR fs:0x28
    2888:	mov    QWORD PTR [rsp+0x38],rax
    288d:	xor    eax,eax
    288f:	cmp    DWORD PTR [rip+0x1ff12],0x1        # 227a8 <valid_longlinks>
    2896:	je     289d <f_meas_imp+0x3d>
    2898:	call   11b30 <load_longlinks>
    289d:	cmp    DWORD PTR [rip+0x1ff94],0x1        # 22838 <valid_fatlinks>
    28a4:	je     28ad <f_meas_imp+0x4d>
    28a6:	xor    eax,eax
    28a8:	call   121d0 <load_fatlinks>
    28ad:	movsd  xmm0,QWORD PTR [rsp+0x8]
    28b3:	mov    esi,0x3
    28b8:	mov    edi,r12d
    28bb:	mov    QWORD PTR [rsp+0x30],0x0
    28c4:	mov    QWORD PTR [rsp+0x28],0x0
    28cd:	mov    QWORD PTR [rsp+0x20],0x0
    28d6:	call   fee0 <grsource_imp>
    28db:	mov    r15d,DWORD PTR [rsp+0x10]
    28e0:	movsd  xmm0,QWORD PTR [rsp+0x8]
    28e6:	mov    edx,r12d
    28e9:	mov    edi,0x500
    28ee:	mov    esi,r15d
    28f1:	call   10200 <mat_invert_uml>
    28f6:	mov    ebp,DWORD PTR [rip+0x1fd88]        # 22684 <even_sites_on_node>
    28fc:	mov    rbx,QWORD PTR [rip+0x1fec5]        # 227c8 <lattice>
    2903:	test   ebp,ebp
    2905:	jle    2975 <f_meas_imp+0x115>
    2907:	movsxd r13,r15d
    290a:	mov    r15d,0x500
    2910:	add    rbx,r12
    2913:	xor    r14d,r14d
    2916:	sub    r15,r12
    2919:	nop    DWORD PTR [rax+0x0]
    2920:	mov    rbp,r13
    2923:	mov    rdi,rbx
    2926:	add    r14d,0x1
    292a:	sub    rbp,r12
    292d:	add    rbp,rbx
    2930:	mov    rsi,rbp
    2933:	call   14a60 <su3_dot>
    2938:	addsd  xmm0,QWORD PTR [rsp+0x30]
    293e:	lea    rdi,[r15+rbx*1]
    2942:	mov    rsi,rbp
    2945:	add    rbx,0x800
    294c:	movsd  QWORD PTR [rsp+0x30],xmm0
    2952:	call   14a60 <su3_dot>
    2957:	addsd  xmm0,QWORD PTR [rsp+0x20]
    295d:	mov    ebp,DWORD PTR [rip+0x1fd21]        # 22684 <even_sites_on_node>
    2963:	movsd  QWORD PTR [rsp+0x20],xmm0
    2969:	cmp    ebp,r14d
    296c:	jg     2920 <f_meas_imp+0xc0>
    296e:	mov    rbx,QWORD PTR [rip+0x1fe53]        # 227c8 <lattice>
    2975:	movsxd rax,ebp
    2978:	shl    rax,0xb
    297c:	cmp    ebp,DWORD PTR [rip+0x1fb7e]        # 22500 <sites_on_node>
    2982:	jge    29ca <f_meas_imp+0x16a>
    2984:	movsxd r14,DWORD PTR [rsp+0x10]
    2989:	lea    rbx,[rbx+rax*1+0x500]
    2991:	lea    r12,[r14-0x500]
    2998:	nop    DWORD PTR [rax+rax*1+0x0]
    29a0:	lea    rsi,[r12+rbx*1]
    29a4:	mov    rdi,rbx
    29a7:	add    ebp,0x1
    29aa:	add    rbx,0x800
    29b1:	call   14a60 <su3_dot>
    29b6:	addsd  xmm0,QWORD PTR [rsp+0x28]
    29bc:	cmp    DWORD PTR [rip+0x1fb3e],ebp        # 22500 <sites_on_node>
    29c2:	movsd  QWORD PTR [rsp+0x28],xmm0
    29c8:	jg     29a0 <f_meas_imp+0x140>
    29ca:	lea    rdi,[rsp+0x28]
    29cf:	call   193f0 <g_doublesum>
    29d4:	lea    rdi,[rsp+0x20]
    29d9:	call   193f0 <g_doublesum>
    29de:	lea    rdi,[rsp+0x30]
    29e3:	call   193f0 <g_doublesum>
    29e8:	mov    edx,DWORD PTR [rip+0x1fef6]        # 228e4 <this_node>
    29ee:	test   edx,edx
    29f0:	je     2a18 <f_meas_imp+0x1b8>
    29f2:	mov    rax,QWORD PTR [rsp+0x38]
    29f7:	xor    rax,QWORD PTR fs:0x28
    2a00:	jne    2ac9 <f_meas_imp+0x269>
    2a06:	add    rsp,0x48
    2a0a:	pop    rbx
    2a0b:	pop    rbp
    2a0c:	pop    r12
    2a0e:	pop    r13
    2a10:	pop    r14
    2a12:	pop    r15
    2a14:	ret    
    2a15:	nop    DWORD PTR [rax]
    2a18:	pxor   xmm3,xmm3
    2a1c:	movsd  xmm1,QWORD PTR [rip+0x17874]        # 1a298 <_IO_stdin_used+0x298>
    2a24:	movsd  xmm2,QWORD PTR [rsp+0x28]
    2a2a:	mov    ecx,0x1
    2a2f:	movsd  xmm4,QWORD PTR [rsp+0x30]
    2a35:	movsd  xmm0,QWORD PTR [rsp+0x8]
    2a3b:	cvtsi2sd xmm3,DWORD PTR [rip+0x1f9ad]        # 223f0 <volume>
    2a43:	mov    edx,0x1
    2a48:	lea    rsi,[rip+0x177f9]        # 1a248 <_IO_stdin_used+0x248>
    2a4f:	mov    edi,0x1
    2a54:	mov    eax,0x3
    2a59:	movsd  QWORD PTR [rsp+0x10],xmm4
    2a5f:	divsd  xmm1,xmm3
    2a63:	movsd  QWORD PTR [rsp+0x18],xmm3
    2a69:	mulsd  xmm2,xmm1
    2a6d:	mulsd  xmm1,QWORD PTR [rsp+0x20]
    2a73:	call   2470 <__printf_chk@plt>
    2a78:	mov    eax,DWORD PTR [rip+0x1fe66]        # 228e4 <this_node>
    2a7e:	test   eax,eax
    2a80:	jne    29f2 <f_meas_imp+0x192>
    2a86:	movsd  xmm3,QWORD PTR [rsp+0x18]
    2a8c:	movsd  xmm0,QWORD PTR [rsp+0x8]
    2a92:	mov    ecx,0x1
    2a97:	mov    edx,0x1
    2a9c:	movsd  xmm1,QWORD PTR [rip+0x177fc]        # 1a2a0 <_IO_stdin_used+0x2a0>
    2aa4:	mov    edi,0x1
    2aa9:	mov    eax,0x2
    2aae:	lea    rsi,[rip+0x177bb]        # 1a270 <_IO_stdin_used+0x270>
    2ab5:	divsd  xmm1,xmm3
    2ab9:	mulsd  xmm1,QWORD PTR [rsp+0x10]
    2abf:	call   2470 <__printf_chk@plt>
    2ac4:	jmp    29f2 <f_meas_imp+0x192>
    2ac9:	call   2350 <__stack_chk_fail@plt>
    2ace:	xchg   ax,ax

0000000000002ad0 <write_appl_gauge_info>:
    2ad0:	endbr64 
    2ad4:	push   rbp
    2ad5:	xor    r9d,r9d
    2ad8:	mov    rbp,rdi
    2adb:	xor    r8d,r8d
    2ade:	lea    rcx,[rip+0x177c3]        # 1a2a8 <_IO_stdin_used+0x2a8>
    2ae5:	lea    rdx,[rip+0x177dc]        # 1a2c8 <_IO_stdin_used+0x2c8>
    2aec:	lea    rsi,[rip+0x1755d]        # 1a050 <_IO_stdin_used+0x50>
    2af3:	call   75c0 <write_gauge_info_item>
    2af8:	mov    rdi,rbp
    2afb:	xor    r9d,r9d
    2afe:	xor    r8d,r8d
    2b01:	lea    rcx,[rip+0x20178]        # 22c80 <gauge_action_description>
    2b08:	lea    rdx,[rip+0x177b9]        # 1a2c8 <_IO_stdin_used+0x2c8>
    2b0f:	lea    rsi,[rip+0x1754d]        # 1a063 <_IO_stdin_used+0x63>
    2b16:	call   75c0 <write_gauge_info_item>
    2b1b:	mov    rdi,rbp
    2b1e:	xor    r9d,r9d
    2b21:	xor    r8d,r8d
    2b24:	lea    rcx,[rip+0x1f661]        # 2218c <gauge_action_nloops>
    2b2b:	lea    rdx,[rip+0x18678]        # 1b1aa <_IO_stdin_used+0x11aa>
    2b32:	lea    rsi,[rip+0x17567]        # 1a0a0 <_IO_stdin_used+0xa0>
    2b39:	call   75c0 <write_gauge_info_item>
    2b3e:	mov    rdi,rbp
    2b41:	xor    r9d,r9d
    2b44:	xor    r8d,r8d
    2b47:	lea    rcx,[rip+0x1f63a]        # 22188 <gauge_action_nreps>
    2b4e:	lea    rdx,[rip+0x18655]        # 1b1aa <_IO_stdin_used+0x11aa>
    2b55:	lea    rsi,[rip+0x17551]        # 1a0ad <_IO_stdin_used+0xad>
    2b5c:	call   75c0 <write_gauge_info_item>
    2b61:	mov    rdi,rbp
    2b64:	xor    r9d,r9d
    2b67:	xor    r8d,r8d
    2b6a:	lea    rcx,[rip+0x1fc4f]        # 227c0 <beta>
    2b71:	lea    rdx,[rip+0x17753]        # 1a2cb <_IO_stdin_used+0x2cb>
    2b78:	lea    rsi,[rip+0x174f6]        # 1a075 <_IO_stdin_used+0x75>
    2b7f:	call   75c0 <write_gauge_info_item>
    2b84:	mov    rdi,rbp
    2b87:	xor    r9d,r9d
    2b8a:	xor    r8d,r8d
    2b8d:	lea    rcx,[rip+0x1fc1c]        # 227b0 <u0>
    2b94:	lea    rdx,[rip+0x17730]        # 1a2cb <_IO_stdin_used+0x2cb>
    2b9b:	lea    rsi,[rip+0x174ed]        # 1a08f <_IO_stdin_used+0x8f>
    2ba2:	call   75c0 <write_gauge_info_item>
    2ba7:	mov    rdi,rbp
    2baa:	xor    r9d,r9d
    2bad:	xor    r8d,r8d
    2bb0:	lea    rcx,[rip+0x1f589]        # 22140 <quark_action_description>
    2bb7:	lea    rdx,[rip+0x1770a]        # 1a2c8 <_IO_stdin_used+0x2c8>
    2bbe:	lea    rsi,[rip+0x175a6]        # 1a16b <_IO_stdin_used+0x16b>
    2bc5:	call   75c0 <write_gauge_info_item>
    2bca:	mov    rdi,rbp
    2bcd:	xor    r9d,r9d
    2bd0:	xor    r8d,r8d
    2bd3:	lea    rcx,[rip+0x1fd22]        # 228fc <nflavors>
    2bda:	lea    rdx,[rip+0x185c9]        # 1b1aa <_IO_stdin_used+0x11aa>
    2be1:	lea    rsi,[rip+0x17595]        # 1a17d <_IO_stdin_used+0x17d>
    2be8:	call   75c0 <write_gauge_info_item>
    2bed:	mov    rdi,rbp
    2bf0:	xor    r9d,r9d
    2bf3:	xor    r8d,r8d
    2bf6:	lea    rcx,[rip+0x1fd03]        # 22900 <mass>
    2bfd:	lea    rdx,[rip+0x176c7]        # 1a2cb <_IO_stdin_used+0x2cb>
    2c04:	pop    rbp
    2c05:	lea    rsi,[rip+0x1759d]        # 1a1a9 <_IO_stdin_used+0x1a9>
    2c0c:	jmp    75c0 <write_gauge_info_item>
    2c11:	nop    WORD PTR cs:[rax+rax*1+0x0]
    2c1b:	nop    DWORD PTR [rax+rax*1+0x0]

0000000000002c20 <third_neighbor>:
    2c20:	endbr64 
    2c24:	push   rbp
    2c25:	mov    eax,0x7
    2c2a:	push   rbx
    2c2b:	sub    rsp,0x8
    2c2f:	mov    r8d,DWORD PTR [r8]
    2c32:	mov    rbp,QWORD PTR [rsp+0x20]
    2c37:	mov    rbx,QWORD PTR [rsp+0x28]
    2c3c:	sub    eax,r8d
    2c3f:	cmp    r9d,0x1
    2c43:	mov    r11,QWORD PTR [rsp+0x30]
    2c48:	mov    r10,QWORD PTR [rsp+0x38]
    2c4d:	cmovne r8,rax
    2c51:	mov    DWORD PTR [rbp+0x0],edi
    2c54:	mov    DWORD PTR [rbx],esi
    2c56:	mov    DWORD PTR [r11],edx
    2c59:	mov    DWORD PTR [r10],ecx
    2c5c:	cmp    r8d,0x7
    2c60:	ja     2d57 <third_neighbor+0x137>
    2c66:	lea    r9,[rip+0x177a7]        # 1a414 <_IO_stdin_used+0x414>
    2c6d:	movsxd rax,DWORD PTR [r9+r8*4]
    2c71:	add    rax,r9
    2c74:	notrack jmp rax
    2c77:	nop    WORD PTR [rax+rax*1+0x0]
    2c80:	mov    ecx,DWORD PTR [rip+0x1fbb6]        # 2283c <ny>
    2c86:	lea    eax,[rsi+rcx*4-0x3]
    2c8a:	cdq    
    2c8b:	idiv   ecx
    2c8d:	mov    DWORD PTR [rbx],edx
    2c8f:	add    rsp,0x8
    2c93:	pop    rbx
    2c94:	pop    rbp
    2c95:	ret    
    2c96:	nop    WORD PTR cs:[rax+rax*1+0x0]
    2ca0:	mov    ecx,DWORD PTR [rip+0x1f732]        # 223d8 <nx>
    2ca6:	lea    eax,[rdi+rcx*4-0x3]
    2caa:	cdq    
    2cab:	idiv   ecx
    2cad:	mov    DWORD PTR [rbp+0x0],edx
    2cb0:	add    rsp,0x8
    2cb4:	pop    rbx
    2cb5:	pop    rbp
    2cb6:	ret    
    2cb7:	nop    WORD PTR [rax+rax*1+0x0]
    2cc0:	lea    eax,[rdi+0x3]
    2cc3:	cdq    
    2cc4:	idiv   DWORD PTR [rip+0x1f70e]        # 223d8 <nx>
    2cca:	mov    DWORD PTR [rbp+0x0],edx
    2ccd:	add    rsp,0x8
    2cd1:	pop    rbx
    2cd2:	pop    rbp
    2cd3:	ret    
    2cd4:	nop    DWORD PTR [rax+0x0]
    2cd8:	lea    eax,[rsi+0x3]
    2cdb:	cdq    
    2cdc:	idiv   DWORD PTR [rip+0x1fb5a]        # 2283c <ny>
    2ce2:	mov    DWORD PTR [rbx],edx
    2ce4:	add    rsp,0x8
    2ce8:	pop    rbx
    2ce9:	pop    rbp
    2cea:	ret    
    2ceb:	nop    DWORD PTR [rax+rax*1+0x0]
    2cf0:	lea    eax,[rdx+0x3]
    2cf3:	cdq    
    2cf4:	idiv   DWORD PTR [rip+0x1f6da]        # 223d4 <nz>
    2cfa:	mov    DWORD PTR [r11],edx
    2cfd:	add    rsp,0x8
    2d01:	pop    rbx
    2d02:	pop    rbp
    2d03:	ret    
    2d04:	nop    DWORD PTR [rax+0x0]
    2d08:	lea    eax,[rcx+0x3]
    2d0b:	cdq    
    2d0c:	idiv   DWORD PTR [rip+0x1f6be]        # 223d0 <nt>
    2d12:	mov    DWORD PTR [r10],edx
    2d15:	add    rsp,0x8
    2d19:	pop    rbx
    2d1a:	pop    rbp
    2d1b:	ret    
    2d1c:	nop    DWORD PTR [rax+0x0]
    2d20:	mov    esi,DWORD PTR [rip+0x1f6aa]        # 223d0 <nt>
    2d26:	lea    eax,[rcx+rsi*4-0x3]
    2d2a:	cdq    
    2d2b:	idiv   esi
    2d2d:	mov    DWORD PTR [r10],edx
    2d30:	add    rsp,0x8
    2d34:	pop    rbx
    2d35:	pop    rbp
    2d36:	ret    
    2d37:	nop    WORD PTR [rax+rax*1+0x0]
    2d40:	mov    ecx,DWORD PTR [rip+0x1f68e]        # 223d4 <nz>
    2d46:	lea    eax,[rdx+rcx*4-0x3]
    2d4a:	cdq    
    2d4b:	idiv   ecx
    2d4d:	mov    DWORD PTR [r11],edx
    2d50:	add    rsp,0x8
    2d54:	pop    rbx
    2d55:	pop    rbp
    2d56:	ret    
    2d57:	lea    rdi,[rip+0x17570]        # 1a2ce <_IO_stdin_used+0x2ce>
    2d5e:	call   22f0 <puts@plt>
    2d63:	mov    edi,0x1
    2d68:	call   24b0 <exit@plt>
    2d6d:	nop    DWORD PTR [rax]

0000000000002d70 <initial_set>:
    2d70:	endbr64 
    2d74:	push   r12
    2d76:	sub    rsp,0x10
    2d7a:	mov    rax,QWORD PTR fs:0x28
    2d83:	mov    QWORD PTR [rsp+0x8],rax
    2d88:	xor    eax,eax
    2d8a:	call   193b0 <mynode>
    2d8f:	test   eax,eax
    2d91:	je     2e68 <initial_set+0xf8>
    2d97:	mov    esi,0x280
    2d9c:	lea    rdi,[rip+0x1fb7d]        # 22920 <par_buf>
    2da3:	call   194c0 <broadcast_bytes>
    2da8:	mov    eax,DWORD PTR [rip+0x1fb72]        # 22920 <par_buf>
    2dae:	test   eax,eax
    2db0:	jne    2ee8 <initial_set+0x178>
    2db6:	mov    eax,DWORD PTR [rip+0x1fb68]        # 22924 <par_buf+0x4>
    2dbc:	mov    DWORD PTR [rip+0x1f616],eax        # 223d8 <nx>
    2dc2:	mov    eax,DWORD PTR [rip+0x1fb60]        # 22928 <par_buf+0x8>
    2dc8:	mov    DWORD PTR [rip+0x1fa6e],eax        # 2283c <ny>
    2dce:	mov    eax,DWORD PTR [rip+0x1fb58]        # 2292c <par_buf+0xc>
    2dd4:	mov    DWORD PTR [rip+0x1f5fa],eax        # 223d4 <nz>
    2dda:	mov    eax,DWORD PTR [rip+0x1fb50]        # 22930 <par_buf+0x10>
    2de0:	mov    DWORD PTR [rip+0x1f5ea],eax        # 223d0 <nt>
    2de6:	mov    eax,DWORD PTR [rip+0x1fb48]        # 22934 <par_buf+0x14>
    2dec:	mov    DWORD PTR [rip+0x1f71e],eax        # 22510 <iseed>
    2df2:	mov    eax,DWORD PTR [rip+0x1fb40]        # 22938 <par_buf+0x18>
    2df8:	mov    DWORD PTR [rip+0x1fafe],eax        # 228fc <nflavors>
    2dfe:	xor    eax,eax
    2e00:	call   193b0 <mynode>
    2e05:	mov    DWORD PTR [rip+0x1fad9],eax        # 228e4 <this_node>
    2e0b:	xor    eax,eax
    2e0d:	call   193c0 <numnodes>
    2e12:	mov    DWORD PTR [rip+0x1f5d0],0x0        # 223ec <total_iters>
    2e1c:	mov    DWORD PTR [rip+0x1f85a],eax        # 2267c <number_of_nodes>
    2e22:	mov    eax,DWORD PTR [rip+0x1f5b0]        # 223d8 <nx>
    2e28:	imul   eax,DWORD PTR [rip+0x1fa0d]        # 2283c <ny>
    2e2f:	imul   eax,DWORD PTR [rip+0x1f59e]        # 223d4 <nz>
    2e36:	imul   eax,DWORD PTR [rip+0x1f593]        # 223d0 <nt>
    2e3d:	mov    DWORD PTR [rip+0x1f5ad],eax        # 223f0 <volume>
    2e43:	mov    eax,DWORD PTR [rsp+0x4]
    2e47:	mov    rcx,QWORD PTR [rsp+0x8]
    2e4c:	xor    rcx,QWORD PTR fs:0x28
    2e55:	jne    2fa3 <initial_set+0x233>
    2e5b:	add    rsp,0x10
    2e5f:	pop    r12
    2e61:	ret    
    2e62:	nop    WORD PTR [rax+rax*1+0x0]
    2e68:	lea    rdi,[rip+0x1747b]        # 1a2ea <_IO_stdin_used+0x2ea>
    2e6f:	call   22f0 <puts@plt>
    2e74:	lea    rdi,[rip+0x175bd]        # 1a438 <_IO_stdin_used+0x438>
    2e7b:	call   22f0 <puts@plt>
    2e80:	lea    rdi,[rip+0x1747f]        # 1a306 <_IO_stdin_used+0x306>
    2e87:	call   22f0 <puts@plt>
    2e8c:	xor    eax,eax
    2e8e:	call   193c0 <numnodes>
    2e93:	mov    r12d,eax
    2e96:	xor    eax,eax
    2e98:	call   193a0 <machine_type>
    2e9d:	mov    ecx,r12d
    2ea0:	mov    edi,0x1
    2ea5:	lea    rsi,[rip+0x17469]        # 1a315 <_IO_stdin_used+0x315>
    2eac:	mov    rdx,rax
    2eaf:	xor    eax,eax
    2eb1:	call   2470 <__printf_chk@plt>
    2eb6:	lea    rdi,[rip+0x17475]        # 1a332 <_IO_stdin_used+0x332>
    2ebd:	call   22f0 <puts@plt>
    2ec2:	lea    rdi,[rsp+0x4]
    2ec7:	call   6940 <get_prompt>
    2ecc:	test   eax,eax
    2ece:	je     2ef8 <initial_set+0x188>
    2ed0:	test   eax,eax
    2ed2:	setg   al
    2ed5:	movzx  eax,al
    2ed8:	mov    DWORD PTR [rip+0x1fa42],eax        # 22920 <par_buf>
    2ede:	jmp    2d97 <initial_set+0x27>
    2ee3:	nop    DWORD PTR [rax+rax*1+0x0]
    2ee8:	xor    edi,edi
    2eea:	call   19bf0 <normal_exit>
    2eef:	jmp    2db6 <initial_set+0x46>
    2ef4:	nop    DWORD PTR [rax+0x0]
    2ef8:	mov    edi,DWORD PTR [rsp+0x4]
    2efc:	lea    rdx,[rip+0x1fa35]        # 22938 <par_buf+0x18>
    2f03:	lea    rsi,[rip+0x17434]        # 1a33e <_IO_stdin_used+0x33e>
    2f0a:	call   6540 <get_i>
    2f0f:	test   eax,eax
    2f11:	jne    2ed0 <initial_set+0x160>
    2f13:	mov    edi,DWORD PTR [rsp+0x4]
    2f17:	lea    rdx,[rip+0x1fa06]        # 22924 <par_buf+0x4>
    2f1e:	lea    rsi,[rip+0x17122]        # 1a047 <_IO_stdin_used+0x47>
    2f25:	call   6540 <get_i>
    2f2a:	test   eax,eax
    2f2c:	jne    2ed0 <initial_set+0x160>
    2f2e:	mov    edi,DWORD PTR [rsp+0x4]
    2f32:	lea    rdx,[rip+0x1f9ef]        # 22928 <par_buf+0x8>
    2f39:	lea    rsi,[rip+0x1710a]        # 1a04a <_IO_stdin_used+0x4a>
    2f40:	call   6540 <get_i>
    2f45:	test   eax,eax
    2f47:	jne    2ed0 <initial_set+0x160>
    2f49:	mov    edi,DWORD PTR [rsp+0x4]
    2f4d:	lea    rdx,[rip+0x1f9d8]        # 2292c <par_buf+0xc>
    2f54:	lea    rsi,[rip+0x170f2]        # 1a04d <_IO_stdin_used+0x4d>
    2f5b:	call   6540 <get_i>
    2f60:	test   eax,eax
    2f62:	jne    2ed0 <initial_set+0x160>
    2f68:	mov    edi,DWORD PTR [rsp+0x4]
    2f6c:	lea    rdx,[rip+0x1f9bd]        # 22930 <par_buf+0x10>
    2f73:	lea    rsi,[rip+0x1811f]        # 1b099 <_IO_stdin_used+0x1099>
    2f7a:	call   6540 <get_i>
    2f7f:	test   eax,eax
    2f81:	jne    2ed0 <initial_set+0x160>
    2f87:	mov    edi,DWORD PTR [rsp+0x4]
    2f8b:	lea    rdx,[rip+0x1f9a2]        # 22934 <par_buf+0x14>
    2f92:	lea    rsi,[rip+0x173ae]        # 1a347 <_IO_stdin_used+0x347>
    2f99:	call   6540 <get_i>
    2f9e:	jmp    2ed0 <initial_set+0x160>
    2fa3:	call   2350 <__stack_chk_fail@plt>
    2fa8:	nop    DWORD PTR [rax+rax*1+0x0]

0000000000002fb0 <readin>:
    2fb0:	endbr64 
    2fb4:	push   r12
    2fb6:	push   rbp
    2fb7:	sub    rsp,0x18
    2fbb:	mov    edx,DWORD PTR [rip+0x1f923]        # 228e4 <this_node>
    2fc1:	mov    rax,QWORD PTR fs:0x28
    2fca:	mov    QWORD PTR [rsp+0x8],rax
    2fcf:	xor    eax,eax
    2fd1:	test   edx,edx
    2fd3:	je     3150 <readin+0x1a0>
    2fd9:	mov    esi,0x280
    2fde:	lea    rdi,[rip+0x1f93b]        # 22920 <par_buf>
    2fe5:	call   194c0 <broadcast_bytes>
    2fea:	mov    eax,DWORD PTR [rip+0x1f930]        # 22920 <par_buf>
    2ff0:	test   eax,eax
    2ff2:	jne    3190 <readin+0x1e0>
    2ff8:	mov    eax,DWORD PTR [rip+0x1f93e]        # 2293c <par_buf+0x1c>
    2ffe:	mov    ebp,DWORD PTR [rip+0x1f990]        # 22994 <par_buf+0x74>
    3004:	mov    edx,0x100
    3009:	lea    rsi,[rip+0x1f98c]        # 2299c <par_buf+0x7c>
    3010:	movsd  xmm0,QWORD PTR [rip+0x1f958]        # 22970 <par_buf+0x50>
    3018:	lea    rdi,[rip+0x1f3e1]        # 22400 <startfile>
    301f:	mov    DWORD PTR [rip+0x1f8d3],eax        # 228f8 <warms>
    3025:	mov    eax,DWORD PTR [rip+0x1f915]        # 22940 <par_buf+0x20>
    302b:	movsd  QWORD PTR [rip+0x1f79d],xmm0        # 227d0 <rsqmin>
    3033:	movsd  xmm0,QWORD PTR [rip+0x1f93d]        # 22978 <par_buf+0x58>
    303b:	mov    DWORD PTR [rip+0x1f63f],eax        # 22680 <trajecs>
    3041:	mov    eax,DWORD PTR [rip+0x1f8fd]        # 22944 <par_buf+0x24>
    3047:	movsd  QWORD PTR [rip+0x1f379],xmm0        # 223c8 <rsqprop>
    304f:	movsd  xmm0,QWORD PTR [rip+0x1f929]        # 22980 <par_buf+0x60>
    3057:	mov    DWORD PTR [rip+0x1f38b],eax        # 223e8 <steps>
    305d:	mov    eax,DWORD PTR [rip+0x1f8e5]        # 22948 <par_buf+0x28>
    3063:	movsd  QWORD PTR [rip+0x1f885],xmm0        # 228f0 <epsilon>
    306b:	movsd  xmm0,QWORD PTR [rip+0x1f8dd]        # 22950 <par_buf+0x30>
    3073:	mov    DWORD PTR [rip+0x1f367],eax        # 223e0 <propinterval>
    3079:	mov    eax,DWORD PTR [rip+0x1f8e9]        # 22968 <par_buf+0x48>
    307f:	movsd  QWORD PTR [rip+0x1f739],xmm0        # 227c0 <beta>
    3087:	movsd  xmm0,QWORD PTR [rip+0x1f8c9]        # 22958 <par_buf+0x38>
    308f:	mov    DWORD PTR [rip+0x1f5f3],eax        # 22688 <niter>
    3095:	mov    eax,DWORD PTR [rip+0x1f8fd]        # 22998 <par_buf+0x78>
    309b:	movsd  QWORD PTR [rip+0x1f85d],xmm0        # 22900 <mass>
    30a3:	movsd  xmm0,QWORD PTR [rip+0x1f8b5]        # 22960 <par_buf+0x40>
    30ab:	mov    DWORD PTR [rip+0x1f6ef],ebp        # 227a0 <startflag>
    30b1:	mov    DWORD PTR [rip+0x1f829],eax        # 228e0 <saveflag>
    30b7:	movsd  QWORD PTR [rip+0x1f6f1],xmm0        # 227b0 <u0>
    30bf:	call   2460 <__strcpy_chk@plt>
    30c4:	mov    edx,0x100
    30c9:	lea    rsi,[rip+0x1f9cc]        # 22a9c <par_buf+0x17c>
    30d0:	lea    rdi,[rip+0x1f5c9]        # 226a0 <savefile>
    30d7:	call   2460 <__strcpy_chk@plt>
    30dc:	cmp    ebp,0xa
    30df:	je     31a0 <readin+0x1f0>
    30e5:	lea    rsi,[rip+0x1f314]        # 22400 <startfile>
    30ec:	mov    edi,ebp
    30ee:	call   5fc0 <reload_lattice>
    30f3:	mov    edi,0x1
    30f8:	mov    DWORD PTR [rip+0x1f6a6],0x0        # 227a8 <valid_longlinks>
    3102:	mov    QWORD PTR [rip+0x1f2b7],rax        # 223c0 <startlat_p>
    3109:	mov    DWORD PTR [rip+0x1f725],0x0        # 22838 <valid_fatlinks>
    3113:	mov    DWORD PTR [rip+0x1f2c7],0x0        # 223e4 <phases_in>
    311d:	call   13de0 <rephase>
    3122:	xor    eax,eax
    3124:	call   ee60 <make_loop_table>
    3129:	xor    eax,eax
    312b:	call   10a10 <make_path_table>
    3130:	mov    rax,QWORD PTR [rsp+0x8]
    3135:	xor    rax,QWORD PTR fs:0x28
    313e:	jne    3323 <readin+0x373>
    3144:	add    rsp,0x18
    3148:	xor    eax,eax
    314a:	pop    rbp
    314b:	pop    r12
    314d:	ret    
    314e:	xchg   ax,ax
    3150:	mov    ebp,edi
    3152:	lea    rdi,[rip+0x18060]        # 1b1b9 <_IO_stdin_used+0x11b9>
    3159:	call   22f0 <puts@plt>
    315e:	lea    rdx,[rip+0x1f7d7]        # 2293c <par_buf+0x1c>
    3165:	lea    rsi,[rip+0x171e1]        # 1a34d <_IO_stdin_used+0x34d>
    316c:	mov    edi,ebp
    316e:	call   6540 <get_i>
    3173:	test   eax,eax
    3175:	je     31b8 <readin+0x208>
    3177:	test   eax,eax
    3179:	setg   al
    317c:	movzx  eax,al
    317f:	mov    DWORD PTR [rip+0x1f79b],eax        # 22920 <par_buf>
    3185:	jmp    2fd9 <readin+0x29>
    318a:	nop    WORD PTR [rax+rax*1+0x0]
    3190:	xor    edi,edi
    3192:	call   19bf0 <normal_exit>
    3197:	jmp    2ff8 <readin+0x48>
    319c:	nop    DWORD PTR [rax+0x0]
    31a0:	xor    edi,edi
    31a2:	call   13de0 <rephase>
    31a7:	mov    ebp,DWORD PTR [rip+0x1f5f3]        # 227a0 <startflag>
    31ad:	jmp    30e5 <readin+0x135>
    31b2:	nop    WORD PTR [rax+rax*1+0x0]
    31b8:	lea    rdx,[rip+0x1f781]        # 22940 <par_buf+0x20>
    31bf:	lea    rsi,[rip+0x1718d]        # 1a353 <_IO_stdin_used+0x353>
    31c6:	mov    edi,ebp
    31c8:	call   6540 <get_i>
    31cd:	test   eax,eax
    31cf:	jne    3177 <readin+0x1c7>
    31d1:	lea    rdx,[rip+0x1f770]        # 22948 <par_buf+0x28>
    31d8:	lea    rsi,[rip+0x1717c]        # 1a35b <_IO_stdin_used+0x35b>
    31df:	mov    edi,ebp
    31e1:	call   6540 <get_i>
    31e6:	test   eax,eax
    31e8:	jne    3177 <readin+0x1c7>
    31ea:	lea    rdx,[rip+0x1f75f]        # 22950 <par_buf+0x30>
    31f1:	lea    rsi,[rip+0x17175]        # 1a36d <_IO_stdin_used+0x36d>
    31f8:	mov    edi,ebp
    31fa:	call   6330 <get_f>
    31ff:	test   eax,eax
    3201:	jne    3177 <readin+0x1c7>
    3207:	lea    rdx,[rip+0x1f74a]        # 22958 <par_buf+0x38>
    320e:	lea    rsi,[rip+0x16f9a]        # 1a1af <_IO_stdin_used+0x1af>
    3215:	mov    edi,ebp
    3217:	call   6330 <get_f>
    321c:	test   eax,eax
    321e:	jne    3177 <readin+0x1c7>
    3224:	lea    rdx,[rip+0x1f735]        # 22960 <par_buf+0x40>
    322b:	lea    rsi,[rip+0x16e6b]        # 1a09d <_IO_stdin_used+0x9d>
    3232:	mov    edi,ebp
    3234:	call   6330 <get_f>
    3239:	test   eax,eax
    323b:	jne    3177 <readin+0x1c7>
    3241:	lea    rdx,[rip+0x1f738]        # 22980 <par_buf+0x60>
    3248:	lea    rsi,[rip+0x17123]        # 1a372 <_IO_stdin_used+0x372>
    324f:	mov    edi,ebp
    3251:	call   6330 <get_f>
    3256:	test   eax,eax
    3258:	jne    3177 <readin+0x1c7>
    325e:	lea    rdx,[rip+0x1f6df]        # 22944 <par_buf+0x24>
    3265:	lea    rsi,[rip+0x1711f]        # 1a38b <_IO_stdin_used+0x38b>
    326c:	mov    edi,ebp
    326e:	call   6540 <get_i>
    3273:	test   eax,eax
    3275:	jne    3177 <readin+0x1c7>
    327b:	lea    rdx,[rip+0x1f6e6]        # 22968 <par_buf+0x48>
    3282:	lea    rsi,[rip+0x17117]        # 1a3a0 <_IO_stdin_used+0x3a0>
    3289:	mov    edi,ebp
    328b:	call   6540 <get_i>
    3290:	test   eax,eax
    3292:	jne    3177 <readin+0x1c7>
    3298:	mov    r12,rsp
    329b:	lea    rsi,[rip+0x17110]        # 1a3b2 <_IO_stdin_used+0x3b2>
    32a2:	mov    edi,ebp
    32a4:	mov    rdx,r12
    32a7:	call   6330 <get_f>
    32ac:	test   eax,eax
    32ae:	jne    3177 <readin+0x1c7>
    32b4:	movsd  xmm0,QWORD PTR [rsp]
    32b9:	mov    rdx,r12
    32bc:	lea    rsi,[rip+0x170fe]        # 1a3c1 <_IO_stdin_used+0x3c1>
    32c3:	mov    edi,ebp
    32c5:	mulsd  xmm0,xmm0
    32c9:	movsd  QWORD PTR [rip+0x1f69f],xmm0        # 22970 <par_buf+0x50>
    32d1:	call   6330 <get_f>
    32d6:	test   eax,eax
    32d8:	jne    3177 <readin+0x1c7>
    32de:	movsd  xmm0,QWORD PTR [rsp]
    32e3:	lea    rdx,[rip+0x1f6b2]        # 2299c <par_buf+0x7c>
    32ea:	mov    edi,ebp
    32ec:	lea    rsi,[rdx-0x8]
    32f0:	mulsd  xmm0,xmm0
    32f4:	movsd  QWORD PTR [rip+0x1f67c],xmm0        # 22978 <par_buf+0x58>
    32fc:	call   5950 <ask_starting_lattice>
    3301:	test   eax,eax
    3303:	jne    3177 <readin+0x1c7>
    3309:	lea    rdx,[rip+0x1f78c]        # 22a9c <par_buf+0x17c>
    3310:	mov    edi,ebp
    3312:	lea    rsi,[rdx-0x104]
    3319:	call   5bb0 <ask_ending_lattice>
    331e:	jmp    3177 <readin+0x1c7>
    3323:	call   2350 <__stack_chk_fail@plt>
    3328:	nop    DWORD PTR [rax+rax*1+0x0]

0000000000003330 <make_3n_gathers>:
    3330:	endbr64 
    3334:	push   rbp
    3335:	push   rbx
    3336:	lea    rbx,[rip+0xfffffffffffff8e3]        # 2c20 <third_neighbor>
    333d:	sub    rsp,0x18
    3341:	mov    rax,QWORD PTR fs:0x28
    334a:	mov    QWORD PTR [rsp+0x8],rax
    334f:	xor    eax,eax
    3351:	mov    DWORD PTR [rsp+0x4],0x0
    3359:	lea    rbp,[rsp+0x4]
    335e:	xchg   ax,ax
    3360:	mov    r8d,0x1
    3366:	xor    ecx,ecx
    3368:	mov    edx,0x1
    336d:	mov    rsi,rbp
    3370:	mov    rdi,rbx
    3373:	call   195c0 <make_gather>
    3378:	mov    eax,DWORD PTR [rsp+0x4]
    337c:	add    eax,0x1
    337f:	mov    DWORD PTR [rsp+0x4],eax
    3383:	cmp    eax,0x3
    3386:	jle    3360 <make_3n_gathers+0x30>
    3388:	mov    edi,0x8
    338d:	call   18de0 <sort_eight_neighborlists>
    3392:	mov    rax,QWORD PTR [rsp+0x8]
    3397:	xor    rax,QWORD PTR fs:0x28
    33a0:	jne    33a9 <make_3n_gathers+0x79>
    33a2:	add    rsp,0x18
    33a6:	pop    rbx
    33a7:	pop    rbp
    33a8:	ret    
    33a9:	call   2350 <__stack_chk_fail@plt>
    33ae:	xchg   ax,ax

00000000000033b0 <setup>:
    33b0:	endbr64 
    33b4:	push   r12
    33b6:	xor    eax,eax
    33b8:	call   2d70 <initial_set>
    33bd:	mov    r12d,eax
    33c0:	xor    eax,eax
    33c2:	call   193b0 <mynode>
    33c7:	mov    esi,DWORD PTR [rip+0x1f143]        # 22510 <iseed>
    33cd:	add    eax,DWORD PTR [rip+0x1f01d]        # 223f0 <volume>
    33d3:	lea    rdi,[rip+0x1f406]        # 227e0 <node_prn>
    33da:	mov    edx,eax
    33dc:	call   e170 <initialize_prn>
    33e1:	call   38a0 <setup_layout>
    33e6:	xor    eax,eax
    33e8:	call   d2c0 <make_lattice>
    33ed:	mov    esi,DWORD PTR [rip+0x1f4f1]        # 228e4 <this_node>
    33f3:	test   esi,esi
    33f5:	je     3460 <setup+0xb0>
    33f7:	mov    rdi,QWORD PTR [rip+0x1eee2]        # 222e0 <stdout@@GLIBC_2.2.5>
    33fe:	call   2420 <fflush@plt>
    3403:	xor    eax,eax
    3405:	call   19b50 <make_nn_gathers>
    340a:	mov    ecx,DWORD PTR [rip+0x1f4d4]        # 228e4 <this_node>
    3410:	test   ecx,ecx
    3412:	je     3490 <setup+0xe0>
    3414:	mov    rdi,QWORD PTR [rip+0x1eec5]        # 222e0 <stdout@@GLIBC_2.2.5>
    341b:	call   2420 <fflush@plt>
    3420:	xor    eax,eax
    3422:	call   3330 <make_3n_gathers>
    3427:	mov    edx,DWORD PTR [rip+0x1f4b7]        # 228e4 <this_node>
    342d:	test   edx,edx
    342f:	je     3480 <setup+0xd0>
    3431:	mov    rdi,QWORD PTR [rip+0x1eea8]        # 222e0 <stdout@@GLIBC_2.2.5>
    3438:	call   2420 <fflush@plt>
    343d:	xor    eax,eax
    343f:	call   13cf0 <phaseset>
    3444:	mov    eax,DWORD PTR [rip+0x1f49a]        # 228e4 <this_node>
    344a:	test   eax,eax
    344c:	je     3470 <setup+0xc0>
    344e:	mov    rdi,QWORD PTR [rip+0x1ee8b]        # 222e0 <stdout@@GLIBC_2.2.5>
    3455:	call   2420 <fflush@plt>
    345a:	mov    eax,r12d
    345d:	pop    r12
    345f:	ret    
    3460:	lea    rdi,[rip+0x16f6f]        # 1a3d6 <_IO_stdin_used+0x3d6>
    3467:	call   22f0 <puts@plt>
    346c:	jmp    33f7 <setup+0x47>
    346e:	xchg   ax,ax
    3470:	lea    rdi,[rip+0x16f8d]        # 1a404 <_IO_stdin_used+0x404>
    3477:	call   22f0 <puts@plt>
    347c:	jmp    344e <setup+0x9e>
    347e:	xchg   ax,ax
    3480:	lea    rdi,[rip+0x16f6c]        # 1a3f3 <_IO_stdin_used+0x3f3>
    3487:	call   22f0 <puts@plt>
    348c:	jmp    3431 <setup+0x81>
    348e:	xchg   ax,ax
    3490:	lea    rdi,[rip+0x16f4c]        # 1a3e3 <_IO_stdin_used+0x3e3>
    3497:	call   22f0 <puts@plt>
    349c:	jmp    3414 <setup+0x64>
    34a1:	nop    WORD PTR cs:[rax+rax*1+0x0]
    34ab:	nop    DWORD PTR [rax+rax*1+0x0]

00000000000034b0 <update>:
    34b0:	endbr64 
    34b4:	push   r12
    34b6:	push   rbp
    34b7:	xor    ebp,ebp
    34b9:	push   rbx
    34ba:	mov    ebx,0x1
    34bf:	sub    rsp,0x10
    34c3:	mov    rax,QWORD PTR fs:0x28
    34cc:	mov    QWORD PTR [rsp+0x8],rax
    34d1:	xor    eax,eax
    34d3:	mov    r12,rsp
    34d6:	call   e0f0 <ranmom>
    34db:	mov    eax,DWORD PTR [rip+0x1ef07]        # 223e8 <steps>
    34e1:	test   eax,eax
    34e3:	jle    35f8 <update+0x148>
    34e9:	nop    DWORD PTR [rax+0x0]
    34f0:	pxor   xmm0,xmm0
    34f4:	movsd  xmm2,QWORD PTR [rip+0x16f74]        # 1a470 <_IO_stdin_used+0x470>
    34fc:	add    ebx,0x1
    34ff:	cvtsi2sd xmm0,DWORD PTR [rip+0x1f3f5]        # 228fc <nflavors>
    3507:	mulsd  xmm0,QWORD PTR [rip+0x16f59]        # 1a468 <_IO_stdin_used+0x468>
    350f:	subsd  xmm2,xmm0
    3513:	movsd  xmm0,QWORD PTR [rip+0x1f3d5]        # 228f0 <epsilon>
    351b:	mulsd  xmm0,xmm2
    351f:	call   3670 <update_u>
    3524:	mov    esi,0x2
    3529:	mov    edi,0x410
    352e:	movsd  xmm0,QWORD PTR [rip+0x1f3ca]        # 22900 <mass>
    3536:	call   fee0 <grsource_imp>
    353b:	pxor   xmm0,xmm0
    353f:	cvtsi2sd xmm0,DWORD PTR [rip+0x1f3b5]        # 228fc <nflavors>
    3547:	mulsd  xmm0,QWORD PTR [rip+0x1f3a1]        # 228f0 <epsilon>
    354f:	mulsd  xmm0,QWORD PTR [rip+0x16f11]        # 1a468 <_IO_stdin_used+0x468>
    3557:	call   3670 <update_u>
    355c:	movsd  xmm1,QWORD PTR [rip+0x1f26c]        # 227d0 <rsqmin>
    3564:	mov    edx,DWORD PTR [rip+0x1f11e]        # 22688 <niter>
    356a:	mov    ecx,0x2
    356f:	movsd  xmm0,QWORD PTR [rip+0x1f389]        # 22900 <mass>
    3577:	mov    r8,r12
    357a:	mov    esi,0x4a0
    357f:	mov    edi,0x410
    3584:	call   17c10 <ks_congrad>
    3589:	movsd  xmm0,QWORD PTR [rip+0x1f35f]        # 228f0 <epsilon>
    3591:	add    ebp,eax
    3593:	call   3610 <update_h>
    3598:	movsd  xmm0,QWORD PTR [rip+0x16ed0]        # 1a470 <_IO_stdin_used+0x470>
    35a0:	mulsd  xmm0,QWORD PTR [rip+0x1f348]        # 228f0 <epsilon>
    35a8:	call   3670 <update_u>
    35ad:	xor    edi,edi
    35af:	call   13de0 <rephase>
    35b4:	call   eb90 <reunitarize>
    35b9:	mov    edi,0x1
    35be:	call   13de0 <rephase>
    35c3:	mov    ecx,DWORD PTR [rip+0x1ee1f]        # 223e8 <steps>
    35c9:	cmp    ecx,ebx
    35cb:	jge    34f0 <update+0x40>
    35d1:	test   ecx,ecx
    35d3:	jle    35f8 <update+0x148>
    35d5:	mov    eax,ebp
    35d7:	cdq    
    35d8:	idiv   ecx
    35da:	mov    rdx,QWORD PTR [rsp+0x8]
    35df:	xor    rdx,QWORD PTR fs:0x28
    35e8:	jne    35ff <update+0x14f>
    35ea:	add    rsp,0x10
    35ee:	pop    rbx
    35ef:	pop    rbp
    35f0:	pop    r12
    35f2:	ret    
    35f3:	nop    DWORD PTR [rax+rax*1+0x0]
    35f8:	mov    eax,0xffffff9d
    35fd:	jmp    35da <update+0x12a>
    35ff:	call   2350 <__stack_chk_fail@plt>
    3604:	nop    WORD PTR cs:[rax+rax*1+0x0]
    360e:	xchg   ax,ax

0000000000003610 <update_h>:
    3610:	endbr64 
    3614:	sub    rsp,0x18
    3618:	xor    edi,edi
    361a:	movsd  QWORD PTR [rsp+0x8],xmm0
    3620:	call   13de0 <rephase>
    3625:	movsd  xmm0,QWORD PTR [rsp+0x8]
    362b:	mov    edi,0x2b0
    3630:	call   f630 <imp_gauge_force>
    3635:	mov    edi,0x1
    363a:	call   13de0 <rephase>
    363f:	mov    esi,0x4a0
    3644:	mov    edi,0x4a0
    3649:	mov    edx,0x1
    364e:	call   164d0 <dslash_fn>
    3653:	mov    edi,DWORD PTR [rip+0x1f2a3]        # 228fc <nflavors>
    3659:	movsd  xmm0,QWORD PTR [rsp+0x8]
    365f:	mov    esi,0x4a0
    3664:	add    rsp,0x18
    3668:	jmp    12a90 <eo_fermion_force>
    366d:	nop    DWORD PTR [rax]

0000000000003670 <update_u>:
    3670:	endbr64 
    3674:	push   r15
    3676:	movapd xmm1,xmm0
    367a:	movapd xmm3,xmm0
    367e:	movapd xmm5,xmm0
    3682:	push   r14
    3684:	push   r13
    3686:	push   r12
    3688:	push   rbp
    3689:	push   rbx
    368a:	sub    rsp,0x208
    3691:	movsd  xmm2,QWORD PTR [rip+0x16dd7]        # 1a470 <_IO_stdin_used+0x470>
    3699:	movsd  xmm4,QWORD PTR [rip+0x16ddf]        # 1a480 <_IO_stdin_used+0x480>
    36a1:	divsd  xmm3,QWORD PTR [rip+0x16dcf]        # 1a478 <_IO_stdin_used+0x478>
    36a9:	movsd  QWORD PTR [rsp+0x30],xmm0
    36af:	divsd  xmm5,QWORD PTR [rip+0x16dd1]        # 1a488 <_IO_stdin_used+0x488>
    36b7:	divsd  xmm1,QWORD PTR [rip+0x16dd1]        # 1a490 <_IO_stdin_used+0x490>
    36bf:	mov    r14,QWORD PTR [rip+0x1f102]        # 227c8 <lattice>
    36c6:	mov    rax,QWORD PTR fs:0x28
    36cf:	mov    QWORD PTR [rsp+0x1f8],rax
    36d7:	xor    eax,eax
    36d9:	mulsd  xmm2,xmm0
    36dd:	mov    eax,DWORD PTR [rip+0x1ee1d]        # 22500 <sites_on_node>
    36e3:	movsd  QWORD PTR [rsp+0x10],xmm3
    36e9:	mulsd  xmm4,xmm0
    36ed:	movsd  QWORD PTR [rsp+0x20],xmm5
    36f3:	movsd  QWORD PTR [rsp+0x28],xmm1
    36f9:	movsd  QWORD PTR [rsp+0x8],xmm2
    36ff:	movsd  QWORD PTR [rsp+0x18],xmm4
    3705:	test   eax,eax
    3707:	jle    3858 <update_u+0x1e8>
    370d:	mov    DWORD PTR [rsp+0x3c],0x0
    3715:	add    r14,0x3f0
    371c:	lea    r13,[rsp+0x160]
    3724:	lea    rbp,[rsp+0x40]
    3729:	lea    rbx,[rsp+0xd0]
    3731:	nop    DWORD PTR [rax+0x0]
    3738:	lea    r15,[r14-0x140]
    373f:	lea    r12,[r14-0x380]
    3746:	mov    rdi,r15
    3749:	mov    rsi,r13
    374c:	add    r15,0x50
    3750:	call   14d10 <uncompress_anti_hermitian>
    3755:	mov    rsi,r12
    3758:	mov    rdx,rbp
    375b:	mov    rdi,r13
    375e:	call   14440 <mult_su3_nn>
    3763:	mov    rdi,r12
    3766:	mov    rdx,rbx
    3769:	mov    rsi,rbp
    376c:	movsd  xmm0,QWORD PTR [rsp+0x28]
    3772:	call   147d0 <scalar_mult_add_su3_matrix>
    3777:	mov    rdx,rbp
    377a:	mov    rsi,rbx
    377d:	mov    rdi,r13
    3780:	call   14440 <mult_su3_nn>
    3785:	mov    rdi,r12
    3788:	mov    rdx,rbx
    378b:	mov    rsi,rbp
    378e:	movsd  xmm0,QWORD PTR [rsp+0x20]
    3794:	call   147d0 <scalar_mult_add_su3_matrix>
    3799:	mov    rdx,rbp
    379c:	mov    rsi,rbx
    379f:	mov    rdi,r13
    37a2:	call   14440 <mult_su3_nn>
    37a7:	mov    rdi,r12
    37aa:	mov    rdx,rbx
    37ad:	mov    rsi,rbp
    37b0:	movsd  xmm0,QWORD PTR [rsp+0x18]
    37b6:	call   147d0 <scalar_mult_add_su3_matrix>
    37bb:	mov    rdx,rbp
    37be:	mov    rsi,rbx
    37c1:	mov    rdi,r13
    37c4:	call   14440 <mult_su3_nn>
    37c9:	mov    rdi,r12
    37cc:	mov    rdx,rbx
    37cf:	mov    rsi,rbp
    37d2:	movsd  xmm0,QWORD PTR [rsp+0x10]
    37d8:	call   147d0 <scalar_mult_add_su3_matrix>
    37dd:	mov    rdx,rbp
    37e0:	mov    rsi,rbx
    37e3:	mov    rdi,r13
    37e6:	call   14440 <mult_su3_nn>
    37eb:	mov    rdi,r12
    37ee:	mov    rdx,rbx
    37f1:	mov    rsi,rbp
    37f4:	movsd  xmm0,QWORD PTR [rsp+0x8]
    37fa:	call   147d0 <scalar_mult_add_su3_matrix>
    37ff:	mov    rdx,rbp
    3802:	mov    rsi,rbx
    3805:	mov    rdi,r13
    3808:	call   14440 <mult_su3_nn>
    380d:	mov    rdi,r12
    3810:	mov    rdx,rbx
    3813:	mov    rsi,rbp
    3816:	movsd  xmm0,QWORD PTR [rsp+0x30]
    381c:	call   147d0 <scalar_mult_add_su3_matrix>
    3821:	mov    rsi,r12
    3824:	mov    rdi,rbx
    3827:	add    r12,0x90
    382e:	call   14bf0 <su3mat_copy>
    3833:	cmp    r15,r14
    3836:	jne    3746 <update_u+0xd6>
    383c:	add    DWORD PTR [rsp+0x3c],0x1
    3841:	add    r14,0x800
    3848:	mov    eax,DWORD PTR [rsp+0x3c]
    384c:	cmp    DWORD PTR [rip+0x1ecae],eax        # 22500 <sites_on_node>
    3852:	jg     3738 <update_u+0xc8>
    3858:	mov    DWORD PTR [rip+0x1ef46],0x0        # 227a8 <valid_longlinks>
    3862:	mov    DWORD PTR [rip+0x1efcc],0x0        # 22838 <valid_fatlinks>
    386c:	mov    rax,QWORD PTR [rsp+0x1f8]
    3874:	xor    rax,QWORD PTR fs:0x28
    387d:	jne    3891 <update_u+0x221>
    387f:	add    rsp,0x208
    3886:	pop    rbx
    3887:	pop    rbp
    3888:	pop    r12
    388a:	pop    r13
    388c:	pop    r14
    388e:	pop    r15
    3890:	ret    
    3891:	call   2350 <__stack_chk_fail@plt>
    3896:	nop    WORD PTR cs:[rax+rax*1+0x0]

00000000000038a0 <setup_layout>:
    38a0:	endbr64 
    38a4:	push   r13
    38a6:	xor    eax,eax
    38a8:	push   r12
    38aa:	push   rbp
    38ab:	push   rbx
    38ac:	sub    rsp,0x8
    38b0:	call   193b0 <mynode>
    38b5:	test   eax,eax
    38b7:	je     3a59 <setup_layout+0x1b9>
    38bd:	mov    eax,DWORD PTR [rip+0x1eb15]        # 223d8 <nx>
    38c3:	lea    r12,[rip+0x1f2f6]        # 22bc0 <squaresize>
    38ca:	mov    ebx,0x1
    38cf:	lea    rbp,[rip+0x1f2da]        # 22bb0 <nsquares>
    38d6:	lea    r13,[r12+0x10]
    38db:	mov    DWORD PTR [rip+0x1f2df],eax        # 22bc0 <squaresize>
    38e1:	mov    eax,DWORD PTR [rip+0x1ef55]        # 2283c <ny>
    38e7:	mov    DWORD PTR [rip+0x1f2d7],eax        # 22bc4 <squaresize+0x4>
    38ed:	mov    eax,DWORD PTR [rip+0x1eae1]        # 223d4 <nz>
    38f3:	mov    DWORD PTR [rip+0x1f2cf],eax        # 22bc8 <squaresize+0x8>
    38f9:	mov    eax,DWORD PTR [rip+0x1ead1]        # 223d0 <nt>
    38ff:	mov    DWORD PTR [rip+0x1f2c7],eax        # 22bcc <squaresize+0xc>
    3905:	movabs rax,0x100000001
    390f:	mov    QWORD PTR [rip+0x1f29a],rax        # 22bb0 <nsquares>
    3916:	mov    QWORD PTR [rip+0x1f29b],rax        # 22bb8 <nsquares+0x8>
    391d:	xor    eax,eax
    391f:	call   193c0 <numnodes>
    3924:	cmp    eax,ebx
    3926:	jle    39d1 <setup_layout+0x131>
    392c:	nop    DWORD PTR [rax+0x0]
    3930:	lea    rax,[rip+0x1f289]        # 22bc0 <squaresize>
    3937:	mov    edx,0x1
    393c:	mov    ecx,DWORD PTR [rax]
    393e:	cmp    ecx,edx
    3940:	jle    3948 <setup_layout+0xa8>
    3942:	test   cl,0x1
    3945:	cmove  edx,ecx
    3948:	add    rax,0x4
    394c:	cmp    r13,rax
    394f:	jne    393c <setup_layout+0x9c>
    3951:	xor    eax,eax
    3953:	movsxd rcx,eax
    3956:	cmp    DWORD PTR [r12+rax*4],edx
    395a:	je     3a30 <setup_layout+0x190>
    3960:	add    rax,0x1
    3964:	cmp    rax,0x4
    3968:	jne    3953 <setup_layout+0xb3>
    396a:	xor    eax,eax
    396c:	movsxd rcx,eax
    396f:	cmp    DWORD PTR [r12+rax*4],edx
    3973:	je     3a8c <setup_layout+0x1ec>
    3979:	add    rax,0x1
    397d:	cmp    rax,0x4
    3981:	jne    396c <setup_layout+0xcc>
    3983:	xor    eax,eax
    3985:	call   193b0 <mynode>
    398a:	test   eax,eax
    398c:	je     3a48 <setup_layout+0x1a8>
    3992:	mov    edi,0x1
    3997:	call   19570 <terminate>
    399c:	mov    edx,DWORD PTR [rip+0x1f22e]        # 22bd0 <sumvecp>
    39a2:	mov    esi,DWORD PTR [rip+0x1f218]        # 22bc0 <squaresize>
    39a8:	mov    ecx,0x4
    39ad:	mov    eax,edx
    39af:	add    esi,esi
    39b1:	add    ebx,ebx
    39b3:	shr    eax,0x1f
    39b6:	mov    DWORD PTR [rbp+rcx*4+0x0],esi
    39ba:	add    edx,eax
    39bc:	xor    eax,eax
    39be:	sar    edx,1
    39c0:	mov    DWORD PTR [r12+rcx*4],edx
    39c4:	call   193c0 <numnodes>
    39c9:	cmp    eax,ebx
    39cb:	jg     3930 <setup_layout+0x90>
    39d1:	mov    eax,DWORD PTR [rip+0x1f1e9]        # 22bc0 <squaresize>
    39d7:	imul   eax,DWORD PTR [rip+0x1f1e6]        # 22bc4 <squaresize+0x4>
    39de:	imul   eax,DWORD PTR [rip+0x1f1e3]        # 22bc8 <squaresize+0x8>
    39e5:	imul   eax,DWORD PTR [rip+0x1f1e0]        # 22bcc <squaresize+0xc>
    39ec:	mov    DWORD PTR [rip+0x1eb0e],eax        # 22500 <sites_on_node>
    39f2:	xor    eax,eax
    39f4:	call   193b0 <mynode>
    39f9:	mov    edx,DWORD PTR [rip+0x1eb01]        # 22500 <sites_on_node>
    39ff:	test   eax,eax
    3a01:	jne    3a0c <setup_layout+0x16c>
    3a03:	test   dl,0x1
    3a06:	jne    3a95 <setup_layout+0x1f5>
    3a0c:	mov    eax,edx
    3a0e:	shr    eax,0x1f
    3a11:	add    eax,edx
    3a13:	sar    eax,1
    3a15:	mov    DWORD PTR [rip+0x1ed89],eax        # 227a4 <odd_sites_on_node>
    3a1b:	mov    DWORD PTR [rip+0x1ec63],eax        # 22684 <even_sites_on_node>
    3a21:	add    rsp,0x8
    3a25:	pop    rbx
    3a26:	pop    rbp
    3a27:	pop    r12
    3a29:	pop    r13
    3a2b:	ret    
    3a2c:	nop    DWORD PTR [rax+0x0]
    3a30:	mov    esi,DWORD PTR [rbp+rax*4+0x0]
    3a34:	cmp    esi,0x1
    3a37:	jle    3960 <setup_layout+0xc0>
    3a3d:	jmp    39ad <setup_layout+0x10d>
    3a42:	nop    WORD PTR [rax+rax*1+0x0]
    3a48:	lea    rdi,[rip+0x16a69]        # 1a4b8 <_IO_stdin_used+0x4b8>
    3a4f:	call   22f0 <puts@plt>
    3a54:	jmp    3992 <setup_layout+0xf2>
    3a59:	lea    rsi,[rip+0x16a38]        # 1a498 <_IO_stdin_used+0x498>
    3a60:	mov    edi,0x1
    3a65:	call   2470 <__printf_chk@plt>
    3a6a:	lea    rsi,[rip+0x16aa9]        # 1a51a <_IO_stdin_used+0x51a>
    3a71:	mov    edi,0x1
    3a76:	xor    eax,eax
    3a78:	call   2470 <__printf_chk@plt>
    3a7d:	mov    edi,0xa
    3a82:	call   22b0 <putchar@plt>
    3a87:	jmp    38bd <setup_layout+0x1d>
    3a8c:	mov    esi,DWORD PTR [rbp+rcx*4+0x0]
    3a90:	jmp    39ad <setup_layout+0x10d>
    3a95:	lea    rdi,[rip+0x16a5c]        # 1a4f8 <_IO_stdin_used+0x4f8>
    3a9c:	call   22f0 <puts@plt>
    3aa1:	xor    edi,edi
    3aa3:	call   19570 <terminate>
    3aa8:	mov    edx,DWORD PTR [rip+0x1ea52]        # 22500 <sites_on_node>
    3aae:	jmp    3a0c <setup_layout+0x16c>
    3ab3:	data16 nop WORD PTR cs:[rax+rax*1+0x0]
    3abe:	xchg   ax,ax

0000000000003ac0 <node_number>:
    3ac0:	endbr64 
    3ac4:	mov    eax,ecx
    3ac6:	lea    r8,[rip+0x1f0f3]        # 22bc0 <squaresize>
    3acd:	mov    r9d,edx
    3ad0:	mov    ecx,DWORD PTR [rip+0x1f0e2]        # 22bb8 <nsquares+0x8>
    3ad6:	cdq    
    3ad7:	idiv   DWORD PTR [r8+0xc]
    3adb:	imul   ecx,eax
    3ade:	mov    eax,r9d
    3ae1:	cdq    
    3ae2:	idiv   DWORD PTR [r8+0x8]
    3ae6:	add    ecx,eax
    3ae8:	imul   ecx,DWORD PTR [rip+0x1f0c5]        # 22bb4 <nsquares+0x4>
    3aef:	mov    eax,esi
    3af1:	cdq    
    3af2:	idiv   DWORD PTR [r8+0x4]
    3af6:	add    ecx,eax
    3af8:	imul   ecx,DWORD PTR [rip+0x1f0b1]        # 22bb0 <nsquares>
    3aff:	mov    eax,edi
    3b01:	cdq    
    3b02:	idiv   DWORD PTR [r8]
    3b05:	add    eax,ecx
    3b07:	ret    
    3b08:	nop    DWORD PTR [rax+rax*1+0x0]

0000000000003b10 <node_index>:
    3b10:	endbr64 
    3b14:	mov    eax,ecx
    3b16:	mov    r9d,edx
    3b19:	push   rbx
    3b1a:	mov    ebx,DWORD PTR [rip+0x1f0a8]        # 22bc8 <squaresize+0x8>
    3b20:	cdq    
    3b21:	mov    r11d,DWORD PTR [rip+0x1f09c]        # 22bc4 <squaresize+0x4>
    3b28:	mov    r10d,DWORD PTR [rip+0x1f091]        # 22bc0 <squaresize>
    3b2f:	idiv   DWORD PTR [rip+0x1f097]        # 22bcc <squaresize+0xc>
    3b35:	mov    eax,r9d
    3b38:	mov    r8d,edx
    3b3b:	cdq    
    3b3c:	idiv   ebx
    3b3e:	imul   r8d,ebx
    3b42:	mov    eax,esi
    3b44:	add    r8d,edx
    3b47:	cdq    
    3b48:	idiv   r11d
    3b4b:	imul   r8d,r11d
    3b4f:	mov    eax,edi
    3b51:	add    edx,r8d
    3b54:	imul   edx,r10d
    3b58:	mov    r8d,edx
    3b5b:	cdq    
    3b5c:	idiv   r10d
    3b5f:	lea    eax,[rdi+rsi*1]
    3b62:	add    eax,r9d
    3b65:	add    eax,ecx
    3b67:	add    edx,r8d
    3b6a:	test   al,0x1
    3b6c:	je     3b74 <node_index+0x64>
    3b6e:	add    edx,DWORD PTR [rip+0x1e98c]        # 22500 <sites_on_node>
    3b74:	mov    eax,edx
    3b76:	pop    rbx
    3b77:	shr    eax,0x1f
    3b7a:	add    eax,edx
    3b7c:	sar    eax,1
    3b7e:	ret    
    3b7f:	nop

0000000000003b80 <num_sites>:
    3b80:	endbr64 
    3b84:	mov    eax,DWORD PTR [rip+0x1e976]        # 22500 <sites_on_node>
    3b8a:	ret    
    3b8b:	nop    DWORD PTR [rax+rax*1+0x0]

0000000000003b90 <check_su3>:
    3b90:	endbr64 
    3b94:	push   rbp
    3b95:	pxor   xmm3,xmm3
    3b99:	lea    rbp,[rdi+0x90]
    3ba0:	push   rbx
    3ba1:	movapd xmm2,xmm3
    3ba5:	mov    rbx,rdi
    3ba8:	sub    rsp,0x28
    3bac:	movsd  xmm6,QWORD PTR [rip+0x166ec]        # 1a2a0 <_IO_stdin_used+0x2a0>
    3bb4:	movq   xmm5,QWORD PTR [rip+0x16a14]        # 1a5d0 <_IO_stdin_used+0x5d0>
    3bbc:	movsd  xmm1,QWORD PTR [rbx]
    3bc0:	movsd  xmm9,QWORD PTR [rbx+0x8]
    3bc6:	movsd  xmm0,QWORD PTR [rbx+0x10]
    3bcb:	movsd  xmm8,QWORD PTR [rbx+0x18]
    3bd1:	mulsd  xmm1,xmm1
    3bd5:	movsd  xmm7,QWORD PTR [rbx+0x20]
    3bda:	movsd  xmm4,QWORD PTR [rbx+0x28]
    3bdf:	mulsd  xmm9,xmm9
    3be4:	mulsd  xmm0,xmm0
    3be8:	mulsd  xmm7,xmm7
    3bec:	mulsd  xmm4,xmm4
    3bf0:	addsd  xmm1,xmm9
    3bf5:	addsd  xmm1,xmm0
    3bf9:	movapd xmm0,xmm8
    3bfe:	mulsd  xmm0,xmm8
    3c03:	addsd  xmm0,xmm1
    3c07:	addsd  xmm0,xmm7
    3c0b:	addsd  xmm0,xmm4
    3c0f:	ucomisd xmm3,xmm0
    3c13:	movapd xmm1,xmm0
    3c17:	sqrtsd xmm1,xmm1
    3c1b:	ja     3ed3 <check_su3+0x343>
    3c21:	subsd  xmm1,xmm6
    3c25:	add    rbx,0x30
    3c29:	andpd  xmm1,xmm5
    3c2d:	maxsd  xmm1,xmm2
    3c31:	movapd xmm2,xmm1
    3c35:	cmp    rbp,rbx
    3c38:	jne    3bbc <check_su3+0x2c>
    3c3a:	movsd  xmm1,QWORD PTR [rdi]
    3c3e:	movsd  xmm14,QWORD PTR [rdi+0x8]
    3c44:	movsd  xmm15,QWORD PTR [rdi+0x30]
    3c4a:	movsd  xmm6,QWORD PTR [rdi+0x38]
    3c4f:	movapd xmm4,xmm1
    3c53:	movapd xmm5,xmm14
    3c58:	movsd  xmm0,QWORD PTR [rdi+0x10]
    3c5d:	movsd  xmm9,QWORD PTR [rdi+0x40]
    3c63:	mulsd  xmm5,xmm6
    3c67:	movsd  xmm13,QWORD PTR [rdi+0x18]
    3c6d:	movsd  xmm7,QWORD PTR [rdi+0x50]
    3c72:	movsd  xmm10,QWORD PTR [rdi+0x48]
    3c78:	movsd  xmm12,QWORD PTR [rdi+0x20]
    3c7e:	mulsd  xmm6,xmm1
    3c82:	mulsd  xmm4,xmm15
    3c87:	movsd  xmm11,QWORD PTR [rdi+0x28]
    3c8d:	movsd  xmm8,QWORD PTR [rdi+0x58]
    3c93:	mulsd  xmm15,xmm14
    3c98:	addsd  xmm4,xmm5
    3c9c:	movapd xmm5,xmm0
    3ca0:	mulsd  xmm5,xmm9
    3ca5:	mulsd  xmm9,xmm13
    3caa:	addsd  xmm4,xmm5
    3cae:	movapd xmm5,xmm13
    3cb3:	mulsd  xmm5,xmm10
    3cb8:	mulsd  xmm10,xmm0
    3cbd:	addsd  xmm4,xmm5
    3cc1:	movapd xmm5,xmm12
    3cc6:	mulsd  xmm5,xmm7
    3cca:	mulsd  xmm7,xmm11
    3ccf:	addsd  xmm4,xmm5
    3cd3:	movapd xmm5,xmm11
    3cd8:	mulsd  xmm5,xmm8
    3cdd:	mulsd  xmm8,xmm12
    3ce2:	addsd  xmm4,xmm5
    3ce6:	movapd xmm5,xmm6
    3cea:	subsd  xmm5,xmm15
    3cef:	mulsd  xmm4,xmm4
    3cf3:	addsd  xmm5,xmm10
    3cf8:	subsd  xmm5,xmm9
    3cfd:	addsd  xmm5,xmm8
    3d02:	subsd  xmm5,xmm7
    3d06:	mulsd  xmm5,xmm5
    3d0a:	addsd  xmm5,xmm4
    3d0e:	ucomisd xmm3,xmm5
    3d12:	movapd xmm4,xmm5
    3d16:	sqrtsd xmm4,xmm4
    3d1a:	ja     3f8c <check_su3+0x3fc>
    3d20:	movsd  xmm8,QWORD PTR [rdi+0x60]
    3d26:	movsd  xmm9,QWORD PTR [rdi+0x68]
    3d2c:	maxsd  xmm4,xmm2
    3d30:	movsd  xmm6,QWORD PTR [rdi+0x70]
    3d35:	movsd  xmm7,QWORD PTR [rdi+0x78]
    3d3a:	movapd xmm10,xmm8
    3d3f:	movapd xmm15,xmm9
    3d44:	movsd  xmm5,QWORD PTR [rdi+0x88]
    3d4c:	mulsd  xmm15,xmm14
    3d51:	movapd xmm2,xmm4
    3d55:	movsd  xmm4,QWORD PTR [rdi+0x80]
    3d5d:	mulsd  xmm10,xmm1
    3d62:	mulsd  xmm14,xmm8
    3d67:	mulsd  xmm1,xmm9
    3d6c:	addsd  xmm10,xmm15
    3d71:	movapd xmm15,xmm6
    3d76:	mulsd  xmm15,xmm0
    3d7b:	mulsd  xmm0,xmm7
    3d7f:	subsd  xmm1,xmm14
    3d84:	addsd  xmm10,xmm15
    3d89:	movapd xmm15,xmm7
    3d8e:	mulsd  xmm15,xmm13
    3d93:	addsd  xmm0,xmm1
    3d97:	mulsd  xmm13,xmm6
    3d9c:	addsd  xmm10,xmm15
    3da1:	movapd xmm15,xmm4
    3da6:	mulsd  xmm15,xmm12
    3dab:	subsd  xmm0,xmm13
    3db0:	mulsd  xmm12,xmm5
    3db5:	addsd  xmm10,xmm15
    3dba:	movapd xmm15,xmm5
    3dbf:	mulsd  xmm15,xmm11
    3dc4:	addsd  xmm0,xmm12
    3dc9:	mulsd  xmm11,xmm4
    3dce:	addsd  xmm10,xmm15
    3dd3:	subsd  xmm0,xmm11
    3dd8:	mulsd  xmm10,xmm10
    3ddd:	mulsd  xmm0,xmm0
    3de1:	addsd  xmm0,xmm10
    3de6:	ucomisd xmm3,xmm0
    3dea:	movapd xmm1,xmm0
    3dee:	sqrtsd xmm1,xmm1
    3df2:	ja     3f36 <check_su3+0x3a6>
    3df8:	maxsd  xmm1,xmm2
    3dfc:	movsd  xmm14,QWORD PTR [rdi+0x38]
    3e02:	movsd  xmm13,QWORD PTR [rdi+0x40]
    3e08:	movsd  xmm12,QWORD PTR [rdi+0x48]
    3e0e:	movsd  xmm11,QWORD PTR [rdi+0x50]
    3e14:	movapd xmm15,xmm14
    3e19:	movsd  xmm10,QWORD PTR [rdi+0x58]
    3e1f:	mulsd  xmm15,xmm9
    3e24:	movapd xmm2,xmm1
    3e28:	movsd  xmm1,QWORD PTR [rdi+0x30]
    3e2d:	movapd xmm0,xmm1
    3e31:	mulsd  xmm0,xmm8
    3e36:	mulsd  xmm1,xmm9
    3e3b:	mulsd  xmm8,xmm14
    3e40:	addsd  xmm0,xmm15
    3e45:	movapd xmm15,xmm13
    3e4a:	mulsd  xmm15,xmm6
    3e4f:	subsd  xmm1,xmm8
    3e54:	mulsd  xmm6,xmm12
    3e59:	addsd  xmm0,xmm15
    3e5e:	movapd xmm15,xmm12
    3e63:	mulsd  xmm15,xmm7
    3e68:	mulsd  xmm7,xmm13
    3e6d:	addsd  xmm0,xmm15
    3e72:	movapd xmm15,xmm11
    3e77:	mulsd  xmm15,xmm4
    3e7c:	addsd  xmm7,xmm1
    3e80:	mulsd  xmm4,xmm10
    3e85:	subsd  xmm7,xmm6
    3e89:	addsd  xmm0,xmm15
    3e8e:	movapd xmm15,xmm10
    3e93:	mulsd  xmm15,xmm5
    3e98:	mulsd  xmm5,xmm11
    3e9d:	addsd  xmm0,xmm15
    3ea2:	addsd  xmm5,xmm7
    3ea6:	mulsd  xmm0,xmm0
    3eaa:	subsd  xmm5,xmm4
    3eae:	mulsd  xmm5,xmm5
    3eb2:	addsd  xmm0,xmm5
    3eb6:	ucomisd xmm3,xmm0
    3eba:	movapd xmm1,xmm0
    3ebe:	sqrtsd xmm1,xmm1
    3ec2:	ja     3f17 <check_su3+0x387>
    3ec4:	maxsd  xmm1,xmm2
    3ec8:	add    rsp,0x28
    3ecc:	pop    rbx
    3ecd:	pop    rbp
    3ece:	movapd xmm0,xmm1
    3ed2:	ret    
    3ed3:	mov    QWORD PTR [rsp+0x18],rdi
    3ed8:	movsd  QWORD PTR [rsp+0x10],xmm2
    3ede:	movsd  QWORD PTR [rsp+0x8],xmm1
    3ee4:	call   24e0 <sqrt@plt>
    3ee9:	mov    rax,QWORD PTR [rip+0x163b0]        # 1a2a0 <_IO_stdin_used+0x2a0>
    3ef0:	mov    rdi,QWORD PTR [rsp+0x18]
    3ef5:	pxor   xmm3,xmm3
    3ef9:	movq   xmm5,QWORD PTR [rip+0x166cf]        # 1a5d0 <_IO_stdin_used+0x5d0>
    3f01:	movsd  xmm2,QWORD PTR [rsp+0x10]
    3f07:	movsd  xmm1,QWORD PTR [rsp+0x8]
    3f0d:	movq   xmm6,rax
    3f12:	jmp    3c21 <check_su3+0x91>
    3f17:	movsd  QWORD PTR [rsp+0x10],xmm2
    3f1d:	movsd  QWORD PTR [rsp+0x8],xmm1
    3f23:	call   24e0 <sqrt@plt>
    3f28:	movsd  xmm2,QWORD PTR [rsp+0x10]
    3f2e:	movsd  xmm1,QWORD PTR [rsp+0x8]
    3f34:	jmp    3ec4 <check_su3+0x334>
    3f36:	mov    QWORD PTR [rsp+0x18],rdi
    3f3b:	movsd  QWORD PTR [rsp+0x10],xmm2
    3f41:	movsd  QWORD PTR [rsp+0x8],xmm1
    3f47:	call   24e0 <sqrt@plt>
    3f4c:	mov    rdi,QWORD PTR [rsp+0x18]
    3f51:	movsd  xmm2,QWORD PTR [rsp+0x10]
    3f57:	pxor   xmm3,xmm3
    3f5b:	movsd  xmm1,QWORD PTR [rsp+0x8]
    3f61:	movsd  xmm8,QWORD PTR [rdi+0x60]
    3f67:	movsd  xmm9,QWORD PTR [rdi+0x68]
    3f6d:	movsd  xmm6,QWORD PTR [rdi+0x70]
    3f72:	movsd  xmm7,QWORD PTR [rdi+0x78]
    3f77:	movsd  xmm4,QWORD PTR [rdi+0x80]
    3f7f:	movsd  xmm5,QWORD PTR [rdi+0x88]
    3f87:	jmp    3df8 <check_su3+0x268>
    3f8c:	movapd xmm0,xmm5
    3f90:	mov    QWORD PTR [rsp+0x18],rdi
    3f95:	movsd  QWORD PTR [rsp+0x10],xmm2
    3f9b:	movsd  QWORD PTR [rsp+0x8],xmm4
    3fa1:	call   24e0 <sqrt@plt>
    3fa6:	mov    rdi,QWORD PTR [rsp+0x18]
    3fab:	movsd  xmm2,QWORD PTR [rsp+0x10]
    3fb1:	pxor   xmm3,xmm3
    3fb5:	movsd  xmm4,QWORD PTR [rsp+0x8]
    3fbb:	movsd  xmm1,QWORD PTR [rdi]
    3fbf:	movsd  xmm14,QWORD PTR [rdi+0x8]
    3fc5:	movsd  xmm0,QWORD PTR [rdi+0x10]
    3fca:	movsd  xmm13,QWORD PTR [rdi+0x18]
    3fd0:	movsd  xmm12,QWORD PTR [rdi+0x20]
    3fd6:	movsd  xmm11,QWORD PTR [rdi+0x28]
    3fdc:	jmp    3d20 <check_su3+0x190>
    3fe1:	data16 nop WORD PTR cs:[rax+rax*1+0x0]
    3fec:	nop    DWORD PTR [rax+0x0]

0000000000003ff0 <check_unitarity>:
    3ff0:	endbr64 
    3ff4:	push   r15
    3ff6:	push   r14
    3ff8:	push   r13
    3ffa:	push   r12
    3ffc:	push   rbp
    3ffd:	push   rbx
    3ffe:	sub    rsp,0x48
    4002:	mov    rax,QWORD PTR [rip+0x1e7bf]        # 227c8 <lattice>
    4009:	mov    QWORD PTR [rsp+0x38],rax
    400e:	mov    eax,DWORD PTR [rip+0x1e4ec]        # 22500 <sites_on_node>
    4014:	test   eax,eax
    4016:	jle    4276 <check_unitarity+0x286>
    401c:	movsd  xmm1,QWORD PTR [rip+0x165a4]        # 1a5c8 <_IO_stdin_used+0x5c8>
    4024:	mov    DWORD PTR [rsp+0x30],0x0
    402c:	lea    r13,[rip+0x16575]        # 1a5a8 <_IO_stdin_used+0x5a8>
    4033:	lea    r12,[rip+0x16581]        # 1a5bb <_IO_stdin_used+0x5bb>
    403a:	mov    QWORD PTR [rsp+0x10],0x0
    4043:	mov    QWORD PTR [rsp+0x8],0x0
    404c:	movsd  QWORD PTR [rsp+0x28],xmm1
    4052:	nop    WORD PTR [rax+rax*1+0x0]
    4058:	mov    rax,QWORD PTR [rsp+0x38]
    405d:	xor    ebx,ebx
    405f:	lea    rbp,[rax+0x70]
    4063:	mov    rdi,rbp
    4066:	call   3b90 <check_su3>
    406b:	comisd xmm0,QWORD PTR [rsp+0x28]
    4071:	movsd  QWORD PTR [rsp],xmm0
    4076:	ja     4140 <check_unitarity+0x150>
    407c:	movsd  xmm2,QWORD PTR [rsp]
    4081:	add    rbx,0x1
    4085:	add    rbp,0x90
    408c:	movapd xmm0,xmm2
    4090:	movapd xmm3,xmm2
    4094:	maxsd  xmm3,QWORD PTR [rsp+0x8]
    409a:	mulsd  xmm0,xmm2
    409e:	addsd  xmm0,QWORD PTR [rsp+0x10]
    40a4:	movsd  QWORD PTR [rsp+0x8],xmm3
    40aa:	movsd  QWORD PTR [rsp+0x10],xmm0
    40b0:	cmp    rbx,0x4
    40b4:	jne    4063 <check_unitarity+0x73>
    40b6:	add    DWORD PTR [rsp+0x30],0x1
    40bb:	mov    eax,DWORD PTR [rsp+0x30]
    40bf:	add    QWORD PTR [rsp+0x38],0x800
    40c8:	cmp    DWORD PTR [rip+0x1e432],eax        # 22500 <sites_on_node>
    40ce:	jg     4058 <check_unitarity+0x68>
    40d0:	shl    eax,0x2
    40d3:	pxor   xmm0,xmm0
    40d7:	movsd  xmm1,QWORD PTR [rsp+0x10]
    40dd:	cvtsi2sd xmm0,eax
    40e1:	divsd  xmm1,xmm0
    40e5:	movapd xmm0,xmm1
    40e9:	pxor   xmm1,xmm1
    40ed:	ucomisd xmm1,xmm0
    40f1:	ja     42a0 <check_unitarity+0x2b0>
    40f7:	movsd  xmm1,QWORD PTR [rsp+0x8]
    40fd:	comisd xmm1,QWORD PTR [rsp+0x28]
    4103:	jbe    412a <check_unitarity+0x13a>
    4105:	xor    eax,eax
    4107:	call   193b0 <mynode>
    410c:	movsd  xmm0,QWORD PTR [rsp+0x8]
    4112:	mov    edi,0x1
    4117:	lea    rsi,[rip+0x1644a]        # 1a568 <_IO_stdin_used+0x568>
    411e:	mov    edx,eax
    4120:	mov    eax,0x1
    4125:	call   2470 <__printf_chk@plt>
    412a:	movsd  xmm0,QWORD PTR [rsp+0x8]
    4130:	add    rsp,0x48
    4134:	pop    rbx
    4135:	pop    rbp
    4136:	pop    r12
    4138:	pop    r13
    413a:	pop    r14
    413c:	pop    r15
    413e:	ret    
    413f:	nop
    4140:	xor    eax,eax
    4142:	call   193b0 <mynode>
    4147:	movsd  xmm0,QWORD PTR [rsp]
    414c:	mov    ecx,DWORD PTR [rsp+0x30]
    4150:	mov    r8d,ebx
    4153:	mov    edx,eax
    4155:	lea    rsi,[rip+0x163cc]        # 1a528 <_IO_stdin_used+0x528>
    415c:	mov    edi,0x1
    4161:	mov    eax,0x1
    4166:	call   2470 <__printf_chk@plt>
    416b:	lea    rdi,[rip+0x1642a]        # 1a59c <_IO_stdin_used+0x59c>
    4172:	call   22f0 <puts@plt>
    4177:	lea    rax,[rbp-0x70]
    417b:	mov    DWORD PTR [rsp+0x34],0x3
    4183:	mov    QWORD PTR [rsp+0x18],rax
    4188:	mov    QWORD PTR [rsp+0x20],rax
    418d:	mov    r15,QWORD PTR [rsp+0x20]
    4192:	mov    r14d,0x3
    4198:	movsd  xmm0,QWORD PTR [r15+0x70]
    419e:	mov    rsi,r13
    41a1:	mov    edi,0x1
    41a6:	mov    eax,0x1
    41ab:	add    r15,0x10
    41af:	call   2470 <__printf_chk@plt>
    41b4:	movsd  xmm0,QWORD PTR [r15+0x68]
    41ba:	mov    rsi,r13
    41bd:	mov    edi,0x1
    41c2:	mov    eax,0x1
    41c7:	call   2470 <__printf_chk@plt>
    41cc:	sub    r14d,0x1
    41d0:	jne    4198 <check_unitarity+0x1a8>
    41d2:	mov    edi,0xa
    41d7:	call   22b0 <putchar@plt>
    41dc:	add    QWORD PTR [rsp+0x20],0x30
    41e2:	sub    DWORD PTR [rsp+0x34],0x1
    41e7:	jne    418d <check_unitarity+0x19d>
    41e9:	lea    rdi,[rip+0x163bc]        # 1a5ac <_IO_stdin_used+0x5ac>
    41f0:	call   22f0 <puts@plt>
    41f5:	mov    DWORD PTR [rsp+0x20],0x3
    41fd:	mov    r14,QWORD PTR [rsp+0x18]
    4202:	mov    r15d,0x3
    4208:	mov    edx,DWORD PTR [r14+0x70]
    420c:	mov    rsi,r12
    420f:	mov    edi,0x1
    4214:	xor    eax,eax
    4216:	add    r14,0x10
    421a:	call   2470 <__printf_chk@plt>
    421f:	mov    edx,DWORD PTR [r14+0x68]
    4223:	mov    rsi,r12
    4226:	xor    eax,eax
    4228:	mov    edi,0x1
    422d:	call   2470 <__printf_chk@plt>
    4232:	sub    r15d,0x1
    4236:	jne    4208 <check_unitarity+0x218>
    4238:	mov    edi,0xa
    423d:	call   22b0 <putchar@plt>
    4242:	add    QWORD PTR [rsp+0x18],0x30
    4248:	sub    DWORD PTR [rsp+0x20],0x1
    424d:	jne    41fd <check_unitarity+0x20d>
    424f:	lea    rdi,[rip+0x1636b]        # 1a5c1 <_IO_stdin_used+0x5c1>
    4256:	call   22f0 <puts@plt>
    425b:	mov    rdi,QWORD PTR [rip+0x1e07e]        # 222e0 <stdout@@GLIBC_2.2.5>
    4262:	call   2420 <fflush@plt>
    4267:	mov    edi,0x1
    426c:	call   19570 <terminate>
    4271:	jmp    407c <check_unitarity+0x8c>
    4276:	pxor   xmm1,xmm1
    427a:	movapd xmm0,xmm1
    427e:	movsd  QWORD PTR [rsp+0x8],xmm1
    4284:	divsd  xmm0,xmm1
    4288:	ucomisd xmm1,xmm0
    428c:	jbe    412a <check_unitarity+0x13a>
    4292:	movsd  xmm1,QWORD PTR [rip+0x1632e]        # 1a5c8 <_IO_stdin_used+0x5c8>
    429a:	movsd  QWORD PTR [rsp+0x28],xmm1
    42a0:	call   24e0 <sqrt@plt>
    42a5:	jmp    40f7 <check_unitarity+0x107>
    42aa:	nop    WORD PTR [rax+rax*1+0x0]

00000000000042b0 <d_plaquette>:
    42b0:	endbr64 
    42b4:	push   r15
    42b6:	push   r14
    42b8:	push   r13
    42ba:	push   r12
    42bc:	push   rbp
    42bd:	push   rbx
    42be:	sub    rsp,0x108
    42c5:	mov    QWORD PTR [rsp+0x40],rdi
    42ca:	movsxd rdi,DWORD PTR [rip+0x1e22f]        # 22500 <sites_on_node>
    42d1:	mov    QWORD PTR [rsp+0x48],rsi
    42d6:	mov    esi,0x90
    42db:	mov    rax,QWORD PTR fs:0x28
    42e4:	mov    QWORD PTR [rsp+0xf8],rax
    42ec:	xor    eax,eax
    42ee:	mov    QWORD PTR [rsp+0x58],0x0
    42f7:	mov    QWORD PTR [rsp+0x50],0x0
    4300:	call   23d0 <calloc@plt>
    4305:	mov    QWORD PTR [rsp+0x28],rax
    430a:	test   rax,rax
    430d:	je     4552 <d_plaquette+0x2a2>
    4313:	mov    QWORD PTR [rsp+0x38],0x90
    431c:	lea    r12,[rip+0x1e53d]        # 22860 <gen_pt>
    4323:	lea    r15,[rsp+0x60]
    4328:	mov    DWORD PTR [rsp+0xc],0x1
    4330:	mov    rbp,QWORD PTR [rsp+0x38]
    4335:	mov    DWORD PTR [rsp+0x8],0x0
    433d:	mov    QWORD PTR [rsp+0x20],0x70
    4346:	lea    rax,[rbp+0x70]
    434a:	mov    QWORD PTR [rsp+0x30],rax
    434f:	mov    r8,QWORD PTR [r12]
    4353:	mov    edx,DWORD PTR [rsp+0xc]
    4357:	mov    ecx,0x3
    435c:	xor    r14d,r14d
    435f:	mov    rbx,QWORD PTR [rsp+0x20]
    4364:	mov    esi,0x90
    4369:	mov    edi,ebx
    436b:	call   18f40 <start_gather>
    4370:	mov    edx,DWORD PTR [rsp+0x8]
    4374:	mov    edi,DWORD PTR [rsp+0x30]
    4378:	mov    ecx,0x3
    437d:	mov    r8,QWORD PTR [rip+0x1e4e4]        # 22868 <gen_pt+0x8>
    4384:	mov    esi,0x90
    4389:	mov    QWORD PTR [rsp+0x10],rax
    438e:	call   18f40 <start_gather>
    4393:	mov    edx,DWORD PTR [rip+0x1e167]        # 22500 <sites_on_node>
    4399:	mov    r13,QWORD PTR [rsp+0x28]
    439e:	mov    QWORD PTR [rsp+0x18],rax
    43a3:	add    rbx,QWORD PTR [rip+0x1e41e]        # 227c8 <lattice>
    43aa:	test   edx,edx
    43ac:	jle    43db <d_plaquette+0x12b>
    43ae:	xchg   ax,ax
    43b0:	lea    rsi,[rbp+rbx*1+0x0]
    43b5:	mov    rdx,r13
    43b8:	mov    rdi,rbx
    43bb:	add    r14d,0x1
    43bf:	call   140e0 <mult_su3_an>
    43c4:	add    rbx,0x800
    43cb:	add    r13,0x90
    43d2:	cmp    DWORD PTR [rip+0x1e127],r14d        # 22500 <sites_on_node>
    43d9:	jg     43b0 <d_plaquette+0x100>
    43db:	mov    rdi,QWORD PTR [rsp+0x10]
    43e0:	xor    r14d,r14d
    43e3:	call   19170 <wait_gather>
    43e8:	mov    rdi,QWORD PTR [rsp+0x18]
    43ed:	call   19170 <wait_gather>
    43f2:	mov    eax,DWORD PTR [rip+0x1e108]        # 22500 <sites_on_node>
    43f8:	mov    rbx,QWORD PTR [rsp+0x28]
    43fd:	mov    r13d,DWORD PTR [rsp+0xc]
    4402:	test   eax,eax
    4404:	jg     4435 <d_plaquette+0x185>
    4406:	jmp    4470 <d_plaquette+0x1c0>
    4408:	nop    DWORD PTR [rax+rax*1+0x0]
    4410:	call   14780 <realtrace_su3>
    4415:	addsd  xmm0,QWORD PTR [rsp+0x50]
    441b:	movsd  QWORD PTR [rsp+0x50],xmm0
    4421:	add    r14,0x1
    4425:	add    rbx,0x90
    442c:	cmp    DWORD PTR [rip+0x1e0cd],r14d        # 22500 <sites_on_node>
    4433:	jle    4470 <d_plaquette+0x1c0>
    4435:	mov    rax,QWORD PTR [r12]
    4439:	mov    rdi,rbx
    443c:	mov    rdx,r15
    443f:	mov    rsi,QWORD PTR [rax+r14*8]
    4443:	call   14440 <mult_su3_nn>
    4448:	mov    rax,QWORD PTR [rip+0x1e419]        # 22868 <gen_pt+0x8>
    444f:	mov    rsi,r15
    4452:	mov    rdi,QWORD PTR [rax+r14*8]
    4456:	cmp    r13d,0x3
    445a:	jne    4410 <d_plaquette+0x160>
    445c:	call   14780 <realtrace_su3>
    4461:	addsd  xmm0,QWORD PTR [rsp+0x58]
    4467:	movsd  QWORD PTR [rsp+0x58],xmm0
    446d:	jmp    4421 <d_plaquette+0x171>
    446f:	nop
    4470:	mov    rdi,QWORD PTR [rsp+0x10]
    4475:	sub    rbp,0x90
    447c:	call   19180 <cleanup_gather>
    4481:	mov    rdi,QWORD PTR [rsp+0x18]
    4486:	call   19180 <cleanup_gather>
    448b:	add    DWORD PTR [rsp+0x8],0x1
    4490:	mov    eax,DWORD PTR [rsp+0x8]
    4494:	add    QWORD PTR [rsp+0x20],0x90
    449d:	cmp    eax,DWORD PTR [rsp+0xc]
    44a1:	jne    434f <d_plaquette+0x9f>
    44a7:	add    QWORD PTR [rsp+0x38],0x90
    44b0:	mov    eax,DWORD PTR [rsp+0x8]
    44b4:	lea    ecx,[rax+0x1]
    44b7:	mov    DWORD PTR [rsp+0xc],ecx
    44bb:	cmp    eax,0x3
    44be:	jne    4330 <d_plaquette+0x80>
    44c4:	lea    rdi,[rsp+0x50]
    44c9:	call   193f0 <g_doublesum>
    44ce:	lea    rdi,[rsp+0x58]
    44d3:	call   193f0 <g_doublesum>
    44d8:	mov    eax,DWORD PTR [rip+0x1defa]        # 223d8 <nx>
    44de:	pxor   xmm0,xmm0
    44e2:	imul   eax,DWORD PTR [rip+0x1e353]        # 2283c <ny>
    44e9:	imul   eax,DWORD PTR [rip+0x1dee4]        # 223d4 <nz>
    44f0:	movsd  xmm1,QWORD PTR [rsp+0x50]
    44f6:	imul   eax,DWORD PTR [rip+0x1ded3]        # 223d0 <nt>
    44fd:	lea    eax,[rax+rax*2]
    4500:	cvtsi2sd xmm0,eax
    4504:	mov    rax,QWORD PTR [rsp+0x40]
    4509:	divsd  xmm1,xmm0
    450d:	movsd  QWORD PTR [rax],xmm1
    4511:	movsd  xmm1,QWORD PTR [rsp+0x58]
    4517:	mov    rax,QWORD PTR [rsp+0x48]
    451c:	divsd  xmm1,xmm0
    4520:	movsd  QWORD PTR [rax],xmm1
    4524:	mov    rax,QWORD PTR [rsp+0xf8]
    452c:	xor    rax,QWORD PTR fs:0x28
    4535:	jne    4579 <d_plaquette+0x2c9>
    4537:	mov    rdi,QWORD PTR [rsp+0x28]
    453c:	add    rsp,0x108
    4543:	pop    rbx
    4544:	pop    rbp
    4545:	pop    r12
    4547:	pop    r13
    4549:	pop    r14
    454b:	pop    r15
    454d:	jmp    22a0 <free@plt>
    4552:	lea    rdi,[rip+0x16087]        # 1a5e0 <_IO_stdin_used+0x5e0>
    4559:	call   22f0 <puts@plt>
    455e:	mov    rdi,QWORD PTR [rip+0x1dd7b]        # 222e0 <stdout@@GLIBC_2.2.5>
    4565:	call   2420 <fflush@plt>
    456a:	mov    edi,0x1
    456f:	call   19570 <terminate>
    4574:	jmp    4313 <d_plaquette+0x63>
    4579:	call   2350 <__stack_chk_fail@plt>
    457e:	xchg   ax,ax

0000000000004580 <accum_gauge_hit>:
    4580:	endbr64 
    4584:	push   r15
    4586:	push   r14
    4588:	push   r13
    458a:	push   r12
    458c:	push   rbp
    458d:	push   rbx
    458e:	mov    ebx,edi
    4590:	sub    rsp,0x28
    4594:	mov    DWORD PTR [rsp+0x18],esi
    4598:	cmp    esi,0x1
    459b:	je     490f <accum_gauge_hit+0x38f>
    45a1:	xor    r12d,r12d
    45a4:	xor    r14d,r14d
    45a7:	xor    eax,eax
    45a9:	lea    rbp,[rax+rax*2]
    45ad:	add    r12,QWORD PTR [rip+0x1e214]        # 227c8 <lattice>
    45b4:	shl    rbp,0x4
    45b8:	jmp    45ea <accum_gauge_hit+0x6a>
    45ba:	nop    WORD PTR [rax+rax*1+0x0]
    45c0:	add    rdi,r12
    45c3:	call   13f80 <clear_su3mat>
    45c8:	movsxd rdi,DWORD PTR [rip+0x1e609]        # 22bd8 <sumvec_offset>
    45cf:	test   edi,edi
    45d1:	js     462c <accum_gauge_hit+0xac>
    45d3:	add    rdi,r12
    45d6:	call   13fd0 <clearvec>
    45db:	add    r14d,0x1
    45df:	add    r12,0x800
    45e6:	add    rbp,0x30
    45ea:	mov    r13d,DWORD PTR [rip+0x1e093]        # 22684 <even_sites_on_node>
    45f1:	cmp    DWORD PTR [rsp+0x18],0x2
    45f6:	mov    eax,r13d
    45f9:	cmovne eax,DWORD PTR [rip+0x1df00]        # 22500 <sites_on_node>
    4600:	cmp    r14d,eax
    4603:	jge    4640 <accum_gauge_hit+0xc0>
    4605:	movsxd rdi,DWORD PTR [rip+0x1e5dc]        # 22be8 <diffmat_offset>
    460c:	test   edi,edi
    460e:	jns    45c0 <accum_gauge_hit+0x40>
    4610:	lea    rdi,[rbp+rbp*2+0x0]
    4615:	add    rdi,QWORD PTR [rip+0x1e5c4]        # 22be0 <diffmatp>
    461c:	call   13f80 <clear_su3mat>
    4621:	movsxd rdi,DWORD PTR [rip+0x1e5b0]        # 22bd8 <sumvec_offset>
    4628:	test   edi,edi
    462a:	jns    45d3 <accum_gauge_hit+0x53>
    462c:	mov    rdi,QWORD PTR [rip+0x1e59d]        # 22bd0 <sumvecp>
    4633:	add    rdi,rbp
    4636:	call   13fd0 <clearvec>
    463b:	jmp    45db <accum_gauge_hit+0x5b>
    463d:	nop    DWORD PTR [rax]
    4640:	cmp    DWORD PTR [rsp+0x18],0x1
    4645:	je     4939 <accum_gauge_hit+0x3b9>
    464b:	xor    ebp,ebp
    464d:	xor    r13d,r13d
    4650:	xor    eax,eax
    4652:	lea    r12,[rax+rax*2]
    4656:	add    rbp,QWORD PTR [rip+0x1e16b]        # 227c8 <lattice>
    465d:	shl    r12,0x4
    4661:	nop    DWORD PTR [rax+0x0]
    4668:	mov    r14d,DWORD PTR [rip+0x1e015]        # 22684 <even_sites_on_node>
    466f:	cmp    DWORD PTR [rsp+0x18],0x2
    4674:	mov    eax,r14d
    4677:	cmovne eax,DWORD PTR [rip+0x1de82]        # 22500 <sites_on_node>
    467e:	cmp    r13d,eax
    4681:	jge    4790 <accum_gauge_hit+0x210>
    4687:	lea    rax,[r12+r12*2]
    468b:	lea    r14,[rbp+0x70]
    468f:	xor    r15d,r15d
    4692:	mov    QWORD PTR [rsp+0x8],rax
    4697:	cmp    ebx,r15d
    469a:	je     4700 <accum_gauge_hit+0x180>
    469c:	movsxd rdi,DWORD PTR [rip+0x1e545]        # 22be8 <diffmat_offset>
    46a3:	test   edi,edi
    46a5:	js     4770 <accum_gauge_hit+0x1f0>
    46ab:	add    rdi,rbp
    46ae:	mov    rsi,r14
    46b1:	mov    rdx,rdi
    46b4:	call   14c50 <sub_su3_matrix>
    46b9:	mov    eax,DWORD PTR [rip+0x1e519]        # 22bd8 <sumvec_offset>
    46bf:	test   eax,eax
    46c1:	js     4728 <accum_gauge_hit+0x1a8>
    46c3:	movsxd rdx,eax
    46c6:	lea    rdi,[r14-0x70]
    46ca:	add    rdx,rbp
    46cd:	lea    rax,[rdx+0x8]
    46d1:	add    rdx,0x38
    46d5:	movsd  xmm0,QWORD PTR [rax-0x8]
    46da:	addsd  xmm0,QWORD PTR [rdi+0x70]
    46df:	add    rax,0x10
    46e3:	add    rdi,0x40
    46e7:	movsd  QWORD PTR [rax-0x18],xmm0
    46ec:	movsd  xmm0,QWORD PTR [rax-0x10]
    46f1:	addsd  xmm0,QWORD PTR [rdi+0x38]
    46f6:	movsd  QWORD PTR [rax-0x10],xmm0
    46fb:	cmp    rax,rdx
    46fe:	jne    46d5 <accum_gauge_hit+0x155>
    4700:	add    r15d,0x1
    4704:	add    r14,0x90
    470b:	cmp    r15d,0x4
    470f:	jne    4697 <accum_gauge_hit+0x117>
    4711:	add    r13d,0x1
    4715:	add    rbp,0x800
    471c:	add    r12,0x30
    4720:	jmp    4668 <accum_gauge_hit+0xe8>
    4725:	nop    DWORD PTR [rax]
    4728:	mov    rdi,QWORD PTR [rip+0x1e4a1]        # 22bd0 <sumvecp>
    472f:	lea    rdx,[r14-0x70]
    4733:	add    rdi,r12
    4736:	lea    rax,[rdi+0x8]
    473a:	add    rdi,0x38
    473e:	movsd  xmm0,QWORD PTR [rax-0x8]
    4743:	addsd  xmm0,QWORD PTR [rdx+0x70]
    4748:	add    rax,0x10
    474c:	add    rdx,0x40
    4750:	movsd  QWORD PTR [rax-0x18],xmm0
    4755:	movsd  xmm0,QWORD PTR [rax-0x10]
    475a:	addsd  xmm0,QWORD PTR [rdx+0x38]
    475f:	movsd  QWORD PTR [rax-0x10],xmm0
    4764:	cmp    rax,rdi
    4767:	jne    473e <accum_gauge_hit+0x1be>
    4769:	jmp    4700 <accum_gauge_hit+0x180>
    476b:	nop    DWORD PTR [rax+rax*1+0x0]
    4770:	mov    rdi,QWORD PTR [rsp+0x8]
    4775:	add    rdi,QWORD PTR [rip+0x1e464]        # 22be0 <diffmatp>
    477c:	mov    rsi,r14
    477f:	mov    rdx,rdi
    4782:	call   14c50 <sub_su3_matrix>
    4787:	jmp    46b9 <accum_gauge_hit+0x139>
    478c:	nop    DWORD PTR [rax+0x0]
    4790:	cmp    DWORD PTR [rsp+0x18],0x1
    4795:	je     4925 <accum_gauge_hit+0x3a5>
    479b:	mov    DWORD PTR [rsp+0x1c],0x0
    47a3:	xor    ebp,ebp
    47a5:	xor    r12d,r12d
    47a8:	add    rbp,QWORD PTR [rip+0x1e019]        # 227c8 <lattice>
    47af:	lea    r13,[r12+r12*2]
    47b3:	lea    r14,[rip+0x1e0a6]        # 22860 <gen_pt>
    47ba:	shl    r12,0x3
    47be:	mov    QWORD PTR [rsp+0x8],rbp
    47c3:	shl    r13,0x4
    47c7:	nop    WORD PTR [rax+rax*1+0x0]
    47d0:	mov    eax,DWORD PTR [rip+0x1deae]        # 22684 <even_sites_on_node>
    47d6:	cmp    DWORD PTR [rsp+0x18],0x2
    47db:	cmovne eax,DWORD PTR [rip+0x1dd1e]        # 22500 <sites_on_node>
    47e2:	cmp    DWORD PTR [rsp+0x1c],eax
    47e6:	jge    4900 <accum_gauge_hit+0x380>
    47ec:	lea    rax,[r13+r13*2+0x0]
    47f1:	xor    r15d,r15d
    47f4:	mov    QWORD PTR [rsp+0x10],rax
    47f9:	cmp    ebx,r15d
    47fc:	je     4863 <accum_gauge_hit+0x2e3>
    47fe:	mov    rax,QWORD PTR [r14+r15*8]
    4802:	movsxd rdi,DWORD PTR [rip+0x1e3df]        # 22be8 <diffmat_offset>
    4809:	mov    rbp,QWORD PTR [rax+r12*1]
    480d:	test   edi,edi
    480f:	js     48e0 <accum_gauge_hit+0x360>
    4815:	add    rdi,QWORD PTR [rsp+0x8]
    481a:	mov    rsi,rbp
    481d:	mov    rdx,rdi
    4820:	call   13ef0 <add_su3_matrix>
    4825:	movsxd rdx,DWORD PTR [rip+0x1e3ac]        # 22bd8 <sumvec_offset>
    482c:	test   edx,edx
    482e:	js     4890 <accum_gauge_hit+0x310>
    4830:	add    rdx,QWORD PTR [rsp+0x8]
    4835:	xor    eax,eax
    4837:	movsd  xmm0,QWORD PTR [rdx+rax*1]
    483c:	addsd  xmm0,QWORD PTR [rbp+rax*4+0x0]
    4842:	movsd  QWORD PTR [rdx+rax*1],xmm0
    4847:	movsd  xmm0,QWORD PTR [rdx+rax*1+0x8]
    484d:	addsd  xmm0,QWORD PTR [rbp+rax*4+0x8]
    4853:	movsd  QWORD PTR [rdx+rax*1+0x8],xmm0
    4859:	add    rax,0x10
    485d:	cmp    rax,0x30
    4861:	jne    4837 <accum_gauge_hit+0x2b7>
    4863:	add    r15,0x1
    4867:	cmp    r15,0x4
    486b:	jne    47f9 <accum_gauge_hit+0x279>
    486d:	add    DWORD PTR [rsp+0x1c],0x1
    4872:	add    r13,0x30
    4876:	add    r12,0x8
    487a:	add    QWORD PTR [rsp+0x8],0x800
    4883:	jmp    47d0 <accum_gauge_hit+0x250>
    4888:	nop    DWORD PTR [rax+rax*1+0x0]
    4890:	mov    rdx,QWORD PTR [rip+0x1e339]        # 22bd0 <sumvecp>
    4897:	xor    eax,eax
    4899:	add    rdx,r13
    489c:	movsd  xmm0,QWORD PTR [rdx+rax*1]
    48a1:	addsd  xmm0,QWORD PTR [rbp+rax*4+0x0]
    48a7:	movsd  QWORD PTR [rdx+rax*1],xmm0
    48ac:	movsd  xmm0,QWORD PTR [rdx+rax*1+0x8]
    48b2:	addsd  xmm0,QWORD PTR [rbp+rax*4+0x8]
    48b8:	movsd  QWORD PTR [rdx+rax*1+0x8],xmm0
    48be:	add    rax,0x10
    48c2:	cmp    rax,0x30
    48c6:	jne    489c <accum_gauge_hit+0x31c>
    48c8:	add    r15,0x1
    48cc:	cmp    r15,0x4
    48d0:	jne    47f9 <accum_gauge_hit+0x279>
    48d6:	jmp    486d <accum_gauge_hit+0x2ed>
    48d8:	nop    DWORD PTR [rax+rax*1+0x0]
    48e0:	mov    rdi,QWORD PTR [rsp+0x10]
    48e5:	add    rdi,QWORD PTR [rip+0x1e2f4]        # 22be0 <diffmatp>
    48ec:	mov    rsi,rbp
    48ef:	mov    rdx,rdi
    48f2:	call   13ef0 <add_su3_matrix>
    48f7:	jmp    4825 <accum_gauge_hit+0x2a5>
    48fc:	nop    DWORD PTR [rax+0x0]
    4900:	add    rsp,0x28
    4904:	pop    rbx
    4905:	pop    rbp
    4906:	pop    r12
    4908:	pop    r13
    490a:	pop    r14
    490c:	pop    r15
    490e:	ret    
    490f:	movsxd rax,DWORD PTR [rip+0x1dd6e]        # 22684 <even_sites_on_node>
    4916:	mov    r12,rax
    4919:	mov    r14,rax
    491c:	shl    r12,0xb
    4920:	jmp    45a9 <accum_gauge_hit+0x29>
    4925:	movsxd r12,r14d
    4928:	mov    rbp,r12
    492b:	mov    DWORD PTR [rsp+0x1c],r12d
    4930:	shl    rbp,0xb
    4934:	jmp    47a8 <accum_gauge_hit+0x228>
    4939:	movsxd rax,r13d
    493c:	mov    rbp,rax
    493f:	shl    rbp,0xb
    4943:	jmp    4652 <accum_gauge_hit+0xd2>
    4948:	nop    DWORD PTR [rax+rax*1+0x0]

0000000000004950 <do_hit>:
    4950:	endbr64 
    4954:	push   r15
    4956:	push   r14
    4958:	mov    r14d,esi
    495b:	push   r13
    495d:	mov    r13d,ecx
    4960:	push   r12
    4962:	mov    r12d,edx
    4965:	push   rbp
    4966:	push   rbx
    4967:	sub    rsp,0x198
    496e:	mov    rax,QWORD PTR [rsp+0x1d0]
    4976:	mov    DWORD PTR [rsp+0x5c],r8d
    497b:	mov    QWORD PTR [rsp+0x78],r9
    4980:	mov    QWORD PTR [rsp+0x60],rax
    4985:	mov    rax,QWORD PTR [rsp+0x1e0]
    498d:	movsd  QWORD PTR [rsp+0x70],xmm0
    4993:	mov    QWORD PTR [rsp+0x80],rax
    499b:	mov    rax,QWORD PTR [rsp+0x1e8]
    49a3:	mov    QWORD PTR [rsp+0x68],rax
    49a8:	mov    rax,QWORD PTR fs:0x28
    49b1:	mov    QWORD PTR [rsp+0x188],rax
    49b9:	xor    eax,eax
    49bb:	call   4580 <accum_gauge_hit>
    49c0:	cmp    r14d,0x1
    49c4:	je     4ed1 <do_hit+0x581>
    49ca:	mov    DWORD PTR [rsp+0x58],0x0
    49d2:	xor    eax,eax
    49d4:	xor    edx,edx
    49d6:	movsxd rcx,r13d
    49d9:	add    rax,QWORD PTR [rip+0x1dde8]        # 227c8 <lattice>
    49e0:	mov    rdi,rcx
    49e3:	add    rax,0x2b0
    49e9:	mov    QWORD PTR [rsp+0x38],rcx
    49ee:	shl    rdi,0x4
    49f2:	mov    QWORD PTR [rsp+0x28],rax
    49f7:	mov    eax,DWORD PTR [rsp+0x5c]
    49fb:	mov    QWORD PTR [rsp+0x90],rdi
    4a03:	movsxd rdi,r12d
    4a06:	mov    rbx,rdi
    4a09:	sub    eax,0x1
    4a0c:	mov    QWORD PTR [rsp+0x30],rdi
    4a11:	shl    rbx,0x4
    4a15:	mov    QWORD PTR [rsp+0x20],rbx
    4a1a:	lea    rbx,[rdx*8+0x0]
    4a22:	mov    QWORD PTR [rsp+0x18],rbx
    4a27:	mov    rbx,QWORD PTR [rsp+0x60]
    4a2c:	lea    rax,[rbx+rax*4+0x4]
    4a31:	mov    rbx,QWORD PTR [rsp+0x68]
    4a36:	mov    QWORD PTR [rsp+0x98],rax
    4a3e:	mov    eax,DWORD PTR [rsp+0x1d8]
    4a45:	sub    eax,0x1
    4a48:	lea    rax,[rbx+rax*4+0x4]
    4a4d:	mov    QWORD PTR [rsp+0x8],rax
    4a52:	lea    rax,[rcx+rcx*2]
    4a56:	add    rax,rdi
    4a59:	mov    QWORD PTR [rsp+0x88],rax
    4a61:	nop    DWORD PTR [rax+0x0]
    4a68:	mov    rax,QWORD PTR [rsp+0x28]
    4a6d:	sub    rax,0x2b0
    4a73:	cmp    r14d,0x2
    4a77:	mov    QWORD PTR [rsp],rax
    4a7b:	mov    eax,DWORD PTR [rip+0x1dc03]        # 22684 <even_sites_on_node>
    4a81:	cmovne eax,DWORD PTR [rip+0x1da78]        # 22500 <sites_on_node>
    4a88:	cmp    DWORD PTR [rsp+0x58],eax
    4a8c:	jge    4ea8 <do_hit+0x558>
    4a92:	movsxd rax,DWORD PTR [rip+0x1e13f]        # 22bd8 <sumvec_offset>
    4a99:	test   eax,eax
    4a9b:	js     4e88 <do_hit+0x538>
    4aa1:	add    rax,QWORD PTR [rsp]
    4aa5:	mov    rcx,QWORD PTR [rsp+0x30]
    4aaa:	mov    rdx,QWORD PTR [rsp+0x38]
    4aaf:	shl    rcx,0x4
    4ab3:	shl    rdx,0x4
    4ab7:	movsd  xmm4,QWORD PTR [rax+rcx*1]
    4abc:	addsd  xmm4,QWORD PTR [rax+rdx*1]
    4ac1:	movsxd rax,DWORD PTR [rip+0x1e120]        # 22be8 <diffmat_offset>
    4ac8:	test   eax,eax
    4aca:	js     4e18 <do_hit+0x4c8>
    4ad0:	mov    rdi,QWORD PTR [rsp+0x30]
    4ad5:	mov    rbx,QWORD PTR [rsp+0x38]
    4ada:	mov    rcx,QWORD PTR [rsp+0x88]
    4ae2:	add    rax,QWORD PTR [rsp]
    4ae6:	lea    rdx,[rdi+rdi*2]
    4aea:	add    rdx,rbx
    4aed:	shl    rcx,0x4
    4af1:	shl    rdx,0x4
    4af5:	add    rcx,rax
    4af8:	shl    rbx,0x6
    4afc:	add    rdx,rax
    4aff:	movsd  xmm1,QWORD PTR [rcx+0x8]
    4b04:	movsd  xmm3,QWORD PTR [rdx]
    4b08:	subsd  xmm3,QWORD PTR [rcx]
    4b0c:	mov    rcx,rdi
    4b0f:	shl    rcx,0x6
    4b13:	addsd  xmm1,QWORD PTR [rdx+0x8]
    4b18:	movsd  xmm6,QWORD PTR [rax+rcx*1+0x8]
    4b1e:	subsd  xmm6,QWORD PTR [rax+rbx*1+0x8]
    4b24:	movapd xmm2,xmm3
    4b28:	movapd xmm0,xmm1
    4b2c:	movapd xmm7,xmm4
    4b30:	mulsd  xmm2,xmm3
    4b34:	mulsd  xmm0,xmm1
    4b38:	mulsd  xmm7,xmm4
    4b3c:	addsd  xmm0,xmm2
    4b40:	movapd xmm2,xmm6
    4b44:	mulsd  xmm2,xmm6
    4b48:	addsd  xmm0,xmm2
    4b4c:	movsd  xmm2,QWORD PTR [rsp+0x70]
    4b52:	mulsd  xmm2,xmm7
    4b56:	movapd xmm5,xmm0
    4b5a:	addsd  xmm5,xmm7
    4b5e:	addsd  xmm2,xmm0
    4b62:	divsd  xmm2,xmm5
    4b66:	movapd xmm5,xmm2
    4b6a:	mulsd  xmm5,xmm2
    4b6e:	mulsd  xmm0,xmm5
    4b72:	addsd  xmm0,xmm7
    4b76:	pxor   xmm7,xmm7
    4b7a:	ucomisd xmm7,xmm0
    4b7e:	movapd xmm5,xmm0
    4b82:	sqrtsd xmm5,xmm5
    4b86:	ja     4ee8 <do_hit+0x598>
    4b8c:	divsd  xmm2,xmm5
    4b90:	lea    rbx,[rsp+0xb0]
    4b98:	divsd  xmm4,xmm5
    4b9c:	movapd xmm5,xmm1
    4ba0:	mulsd  xmm3,xmm2
    4ba4:	mulsd  xmm5,xmm2
    4ba8:	mulsd  xmm2,xmm6
    4bac:	movsd  QWORD PTR [rsp+0x10],xmm3
    4bb2:	movsd  QWORD PTR [rsp+0x40],xmm5
    4bb8:	movapd xmm1,xmm2
    4bbc:	movsd  QWORD PTR [rsp+0x50],xmm2
    4bc2:	movapd xmm0,xmm4
    4bc6:	movsd  QWORD PTR [rsp+0x48],xmm4
    4bcc:	call   13ee0 <cmplx>
    4bd1:	movsd  xmm5,QWORD PTR [rsp+0x40]
    4bd7:	movsd  QWORD PTR [rsp+0xb0],xmm0
    4be0:	movsd  xmm0,QWORD PTR [rsp+0x10]
    4be6:	movsd  QWORD PTR [rsp+0xb8],xmm1
    4bef:	movapd xmm1,xmm5
    4bf3:	call   13ee0 <cmplx>
    4bf8:	movsd  xmm5,QWORD PTR [rsp+0x40]
    4bfe:	movsd  QWORD PTR [rsp+0xc0],xmm0
    4c07:	movsd  xmm0,QWORD PTR [rsp+0x10]
    4c0d:	xorpd  xmm0,XMMWORD PTR [rip+0x15a6b]        # 1a680 <_IO_stdin_used+0x680>
    4c15:	movsd  QWORD PTR [rsp+0xc8],xmm1
    4c1e:	movapd xmm1,xmm5
    4c22:	call   13ee0 <cmplx>
    4c27:	movsd  xmm2,QWORD PTR [rsp+0x50]
    4c2d:	movsd  xmm4,QWORD PTR [rsp+0x48]
    4c33:	movsd  QWORD PTR [rsp+0xd8],xmm1
    4c3c:	movsd  QWORD PTR [rsp+0xd0],xmm0
    4c45:	movapd xmm1,xmm2
    4c49:	xorpd  xmm1,XMMWORD PTR [rip+0x15a2f]        # 1a680 <_IO_stdin_used+0x680>
    4c51:	movapd xmm0,xmm4
    4c55:	call   13ee0 <cmplx>
    4c5a:	mov    r15,QWORD PTR [rsp+0x28]
    4c5f:	movsd  QWORD PTR [rsp+0xe0],xmm0
    4c68:	movsd  QWORD PTR [rsp+0xe8],xmm1
    4c71:	lea    rbp,[r15-0x240]
    4c78:	mov    rcx,rbp
    4c7b:	mov    edx,r13d
    4c7e:	mov    esi,r12d
    4c81:	mov    rdi,rbx
    4c84:	call   15670 <left_su2_hit_n>
    4c89:	add    rbp,0x90
    4c90:	cmp    rbp,r15
    4c93:	jne    4c78 <do_hit+0x328>
    4c95:	lea    r15,[rip+0x1dbc4]        # 22860 <gen_pt>
    4c9c:	lea    rbp,[r15+0x20]
    4ca0:	mov    rax,QWORD PTR [r15]
    4ca3:	mov    rcx,QWORD PTR [rsp+0x18]
    4ca8:	mov    edx,r13d
    4cab:	mov    esi,r12d
    4cae:	mov    rdi,rbx
    4cb1:	add    r15,0x8
    4cb5:	mov    rcx,QWORD PTR [rax+rcx*1]
    4cb9:	call   156d0 <right_su2_hit_a>
    4cbe:	cmp    rbp,r15
    4cc1:	jne    4ca0 <do_hit+0x350>
    4cc3:	mov    ecx,DWORD PTR [rsp+0x5c]
    4cc7:	mov    r15,QWORD PTR [rsp+0x78]
    4ccc:	mov    rbp,QWORD PTR [rsp+0x60]
    4cd1:	test   ecx,ecx
    4cd3:	jle    4d4d <do_hit+0x3fd>
    4cd5:	mov    DWORD PTR [rsp+0x10],r12d
    4cda:	mov    r12,rbp
    4cdd:	mov    rbp,QWORD PTR [rsp+0x98]
    4ce5:	mov    DWORD PTR [rsp+0x40],r13d
    4cea:	mov    r13,rbx
    4ced:	mov    rbx,r15
    4cf0:	mov    r15,QWORD PTR [rsp+0x90]
    4cf8:	jmp    4d12 <do_hit+0x3c2>
    4cfa:	nop    WORD PTR [rax+rax*1+0x0]
    4d00:	cmp    edx,r14d
    4d03:	je     4d1b <do_hit+0x3cb>
    4d05:	add    r12,0x4
    4d09:	add    rbx,0x4
    4d0d:	cmp    rbp,r12
    4d10:	je     4d40 <do_hit+0x3f0>
    4d12:	mov    edx,DWORD PTR [r12]
    4d16:	cmp    edx,0x3
    4d19:	jne    4d00 <do_hit+0x3b0>
    4d1b:	movsxd rsi,DWORD PTR [rbx]
    4d1e:	add    rsi,QWORD PTR [rsp]
    4d22:	mov    rdi,r13
    4d25:	add    r12,0x4
    4d29:	lea    rdx,[rsi+r15*1]
    4d2d:	add    rsi,QWORD PTR [rsp+0x20]
    4d32:	add    rbx,0x4
    4d36:	call   15570 <mult_su2_mat_vec_elem_n>
    4d3b:	cmp    rbp,r12
    4d3e:	jne    4d12 <do_hit+0x3c2>
    4d40:	mov    rbx,r13
    4d43:	mov    r12d,DWORD PTR [rsp+0x10]
    4d48:	mov    r13d,DWORD PTR [rsp+0x40]
    4d4d:	mov    edx,DWORD PTR [rsp+0x1d8]
    4d54:	mov    r15,QWORD PTR [rsp+0x80]
    4d5c:	lea    rbp,[rsp+0xf0]
    4d64:	mov    rax,QWORD PTR [rsp+0x68]
    4d69:	test   edx,edx
    4d6b:	jle    4df9 <do_hit+0x4a9>
    4d71:	mov    r9d,r14d
    4d74:	mov    r14,rbx
    4d77:	mov    rbx,r15
    4d7a:	mov    r15,rax
    4d7d:	jmp    4d94 <do_hit+0x444>
    4d7f:	nop
    4d80:	cmp    edx,0x3
    4d83:	je     4d9c <do_hit+0x44c>
    4d85:	add    r15,0x4
    4d89:	add    rbx,0x4
    4d8d:	cmp    QWORD PTR [rsp+0x8],r15
    4d92:	je     4df6 <do_hit+0x4a6>
    4d94:	mov    edx,DWORD PTR [r15]
    4d97:	cmp    edx,r9d
    4d9a:	jne    4d80 <do_hit+0x430>
    4d9c:	movsxd rdi,DWORD PTR [rbx]
    4d9f:	mov    rsi,rbp
    4da2:	add    rdi,QWORD PTR [rsp]
    4da6:	mov    DWORD PTR [rsp+0x10],r9d
    4dab:	call   14d10 <uncompress_anti_hermitian>
    4db0:	mov    rcx,rbp
    4db3:	mov    edx,r13d
    4db6:	mov    esi,r12d
    4db9:	mov    rdi,r14
    4dbc:	add    r15,0x4
    4dc0:	add    rbx,0x4
    4dc4:	call   15670 <left_su2_hit_n>
    4dc9:	mov    rcx,rbp
    4dcc:	mov    edx,r13d
    4dcf:	mov    esi,r12d
    4dd2:	mov    rdi,r14
    4dd5:	call   156d0 <right_su2_hit_a>
    4dda:	movsxd rsi,DWORD PTR [rbx-0x4]
    4dde:	mov    rdi,rbp
    4de1:	add    rsi,QWORD PTR [rsp]
    4de5:	call   14610 <make_anti_hermitian>
    4dea:	mov    r9d,DWORD PTR [rsp+0x10]
    4def:	cmp    QWORD PTR [rsp+0x8],r15
    4df4:	jne    4d94 <do_hit+0x444>
    4df6:	mov    r14d,r9d
    4df9:	add    DWORD PTR [rsp+0x58],0x1
    4dfe:	add    QWORD PTR [rsp+0x18],0x8
    4e04:	add    QWORD PTR [rsp+0x28],0x800
    4e0d:	jmp    4a68 <do_hit+0x118>
    4e12:	nop    WORD PTR [rax+rax*1+0x0]
    4e18:	mov    rax,QWORD PTR [rsp+0x18]
    4e1d:	mov    rdi,QWORD PTR [rsp+0x30]
    4e22:	mov    rdx,QWORD PTR [rip+0x1ddb7]        # 22be0 <diffmatp>
    4e29:	mov    rbx,QWORD PTR [rsp+0x38]
    4e2e:	lea    rax,[rax+rax*8]
    4e32:	mov    rcx,QWORD PTR [rsp+0x88]
    4e3a:	lea    rdx,[rdx+rax*2]
    4e3e:	lea    rax,[rdi+rdi*2]
    4e42:	shl    rdi,0x6
    4e46:	add    rax,rbx
    4e49:	shl    rcx,0x4
    4e4d:	movsd  xmm6,QWORD PTR [rdx+rdi*1+0x8]
    4e53:	shl    rax,0x4
    4e57:	add    rcx,rdx
    4e5a:	add    rax,rdx
    4e5d:	movsd  xmm1,QWORD PTR [rcx+0x8]
    4e62:	movsd  xmm3,QWORD PTR [rax]
    4e66:	addsd  xmm1,QWORD PTR [rax+0x8]
    4e6b:	mov    rax,rbx
    4e6e:	shl    rax,0x6
    4e72:	subsd  xmm3,QWORD PTR [rcx]
    4e76:	subsd  xmm6,QWORD PTR [rdx+rax*1+0x8]
    4e7c:	jmp    4b24 <do_hit+0x1d4>
    4e81:	nop    DWORD PTR [rax+0x0]
    4e88:	mov    rax,QWORD PTR [rsp+0x18]
    4e8d:	mov    rdx,QWORD PTR [rip+0x1dd3c]        # 22bd0 <sumvecp>
    4e94:	lea    rax,[rax+rax*2]
    4e98:	lea    rax,[rdx+rax*2]
    4e9c:	jmp    4aa5 <do_hit+0x155>
    4ea1:	nop    DWORD PTR [rax+0x0]
    4ea8:	mov    rax,QWORD PTR [rsp+0x188]
    4eb0:	xor    rax,QWORD PTR fs:0x28
    4eb9:	jne    4f46 <do_hit+0x5f6>
    4ebf:	add    rsp,0x198
    4ec6:	pop    rbx
    4ec7:	pop    rbp
    4ec8:	pop    r12
    4eca:	pop    r13
    4ecc:	pop    r14
    4ece:	pop    r15
    4ed0:	ret    
    4ed1:	movsxd rdx,DWORD PTR [rip+0x1d7ac]        # 22684 <even_sites_on_node>
    4ed8:	mov    rax,rdx
    4edb:	mov    DWORD PTR [rsp+0x58],edx
    4edf:	shl    rax,0xb
    4ee3:	jmp    49d6 <do_hit+0x86>
    4ee8:	movsd  QWORD PTR [rsp+0xa8],xmm5
    4ef1:	movsd  QWORD PTR [rsp+0xa0],xmm2
    4efa:	movsd  QWORD PTR [rsp+0x50],xmm6
    4f00:	movsd  QWORD PTR [rsp+0x48],xmm3
    4f06:	movsd  QWORD PTR [rsp+0x40],xmm1
    4f0c:	movsd  QWORD PTR [rsp+0x10],xmm4
    4f12:	call   24e0 <sqrt@plt>
    4f17:	movsd  xmm6,QWORD PTR [rsp+0x50]
    4f1d:	movsd  xmm5,QWORD PTR [rsp+0xa8]
    4f26:	movsd  xmm2,QWORD PTR [rsp+0xa0]
    4f2f:	movsd  xmm3,QWORD PTR [rsp+0x48]
    4f35:	movsd  xmm1,QWORD PTR [rsp+0x40]
    4f3b:	movsd  xmm4,QWORD PTR [rsp+0x10]
    4f41:	jmp    4b8c <do_hit+0x23c>
    4f46:	call   2350 <__stack_chk_fail@plt>
    4f4b:	nop    DWORD PTR [rax+rax*1+0x0]

0000000000004f50 <get_gauge_fix_action>:
    4f50:	endbr64 
    4f54:	push   r15
    4f56:	mov    eax,esi
    4f58:	push   r14
    4f5a:	push   r13
    4f5c:	push   r12
    4f5e:	mov    r12d,edi
    4f61:	push   rbp
    4f62:	push   rbx
    4f63:	sub    rsp,0x28
    4f67:	mov    DWORD PTR [rsp+0xc],esi
    4f6b:	mov    rsi,QWORD PTR fs:0x28
    4f74:	mov    QWORD PTR [rsp+0x18],rsi
    4f79:	xor    esi,esi
    4f7b:	mov    QWORD PTR [rsp+0x10],0x0
    4f84:	cmp    eax,0x1
    4f87:	je     50a4 <get_gauge_fix_action+0x154>
    4f8d:	mov    DWORD PTR [rsp+0x8],0x0
    4f95:	xor    eax,eax
    4f97:	xor    ebp,ebp
    4f99:	mov    rdx,QWORD PTR [rip+0x1d828]        # 227c8 <lattice>
    4fa0:	shl    rbp,0x3
    4fa4:	lea    r15,[rip+0x1d8b5]        # 22860 <gen_pt>
    4fab:	lea    rax,[rdx+rax*1+0x70]
    4fb0:	mov    QWORD PTR [rsp],rax
    4fb4:	nop    DWORD PTR [rax+0x0]
    4fb8:	mov    eax,DWORD PTR [rip+0x1d6c6]        # 22684 <even_sites_on_node>
    4fbe:	cmp    DWORD PTR [rsp+0xc],0x2
    4fc3:	cmovne eax,DWORD PTR [rip+0x1d536]        # 22500 <sites_on_node>
    4fca:	cmp    DWORD PTR [rsp+0x8],eax
    4fce:	jge    5030 <get_gauge_fix_action+0xe0>
    4fd0:	mov    r14,QWORD PTR [rsp]
    4fd4:	xor    ebx,ebx
    4fd6:	cmp    r12d,ebx
    4fd9:	je     500b <get_gauge_fix_action+0xbb>
    4fdb:	mov    rdx,QWORD PTR [r15+rbx*8]
    4fdf:	mov    rdi,r14
    4fe2:	mov    r13,QWORD PTR [rdx+rbp*1]
    4fe6:	call   14ce0 <trace_su3>
    4feb:	addsd  xmm0,QWORD PTR [rsp+0x10]
    4ff1:	mov    rdi,r13
    4ff4:	movsd  QWORD PTR [rsp+0x10],xmm0
    4ffa:	call   14ce0 <trace_su3>
    4fff:	addsd  xmm0,QWORD PTR [rsp+0x10]
    5005:	movsd  QWORD PTR [rsp+0x10],xmm0
    500b:	add    rbx,0x1
    500f:	add    r14,0x90
    5016:	cmp    rbx,0x4
    501a:	jne    4fd6 <get_gauge_fix_action+0x86>
    501c:	add    DWORD PTR [rsp+0x8],0x1
    5021:	add    rbp,0x8
    5025:	add    QWORD PTR [rsp],0x800
    502d:	jmp    4fb8 <get_gauge_fix_action+0x68>
    502f:	nop
    5030:	xor    ebx,ebx
    5032:	xor    eax,eax
    5034:	xor    edx,edx
    5036:	cmp    r12d,eax
    5039:	setne  dl
    503c:	add    eax,0x1
    503f:	add    ebx,edx
    5041:	cmp    eax,0x4
    5044:	jne    5034 <get_gauge_fix_action+0xe4>
    5046:	lea    rdi,[rsp+0x10]
    504b:	call   193f0 <g_doublesum>
    5050:	mov    eax,DWORD PTR [rip+0x1d382]        # 223d8 <nx>
    5056:	pxor   xmm1,xmm1
    505a:	movsd  xmm0,QWORD PTR [rsp+0x10]
    5060:	imul   eax,ebx
    5063:	imul   eax,DWORD PTR [rip+0x1d7d2]        # 2283c <ny>
    506a:	imul   eax,DWORD PTR [rip+0x1d363]        # 223d4 <nz>
    5071:	imul   eax,DWORD PTR [rip+0x1d358]        # 223d0 <nt>
    5078:	lea    eax,[rax+rax*2]
    507b:	add    eax,eax
    507d:	cvtsi2sd xmm1,eax
    5081:	mov    rax,QWORD PTR [rsp+0x18]
    5086:	xor    rax,QWORD PTR fs:0x28
    508f:	divsd  xmm0,xmm1
    5093:	jne    50bb <get_gauge_fix_action+0x16b>
    5095:	add    rsp,0x28
    5099:	pop    rbx
    509a:	pop    rbp
    509b:	pop    r12
    509d:	pop    r13
    509f:	pop    r14
    50a1:	pop    r15
    50a3:	ret    
    50a4:	movsxd rbp,DWORD PTR [rip+0x1d5d9]        # 22684 <even_sites_on_node>
    50ab:	mov    rax,rbp
    50ae:	mov    DWORD PTR [rsp+0x8],ebp
    50b2:	shl    rax,0xb
    50b6:	jmp    4f99 <get_gauge_fix_action+0x49>
    50bb:	call   2350 <__stack_chk_fail@plt>

00000000000050c0 <gaugefixstep>:
    50c0:	endbr64 
    50c4:	push   r15
    50c6:	push   r14
    50c8:	push   r13
    50ca:	push   r12
    50cc:	push   rbp
    50cd:	push   rbx
    50ce:	mov    ebx,0x1
    50d3:	sub    rsp,0xb8
    50da:	mov    rax,QWORD PTR [rsp+0xf0]
    50e2:	mov    DWORD PTR [rsp+0x34],edi
    50e6:	mov    QWORD PTR [rsp+0x38],rsi
    50eb:	mov    QWORD PTR [rsp+0x20],rax
    50f0:	mov    rax,QWORD PTR [rsp+0xf8]
    50f8:	mov    DWORD PTR [rsp+0x50],edx
    50fc:	mov    QWORD PTR [rsp+0x40],rcx
    5101:	mov    QWORD PTR [rsp+0x48],r8
    5106:	mov    DWORD PTR [rsp+0x54],r9d
    510b:	mov    QWORD PTR [rsp+0x28],rax
    5110:	movsd  QWORD PTR [rsp+0x18],xmm0
    5116:	mov    rax,QWORD PTR fs:0x28
    511f:	mov    QWORD PTR [rsp+0xa8],rax
    5127:	xor    eax,eax
    5129:	mov    QWORD PTR [rsi],0x0
    5130:	call   193d0 <g_sync>
    5135:	mov    rdi,QWORD PTR [rip+0x1d1a4]        # 222e0 <stdout@@GLIBC_2.2.5>
    513c:	call   2420 <fflush@plt>
    5141:	lea    rax,[rsp+0x60]
    5146:	mov    QWORD PTR [rsp+0x10],rax
    514b:	lea    rax,[rsp+0x80]
    5153:	mov    QWORD PTR [rsp+0x58],rax
    5158:	mov    r13,QWORD PTR [rsp+0x10]
    515d:	mov    r12d,0x70
    5163:	xor    ebp,ebp
    5165:	mov    edx,0x7
    516a:	mov    edi,r12d
    516d:	mov    ecx,ebx
    516f:	mov    esi,0x90
    5174:	lea    rax,[rip+0x1d6e5]        # 22860 <gen_pt>
    517b:	sub    edx,ebp
    517d:	add    r12,0x90
    5184:	mov    r8,QWORD PTR [rax+rbp*8]
    5188:	call   18f40 <start_gather>
    518d:	mov    QWORD PTR [r13+rbp*8+0x0],rax
    5192:	add    rbp,0x1
    5196:	cmp    rbp,0x4
    519a:	jne    5165 <gaugefixstep+0xa5>
    519c:	mov    rbp,QWORD PTR [rsp+0x10]
    51a1:	mov    r12,QWORD PTR [rsp+0x58]
    51a6:	mov    rdi,QWORD PTR [rbp+0x0]
    51aa:	add    rbp,0x8
    51ae:	call   19170 <wait_gather>
    51b3:	cmp    rbp,r12
    51b6:	jne    51a6 <gaugefixstep+0xe6>
    51b8:	mov    r15d,DWORD PTR [rsp+0x34]
    51bd:	mov    esi,ebx
    51bf:	mov    edi,r15d
    51c2:	call   4f50 <get_gauge_fix_action>
    51c7:	push   QWORD PTR [rsp+0x28]
    51cb:	mov    ecx,0x1
    51d0:	xor    edx,edx
    51d2:	push   QWORD PTR [rsp+0x28]
    51d6:	mov    esi,ebx
    51d8:	mov    edi,r15d
    51db:	mov    r14d,DWORD PTR [rsp+0x64]
    51e0:	push   r14
    51e2:	mov    r13,QWORD PTR [rsp+0x60]
    51e7:	push   r13
    51e9:	mov    r12,QWORD PTR [rsp+0x60]
    51ee:	mov    ebp,DWORD PTR [rsp+0x70]
    51f2:	movsd  xmm0,QWORD PTR [rsp+0x38]
    51f8:	mov    r9,r12
    51fb:	mov    r8d,ebp
    51fe:	call   4950 <do_hit>
    5203:	add    rsp,0x20
    5207:	mov    r9,r12
    520a:	mov    r8d,ebp
    520d:	push   QWORD PTR [rsp+0x28]
    5211:	mov    ecx,0x2
    5216:	mov    edx,0x1
    521b:	mov    esi,ebx
    521d:	push   QWORD PTR [rsp+0x28]
    5221:	mov    edi,r15d
    5224:	push   r14
    5226:	push   r13
    5228:	movsd  xmm0,QWORD PTR [rsp+0x38]
    522e:	call   4950 <do_hit>
    5233:	add    rsp,0x20
    5237:	mov    r9,r12
    523a:	mov    r8d,ebp
    523d:	push   QWORD PTR [rsp+0x28]
    5241:	xor    ecx,ecx
    5243:	mov    edx,0x2
    5248:	mov    esi,ebx
    524a:	push   QWORD PTR [rsp+0x28]
    524e:	mov    edi,r15d
    5251:	lea    rbp,[rip+0x1d608]        # 22860 <gen_pt>
    5258:	xor    r12d,r12d
    525b:	push   r14
    525d:	push   r13
    525f:	movsd  xmm0,QWORD PTR [rsp+0x38]
    5265:	call   4950 <do_hit>
    526a:	add    rsp,0x20
    526e:	mov    esi,ebx
    5270:	mov    edi,r15d
    5273:	call   4f50 <get_gauge_fix_action>
    5278:	mov    rax,QWORD PTR [rsp+0x38]
    527d:	mov    QWORD PTR [rsp+0x8],0x70
    5286:	addsd  xmm0,QWORD PTR [rax]
    528a:	movsd  QWORD PTR [rax],xmm0
    528e:	mov    eax,ebx
    5290:	xor    eax,0x3
    5293:	mov    DWORD PTR [rsp+0x30],eax
    5297:	xor    eax,eax
    5299:	mov    DWORD PTR [rsp],r12d
    529d:	call   193d0 <g_sync>
    52a2:	cmp    ebx,0x1
    52a5:	je     5458 <gaugefixstep+0x398>
    52ab:	xor    r8d,r8d
    52ae:	xor    r13d,r13d
    52b1:	xor    edx,edx
    52b3:	add    r8,QWORD PTR [rip+0x1d50e]        # 227c8 <lattice>
    52ba:	lea    r14,[rdx*8+0x0]
    52c2:	mov    r15,r8
    52c5:	jmp    52e7 <gaugefixstep+0x227>
    52c7:	nop    WORD PTR [rax+rax*1+0x0]
    52d0:	add    rsi,r15
    52d3:	call   14bf0 <su3mat_copy>
    52d8:	add    r13d,0x1
    52dc:	add    r15,0x800
    52e3:	add    r14,0x8
    52e7:	mov    eax,DWORD PTR [rip+0x1d397]        # 22684 <even_sites_on_node>
    52ed:	cmp    ebx,0x2
    52f0:	cmovne eax,DWORD PTR [rip+0x1d209]        # 22500 <sites_on_node>
    52f7:	cmp    r13d,eax
    52fa:	jge    5328 <gaugefixstep+0x268>
    52fc:	mov    rax,QWORD PTR [rbp+0x0]
    5300:	movsxd rsi,DWORD PTR [rip+0x1d8e1]        # 22be8 <diffmat_offset>
    5307:	mov    rdi,QWORD PTR [rax+r14*1]
    530b:	test   esi,esi
    530d:	jns    52d0 <gaugefixstep+0x210>
    530f:	mov    rdx,QWORD PTR [rip+0x1d8ca]        # 22be0 <diffmatp>
    5316:	lea    rax,[r14+r14*8]
    531a:	lea    rsi,[rdx+rax*2]
    531e:	call   14bf0 <su3mat_copy>
    5323:	jmp    52d8 <gaugefixstep+0x218>
    5325:	nop    DWORD PTR [rax]
    5328:	mov    r15,QWORD PTR [rsp+0x10]
    532d:	mov    rdi,QWORD PTR [r15+r12*8]
    5331:	call   19180 <cleanup_gather>
    5336:	xor    eax,eax
    5338:	call   193d0 <g_sync>
    533d:	mov    edi,DWORD PTR [rip+0x1d8a5]        # 22be8 <diffmat_offset>
    5343:	mov    edx,DWORD PTR [rsp]
    5346:	mov    esi,0x90
    534b:	mov    r8,QWORD PTR [rbp+0x0]
    534f:	mov    ecx,DWORD PTR [rsp+0x30]
    5353:	test   edi,edi
    5355:	js     5410 <gaugefixstep+0x350>
    535b:	call   18f40 <start_gather>
    5360:	mov    QWORD PTR [r15+r12*8],rax
    5364:	mov    QWORD PTR [rsp],rax
    5368:	mov    rdi,QWORD PTR [rsp]
    536c:	call   19170 <wait_gather>
    5371:	cmp    ebx,0x2
    5374:	je     543b <gaugefixstep+0x37b>
    537a:	xor    edx,edx
    537c:	xor    r13d,r13d
    537f:	xor    ecx,ecx
    5381:	add    rdx,QWORD PTR [rsp+0x8]
    5386:	add    rdx,QWORD PTR [rip+0x1d43b]        # 227c8 <lattice>
    538d:	lea    r15,[rcx*8+0x0]
    5395:	mov    r14,rdx
    5398:	jmp    53bf <gaugefixstep+0x2ff>
    539a:	nop    WORD PTR [rax+rax*1+0x0]
    53a0:	mov    rax,QWORD PTR [rbp+0x0]
    53a4:	mov    rsi,r14
    53a7:	add    r13d,0x1
    53ab:	add    r14,0x800
    53b2:	mov    rdi,QWORD PTR [rax+r15*1]
    53b6:	add    r15,0x8
    53ba:	call   14bf0 <su3mat_copy>
    53bf:	mov    eax,DWORD PTR [rip+0x1d2bf]        # 22684 <even_sites_on_node>
    53c5:	cmp    ebx,0x1
    53c8:	cmovne eax,DWORD PTR [rip+0x1d131]        # 22500 <sites_on_node>
    53cf:	cmp    r13d,eax
    53d2:	jl     53a0 <gaugefixstep+0x2e0>
    53d4:	mov    rdi,QWORD PTR [rsp]
    53d8:	add    r12,0x1
    53dc:	add    rbp,0x8
    53e0:	call   19180 <cleanup_gather>
    53e5:	add    QWORD PTR [rsp+0x8],0x90
    53ee:	cmp    r12,0x4
    53f2:	jne    5297 <gaugefixstep+0x1d7>
    53f8:	cmp    ebx,0x2
    53fb:	je     5470 <gaugefixstep+0x3b0>
    53fd:	mov    ebx,0x2
    5402:	jmp    5158 <gaugefixstep+0x98>
    5407:	nop    WORD PTR [rax+rax*1+0x0]
    5410:	mov    rdi,QWORD PTR [rip+0x1d7c9]        # 22be0 <diffmatp>
    5417:	call   19070 <start_gather_from_temp>
    541c:	mov    rcx,QWORD PTR [rsp+0x10]
    5421:	mov    QWORD PTR [rsp],rax
    5425:	mov    rdi,QWORD PTR [rsp]
    5429:	mov    QWORD PTR [rcx+r12*8],rax
    542d:	call   19170 <wait_gather>
    5432:	cmp    ebx,0x2
    5435:	jne    537a <gaugefixstep+0x2ba>
    543b:	movsxd rcx,DWORD PTR [rip+0x1d242]        # 22684 <even_sites_on_node>
    5442:	mov    rdx,rcx
    5445:	mov    r13,rcx
    5448:	shl    rdx,0xb
    544c:	jmp    5381 <gaugefixstep+0x2c1>
    5451:	nop    DWORD PTR [rax+0x0]
    5458:	movsxd rdx,DWORD PTR [rip+0x1d225]        # 22684 <even_sites_on_node>
    545f:	mov    r8,rdx
    5462:	mov    r13,rdx
    5465:	shl    r8,0xb
    5469:	jmp    52b3 <gaugefixstep+0x1f3>
    546e:	xchg   ax,ax
    5470:	mov    rax,QWORD PTR [rsp+0xa8]
    5478:	xor    rax,QWORD PTR fs:0x28
    5481:	jne    5495 <gaugefixstep+0x3d5>
    5483:	add    rsp,0xb8
    548a:	pop    rbx
    548b:	pop    rbp
    548c:	pop    r12
    548e:	pop    r13
    5490:	pop    r14
    5492:	pop    r15
    5494:	ret    
    5495:	call   2350 <__stack_chk_fail@plt>
    549a:	nop    WORD PTR [rax+rax*1+0x0]

00000000000054a0 <gaugefixscratch>:
    54a0:	endbr64 
    54a4:	push   rbx
    54a5:	mov    ebx,esi
    54a7:	mov    DWORD PTR [rip+0x1d73b],edi        # 22be8 <diffmat_offset>
    54ad:	mov    QWORD PTR [rip+0x1d728],0x0        # 22be0 <diffmatp>
    54b8:	test   edi,edi
    54ba:	js     5518 <gaugefixscratch+0x78>
    54bc:	mov    DWORD PTR [rip+0x1d716],ebx        # 22bd8 <sumvec_offset>
    54c2:	mov    QWORD PTR [rip+0x1d703],0x0        # 22bd0 <sumvecp>
    54cd:	test   ebx,ebx
    54cf:	js     54d8 <gaugefixscratch+0x38>
    54d1:	pop    rbx
    54d2:	ret    
    54d3:	nop    DWORD PTR [rax+rax*1+0x0]
    54d8:	movsxd rdi,DWORD PTR [rip+0x1d021]        # 22500 <sites_on_node>
    54df:	mov    esi,0x30
    54e4:	call   23d0 <calloc@plt>
    54e9:	mov    QWORD PTR [rip+0x1d6e0],rax        # 22bd0 <sumvecp>
    54f0:	test   rax,rax
    54f3:	jne    54d1 <gaugefixscratch+0x31>
    54f5:	cmp    DWORD PTR [rip+0x1d3e8],0x0        # 228e4 <this_node>
    54fc:	je     5567 <gaugefixscratch+0xc7>
    54fe:	mov    rdi,QWORD PTR [rip+0x1cddb]        # 222e0 <stdout@@GLIBC_2.2.5>
    5505:	call   2420 <fflush@plt>
    550a:	mov    edi,0x1
    550f:	pop    rbx
    5510:	jmp    19570 <terminate>
    5515:	nop    DWORD PTR [rax]
    5518:	movsxd rdi,DWORD PTR [rip+0x1cfe1]        # 22500 <sites_on_node>
    551f:	mov    esi,0x90
    5524:	call   23d0 <calloc@plt>
    5529:	mov    QWORD PTR [rip+0x1d6b0],rax        # 22be0 <diffmatp>
    5530:	test   rax,rax
    5533:	jne    54bc <gaugefixscratch+0x1c>
    5535:	cmp    DWORD PTR [rip+0x1d3a8],0x0        # 228e4 <this_node>
    553c:	je     5559 <gaugefixscratch+0xb9>
    553e:	mov    rdi,QWORD PTR [rip+0x1cd9b]        # 222e0 <stdout@@GLIBC_2.2.5>
    5545:	call   2420 <fflush@plt>
    554a:	mov    edi,0x1
    554f:	call   19570 <terminate>
    5554:	jmp    54bc <gaugefixscratch+0x1c>
    5559:	lea    rdi,[rip+0x150a0]        # 1a600 <_IO_stdin_used+0x600>
    5560:	call   22f0 <puts@plt>
    5565:	jmp    553e <gaugefixscratch+0x9e>
    5567:	lea    rdi,[rip+0x150e9]        # 1a657 <_IO_stdin_used+0x657>
    556e:	call   22f0 <puts@plt>
    5573:	jmp    54fe <gaugefixscratch+0x5e>
    5575:	data16 nop WORD PTR cs:[rax+rax*1+0x0]

0000000000005580 <gaugefix>:
    5580:	endbr64 
    5584:	push   r15
    5586:	push   r14
    5588:	mov    r14d,esi
    558b:	push   r13
    558d:	push   r12
    558f:	mov    r12,r9
    5592:	push   rbp
    5593:	mov    ebp,r8d
    5596:	push   rbx
    5597:	mov    ebx,edi
    5599:	mov    edi,edx
    559b:	sub    rsp,0x58
    559f:	mov    rax,QWORD PTR [rsp+0xa0]
    55a7:	mov    DWORD PTR [rsp+0x2c],esi
    55ab:	mov    esi,ecx
    55ad:	movsd  QWORD PTR [rsp+0x10],xmm0
    55b3:	mov    r13,QWORD PTR [rsp+0x90]
    55bb:	mov    QWORD PTR [rsp+0x18],rax
    55c0:	mov    rax,QWORD PTR [rsp+0xa8]
    55c8:	movsd  QWORD PTR [rsp+0x30],xmm1
    55ce:	mov    QWORD PTR [rsp+0x20],rax
    55d3:	mov    rax,QWORD PTR fs:0x28
    55dc:	mov    QWORD PTR [rsp+0x48],rax
    55e1:	xor    eax,eax
    55e3:	call   54a0 <gaugefixscratch>
    55e8:	test   r14d,r14d
    55eb:	mov    r14d,0x0
    55f1:	jle    56e7 <gaugefix+0x167>
    55f7:	lea    r15,[rsp+0x40]
    55fc:	mov    rax,r15
    55ff:	mov    r15d,r14d
    5602:	mov    r14,rax
    5605:	jmp    5679 <gaugefix+0xf9>
    5607:	nop    WORD PTR [rax+rax*1+0x0]
    5610:	movsd  xmm0,QWORD PTR [rsp+0x40]
    5616:	mov    eax,r15d
    5619:	mov    edx,0xcccccccd
    561e:	mov    ecx,r15d
    5621:	imul   rax,rdx
    5625:	movsd  xmm4,QWORD PTR [rsp+0x30]
    562b:	movapd xmm2,xmm0
    562f:	subsd  xmm2,QWORD PTR [rsp+0x8]
    5635:	shr    rax,0x24
    5639:	lea    eax,[rax+rax*4]
    563c:	movapd xmm1,xmm2
    5640:	andpd  xmm1,XMMWORD PTR [rip+0x14f88]        # 1a5d0 <_IO_stdin_used+0x5d0>
    5648:	movsd  QWORD PTR [rsp+0x38],xmm2
    564e:	shl    eax,0x2
    5651:	sub    ecx,eax
    5653:	comisd xmm4,xmm1
    5657:	mov    eax,ecx
    5659:	ja     57a8 <gaugefix+0x228>
    565f:	movsd  QWORD PTR [rsp+0x8],xmm0
    5665:	cmp    ecx,0x13
    5668:	je     5730 <gaugefix+0x1b0>
    566e:	add    r15d,0x1
    5672:	cmp    DWORD PTR [rsp+0x2c],r15d
    5677:	je     56c3 <gaugefix+0x143>
    5679:	push   QWORD PTR [rsp+0x20]
    567d:	mov    rsi,r14
    5680:	mov    edi,ebx
    5682:	mov    r8,r13
    5685:	push   QWORD PTR [rsp+0x20]
    5689:	mov    rcx,r12
    568c:	mov    edx,ebp
    568e:	mov    r9d,DWORD PTR [rsp+0xa8]
    5696:	movsd  xmm0,QWORD PTR [rsp+0x20]
    569c:	call   50c0 <gaugefixstep>
    56a1:	pop    rsi
    56a2:	pop    rdi
    56a3:	test   r15d,r15d
    56a6:	jne    5610 <gaugefix+0x90>
    56ac:	movsd  xmm5,QWORD PTR [rsp+0x40]
    56b2:	add    r15d,0x1
    56b6:	movsd  QWORD PTR [rsp+0x8],xmm5
    56bc:	cmp    DWORD PTR [rsp+0x2c],r15d
    56c1:	jne    5679 <gaugefix+0xf9>
    56c3:	mov    eax,r15d
    56c6:	mov    edx,0xcccccccd
    56cb:	mov    r14,rax
    56ce:	imul   rax,rdx
    56d2:	mov    ebx,r14d
    56d5:	shr    rax,0x24
    56d9:	lea    eax,[rax+rax*4]
    56dc:	shl    eax,0x2
    56df:	sub    ebx,eax
    56e1:	mov    eax,ebx
    56e3:	test   eax,eax
    56e5:	jne    5740 <gaugefix+0x1c0>
    56e7:	mov    ecx,DWORD PTR [rip+0x1d4fb]        # 22be8 <diffmat_offset>
    56ed:	test   ecx,ecx
    56ef:	js     574f <gaugefix+0x1cf>
    56f1:	mov    edx,DWORD PTR [rip+0x1d4e1]        # 22bd8 <sumvec_offset>
    56f7:	test   edx,edx
    56f9:	js     5765 <gaugefix+0x1e5>
    56fb:	mov    eax,DWORD PTR [rip+0x1d1e3]        # 228e4 <this_node>
    5701:	test   eax,eax
    5703:	je     577b <gaugefix+0x1fb>
    5705:	mov    rax,QWORD PTR [rsp+0x48]
    570a:	xor    rax,QWORD PTR fs:0x28
    5713:	jne    57b0 <gaugefix+0x230>
    5719:	add    rsp,0x58
    571d:	pop    rbx
    571e:	pop    rbp
    571f:	pop    r12
    5721:	pop    r13
    5723:	pop    r14
    5725:	pop    r15
    5727:	ret    
    5728:	nop    DWORD PTR [rax+rax*1+0x0]
    5730:	call   eb90 <reunitarize>
    5735:	jmp    566e <gaugefix+0xee>
    573a:	nop    WORD PTR [rax+rax*1+0x0]
    5740:	call   eb90 <reunitarize>
    5745:	mov    ecx,DWORD PTR [rip+0x1d49d]        # 22be8 <diffmat_offset>
    574b:	test   ecx,ecx
    574d:	jns    56f1 <gaugefix+0x171>
    574f:	mov    rdi,QWORD PTR [rip+0x1d48a]        # 22be0 <diffmatp>
    5756:	call   22a0 <free@plt>
    575b:	mov    edx,DWORD PTR [rip+0x1d477]        # 22bd8 <sumvec_offset>
    5761:	test   edx,edx
    5763:	jns    56fb <gaugefix+0x17b>
    5765:	mov    rdi,QWORD PTR [rip+0x1d464]        # 22bd0 <sumvecp>
    576c:	call   22a0 <free@plt>
    5771:	mov    eax,DWORD PTR [rip+0x1d16d]        # 228e4 <this_node>
    5777:	test   eax,eax
    5779:	jne    5705 <gaugefix+0x185>
    577b:	movsd  xmm1,QWORD PTR [rsp+0x38]
    5781:	movsd  xmm0,QWORD PTR [rsp+0x40]
    5787:	mov    edx,r14d
    578a:	lea    rsi,[rip+0x14e8f]        # 1a620 <_IO_stdin_used+0x620>
    5791:	mov    edi,0x1
    5796:	mov    eax,0x2
    579b:	call   2470 <__printf_chk@plt>
    57a0:	jmp    5705 <gaugefix+0x185>
    57a5:	nop    DWORD PTR [rax]
    57a8:	mov    r14d,r15d
    57ab:	jmp    56e3 <gaugefix+0x163>
    57b0:	call   2350 <__stack_chk_fail@plt>
    57b5:	nop    WORD PTR cs:[rax+rax*1+0x0]
    57bf:	nop

00000000000057c0 <save_lattice>:
    57c0:	endbr64 
    57c4:	push   r12
    57c6:	push   rbp
    57c7:	mov    rbp,rsi
    57ca:	push   rbx
    57cb:	mov    ebx,edi
    57cd:	sub    rsp,0x30
    57d1:	mov    rax,QWORD PTR fs:0x28
    57da:	mov    QWORD PTR [rsp+0x28],rax
    57df:	xor    eax,eax
    57e1:	call   194f0 <dclock>
    57e6:	lea    edi,[rbx-0x14]
    57e9:	movsd  QWORD PTR [rsp+0x8],xmm0
    57ef:	cmp    edi,0xb
    57f2:	ja     5808 <save_lattice+0x48>
    57f4:	lea    rdx,[rip+0x15629]        # 1ae24 <_IO_stdin_used+0xe24>
    57fb:	movsxd rax,DWORD PTR [rdx+rdi*4]
    57ff:	add    rax,rdx
    5802:	notrack jmp rax
    5805:	nop    DWORD PTR [rax]
    5808:	lea    rdi,[rip+0x14e81]        # 1a690 <_IO_stdin_used+0x690>
    580f:	call   22f0 <puts@plt>
    5814:	mov    edi,0x1
    5819:	call   19570 <terminate>
    581e:	xchg   ax,ax
    5820:	xor    eax,eax
    5822:	call   194f0 <dclock>
    5827:	mov    eax,DWORD PTR [rip+0x1d0b7]        # 228e4 <this_node>
    582d:	test   eax,eax
    582f:	je     5920 <save_lattice+0x160>
    5835:	lea    rsi,[rsp+0x20]
    583a:	lea    rdi,[rsp+0x18]
    583f:	call   42b0 <d_plaquette>
    5844:	mov    edx,DWORD PTR [rip+0x1d09a]        # 228e4 <this_node>
    584a:	test   edx,edx
    584c:	je     58f0 <save_lattice+0x130>
    5852:	mov    rax,QWORD PTR [rsp+0x28]
    5857:	xor    rax,QWORD PTR fs:0x28
    5860:	jne    5941 <save_lattice+0x181>
    5866:	add    rsp,0x30
    586a:	mov    rax,r12
    586d:	pop    rbx
    586e:	pop    rbp
    586f:	pop    r12
    5871:	ret    
    5872:	nop    WORD PTR [rax+rax*1+0x0]
    5878:	xor    eax,eax
    587a:	xor    r12d,r12d
    587d:	call   194f0 <dclock>
    5882:	jmp    5835 <save_lattice+0x75>
    5884:	nop    DWORD PTR [rax+0x0]
    5888:	mov    rdi,rbp
    588b:	call   c1b0 <save_ascii>
    5890:	mov    r12,rax
    5893:	jmp    5820 <save_lattice+0x60>
    5895:	nop    DWORD PTR [rax]
    5898:	mov    rdi,rbp
    589b:	call   c840 <save_serial>
    58a0:	mov    r12,rax
    58a3:	jmp    5820 <save_lattice+0x60>
    58a8:	nop    DWORD PTR [rax+rax*1+0x0]
    58b0:	mov    rdi,rbp
    58b3:	call   c8a0 <save_checkpoint>
    58b8:	mov    r12,rax
    58bb:	jmp    5820 <save_lattice+0x60>
    58c0:	mov    rdi,rbp
    58c3:	call   c870 <save_parallel>
    58c8:	mov    r12,rax
    58cb:	jmp    5820 <save_lattice+0x60>
    58d0:	mov    rdi,rbp
    58d3:	call   c8d0 <save_serial_archive>
    58d8:	mov    r12,rax
    58db:	jmp    5820 <save_lattice+0x60>
    58e0:	mov    rdi,rbp
    58e3:	call   d2a0 <save_parallel_archive>
    58e8:	mov    r12,rax
    58eb:	jmp    5820 <save_lattice+0x60>
    58f0:	movsd  xmm1,QWORD PTR [rsp+0x20]
    58f6:	movsd  xmm0,QWORD PTR [rsp+0x18]
    58fc:	mov    edi,0x1
    5901:	lea    rsi,[rip+0x15426]        # 1ad2e <_IO_stdin_used+0xd2e>
    5908:	mov    eax,0x2
    590d:	call   2470 <__printf_chk@plt>
    5912:	jmp    5852 <save_lattice+0x92>
    5917:	nop    WORD PTR [rax+rax*1+0x0]
    5920:	subsd  xmm0,QWORD PTR [rsp+0x8]
    5926:	mov    edi,0x1
    592b:	mov    eax,0x1
    5930:	lea    rsi,[rip+0x153e4]        # 1ad1b <_IO_stdin_used+0xd1b>
    5937:	call   2470 <__printf_chk@plt>
    593c:	jmp    5835 <save_lattice+0x75>
    5941:	call   2350 <__stack_chk_fail@plt>
    5946:	nop    WORD PTR cs:[rax+rax*1+0x0]

0000000000005950 <ask_starting_lattice>:
    5950:	endbr64 
    5954:	push   r14
    5956:	mov    r14,rdx
    5959:	push   r13
    595b:	push   r12
    595d:	push   rbp
    595e:	mov    rbp,rsi
    5961:	push   rbx
    5962:	mov    ebx,edi
    5964:	sub    rsp,0x110
    596b:	mov    rax,QWORD PTR fs:0x28
    5974:	mov    QWORD PTR [rsp+0x108],rax
    597c:	xor    eax,eax
    597e:	test   edi,edi
    5980:	jne    5aa0 <ask_starting_lattice+0x150>
    5986:	mov    r13,rsp
    5989:	lea    rdi,[rip+0x14938]        # 1a2c8 <_IO_stdin_used+0x2c8>
    5990:	xor    eax,eax
    5992:	mov    rsi,r13
    5995:	call   24a0 <__isoc99_scanf@plt>
    599a:	mov    r12d,eax
    599d:	cmp    eax,0x1
    59a0:	je     59e0 <ask_starting_lattice+0x90>
    59a2:	lea    rdi,[rip+0x14d77]        # 1a720 <_IO_stdin_used+0x720>
    59a9:	mov    r12d,0x1
    59af:	call   22f0 <puts@plt>
    59b4:	mov    rax,QWORD PTR [rsp+0x108]
    59bc:	xor    rax,QWORD PTR fs:0x28
    59c5:	jne    5bab <ask_starting_lattice+0x25b>
    59cb:	add    rsp,0x110
    59d2:	mov    eax,r12d
    59d5:	pop    rbx
    59d6:	pop    rbp
    59d7:	pop    r12
    59d9:	pop    r13
    59db:	pop    r14
    59dd:	ret    
    59de:	xchg   ax,ax
    59e0:	xor    eax,eax
    59e2:	mov    rdx,r13
    59e5:	mov    edi,0x1
    59ea:	lea    rsi,[rip+0x153fa]        # 1adeb <_IO_stdin_used+0xdeb>
    59f1:	call   2470 <__printf_chk@plt>
    59f6:	cmp    DWORD PTR [rsp],0x73657266
    59fd:	je     5ab8 <ask_starting_lattice+0x168>
    5a03:	movabs rax,0x65756e69746e6f63
    5a0d:	cmp    QWORD PTR [rsp],rax
    5a11:	je     5b28 <ask_starting_lattice+0x1d8>
    5a17:	movabs rax,0x615f64616f6c6572
    5a21:	cmp    QWORD PTR [rsp],rax
    5a25:	je     5af0 <ask_starting_lattice+0x1a0>
    5a2b:	movabs rax,0x735f64616f6c6572
    5a35:	cmp    QWORD PTR [rsp],rax
    5a39:	je     5b68 <ask_starting_lattice+0x218>
    5a3f:	movabs rdx,0x6c656c6c617261
    5a49:	xor    rdx,QWORD PTR [rsp+0x8]
    5a4e:	movabs rax,0x705f64616f6c6572
    5a58:	xor    rax,QWORD PTR [rsp]
    5a5c:	or     rdx,rax
    5a5f:	jne    5b90 <ask_starting_lattice+0x240>
    5a65:	mov    DWORD PTR [rbp+0x0],0x13
    5a6c:	test   ebx,ebx
    5a6e:	jne    5b50 <ask_starting_lattice+0x200>
    5a74:	xor    eax,eax
    5a76:	mov    rsi,r14
    5a79:	lea    rdi,[rip+0x14848]        # 1a2c8 <_IO_stdin_used+0x2c8>
    5a80:	call   24a0 <__isoc99_scanf@plt>
    5a85:	cmp    eax,0x1
    5a88:	je     5b18 <ask_starting_lattice+0x1c8>
    5a8e:	lea    rdi,[rip+0x14d3b]        # 1a7d0 <_IO_stdin_used+0x7d0>
    5a95:	call   22f0 <puts@plt>
    5a9a:	jmp    59b4 <ask_starting_lattice+0x64>
    5a9f:	nop
    5aa0:	lea    rdi,[rip+0x14c21]        # 1a6c8 <_IO_stdin_used+0x6c8>
    5aa7:	call   22f0 <puts@plt>
    5aac:	jmp    5986 <ask_starting_lattice+0x36>
    5ab1:	nop    DWORD PTR [rax+0x0]
    5ab8:	cmp    WORD PTR [r13+0x4],0x68
    5abe:	jne    5a03 <ask_starting_lattice+0xb3>
    5ac4:	mov    DWORD PTR [rbp+0x0],0xb
    5acb:	mov    edi,0xa
    5ad0:	call   22b0 <putchar@plt>
    5ad5:	mov    eax,DWORD PTR [rbp+0x0]
    5ad8:	sub    eax,0xa
    5adb:	cmp    eax,0x1
    5ade:	ja     5a6c <ask_starting_lattice+0x11c>
    5ae0:	xor    r12d,r12d
    5ae3:	jmp    59b4 <ask_starting_lattice+0x64>
    5ae8:	nop    DWORD PTR [rax+rax*1+0x0]
    5af0:	cmp    DWORD PTR [rsp+0x8],0x69696373
    5af8:	jne    5a2b <ask_starting_lattice+0xdb>
    5afe:	cmp    BYTE PTR [r13+0xc],0x0
    5b03:	jne    5a2b <ask_starting_lattice+0xdb>
    5b09:	mov    DWORD PTR [rbp+0x0],0xc
    5b10:	jmp    5a6c <ask_starting_lattice+0x11c>
    5b15:	nop    DWORD PTR [rax]
    5b18:	mov    rdi,r14
    5b1b:	call   22f0 <puts@plt>
    5b20:	jmp    5ae0 <ask_starting_lattice+0x190>
    5b22:	nop    WORD PTR [rax+rax*1+0x0]
    5b28:	cmp    BYTE PTR [rsp+0x8],0x0
    5b2d:	jne    5a17 <ask_starting_lattice+0xc7>
    5b33:	mov    DWORD PTR [rbp+0x0],0xa
    5b3a:	mov    edi,0xa
    5b3f:	call   22b0 <putchar@plt>
    5b44:	jmp    5ad5 <ask_starting_lattice+0x185>
    5b46:	nop    WORD PTR cs:[rax+rax*1+0x0]
    5b50:	lea    rdi,[rip+0x14c51]        # 1a7a8 <_IO_stdin_used+0x7a8>
    5b57:	call   22f0 <puts@plt>
    5b5c:	jmp    5a74 <ask_starting_lattice+0x124>
    5b61:	nop    DWORD PTR [rax+0x0]
    5b68:	cmp    DWORD PTR [rsp+0x8],0x61697265
    5b70:	jne    5a3f <ask_starting_lattice+0xef>
    5b76:	cmp    WORD PTR [r13+0xc],0x6c
    5b7c:	jne    5a3f <ask_starting_lattice+0xef>
    5b82:	mov    DWORD PTR [rbp+0x0],0xd
    5b89:	jmp    5a6c <ask_starting_lattice+0x11c>
    5b8e:	xchg   ax,ax
    5b90:	mov    rdx,r13
    5b93:	lea    rsi,[rip+0x14bc6]        # 1a760 <_IO_stdin_used+0x760>
    5b9a:	mov    edi,0x1
    5b9f:	xor    eax,eax
    5ba1:	call   2470 <__printf_chk@plt>
    5ba6:	jmp    59b4 <ask_starting_lattice+0x64>
    5bab:	call   2350 <__stack_chk_fail@plt>

0000000000005bb0 <ask_ending_lattice>:
    5bb0:	endbr64 
    5bb4:	push   r13
    5bb6:	mov    r13,rsi
    5bb9:	push   r12
    5bbb:	push   rbp
    5bbc:	mov    rbp,rdx
    5bbf:	push   rbx
    5bc0:	mov    ebx,edi
    5bc2:	sub    rsp,0x118
    5bc9:	mov    rax,QWORD PTR fs:0x28
    5bd2:	mov    QWORD PTR [rsp+0x108],rax
    5bda:	xor    eax,eax
    5bdc:	test   edi,edi
    5bde:	jne    5cf8 <ask_ending_lattice+0x148>
    5be4:	mov    r12,rsp
    5be7:	xor    eax,eax
    5be9:	lea    rdi,[rip+0x146d8]        # 1a2c8 <_IO_stdin_used+0x2c8>
    5bf0:	mov    rsi,r12
    5bf3:	call   24a0 <__isoc99_scanf@plt>
    5bf8:	cmp    eax,0x1
    5bfb:	je     5c40 <ask_ending_lattice+0x90>
    5bfd:	lea    rdi,[rip+0x14c94]        # 1a898 <_IO_stdin_used+0x898>
    5c04:	mov    r12d,0x1
    5c0a:	call   22f0 <puts@plt>
    5c0f:	mov    rax,QWORD PTR [rsp+0x108]
    5c17:	xor    rax,QWORD PTR fs:0x28
    5c20:	jne    5e8b <ask_ending_lattice+0x2db>
    5c26:	add    rsp,0x118
    5c2d:	mov    eax,r12d
    5c30:	pop    rbx
    5c31:	pop    rbp
    5c32:	pop    r12
    5c34:	pop    r13
    5c36:	ret    
    5c37:	nop    WORD PTR [rax+rax*1+0x0]
    5c40:	mov    rdx,r12
    5c43:	lea    rsi,[rip+0x151a1]        # 1adeb <_IO_stdin_used+0xdeb>
    5c4a:	mov    edi,0x1
    5c4f:	xor    eax,eax
    5c51:	call   2470 <__printf_chk@plt>
    5c56:	movabs rax,0x6373615f65766173
    5c60:	cmp    QWORD PTR [rsp],rax
    5c64:	je     5d10 <ask_ending_lattice+0x160>
    5c6a:	movabs rax,0x7265735f65766173
    5c74:	cmp    QWORD PTR [rsp],rax
    5c78:	je     5d68 <ask_ending_lattice+0x1b8>
    5c7e:	movabs rax,0x7261705f65766173
    5c88:	cmp    QWORD PTR [rsp],rax
    5c8c:	je     5d88 <ask_ending_lattice+0x1d8>
    5c92:	movabs rdx,0x746e696f706b63
    5c9c:	xor    rdx,QWORD PTR [rsp+0x8]
    5ca1:	movabs rax,0x6568635f65766173
    5cab:	xor    rax,QWORD PTR [rsp]
    5caf:	or     rdx,rax
    5cb2:	jne    5db0 <ask_ending_lattice+0x200>
    5cb8:	mov    DWORD PTR [r13+0x0],0x17
    5cc0:	test   ebx,ebx
    5cc2:	jne    5d50 <ask_ending_lattice+0x1a0>
    5cc8:	xor    eax,eax
    5cca:	mov    rsi,rbp
    5ccd:	lea    rdi,[rip+0x145f4]        # 1a2c8 <_IO_stdin_used+0x2c8>
    5cd4:	call   24a0 <__isoc99_scanf@plt>
    5cd9:	cmp    eax,0x1
    5cdc:	je     5d38 <ask_ending_lattice+0x188>
    5cde:	lea    rdi,[rip+0x14c3b]        # 1a920 <_IO_stdin_used+0x920>
    5ce5:	mov    r12d,0x1
    5ceb:	call   22f0 <puts@plt>
    5cf0:	jmp    5c0f <ask_ending_lattice+0x5f>
    5cf5:	nop    DWORD PTR [rax]
    5cf8:	lea    rdi,[rip+0x14b09]        # 1a808 <_IO_stdin_used+0x808>
    5cff:	call   22f0 <puts@plt>
    5d04:	jmp    5be4 <ask_ending_lattice+0x34>
    5d09:	nop    DWORD PTR [rax+0x0]
    5d10:	cmp    WORD PTR [r12+0x8],0x6969
    5d18:	jne    5c6a <ask_ending_lattice+0xba>
    5d1e:	cmp    BYTE PTR [r12+0xa],0x0
    5d24:	jne    5c6a <ask_ending_lattice+0xba>
    5d2a:	mov    DWORD PTR [r13+0x0],0x15
    5d32:	jmp    5cc0 <ask_ending_lattice+0x110>
    5d34:	nop    DWORD PTR [rax+0x0]
    5d38:	mov    rdi,rbp
    5d3b:	xor    r12d,r12d
    5d3e:	call   22f0 <puts@plt>
    5d43:	jmp    5c0f <ask_ending_lattice+0x5f>
    5d48:	nop    DWORD PTR [rax+rax*1+0x0]
    5d50:	lea    rdi,[rip+0x1507f]        # 1add6 <_IO_stdin_used+0xdd6>
    5d57:	call   22f0 <puts@plt>
    5d5c:	jmp    5cc8 <ask_ending_lattice+0x118>
    5d61:	nop    DWORD PTR [rax+0x0]
    5d68:	cmp    DWORD PTR [rsp+0x8],0x6c6169
    5d70:	jne    5c7e <ask_ending_lattice+0xce>
    5d76:	mov    DWORD PTR [r13+0x0],0x16
    5d7e:	jmp    5cc0 <ask_ending_lattice+0x110>
    5d83:	nop    DWORD PTR [rax+rax*1+0x0]
    5d88:	cmp    DWORD PTR [rsp+0x8],0x656c6c61
    5d90:	jne    5c92 <ask_ending_lattice+0xe2>
    5d96:	cmp    WORD PTR [r12+0xc],0x6c
    5d9d:	jne    5c92 <ask_ending_lattice+0xe2>
    5da3:	mov    DWORD PTR [r13+0x0],0x1c
    5dab:	jmp    5cc0 <ask_ending_lattice+0x110>
    5db0:	movabs rdx,0x686372615f6c6169
    5dba:	xor    rdx,QWORD PTR [rsp+0x8]
    5dbf:	movabs rax,0x7265735f65766173
    5dc9:	xor    rax,QWORD PTR [rsp]
    5dcd:	or     rdx,rax
    5dd0:	jne    5ddc <ask_ending_lattice+0x22c>
    5dd2:	cmp    DWORD PTR [rsp+0x10],0x657669
    5dda:	je     5e32 <ask_ending_lattice+0x282>
    5ddc:	movabs rdx,0x72615f6c656c6c61
    5de6:	xor    rdx,QWORD PTR [rsp+0x8]
    5deb:	movabs rax,0x7261705f65766173
    5df5:	xor    rax,QWORD PTR [rsp]
    5df9:	or     rdx,rax
    5dfc:	jne    5e08 <ask_ending_lattice+0x258>
    5dfe:	cmp    DWORD PTR [rsp+0x10],0x76696863
    5e06:	je     5e3f <ask_ending_lattice+0x28f>
    5e08:	cmp    DWORD PTR [rsp],0x67726f66
    5e0f:	je     5e55 <ask_ending_lattice+0x2a5>
    5e11:	mov    rdx,r12
    5e14:	lea    rsi,[rip+0x14abd]        # 1a8d8 <_IO_stdin_used+0x8d8>
    5e1b:	mov    edi,0x1
    5e20:	xor    eax,eax
    5e22:	call   2470 <__printf_chk@plt>
    5e27:	mov    r12d,0x1
    5e2d:	jmp    5c0f <ask_ending_lattice+0x5f>
    5e32:	mov    DWORD PTR [r13+0x0],0x1e
    5e3a:	jmp    5cc0 <ask_ending_lattice+0x110>
    5e3f:	cmp    WORD PTR [r12+0x14],0x65
    5e46:	jne    5e08 <ask_ending_lattice+0x258>
    5e48:	mov    DWORD PTR [r13+0x0],0x1f
    5e50:	jmp    5cc0 <ask_ending_lattice+0x110>
    5e55:	cmp    WORD PTR [rsp+0x4],0x7465
    5e5c:	jne    5e11 <ask_ending_lattice+0x261>
    5e5e:	cmp    BYTE PTR [r12+0x6],0x0
    5e64:	jne    5e11 <ask_ending_lattice+0x261>
    5e66:	mov    DWORD PTR [r13+0x0],0x14
    5e6e:	mov    edi,0xa
    5e73:	xor    r12d,r12d
    5e76:	call   22b0 <putchar@plt>
    5e7b:	cmp    DWORD PTR [r13+0x0],0x14
    5e80:	je     5c0f <ask_ending_lattice+0x5f>
    5e86:	jmp    5cc0 <ask_ending_lattice+0x110>
    5e8b:	call   2350 <__stack_chk_fail@plt>

0000000000005e90 <coldlat>:
    5e90:	endbr64 
    5e94:	push   r15
    5e96:	push   r14
    5e98:	push   r13
    5e9a:	push   r12
    5e9c:	push   rbp
    5e9d:	push   rbx
    5e9e:	sub    rsp,0x18
    5ea2:	mov    edx,DWORD PTR [rip+0x1c658]        # 22500 <sites_on_node>
    5ea8:	mov    r12,QWORD PTR [rip+0x1c919]        # 227c8 <lattice>
    5eaf:	mov    DWORD PTR [rsp+0xc],0x0
    5eb7:	test   edx,edx
    5eb9:	jle    5f4e <coldlat+0xbe>
    5ebf:	nop
    5ec0:	mov    DWORD PTR [rsp+0x8],0x0
    5ec8:	movsxd rax,DWORD PTR [rsp+0x8]
    5ecd:	xor    r14d,r14d
    5ed0:	lea    rbp,[rax+rax*8]
    5ed4:	xor    r15d,r15d
    5ed7:	movsxd r13,r14d
    5eda:	cmp    r14d,r15d
    5edd:	je     5f70 <coldlat+0xe0>
    5ee3:	lea    rax,[r13+r13*2+0x0]
    5ee8:	movsxd rdx,r15d
    5eeb:	pxor   xmm1,xmm1
    5eef:	add    rax,rbp
    5ef2:	movapd xmm0,xmm1
    5ef6:	lea    rbx,[rdx+rax*1+0x7]
    5efb:	call   13ee0 <cmplx>
    5f00:	shl    rbx,0x4
    5f04:	add    rbx,r12
    5f07:	movsd  QWORD PTR [rbx],xmm0
    5f0b:	movsd  QWORD PTR [rbx+0x8],xmm1
    5f10:	add    r15d,0x1
    5f14:	cmp    r15d,0x3
    5f18:	jne    5eda <coldlat+0x4a>
    5f1a:	add    r14d,0x1
    5f1e:	cmp    r14d,0x3
    5f22:	jne    5ed4 <coldlat+0x44>
    5f24:	add    DWORD PTR [rsp+0x8],0x1
    5f29:	mov    eax,DWORD PTR [rsp+0x8]
    5f2d:	cmp    eax,0x4
    5f30:	jne    5ec8 <coldlat+0x38>
    5f32:	add    DWORD PTR [rsp+0xc],0x1
    5f37:	add    r12,0x800
    5f3e:	mov    eax,DWORD PTR [rsp+0xc]
    5f42:	cmp    DWORD PTR [rip+0x1c5b8],eax        # 22500 <sites_on_node>
    5f48:	jg     5ec0 <coldlat+0x30>
    5f4e:	mov    eax,DWORD PTR [rip+0x1c990]        # 228e4 <this_node>
    5f54:	test   eax,eax
    5f56:	je     5f9f <coldlat+0x10f>
    5f58:	add    rsp,0x18
    5f5c:	pop    rbx
    5f5d:	pop    rbp
    5f5e:	pop    r12
    5f60:	pop    r13
    5f62:	pop    r14
    5f64:	pop    r15
    5f66:	ret    
    5f67:	nop    WORD PTR [rax+rax*1+0x0]
    5f70:	mov    rax,QWORD PTR [rip+0x14329]        # 1a2a0 <_IO_stdin_used+0x2a0>
    5f77:	lea    rbx,[rbp+r13*4+0x7]
    5f7c:	pxor   xmm1,xmm1
    5f80:	shl    rbx,0x4
    5f84:	movq   xmm0,rax
    5f89:	add    rbx,r12
    5f8c:	call   13ee0 <cmplx>
    5f91:	movsd  QWORD PTR [rbx],xmm0
    5f95:	movsd  QWORD PTR [rbx+0x8],xmm1
    5f9a:	jmp    5f10 <coldlat+0x80>
    5f9f:	add    rsp,0x18
    5fa3:	lea    rdi,[rip+0x149ae]        # 1a958 <_IO_stdin_used+0x958>
    5faa:	pop    rbx
    5fab:	pop    rbp
    5fac:	pop    r12
    5fae:	pop    r13
    5fb0:	pop    r14
    5fb2:	pop    r15
    5fb4:	jmp    22f0 <puts@plt>
    5fb9:	nop    DWORD PTR [rax+0x0]

0000000000005fc0 <reload_lattice>:
    5fc0:	endbr64 
    5fc4:	push   r12
    5fc6:	mov    r12d,edi
    5fc9:	push   rbp
    5fca:	mov    rbp,rsi
    5fcd:	push   rbx
    5fce:	lea    ebx,[r12-0xa]
    5fd3:	sub    rsp,0x30
    5fd7:	mov    rax,QWORD PTR fs:0x28
    5fe0:	mov    QWORD PTR [rsp+0x28],rax
    5fe5:	xor    eax,eax
    5fe7:	call   194f0 <dclock>
    5fec:	movsd  QWORD PTR [rsp+0x8],xmm0
    5ff2:	cmp    ebx,0x9
    5ff5:	ja     6010 <reload_lattice+0x50>
    5ff7:	lea    rcx,[rip+0x14e56]        # 1ae54 <_IO_stdin_used+0xe54>
    5ffe:	mov    edx,ebx
    6000:	movsxd rax,DWORD PTR [rcx+rdx*4]
    6004:	add    rax,rcx
    6007:	notrack jmp rax
    600a:	nop    WORD PTR [rax+rax*1+0x0]
    6010:	mov    esi,DWORD PTR [rip+0x1c8ce]        # 228e4 <this_node>
    6016:	test   esi,esi
    6018:	je     61a0 <reload_lattice+0x1e0>
    601e:	mov    edi,0x1
    6023:	call   19570 <terminate>
    6028:	xor    eax,eax
    602a:	xor    r12d,r12d
    602d:	call   194f0 <dclock>
    6032:	cmp    ebx,0x1
    6035:	ja     6190 <reload_lattice+0x1d0>
    603b:	lea    rsi,[rsp+0x18]
    6040:	lea    rdi,[rsp+0x10]
    6045:	call   42b0 <d_plaquette>
    604a:	mov    edx,DWORD PTR [rip+0x1c894]        # 228e4 <this_node>
    6050:	test   edx,edx
    6052:	je     60d0 <reload_lattice+0x110>
    6054:	xor    eax,eax
    6056:	call   194f0 <dclock>
    605b:	call   3ff0 <check_unitarity>
    6060:	lea    rdi,[rsp+0x20]
    6065:	movsd  QWORD PTR [rsp+0x20],xmm0
    606b:	call   19470 <g_doublemax>
    6070:	xor    eax,eax
    6072:	call   194f0 <dclock>
    6077:	mov    eax,DWORD PTR [rip+0x1c867]        # 228e4 <this_node>
    607d:	test   eax,eax
    607f:	je     60b0 <reload_lattice+0xf0>
    6081:	mov    rdi,QWORD PTR [rip+0x1c258]        # 222e0 <stdout@@GLIBC_2.2.5>
    6088:	call   2420 <fflush@plt>
    608d:	mov    rax,QWORD PTR [rsp+0x28]
    6092:	xor    rax,QWORD PTR fs:0x28
    609b:	jne    61bb <reload_lattice+0x1fb>
    60a1:	add    rsp,0x30
    60a5:	mov    rax,r12
    60a8:	pop    rbx
    60a9:	pop    rbp
    60aa:	pop    r12
    60ac:	ret    
    60ad:	nop    DWORD PTR [rax]
    60b0:	movsd  xmm0,QWORD PTR [rsp+0x20]
    60b6:	mov    edi,0x1
    60bb:	mov    eax,0x1
    60c0:	lea    rsi,[rip+0x14909]        # 1a9d0 <_IO_stdin_used+0x9d0>
    60c7:	call   2470 <__printf_chk@plt>
    60cc:	jmp    6081 <reload_lattice+0xc1>
    60ce:	xchg   ax,ax
    60d0:	movsd  xmm1,QWORD PTR [rsp+0x18]
    60d6:	movsd  xmm0,QWORD PTR [rsp+0x10]
    60dc:	mov    edi,0x1
    60e1:	lea    rsi,[rip+0x14c46]        # 1ad2e <_IO_stdin_used+0xd2e>
    60e8:	mov    eax,0x2
    60ed:	call   2470 <__printf_chk@plt>
    60f2:	mov    rdi,QWORD PTR [rip+0x1c1e7]        # 222e0 <stdout@@GLIBC_2.2.5>
    60f9:	call   2420 <fflush@plt>
    60fe:	jmp    6054 <reload_lattice+0x94>
    6103:	nop    DWORD PTR [rax+rax*1+0x0]
    6108:	mov    rdi,rbp
    610b:	call   bb10 <restore_ascii>
    6110:	mov    r12,rax
    6113:	xor    eax,eax
    6115:	call   194f0 <dclock>
    611a:	subsd  xmm0,QWORD PTR [rsp+0x8]
    6120:	mov    ecx,DWORD PTR [rip+0x1c7be]        # 228e4 <this_node>
    6126:	test   ecx,ecx
    6128:	jne    603b <reload_lattice+0x7b>
    612e:	lea    rsi,[rip+0x1486b]        # 1a9a0 <_IO_stdin_used+0x9a0>
    6135:	mov    edi,0x1
    613a:	mov    eax,0x1
    613f:	call   2470 <__printf_chk@plt>
    6144:	jmp    603b <reload_lattice+0x7b>
    6149:	nop    DWORD PTR [rax+0x0]
    6150:	mov    rdi,rbp
    6153:	call   c7c0 <restore_serial>
    6158:	mov    r12,rax
    615b:	jmp    6113 <reload_lattice+0x153>
    615d:	nop    DWORD PTR [rax]
    6160:	xor    eax,eax
    6162:	xor    r12d,r12d
    6165:	call   5e90 <coldlat>
    616a:	xor    eax,eax
    616c:	call   194f0 <dclock>
    6171:	jmp    603b <reload_lattice+0x7b>
    6176:	nop    WORD PTR cs:[rax+rax*1+0x0]
    6180:	mov    rdi,rbp
    6183:	call   c810 <restore_parallel>
    6188:	mov    r12,rax
    618b:	jmp    6113 <reload_lattice+0x153>
    618d:	nop    DWORD PTR [rax]
    6190:	subsd  xmm0,QWORD PTR [rsp+0x8]
    6196:	jmp    6120 <reload_lattice+0x160>
    6198:	nop    DWORD PTR [rax+rax*1+0x0]
    61a0:	mov    edx,r12d
    61a3:	lea    rsi,[rip+0x147ce]        # 1a978 <_IO_stdin_used+0x978>
    61aa:	mov    edi,0x1
    61af:	xor    eax,eax
    61b1:	call   2470 <__printf_chk@plt>
    61b6:	jmp    601e <reload_lattice+0x5e>
    61bb:	call   2350 <__stack_chk_fail@plt>

00000000000061c0 <funnylat>:
    61c0:	endbr64 
    61c4:	push   r15
    61c6:	push   r14
    61c8:	push   r13
    61ca:	push   r12
    61cc:	push   rbp
    61cd:	push   rbx
    61ce:	sub    rsp,0x18
    61d2:	mov    eax,DWORD PTR [rip+0x1c328]        # 22500 <sites_on_node>
    61d8:	mov    r13,QWORD PTR [rip+0x1c5e9]        # 227c8 <lattice>
    61df:	mov    DWORD PTR [rsp+0xc],0x0
    61e7:	test   eax,eax
    61e9:	jle    631e <funnylat+0x15e>
    61ef:	nop
    61f0:	lea    r15,[r13+0x70]
    61f4:	xor    r12d,r12d
    61f7:	movsxd rax,r12d
    61fa:	xor    r14d,r14d
    61fd:	lea    rbp,[rax+rax*8]
    6201:	shl    rbp,0x4
    6205:	mov    QWORD PTR [rsp],rbp
    6209:	movsxd rax,r14d
    620c:	pxor   xmm1,xmm1
    6210:	add    r14d,0x1
    6214:	lea    rbx,[rax+rax*2]
    6218:	movapd xmm0,xmm1
    621c:	shl    rbx,0x4
    6220:	add    rbx,QWORD PTR [rsp]
    6224:	call   13ee0 <cmplx>
    6229:	add    rbx,r13
    622c:	movsd  QWORD PTR [rbx+0x78],xmm1
    6231:	pxor   xmm1,xmm1
    6235:	movsd  QWORD PTR [rbx+0x70],xmm0
    623a:	movapd xmm0,xmm1
    623e:	call   13ee0 <cmplx>
    6243:	movsd  QWORD PTR [rbx+0x88],xmm1
    624b:	pxor   xmm1,xmm1
    624f:	movsd  QWORD PTR [rbx+0x80],xmm0
    6257:	movapd xmm0,xmm1
    625b:	call   13ee0 <cmplx>
    6260:	movsd  QWORD PTR [rbx+0x90],xmm0
    6268:	movsd  QWORD PTR [rbx+0x98],xmm1
    6270:	cmp    r14d,0x3
    6274:	jne    6209 <funnylat+0x49>
    6276:	movsx  eax,WORD PTR [r13+0x0]
    627b:	pxor   xmm0,xmm0
    627f:	pxor   xmm1,xmm1
    6283:	add    r15,0x90
    628a:	cvtsi2sd xmm1,r12d
    628f:	add    r12d,0x1
    6293:	lea    eax,[rax+rax*4]
    6296:	add    eax,eax
    6298:	cvtsi2sd xmm0,eax
    629c:	movsx  eax,WORD PTR [r13+0x2]
    62a1:	movsd  QWORD PTR [r15-0x90],xmm1
    62aa:	movsd  QWORD PTR [r15-0x88],xmm1
    62b3:	imul   eax,eax,0x64
    62b6:	movsd  QWORD PTR [r15-0x50],xmm0
    62bc:	pxor   xmm0,xmm0
    62c0:	cvtsi2sd xmm0,eax
    62c4:	movsx  eax,WORD PTR [r13+0x4]
    62c9:	lea    eax,[rax+rax*4]
    62cc:	add    eax,eax
    62ce:	movsd  QWORD PTR [r15-0x10],xmm0
    62d4:	pxor   xmm0,xmm0
    62d8:	cvtsi2sd xmm0,eax
    62dc:	movsx  eax,WORD PTR [r13+0x6]
    62e1:	imul   eax,eax,0x64
    62e4:	movsd  QWORD PTR [r15-0x48],xmm0
    62ea:	pxor   xmm0,xmm0
    62ee:	cvtsi2sd xmm0,eax
    62f2:	movsd  QWORD PTR [r15-0x8],xmm0
    62f8:	cmp    r12d,0x4
    62fc:	jne    61f7 <funnylat+0x37>
    6302:	add    DWORD PTR [rsp+0xc],0x1
    6307:	add    r13,0x800
    630e:	mov    eax,DWORD PTR [rsp+0xc]
    6312:	cmp    DWORD PTR [rip+0x1c1e8],eax        # 22500 <sites_on_node>
    6318:	jg     61f0 <funnylat+0x30>
    631e:	add    rsp,0x18
    6322:	pop    rbx
    6323:	pop    rbp
    6324:	pop    r12
    6326:	pop    r13
    6328:	pop    r14
    632a:	pop    r15
    632c:	ret    
    632d:	nop    DWORD PTR [rax]

0000000000006330 <get_f>:
    6330:	endbr64 
    6334:	push   r14
    6336:	push   r13
    6338:	push   r12
    633a:	mov    r12,rsi
    633d:	push   rbp
    633e:	mov    rbp,rdx
    6341:	push   rbx
    6342:	sub    rsp,0x60
    6346:	mov    rax,QWORD PTR fs:0x28
    634f:	mov    QWORD PTR [rsp+0x58],rax
    6354:	xor    eax,eax
    6356:	test   edi,edi
    6358:	je     6400 <get_f+0xd0>
    635e:	mov    rbx,rsp
    6361:	lea    r13,[rip+0x14a7d]        # 1ade5 <_IO_stdin_used+0xde5>
    6368:	nop    DWORD PTR [rax+rax*1+0x0]
    6370:	mov    rdx,r12
    6373:	mov    rsi,r13
    6376:	mov    edi,0x1
    637b:	xor    eax,eax
    637d:	call   2470 <__printf_chk@plt>
    6382:	mov    rsi,rbx
    6385:	lea    rdi,[rip+0x13f3c]        # 1a2c8 <_IO_stdin_used+0x2c8>
    638c:	xor    eax,eax
    638e:	call   24a0 <__isoc99_scanf@plt>
    6393:	xor    eax,eax
    6395:	mov    rdx,rbp
    6398:	mov    rdi,rbx
    639b:	lea    rsi,[rip+0x14a4d]        # 1adef <_IO_stdin_used+0xdef>
    63a2:	call   2430 <__isoc99_sscanf@plt>
    63a7:	cmp    eax,0x1
    63aa:	je     63c0 <get_f+0x90>
    63ac:	lea    rdi,[rip+0x14a47]        # 1adfa <_IO_stdin_used+0xdfa>
    63b3:	call   22f0 <puts@plt>
    63b8:	jmp    6370 <get_f+0x40>
    63ba:	nop    WORD PTR [rax+rax*1+0x0]
    63c0:	movsd  xmm0,QWORD PTR [rbp+0x0]
    63c5:	mov    rdx,r12
    63c8:	mov    edi,0x1
    63cd:	xor    r13d,r13d
    63d0:	lea    rsi,[rip+0x14a1c]        # 1adf3 <_IO_stdin_used+0xdf3>
    63d7:	call   2470 <__printf_chk@plt>
    63dc:	mov    rax,QWORD PTR [rsp+0x58]
    63e1:	xor    rax,QWORD PTR fs:0x28
    63ea:	jne    6534 <get_f+0x204>
    63f0:	add    rsp,0x60
    63f4:	mov    eax,r13d
    63f7:	pop    rbx
    63f8:	pop    rbp
    63f9:	pop    r12
    63fb:	pop    r13
    63fd:	pop    r14
    63ff:	ret    
    6400:	mov    r14,rsp
    6403:	xor    eax,eax
    6405:	lea    rdi,[rip+0x13ebc]        # 1a2c8 <_IO_stdin_used+0x2c8>
    640c:	mov    rsi,r14
    640f:	call   24a0 <__isoc99_scanf@plt>
    6414:	cmp    eax,0xffffffff
    6417:	je     64f2 <get_f+0x1c2>
    641d:	test   eax,eax
    641f:	je     64b4 <get_f+0x184>
    6425:	mov    rsi,r12
    6428:	mov    rdi,r14
    642b:	call   23e0 <strcmp@plt>
    6430:	mov    r13d,eax
    6433:	test   eax,eax
    6435:	jne    6490 <get_f+0x160>
    6437:	lea    rsi,[rip+0x149ad]        # 1adeb <_IO_stdin_used+0xdeb>
    643e:	mov    edi,0x1
    6443:	xor    eax,eax
    6445:	mov    rdx,r12
    6448:	call   2470 <__printf_chk@plt>
    644d:	xor    eax,eax
    644f:	mov    rsi,rbp
    6452:	lea    rdi,[rip+0x14996]        # 1adef <_IO_stdin_used+0xdef>
    6459:	call   24a0 <__isoc99_scanf@plt>
    645e:	cmp    eax,0xffffffff
    6461:	je     6513 <get_f+0x1e3>
    6467:	test   eax,eax
    6469:	je     64d3 <get_f+0x1a3>
    646b:	movsd  xmm0,QWORD PTR [rbp+0x0]
    6470:	mov    edi,0x1
    6475:	mov    eax,0x1
    647a:	lea    rsi,[rip+0x14975]        # 1adf6 <_IO_stdin_used+0xdf6>
    6481:	call   2470 <__printf_chk@plt>
    6486:	jmp    63dc <get_f+0xac>
    648b:	nop    DWORD PTR [rax+rax*1+0x0]
    6490:	mov    rcx,r14
    6493:	mov    rdx,r12
    6496:	lea    rsi,[rip+0x145b3]        # 1aa50 <_IO_stdin_used+0xa50>
    649d:	xor    eax,eax
    649f:	mov    edi,0x1
    64a4:	mov    r13d,0x1
    64aa:	call   2470 <__printf_chk@plt>
    64af:	jmp    63dc <get_f+0xac>
    64b4:	mov    rdx,r12
    64b7:	lea    rsi,[rip+0x1456a]        # 1aa28 <_IO_stdin_used+0xa28>
    64be:	mov    edi,0x1
    64c3:	mov    r13d,0x1
    64c9:	call   2470 <__printf_chk@plt>
    64ce:	jmp    63dc <get_f+0xac>
    64d3:	mov    rdx,r12
    64d6:	lea    rsi,[rip+0x145db]        # 1aab8 <_IO_stdin_used+0xab8>
    64dd:	mov    edi,0x1
    64e2:	mov    r13d,0x1
    64e8:	call   2470 <__printf_chk@plt>
    64ed:	jmp    63dc <get_f+0xac>
    64f2:	mov    rdx,r12
    64f5:	mov    edi,0x1
    64fa:	xor    eax,eax
    64fc:	mov    r13d,0x1
    6502:	lea    rsi,[rip+0x144ef]        # 1a9f8 <_IO_stdin_used+0x9f8>
    6509:	call   2470 <__printf_chk@plt>
    650e:	jmp    63dc <get_f+0xac>
    6513:	mov    rdx,r12
    6516:	mov    edi,0x1
    651b:	xor    eax,eax
    651d:	mov    r13d,0x1
    6523:	lea    rsi,[rip+0x1455e]        # 1aa88 <_IO_stdin_used+0xa88>
    652a:	call   2470 <__printf_chk@plt>
    652f:	jmp    63dc <get_f+0xac>
    6534:	call   2350 <__stack_chk_fail@plt>
    6539:	nop    DWORD PTR [rax+0x0]

0000000000006540 <get_i>:
    6540:	endbr64 
    6544:	push   r14
    6546:	push   r13
    6548:	push   r12
    654a:	mov    r12,rsi
    654d:	push   rbp
    654e:	mov    rbp,rdx
    6551:	push   rbx
    6552:	sub    rsp,0x60
    6556:	mov    rax,QWORD PTR fs:0x28
    655f:	mov    QWORD PTR [rsp+0x58],rax
    6564:	xor    eax,eax
    6566:	test   edi,edi
    6568:	je     6610 <get_i+0xd0>
    656e:	mov    rbx,rsp
    6571:	lea    r13,[rip+0x1486d]        # 1ade5 <_IO_stdin_used+0xde5>
    6578:	nop    DWORD PTR [rax+rax*1+0x0]
    6580:	mov    rdx,r12
    6583:	mov    rsi,r13
    6586:	mov    edi,0x1
    658b:	xor    eax,eax
    658d:	call   2470 <__printf_chk@plt>
    6592:	mov    rsi,rbx
    6595:	lea    rdi,[rip+0x13d2c]        # 1a2c8 <_IO_stdin_used+0x2c8>
    659c:	xor    eax,eax
    659e:	call   24a0 <__isoc99_scanf@plt>
    65a3:	xor    eax,eax
    65a5:	mov    rdx,rbp
    65a8:	mov    rdi,rbx
    65ab:	lea    rsi,[rip+0x14bf8]        # 1b1aa <_IO_stdin_used+0x11aa>
    65b2:	call   2430 <__isoc99_sscanf@plt>
    65b7:	cmp    eax,0x1
    65ba:	je     65d0 <get_i+0x90>
    65bc:	lea    rdi,[rip+0x14837]        # 1adfa <_IO_stdin_used+0xdfa>
    65c3:	call   22f0 <puts@plt>
    65c8:	jmp    6580 <get_i+0x40>
    65ca:	nop    WORD PTR [rax+rax*1+0x0]
    65d0:	mov    ecx,DWORD PTR [rbp+0x0]
    65d3:	mov    rdx,r12
    65d6:	lea    rsi,[rip+0x14830]        # 1ae0d <_IO_stdin_used+0xe0d>
    65dd:	xor    eax,eax
    65df:	mov    edi,0x1
    65e4:	xor    r13d,r13d
    65e7:	call   2470 <__printf_chk@plt>
    65ec:	mov    rax,QWORD PTR [rsp+0x58]
    65f1:	xor    rax,QWORD PTR fs:0x28
    65fa:	jne    6744 <get_i+0x204>
    6600:	add    rsp,0x60
    6604:	mov    eax,r13d
    6607:	pop    rbx
    6608:	pop    rbp
    6609:	pop    r12
    660b:	pop    r13
    660d:	pop    r14
    660f:	ret    
    6610:	mov    r14,rsp
    6613:	xor    eax,eax
    6615:	lea    rdi,[rip+0x13cac]        # 1a2c8 <_IO_stdin_used+0x2c8>
    661c:	mov    rsi,r14
    661f:	call   24a0 <__isoc99_scanf@plt>
    6624:	cmp    eax,0xffffffff
    6627:	je     6702 <get_i+0x1c2>
    662d:	test   eax,eax
    662f:	je     66c4 <get_i+0x184>
    6635:	mov    rsi,r12
    6638:	mov    rdi,r14
    663b:	call   23e0 <strcmp@plt>
    6640:	mov    r13d,eax
    6643:	test   eax,eax
    6645:	jne    66a0 <get_i+0x160>
    6647:	lea    rsi,[rip+0x1479d]        # 1adeb <_IO_stdin_used+0xdeb>
    664e:	mov    edi,0x1
    6653:	xor    eax,eax
    6655:	mov    rdx,r12
    6658:	call   2470 <__printf_chk@plt>
    665d:	xor    eax,eax
    665f:	mov    rsi,rbp
    6662:	lea    rdi,[rip+0x14b41]        # 1b1aa <_IO_stdin_used+0x11aa>
    6669:	call   24a0 <__isoc99_scanf@plt>
    666e:	cmp    eax,0xffffffff
    6671:	je     6723 <get_i+0x1e3>
    6677:	test   eax,eax
    6679:	je     66e3 <get_i+0x1a3>
    667b:	mov    edx,DWORD PTR [rbp+0x0]
    667e:	lea    rsi,[rip+0x14b5b]        # 1b1e0 <_IO_stdin_used+0x11e0>
    6685:	mov    edi,0x1
    668a:	xor    eax,eax
    668c:	call   2470 <__printf_chk@plt>
    6691:	jmp    65ec <get_i+0xac>
    6696:	nop    WORD PTR cs:[rax+rax*1+0x0]
    66a0:	mov    rcx,r14
    66a3:	mov    rdx,r12
    66a6:	lea    rsi,[rip+0x14493]        # 1ab40 <_IO_stdin_used+0xb40>
    66ad:	xor    eax,eax
    66af:	mov    edi,0x1
    66b4:	mov    r13d,0x1
    66ba:	call   2470 <__printf_chk@plt>
    66bf:	jmp    65ec <get_i+0xac>
    66c4:	mov    rdx,r12
    66c7:	lea    rsi,[rip+0x1444a]        # 1ab18 <_IO_stdin_used+0xb18>
    66ce:	mov    edi,0x1
    66d3:	mov    r13d,0x1
    66d9:	call   2470 <__printf_chk@plt>
    66de:	jmp    65ec <get_i+0xac>
    66e3:	mov    rdx,r12
    66e6:	lea    rsi,[rip+0x144bb]        # 1aba8 <_IO_stdin_used+0xba8>
    66ed:	mov    edi,0x1
    66f2:	mov    r13d,0x1
    66f8:	call   2470 <__printf_chk@plt>
    66fd:	jmp    65ec <get_i+0xac>
    6702:	mov    rdx,r12
    6705:	mov    edi,0x1
    670a:	xor    eax,eax
    670c:	mov    r13d,0x1
    6712:	lea    rsi,[rip+0x143cf]        # 1aae8 <_IO_stdin_used+0xae8>
    6719:	call   2470 <__printf_chk@plt>
    671e:	jmp    65ec <get_i+0xac>
    6723:	mov    rdx,r12
    6726:	mov    edi,0x1
    672b:	xor    eax,eax
    672d:	mov    r13d,0x1
    6733:	lea    rsi,[rip+0x1443e]        # 1ab78 <_IO_stdin_used+0xb78>
    673a:	call   2470 <__printf_chk@plt>
    673f:	jmp    65ec <get_i+0xac>
    6744:	call   2350 <__stack_chk_fail@plt>
    6749:	nop    DWORD PTR [rax+0x0]

0000000000006750 <get_s>:
    6750:	endbr64 
    6754:	push   r15
    6756:	push   r14
    6758:	push   r13
    675a:	mov    r13,rdx
    675d:	push   r12
    675f:	mov    r12,rsi
    6762:	push   rbx
    6763:	sub    rsp,0x60
    6767:	mov    rax,QWORD PTR fs:0x28
    6770:	mov    QWORD PTR [rsp+0x58],rax
    6775:	xor    eax,eax
    6777:	test   edi,edi
    6779:	je     6818 <get_s+0xc8>
    677f:	lea    rbx,[rip+0x1465f]        # 1ade5 <_IO_stdin_used+0xde5>
    6786:	nop    WORD PTR cs:[rax+rax*1+0x0]
    6790:	mov    rsi,rbx
    6793:	mov    edi,0x1
    6798:	xor    eax,eax
    679a:	mov    rdx,r12
    679d:	call   2470 <__printf_chk@plt>
    67a2:	xor    eax,eax
    67a4:	mov    rsi,r13
    67a7:	lea    rdi,[rip+0x13b1a]        # 1a2c8 <_IO_stdin_used+0x2c8>
    67ae:	call   24a0 <__isoc99_scanf@plt>
    67b3:	cmp    eax,0x1
    67b6:	je     67d0 <get_s+0x80>
    67b8:	lea    rdi,[rip+0x1463b]        # 1adfa <_IO_stdin_used+0xdfa>
    67bf:	call   22f0 <puts@plt>
    67c4:	jmp    6790 <get_s+0x40>
    67c6:	nop    WORD PTR cs:[rax+rax*1+0x0]
    67d0:	mov    rcx,r13
    67d3:	mov    rdx,r12
    67d6:	lea    rsi,[rip+0x14637]        # 1ae14 <_IO_stdin_used+0xe14>
    67dd:	xor    eax,eax
    67df:	mov    edi,0x1
    67e4:	xor    r14d,r14d
    67e7:	call   2470 <__printf_chk@plt>
    67ec:	mov    rax,QWORD PTR [rsp+0x58]
    67f1:	xor    rax,QWORD PTR fs:0x28
    67fa:	jne    6934 <get_s+0x1e4>
    6800:	add    rsp,0x60
    6804:	mov    eax,r14d
    6807:	pop    rbx
    6808:	pop    r12
    680a:	pop    r13
    680c:	pop    r14
    680e:	pop    r15
    6810:	ret    
    6811:	nop    DWORD PTR [rax+0x0]
    6818:	mov    r15,rsp
    681b:	xor    eax,eax
    681d:	lea    rdi,[rip+0x13aa4]        # 1a2c8 <_IO_stdin_used+0x2c8>
    6824:	mov    rsi,r15
    6827:	call   24a0 <__isoc99_scanf@plt>
    682c:	cmp    eax,0xffffffff
    682f:	je     68f2 <get_s+0x1a2>
    6835:	test   eax,eax
    6837:	je     68b4 <get_s+0x164>
    6839:	mov    rsi,r12
    683c:	mov    rdi,r15
    683f:	call   23e0 <strcmp@plt>
    6844:	mov    r14d,eax
    6847:	test   eax,eax
    6849:	jne    6890 <get_s+0x140>
    684b:	lea    rsi,[rip+0x14599]        # 1adeb <_IO_stdin_used+0xdeb>
    6852:	mov    edi,0x1
    6857:	xor    eax,eax
    6859:	mov    rdx,r12
    685c:	call   2470 <__printf_chk@plt>
    6861:	xor    eax,eax
    6863:	mov    rsi,r13
    6866:	lea    rdi,[rip+0x13a5b]        # 1a2c8 <_IO_stdin_used+0x2c8>
    686d:	call   24a0 <__isoc99_scanf@plt>
    6872:	cmp    eax,0xffffffff
    6875:	je     6913 <get_s+0x1c3>
    687b:	test   eax,eax
    687d:	je     68d3 <get_s+0x183>
    687f:	mov    rdi,r13
    6882:	call   22f0 <puts@plt>
    6887:	jmp    67ec <get_s+0x9c>
    688c:	nop    DWORD PTR [rax+0x0]
    6890:	mov    rcx,r15
    6893:	mov    rdx,r12
    6896:	lea    rsi,[rip+0x14393]        # 1ac30 <_IO_stdin_used+0xc30>
    689d:	xor    eax,eax
    689f:	mov    edi,0x1
    68a4:	mov    r14d,0x1
    68aa:	call   2470 <__printf_chk@plt>
    68af:	jmp    67ec <get_s+0x9c>
    68b4:	mov    rdx,r12
    68b7:	lea    rsi,[rip+0x1434a]        # 1ac08 <_IO_stdin_used+0xc08>
    68be:	mov    edi,0x1
    68c3:	mov    r14d,0x1
    68c9:	call   2470 <__printf_chk@plt>
    68ce:	jmp    67ec <get_s+0x9c>
    68d3:	mov    rdx,r12
    68d6:	lea    rsi,[rip+0x143bb]        # 1ac98 <_IO_stdin_used+0xc98>
    68dd:	mov    edi,0x1
    68e2:	mov    r14d,0x1
    68e8:	call   2470 <__printf_chk@plt>
    68ed:	jmp    67ec <get_s+0x9c>
    68f2:	mov    rdx,r12
    68f5:	mov    edi,0x1
    68fa:	xor    eax,eax
    68fc:	mov    r14d,0x1
    6902:	lea    rsi,[rip+0x142cf]        # 1abd8 <_IO_stdin_used+0xbd8>
    6909:	call   2470 <__printf_chk@plt>
    690e:	jmp    67ec <get_s+0x9c>
    6913:	mov    rdx,r12
    6916:	mov    edi,0x1
    691b:	xor    eax,eax
    691d:	mov    r14d,0x1
    6923:	lea    rsi,[rip+0x1433e]        # 1ac68 <_IO_stdin_used+0xc68>
    692a:	call   2470 <__printf_chk@plt>
    692f:	jmp    67ec <get_s+0x9c>
    6934:	call   2350 <__stack_chk_fail@plt>
    6939:	nop    DWORD PTR [rax+0x0]

0000000000006940 <get_prompt>:
    6940:	endbr64 
    6944:	push   rbp
    6945:	push   rbx
    6946:	mov    rbx,rdi
    6949:	sub    rsp,0x68
    694d:	mov    rax,QWORD PTR fs:0x28
    6956:	mov    QWORD PTR [rsp+0x58],rax
    695b:	xor    eax,eax
    695d:	mov    DWORD PTR [rdi],0xffffffff
    6963:	mov    rbp,rsp
    6966:	lea    rdi,[rip+0x1435b]        # 1acc8 <_IO_stdin_used+0xcc8>
    696d:	call   22f0 <puts@plt>
    6972:	xor    eax,eax
    6974:	mov    rsi,rbp
    6977:	lea    rdi,[rip+0x1394a]        # 1a2c8 <_IO_stdin_used+0x2c8>
    697e:	call   24a0 <__isoc99_scanf@plt>
    6983:	cmp    DWORD PTR [rsp],0x6d6f7270
    698a:	je     69e0 <get_prompt+0xa0>
    698c:	cmp    WORD PTR [rsp],0x30
    6991:	je     69d0 <get_prompt+0x90>
    6993:	cmp    WORD PTR [rsp],0x31
    6998:	je     6a08 <get_prompt+0xc8>
    699a:	cmp    DWORD PTR [rbx],0x1
    699d:	jbe    69d6 <get_prompt+0x96>
    699f:	lea    rdi,[rip+0x1434a]        # 1acf0 <_IO_stdin_used+0xcf0>
    69a6:	call   22f0 <puts@plt>
    69ab:	mov    eax,0x1
    69b0:	mov    rdx,QWORD PTR [rsp+0x58]
    69b5:	xor    rdx,QWORD PTR fs:0x28
    69be:	jne    6a12 <get_prompt+0xd2>
    69c0:	add    rsp,0x68
    69c4:	pop    rbx
    69c5:	pop    rbp
    69c6:	ret    
    69c7:	nop    WORD PTR [rax+rax*1+0x0]
    69d0:	mov    DWORD PTR [rbx],0x0
    69d6:	xor    eax,eax
    69d8:	jmp    69b0 <get_prompt+0x70>
    69da:	nop    WORD PTR [rax+rax*1+0x0]
    69e0:	cmp    WORD PTR [rsp+0x4],0x7470
    69e7:	jne    698c <get_prompt+0x4c>
    69e9:	cmp    BYTE PTR [rbp+0x6],0x0
    69ed:	jne    698c <get_prompt+0x4c>
    69ef:	mov    rsi,rbx
    69f2:	lea    rdi,[rip+0x147b1]        # 1b1aa <_IO_stdin_used+0x11aa>
    69f9:	xor    eax,eax
    69fb:	call   24a0 <__isoc99_scanf@plt>
    6a00:	jmp    699a <get_prompt+0x5a>
    6a02:	nop    WORD PTR [rax+rax*1+0x0]
    6a08:	mov    DWORD PTR [rbx],0x1
    6a0e:	xor    eax,eax
    6a10:	jmp    69b0 <get_prompt+0x70>
    6a12:	call   2350 <__stack_chk_fail@plt>
    6a17:	nop    WORD PTR [rax+rax*1+0x0]

0000000000006a20 <qcdhdr_destroy_hdr.part.0>:
    6a20:	push   rbp
    6a21:	mov    rbp,rdi
    6a24:	push   rbx
    6a25:	sub    rsp,0x8
    6a29:	mov    eax,DWORD PTR [rdi]
    6a2b:	test   eax,eax
    6a2d:	jle    6a5b <qcdhdr_destroy_hdr.part.0+0x3b>
    6a2f:	xor    ebx,ebx
    6a31:	nop    DWORD PTR [rax+0x0]
    6a38:	mov    rax,QWORD PTR [rbp+0x10]
    6a3c:	mov    rdi,QWORD PTR [rax+rbx*8]
    6a40:	call   22a0 <free@plt>
    6a45:	mov    rax,QWORD PTR [rbp+0x8]
    6a49:	mov    rdi,QWORD PTR [rax+rbx*8]
    6a4d:	add    rbx,0x1
    6a51:	call   22a0 <free@plt>
    6a56:	cmp    DWORD PTR [rbp+0x0],ebx
    6a59:	jg     6a38 <qcdhdr_destroy_hdr.part.0+0x18>
    6a5b:	mov    rdi,QWORD PTR [rbp+0x8]
    6a5f:	call   22a0 <free@plt>
    6a64:	mov    rdi,QWORD PTR [rbp+0x10]
    6a68:	call   22a0 <free@plt>
    6a6d:	add    rsp,0x8
    6a71:	mov    rdi,rbp
    6a74:	pop    rbx
    6a75:	pop    rbp
    6a76:	jmp    22a0 <free@plt>
    6a7b:	nop    DWORD PTR [rax+rax*1+0x0]

0000000000006a80 <pread_data.part.0>:
    6a80:	push   r12
    6a82:	mov    r12,rdi
    6a85:	push   rbx
    6a86:	mov    rbx,rsi
    6a89:	sub    rsp,0x8
    6a8d:	call   22c0 <__errno_location@plt>
    6a92:	mov    r8,rbx
    6a95:	mov    rdx,r12
    6a98:	mov    edi,0x1
    6a9d:	mov    r9d,DWORD PTR [rax]
    6aa0:	mov    ecx,DWORD PTR [rip+0x1be3e]        # 228e4 <this_node>
    6aa6:	lea    rsi,[rip+0x143cf]        # 1ae7c <_IO_stdin_used+0xe7c>
    6aad:	xor    eax,eax
    6aaf:	call   2470 <__printf_chk@plt>
    6ab4:	mov    rdi,QWORD PTR [rip+0x1b825]        # 222e0 <stdout@@GLIBC_2.2.5>
    6abb:	call   2420 <fflush@plt>
    6ac0:	add    rsp,0x8
    6ac4:	mov    eax,0x1
    6ac9:	pop    rbx
    6aca:	pop    r12
    6acc:	ret    
    6acd:	nop    DWORD PTR [rax]

0000000000006ad0 <read_site_list.part.0>:
    6ad0:	push   rbp
    6ad1:	mov    ebp,edi
    6ad3:	push   rbx
    6ad4:	mov    rbx,rsi
    6ad7:	mov    esi,0x4
    6adc:	sub    rsp,0x8
    6ae0:	movsxd rdi,DWORD PTR [rip+0x1b909]        # 223f0 <volume>
    6ae7:	call   23d0 <calloc@plt>
    6aec:	mov    QWORD PTR [rbx+0x20],rax
    6af0:	test   rax,rax
    6af3:	je     6bab <read_site_list.part.0+0xdb>
    6af9:	mov    rdi,rax
    6afc:	mov    eax,DWORD PTR [rip+0x1bde2]        # 228e4 <this_node>
    6b02:	movsxd rdx,DWORD PTR [rip+0x1b8e7]        # 223f0 <volume>
    6b09:	test   eax,eax
    6b0b:	jne    6b35 <read_site_list.part.0+0x65>
    6b0d:	mov    rcx,QWORD PTR [rbx]
    6b10:	mov    esi,0x4
    6b15:	test   ebp,ebp
    6b17:	jne    6b50 <read_site_list.part.0+0x80>
    6b19:	call   2300 <fread@plt>
    6b1e:	mov    esi,DWORD PTR [rip+0x1b8cc]        # 223f0 <volume>
    6b24:	cmp    esi,eax
    6b26:	jne    6b5f <read_site_list.part.0+0x8f>
    6b28:	cmp    DWORD PTR [rbx+0x18],0x1
    6b2c:	mov    rdi,QWORD PTR [rbx+0x20]
    6b30:	je     6b99 <read_site_list.part.0+0xc9>
    6b32:	movsxd rdx,esi
    6b35:	add    rsp,0x8
    6b39:	lea    esi,[rdx*4+0x0]
    6b40:	pop    rbx
    6b41:	pop    rbp
    6b42:	jmp    194c0 <broadcast_bytes>
    6b47:	nop    WORD PTR [rax+rax*1+0x0]
    6b50:	call   19d90 <g_read>
    6b55:	mov    esi,DWORD PTR [rip+0x1b895]        # 223f0 <volume>
    6b5b:	cmp    esi,eax
    6b5d:	je     6b28 <read_site_list.part.0+0x58>
    6b5f:	call   22c0 <__errno_location@plt>
    6b64:	mov    edx,DWORD PTR [rip+0x1bd7a]        # 228e4 <this_node>
    6b6a:	mov    edi,0x1
    6b6f:	lea    rsi,[rip+0x14832]        # 1b3a8 <_IO_stdin_used+0x13a8>
    6b76:	mov    ecx,DWORD PTR [rax]
    6b78:	xor    eax,eax
    6b7a:	call   2470 <__printf_chk@plt>
    6b7f:	mov    edi,0x1
    6b84:	call   19570 <terminate>
    6b89:	cmp    DWORD PTR [rbx+0x18],0x1
    6b8d:	mov    esi,DWORD PTR [rip+0x1b85d]        # 223f0 <volume>
    6b93:	mov    rdi,QWORD PTR [rbx+0x20]
    6b97:	jne    6b32 <read_site_list.part.0+0x62>
    6b99:	call   15960 <byterevn>
    6b9e:	mov    rdi,QWORD PTR [rbx+0x20]
    6ba2:	movsxd rdx,DWORD PTR [rip+0x1b847]        # 223f0 <volume>
    6ba9:	jmp    6b35 <read_site_list.part.0+0x65>
    6bab:	lea    rdi,[rip+0x147c6]        # 1b378 <_IO_stdin_used+0x1378>
    6bb2:	call   22f0 <puts@plt>
    6bb7:	mov    edi,0x1
    6bbc:	call   19570 <terminate>
    6bc1:	mov    rdi,QWORD PTR [rbx+0x20]
    6bc5:	jmp    6afc <read_site_list.part.0+0x2c>
    6bca:	nop    WORD PTR [rax+rax*1+0x0]

0000000000006bd0 <qcdhdr_get_str>:
    6bd0:	endbr64 
    6bd4:	push   r15
    6bd6:	push   r14
    6bd8:	push   r13
    6bda:	mov    r13,rdx
    6bdd:	push   r12
    6bdf:	push   rbp
    6be0:	push   rbx
    6be1:	sub    rsp,0x8
    6be5:	mov    eax,DWORD PTR [rsi]
    6be7:	test   al,al
    6be9:	jle    6c48 <qcdhdr_get_str+0x78>
    6beb:	movsx  eax,al
    6bee:	mov    r15,QWORD PTR [rsi+0x8]
    6bf2:	mov    rbx,rdi
    6bf5:	mov    r12,rsi
    6bf8:	sub    eax,0x1
    6bfb:	xor    r14d,r14d
    6bfe:	lea    rbp,[rax*8+0x8]
    6c06:	jmp    6c19 <qcdhdr_get_str+0x49>
    6c08:	nop    DWORD PTR [rax+rax*1+0x0]
    6c10:	add    r14,0x8
    6c14:	cmp    r14,rbp
    6c17:	je     6c48 <qcdhdr_get_str+0x78>
    6c19:	mov    rsi,QWORD PTR [r15+r14*1]
    6c1d:	mov    rdi,rbx
    6c20:	call   23e0 <strcmp@plt>
    6c25:	test   eax,eax
    6c27:	jne    6c10 <qcdhdr_get_str+0x40>
    6c29:	mov    rdx,QWORD PTR [r12+0x10]
    6c2e:	mov    rdx,QWORD PTR [rdx+r14*1]
    6c32:	mov    QWORD PTR [r13+0x0],rdx
    6c36:	add    rsp,0x8
    6c3a:	pop    rbx
    6c3b:	pop    rbp
    6c3c:	pop    r12
    6c3e:	pop    r13
    6c40:	pop    r14
    6c42:	pop    r15
    6c44:	ret    
    6c45:	nop    DWORD PTR [rax]
    6c48:	mov    QWORD PTR [r13+0x0],0x0
    6c50:	add    rsp,0x8
    6c54:	mov    eax,0xffffffff
    6c59:	pop    rbx
    6c5a:	pop    rbp
    6c5b:	pop    r12
    6c5d:	pop    r13
    6c5f:	pop    r14
    6c61:	pop    r15
    6c63:	ret    
    6c64:	data16 nop WORD PTR cs:[rax+rax*1+0x0]
    6c6f:	nop

0000000000006c70 <qcdhdr_get_int>:
    6c70:	endbr64 
    6c74:	push   r12
    6c76:	mov    r12,rdx
    6c79:	sub    rsp,0x10
    6c7d:	mov    rax,QWORD PTR fs:0x28
    6c86:	mov    QWORD PTR [rsp+0x8],rax
    6c8b:	xor    eax,eax
    6c8d:	mov    rdx,rsp
    6c90:	call   6bd0 <qcdhdr_get_str>
    6c95:	mov    rdi,QWORD PTR [rsp]
    6c99:	test   rdi,rdi
    6c9c:	je     6cc8 <qcdhdr_get_int+0x58>
    6c9e:	mov    rdx,r12
    6ca1:	lea    rsi,[rip+0x14502]        # 1b1aa <_IO_stdin_used+0x11aa>
    6ca8:	xor    eax,eax
    6caa:	call   2430 <__isoc99_sscanf@plt>
    6caf:	xor    eax,eax
    6cb1:	mov    rcx,QWORD PTR [rsp+0x8]
    6cb6:	xor    rcx,QWORD PTR fs:0x28
    6cbf:	jne    6ccf <qcdhdr_get_int+0x5f>
    6cc1:	add    rsp,0x10
    6cc5:	pop    r12
    6cc7:	ret    
    6cc8:	mov    eax,0xffffffff
    6ccd:	jmp    6cb1 <qcdhdr_get_int+0x41>
    6ccf:	call   2350 <__stack_chk_fail@plt>
    6cd4:	data16 nop WORD PTR cs:[rax+rax*1+0x0]
    6cdf:	nop

0000000000006ce0 <qcdhdr_get_int32x>:
    6ce0:	endbr64 
    6ce4:	push   rbx
    6ce5:	mov    rbx,rdx
    6ce8:	sub    rsp,0x20
    6cec:	mov    rax,QWORD PTR fs:0x28
    6cf5:	mov    QWORD PTR [rsp+0x18],rax
    6cfa:	xor    eax,eax
    6cfc:	lea    rdx,[rsp+0x10]
    6d01:	call   6bd0 <qcdhdr_get_str>
    6d06:	mov    rdi,QWORD PTR [rsp+0x10]
    6d0b:	test   rdi,rdi
    6d0e:	je     6d41 <qcdhdr_get_int32x+0x61>
    6d10:	lea    rdx,[rsp+0xc]
    6d15:	lea    rsi,[rip+0x141c2]        # 1aede <_IO_stdin_used+0xede>
    6d1c:	xor    eax,eax
    6d1e:	call   2430 <__isoc99_sscanf@plt>
    6d23:	mov    eax,DWORD PTR [rsp+0xc]
    6d27:	mov    DWORD PTR [rbx],eax
    6d29:	xor    eax,eax
    6d2b:	mov    rcx,QWORD PTR [rsp+0x18]
    6d30:	xor    rcx,QWORD PTR fs:0x28
    6d39:	jne    6d48 <qcdhdr_get_int32x+0x68>
    6d3b:	add    rsp,0x20
    6d3f:	pop    rbx
    6d40:	ret    
    6d41:	mov    eax,0xffffffff
    6d46:	jmp    6d2b <qcdhdr_get_int32x+0x4b>
    6d48:	call   2350 <__stack_chk_fail@plt>
    6d4d:	nop    DWORD PTR [rax]

0000000000006d50 <qcdhdr_get_double>:
    6d50:	endbr64 
    6d54:	push   r12
    6d56:	mov    r12,rdx
    6d59:	sub    rsp,0x10
    6d5d:	mov    rax,QWORD PTR fs:0x28
    6d66:	mov    QWORD PTR [rsp+0x8],rax
    6d6b:	xor    eax,eax
    6d6d:	mov    rdx,rsp
    6d70:	call   6bd0 <qcdhdr_get_str>
    6d75:	mov    rdi,QWORD PTR [rsp]
    6d79:	test   rdi,rdi
    6d7c:	je     6da8 <qcdhdr_get_double+0x58>
    6d7e:	mov    rdx,r12
    6d81:	lea    rsi,[rip+0x14067]        # 1adef <_IO_stdin_used+0xdef>
    6d88:	xor    eax,eax
    6d8a:	call   2430 <__isoc99_sscanf@plt>
    6d8f:	xor    eax,eax
    6d91:	mov    rcx,QWORD PTR [rsp+0x8]
    6d96:	xor    rcx,QWORD PTR fs:0x28
    6d9f:	jne    6daf <qcdhdr_get_double+0x5f>
    6da1:	add    rsp,0x10
    6da5:	pop    r12
    6da7:	ret    
    6da8:	mov    eax,0xffffffff
    6dad:	jmp    6d91 <qcdhdr_get_double+0x41>
    6daf:	call   2350 <__stack_chk_fail@plt>
    6db4:	data16 nop WORD PTR cs:[rax+rax*1+0x0]
    6dbf:	nop

0000000000006dc0 <error_exit>:
    6dc0:	endbr64 
    6dc4:	sub    rsp,0x8
    6dc8:	call   22f0 <puts@plt>
    6dcd:	mov    edi,0x1
    6dd2:	add    rsp,0x8
    6dd6:	jmp    19570 <terminate>
    6ddb:	nop    DWORD PTR [rax+rax*1+0x0]

0000000000006de0 <complete_U>:
    6de0:	endbr64 
    6de4:	movsd  xmm0,QWORD PTR [rdi+0x10]
    6de9:	movsd  xmm12,QWORD PTR [rdi+0x20]
    6def:	movsd  xmm11,QWORD PTR [rdi+0x50]
    6df5:	movsd  xmm2,QWORD PTR [rdi+0x40]
    6dfa:	movapd xmm5,xmm0
    6dfe:	movapd xmm6,xmm12
    6e03:	movsd  xmm3,QWORD PTR [rdi+0x18]
    6e08:	movsd  xmm1,QWORD PTR [rdi+0x58]
    6e0d:	mulsd  xmm6,xmm2
    6e11:	movsd  xmm10,QWORD PTR [rdi+0x28]
    6e17:	movsd  xmm4,QWORD PTR [rdi+0x48]
    6e1c:	movapd xmm9,xmm12
    6e21:	mulsd  xmm5,xmm11
    6e26:	movsd  xmm7,QWORD PTR [rdi]
    6e2a:	movapd xmm13,xmm11
    6e2f:	movsd  xmm8,QWORD PTR [rdi+0x38]
    6e35:	mulsd  xmm13,xmm7
    6e3a:	subsd  xmm5,xmm6
    6e3e:	movapd xmm6,xmm3
    6e42:	mulsd  xmm6,xmm1
    6e46:	subsd  xmm5,xmm6
    6e4a:	movapd xmm6,xmm10
    6e4f:	mulsd  xmm6,xmm4
    6e53:	addsd  xmm5,xmm6
    6e57:	movapd xmm6,xmm0
    6e5b:	mulsd  xmm6,xmm1
    6e5f:	movsd  QWORD PTR [rdi+0x60],xmm5
    6e64:	movapd xmm5,xmm12
    6e69:	mulsd  xmm5,xmm4
    6e6d:	mulsd  xmm12,xmm8
    6e72:	subsd  xmm5,xmm6
    6e76:	movapd xmm6,xmm2
    6e7a:	mulsd  xmm6,xmm10
    6e7f:	addsd  xmm5,xmm6
    6e83:	movapd xmm6,xmm11
    6e88:	mulsd  xmm6,xmm3
    6e8c:	subsd  xmm5,xmm6
    6e90:	movsd  xmm6,QWORD PTR [rdi+0x30]
    6e95:	mulsd  xmm9,xmm6
    6e9a:	movsd  QWORD PTR [rdi+0x68],xmm5
    6e9f:	movsd  xmm5,QWORD PTR [rdi+0x8]
    6ea4:	mulsd  xmm11,xmm5
    6ea9:	subsd  xmm9,xmm13
    6eae:	movapd xmm13,xmm10
    6eb3:	mulsd  xmm13,xmm8
    6eb8:	mulsd  xmm10,xmm6
    6ebd:	subsd  xmm9,xmm13
    6ec2:	movapd xmm13,xmm1
    6ec7:	mulsd  xmm1,xmm7
    6ecb:	mulsd  xmm13,xmm5
    6ed0:	subsd  xmm1,xmm12
    6ed5:	addsd  xmm9,xmm13
    6eda:	addsd  xmm1,xmm11
    6edf:	movsd  QWORD PTR [rdi+0x70],xmm9
    6ee5:	movapd xmm9,xmm0
    6eea:	mulsd  xmm9,xmm6
    6eef:	subsd  xmm1,xmm10
    6ef4:	mulsd  xmm0,xmm8
    6ef9:	movsd  QWORD PTR [rdi+0x78],xmm1
    6efe:	movapd xmm1,xmm2
    6f02:	mulsd  xmm1,xmm7
    6f06:	mulsd  xmm2,xmm5
    6f0a:	subsd  xmm1,xmm9
    6f0f:	movapd xmm9,xmm4
    6f14:	mulsd  xmm9,xmm5
    6f19:	mulsd  xmm4,xmm7
    6f1d:	subsd  xmm1,xmm9
    6f22:	movapd xmm9,xmm3
    6f27:	mulsd  xmm3,xmm6
    6f2b:	subsd  xmm0,xmm4
    6f2f:	mulsd  xmm9,xmm8
    6f34:	addsd  xmm0,xmm3
    6f38:	addsd  xmm1,xmm9
    6f3d:	subsd  xmm0,xmm2
    6f41:	movsd  QWORD PTR [rdi+0x80],xmm1
    6f49:	movsd  QWORD PTR [rdi+0x88],xmm0
    6f51:	ret    
    6f52:	data16 nop WORD PTR cs:[rax+rax*1+0x0]
    6f5d:	nop    DWORD PTR [rax]

0000000000006f60 <big_endian>:
    6f60:	endbr64 
    6f64:	xor    eax,eax
    6f66:	ret    
    6f67:	nop    WORD PTR [rax+rax*1+0x0]

0000000000006f70 <qcdhdr_get_hdr>:
    6f70:	endbr64 
    6f74:	push   r15
    6f76:	mov    rdx,rdi
    6f79:	mov    esi,0x400
    6f7e:	push   r14
    6f80:	push   r13
    6f82:	mov    r13,rdi
    6f85:	push   r12
    6f87:	push   rbp
    6f88:	push   rbx
    6f89:	sub    rsp,0x418
    6f90:	mov    rax,QWORD PTR fs:0x28
    6f99:	mov    QWORD PTR [rsp+0x408],rax
    6fa1:	xor    eax,eax
    6fa3:	mov    rbx,rsp
    6fa6:	mov    rdi,rbx
    6fa9:	call   23c0 <fgets@plt>
    6fae:	mov    esi,0x8
    6fb3:	mov    edi,0x200
    6fb8:	call   23d0 <calloc@plt>
    6fbd:	mov    esi,0x8
    6fc2:	mov    edi,0x200
    6fc7:	mov    r14,rax
    6fca:	call   23d0 <calloc@plt>
    6fcf:	mov    esi,0x18
    6fd4:	mov    edi,0x1
    6fd9:	mov    rbp,rax
    6fdc:	call   23d0 <calloc@plt>
    6fe1:	lea    rdi,[rip+0x13eb2]        # 1ae9a <_IO_stdin_used+0xe9a>
    6fe8:	mov    QWORD PTR [rax+0x10],rbp
    6fec:	mov    r12,rax
    6fef:	xor    ebp,ebp
    6ff1:	mov    QWORD PTR [rax+0x8],r14
    6ff5:	call   22f0 <puts@plt>
    6ffa:	jmp    708c <qcdhdr_get_hdr+0x11c>
    6fff:	nop
    7000:	mov    esi,0x20
    7005:	mov    rdi,rbx
    7008:	call   2360 <strchr@plt>
    700d:	mov    esi,0x8
    7012:	mov    r15,rax
    7015:	mov    BYTE PTR [rax],0x0
    7018:	sub    eax,ebx
    701a:	lea    edi,[rax+0x8]
    701d:	add    eax,0x1
    7020:	cmovns edi,eax
    7023:	sar    edi,0x3
    7026:	add    edi,0x1
    7029:	movsxd rdi,edi
    702c:	call   23d0 <calloc@plt>
    7031:	mov    rsi,rbx
    7034:	mov    rdi,rax
    7037:	mov    rax,QWORD PTR [r12+0x8]
    703c:	mov    QWORD PTR [rax+rbp*8],rdi
    7040:	call   22d0 <strcpy@plt>
    7045:	lea    rdi,[r15+0x1]
    7049:	mov    esi,0x3d
    704e:	call   2360 <strchr@plt>
    7053:	lea    r14,[rax+0x1]
    7057:	mov    r15,rax
    705a:	mov    rdi,r14
    705d:	call   2340 <strlen@plt>
    7062:	mov    esi,0x1
    7067:	movsxd rdi,eax
    706a:	mov    BYTE PTR [r15+rdi*1],0x0
    706f:	call   23d0 <calloc@plt>
    7074:	mov    rsi,r14
    7077:	mov    rdi,rax
    707a:	mov    rax,QWORD PTR [r12+0x10]
    707f:	mov    QWORD PTR [rax+rbp*8],rdi
    7083:	add    rbp,0x1
    7087:	call   22d0 <strcpy@plt>
    708c:	mov    rdx,r13
    708f:	mov    esi,0x400
    7094:	mov    rdi,rbx
    7097:	call   23c0 <fgets@plt>
    709c:	mov    rdx,rbx
    709f:	mov    edi,0x1
    70a4:	xor    eax,eax
    70a6:	lea    rsi,[rip+0x1321b]        # 1a2c8 <_IO_stdin_used+0x2c8>
    70ad:	call   2470 <__printf_chk@plt>
    70b2:	movabs rax,0x444145485f444e45
    70bc:	cmp    QWORD PTR [rbx],rax
    70bf:	jne    7000 <qcdhdr_get_hdr+0x90>
    70c5:	cmp    DWORD PTR [rbx+0x8],0xa5245
    70cc:	jne    7000 <qcdhdr_get_hdr+0x90>
    70d2:	mov    DWORD PTR [r12],ebp
    70d6:	mov    rax,QWORD PTR [rsp+0x408]
    70de:	xor    rax,QWORD PTR fs:0x28
    70e7:	jne    70fe <qcdhdr_get_hdr+0x18e>
    70e9:	add    rsp,0x418
    70f0:	mov    rax,r12
    70f3:	pop    rbx
    70f4:	pop    rbp
    70f5:	pop    r12
    70f7:	pop    r13
    70f9:	pop    r14
    70fb:	pop    r15
    70fd:	ret    
    70fe:	call   2350 <__stack_chk_fail@plt>
    7103:	data16 nop WORD PTR cs:[rax+rax*1+0x0]
    710e:	xchg   ax,ax

0000000000007110 <qcdhdr_destroy_hdr>:
    7110:	endbr64 
    7114:	test   rdi,rdi
    7117:	je     7120 <qcdhdr_destroy_hdr+0x10>
    7119:	jmp    6a20 <qcdhdr_destroy_hdr.part.0>
    711e:	xchg   ax,ax
    7120:	ret    
    7121:	data16 nop WORD PTR cs:[rax+rax*1+0x0]
    712c:	nop    DWORD PTR [rax+0x0]

0000000000007130 <swrite_data>:
    7130:	endbr64 
    7134:	push   r12
    7136:	mov    r9,rdi
    7139:	mov    r12,rcx
    713c:	mov    rdi,rsi
    713f:	push   rbx
    7140:	mov    rsi,rdx
    7143:	mov    rcx,r9
    7146:	mov    edx,0x1
    714b:	mov    rbx,r8
    714e:	sub    rsp,0x8
    7152:	call   24c0 <fwrite@plt>
    7157:	cmp    rax,0x1
    715b:	jne    7168 <swrite_data+0x38>
    715d:	add    rsp,0x8
    7161:	pop    rbx
    7162:	pop    r12
    7164:	ret    
    7165:	nop    DWORD PTR [rax]
    7168:	call   22c0 <__errno_location@plt>
    716d:	mov    r8,rbx
    7170:	mov    rdx,r12
    7173:	mov    edi,0x1
    7178:	mov    r9d,DWORD PTR [rax]
    717b:	mov    ecx,DWORD PTR [rip+0x1b763]        # 228e4 <this_node>
    7181:	lea    rsi,[rip+0x14258]        # 1b3e0 <_IO_stdin_used+0x13e0>
    7188:	xor    eax,eax
    718a:	call   2470 <__printf_chk@plt>
    718f:	mov    rdi,QWORD PTR [rip+0x1b14a]        # 222e0 <stdout@@GLIBC_2.2.5>
    7196:	call   2420 <fflush@plt>
    719b:	add    rsp,0x8
    719f:	mov    edi,0x1
    71a4:	pop    rbx
    71a5:	pop    r12
    71a7:	jmp    19570 <terminate>
    71ac:	nop    DWORD PTR [rax+0x0]

00000000000071b0 <pwrite_data>:
    71b0:	endbr64 
    71b4:	push   r12
    71b6:	mov    r9,rdi
    71b9:	mov    r12,rcx
    71bc:	mov    rdi,rsi
    71bf:	push   rbx
    71c0:	mov    rsi,rdx
    71c3:	mov    rcx,r9
    71c6:	mov    edx,0x1
    71cb:	mov    rbx,r8
    71ce:	sub    rsp,0x8
    71d2:	call   19d70 <g_write>
    71d7:	cmp    rax,0x1
    71db:	jne    71e8 <pwrite_data+0x38>
    71dd:	add    rsp,0x8
    71e1:	pop    rbx
    71e2:	pop    r12
    71e4:	ret    
    71e5:	nop    DWORD PTR [rax]
    71e8:	call   22c0 <__errno_location@plt>
    71ed:	mov    r8,rbx
    71f0:	mov    rdx,r12
    71f3:	mov    edi,0x1
    71f8:	mov    r9d,DWORD PTR [rax]
    71fb:	mov    ecx,DWORD PTR [rip+0x1b6e3]        # 228e4 <this_node>
    7201:	lea    rsi,[rip+0x141f8]        # 1b400 <_IO_stdin_used+0x1400>
    7208:	xor    eax,eax
    720a:	call   2470 <__printf_chk@plt>
    720f:	mov    rdi,QWORD PTR [rip+0x1b0ca]        # 222e0 <stdout@@GLIBC_2.2.5>
    7216:	call   2420 <fflush@plt>
    721b:	add    rsp,0x8
    721f:	mov    edi,0x1
    7224:	pop    rbx
    7225:	pop    r12
    7227:	jmp    19570 <terminate>
    722c:	nop    DWORD PTR [rax+0x0]

0000000000007230 <pswrite_data>:
    7230:	endbr64 
    7234:	mov    r10d,edi
    7237:	mov    rdi,rsi
    723a:	mov    rsi,rdx
    723d:	mov    rdx,rcx
    7240:	mov    rcx,r8
    7243:	mov    r8,r9
    7246:	test   r10d,r10d
    7249:	je     7250 <pswrite_data+0x20>
    724b:	jmp    71b0 <pwrite_data>
    7250:	jmp    7130 <swrite_data>
    7255:	data16 nop WORD PTR cs:[rax+rax*1+0x0]

0000000000007260 <sread_data>:
    7260:	endbr64 
    7264:	push   r12
    7266:	mov    r9,rdi
    7269:	mov    rdi,rsi
    726c:	mov    rsi,rdx
    726f:	push   rbp
    7270:	mov    edx,0x1
    7275:	mov    rbp,rcx
    7278:	mov    rcx,r9
    727b:	mov    r12,r8
    727e:	sub    rsp,0x8
    7282:	call   2300 <fread@plt>
    7287:	cmp    rax,0x1
    728b:	jne    72a0 <sread_data+0x40>
    728d:	add    rsp,0x8
    7291:	xor    eax,eax
    7293:	pop    rbp
    7294:	pop    r12
    7296:	ret    
    7297:	nop    WORD PTR [rax+rax*1+0x0]
    72a0:	add    rsp,0x8
    72a4:	mov    rsi,r12
    72a7:	mov    rdi,rbp
    72aa:	pop    rbp
    72ab:	pop    r12
    72ad:	jmp    6a80 <pread_data.part.0>
    72b2:	data16 nop WORD PTR cs:[rax+rax*1+0x0]
    72bd:	nop    DWORD PTR [rax]

00000000000072c0 <pread_data>:
    72c0:	endbr64 
    72c4:	push   r12
    72c6:	mov    r9,rdi
    72c9:	mov    rdi,rsi
    72cc:	mov    rsi,rdx
    72cf:	push   rbp
    72d0:	mov    edx,0x1
    72d5:	mov    rbp,rcx
    72d8:	mov    rcx,r9
    72db:	mov    r12,r8
    72de:	sub    rsp,0x8
    72e2:	call   19d90 <g_read>
    72e7:	cmp    rax,0x1
    72eb:	jne    7300 <pread_data+0x40>
    72ed:	add    rsp,0x8
    72f1:	xor    eax,eax
    72f3:	pop    rbp
    72f4:	pop    r12
    72f6:	ret    
    72f7:	nop    WORD PTR [rax+rax*1+0x0]
    7300:	add    rsp,0x8
    7304:	mov    rsi,r12
    7307:	mov    rdi,rbp
    730a:	pop    rbp
    730b:	pop    r12
    730d:	jmp    6a80 <pread_data.part.0>
    7312:	data16 nop WORD PTR cs:[rax+rax*1+0x0]
    731d:	nop    DWORD PTR [rax]

0000000000007320 <pread_byteorder>:
    7320:	endbr64 
    7324:	push   r12
    7326:	mov    r12d,edi
    7329:	mov    rdi,rsi
    732c:	push   rbp
    732d:	mov    rbp,rdx
    7330:	push   rbx
    7331:	mov    rbx,rcx
    7334:	mov    rsi,rbp
    7337:	mov    rcx,r8
    733a:	mov    rdx,rbx
    733d:	mov    r8,r9
    7340:	sub    rsp,0x10
    7344:	call   72c0 <pread_data>
    7349:	cmp    r12d,0x1
    734d:	je     7360 <pread_byteorder+0x40>
    734f:	add    rsp,0x10
    7353:	pop    rbx
    7354:	pop    rbp
    7355:	pop    r12
    7357:	ret    
    7358:	nop    DWORD PTR [rax+rax*1+0x0]
    7360:	shr    rbx,0x2
    7364:	mov    rdi,rbp
    7367:	mov    DWORD PTR [rsp+0xc],eax
    736b:	mov    rsi,rbx
    736e:	call   15960 <byterevn>
    7373:	mov    eax,DWORD PTR [rsp+0xc]
    7377:	add    rsp,0x10
    737b:	pop    rbx
    737c:	pop    rbp
    737d:	pop    r12
    737f:	ret    

0000000000007380 <sread_byteorder>:
    7380:	endbr64 
    7384:	push   r12
    7386:	mov    r12d,edi
    7389:	mov    rdi,rsi
    738c:	push   rbp
    738d:	mov    rbp,rdx
    7390:	push   rbx
    7391:	mov    rbx,rcx
    7394:	mov    rsi,rbp
    7397:	mov    rcx,r8
    739a:	mov    rdx,rbx
    739d:	mov    r8,r9
    73a0:	sub    rsp,0x10
    73a4:	call   7260 <sread_data>
    73a9:	cmp    r12d,0x1
    73ad:	je     73c0 <sread_byteorder+0x40>
    73af:	add    rsp,0x10
    73b3:	pop    rbx
    73b4:	pop    rbp
    73b5:	pop    r12
    73b7:	ret    
    73b8:	nop    DWORD PTR [rax+rax*1+0x0]
    73c0:	shr    rbx,0x2
    73c4:	mov    rdi,rbp
    73c7:	mov    DWORD PTR [rsp+0xc],eax
    73cb:	mov    rsi,rbx
    73ce:	call   15960 <byterevn>
    73d3:	mov    eax,DWORD PTR [rsp+0xc]
    73d7:	add    rsp,0x10
    73db:	pop    rbx
    73dc:	pop    rbp
    73dd:	pop    r12
    73df:	ret    

00000000000073e0 <psread_data>:
    73e0:	endbr64 
    73e4:	mov    r10d,edi
    73e7:	mov    rdi,rsi
    73ea:	mov    rsi,rdx
    73ed:	mov    rdx,rcx
    73f0:	mov    rcx,r8
    73f3:	mov    r8,r9
    73f6:	test   r10d,r10d
    73f9:	je     7400 <psread_data+0x20>
    73fb:	jmp    72c0 <pread_data>
    7400:	jmp    7260 <sread_data>
    7405:	data16 nop WORD PTR cs:[rax+rax*1+0x0]

0000000000007410 <psread_byteorder>:
    7410:	endbr64 
    7414:	mov    r10d,esi
    7417:	mov    rsi,rdx
    741a:	mov    rdx,rcx
    741d:	mov    rcx,r8
    7420:	mov    r8,r9
    7423:	mov    r9,QWORD PTR [rsp+0x8]
    7428:	test   r10d,r10d
    742b:	je     7438 <psread_byteorder+0x28>
    742d:	jmp    7320 <pread_byteorder>
    7432:	nop    WORD PTR [rax+rax*1+0x0]
    7438:	jmp    7380 <sread_byteorder>
    743d:	nop    DWORD PTR [rax]

0000000000007440 <pwrite_gauge_hdr>:
    7440:	endbr64 
    7444:	push   r12
    7446:	lea    r8,[rip+0x12bed]        # 1a03a <_IO_stdin_used+0x3a>
    744d:	mov    edx,0x4
    7452:	push   rbp
    7453:	mov    rbp,rdi
    7456:	push   rbx
    7457:	mov    rbx,rsi
    745a:	sub    rsp,0x20
    745e:	movdqa xmm0,XMMWORD PTR [rip+0x14e4a]        # 1c2b0 <_IO_stdin_used+0x22b0>
    7466:	mov    rax,QWORD PTR fs:0x28
    746f:	mov    QWORD PTR [rsp+0x18],rax
    7474:	xor    eax,eax
    7476:	mov    r12,rsp
    7479:	mov    BYTE PTR [rsp+0x10],0x0
    747e:	mov    rcx,r12
    7481:	movaps XMMWORD PTR [rsp],xmm0
    7485:	call   71b0 <pwrite_data>
    748a:	lea    rsi,[rbx+0x44]
    748e:	mov    rcx,r12
    7491:	mov    rdi,rbp
    7494:	lea    r8,[rip+0x13d5a]        # 1b1f5 <_IO_stdin_used+0x11f5>
    749b:	mov    edx,0x10
    74a0:	call   71b0 <pwrite_data>
    74a5:	lea    rsi,[rbx+0x4]
    74a9:	mov    rcx,r12
    74ac:	mov    rdi,rbp
    74af:	lea    r8,[rip+0x12c2a]        # 1a0e0 <_IO_stdin_used+0xe0>
    74b6:	mov    edx,0x40
    74bb:	call   71b0 <pwrite_data>
    74c0:	lea    rsi,[rbx+0x58]
    74c4:	mov    rcx,r12
    74c7:	mov    rdi,rbp
    74ca:	lea    r8,[rip+0x139ed]        # 1aebe <_IO_stdin_used+0xebe>
    74d1:	mov    edx,0x4
    74d6:	call   71b0 <pwrite_data>
    74db:	mov    DWORD PTR [rbx+0x54],0x58
    74e2:	mov    rax,QWORD PTR [rsp+0x18]
    74e7:	xor    rax,QWORD PTR fs:0x28
    74f0:	jne    74fb <pwrite_gauge_hdr+0xbb>
    74f2:	add    rsp,0x20
    74f6:	pop    rbx
    74f7:	pop    rbp
    74f8:	pop    r12
    74fa:	ret    
    74fb:	call   2350 <__stack_chk_fail@plt>

0000000000007500 <swrite_gauge_hdr>:
    7500:	endbr64 
    7504:	push   r12
    7506:	lea    r8,[rip+0x12b2d]        # 1a03a <_IO_stdin_used+0x3a>
    750d:	mov    edx,0x4
    7512:	push   rbp
    7513:	mov    rbp,rdi
    7516:	push   rbx
    7517:	mov    rbx,rsi
    751a:	sub    rsp,0x20
    751e:	movdqa xmm0,XMMWORD PTR [rip+0x14d9a]        # 1c2c0 <_IO_stdin_used+0x22c0>
    7526:	mov    rax,QWORD PTR fs:0x28
    752f:	mov    QWORD PTR [rsp+0x18],rax
    7534:	xor    eax,eax
    7536:	mov    r12,rsp
    7539:	mov    BYTE PTR [rsp+0x10],0x0
    753e:	mov    rcx,r12
    7541:	movaps XMMWORD PTR [rsp],xmm0
    7545:	call   7130 <swrite_data>
    754a:	lea    rsi,[rbx+0x44]
    754e:	mov    rcx,r12
    7551:	mov    rdi,rbp
    7554:	lea    r8,[rip+0x13c9a]        # 1b1f5 <_IO_stdin_used+0x11f5>
    755b:	mov    edx,0x10
    7560:	call   7130 <swrite_data>
    7565:	lea    rsi,[rbx+0x4]
    7569:	mov    rcx,r12
    756c:	mov    rdi,rbp
    756f:	lea    r8,[rip+0x12b6a]        # 1a0e0 <_IO_stdin_used+0xe0>
    7576:	mov    edx,0x40
    757b:	call   7130 <swrite_data>
    7580:	lea    rsi,[rbx+0x58]
    7584:	mov    rcx,r12
    7587:	mov    rdi,rbp
    758a:	lea    r8,[rip+0x1392d]        # 1aebe <_IO_stdin_used+0xebe>
    7591:	mov    edx,0x4
    7596:	call   7130 <swrite_data>
    759b:	mov    DWORD PTR [rbx+0x54],0x58
    75a2:	mov    rax,QWORD PTR [rsp+0x18]
    75a7:	xor    rax,QWORD PTR fs:0x28
    75b0:	jne    75bb <swrite_gauge_hdr+0xbb>
    75b2:	add    rsp,0x20
    75b6:	pop    rbx
    75b7:	pop    rbp
    75b8:	pop    r12
    75ba:	ret    
    75bb:	call   2350 <__stack_chk_fail@plt>

00000000000075c0 <write_gauge_info_item>:
    75c0:	endbr64 
    75c4:	push   r15
    75c6:	mov    r15,rsi
    75c9:	push   r14
    75cb:	mov    r14d,r8d
    75ce:	push   r13
    75d0:	mov    r13,rdi
    75d3:	push   r12
    75d5:	mov    r12,rdx
    75d8:	push   rbp
    75d9:	lea    rbp,[rip+0x1aa48]        # 22028 <gauge_info_keyword+0x8>
    75e0:	push   rbx
    75e1:	mov    rbx,rcx
    75e4:	sub    rsp,0x18
    75e8:	mov    rdi,QWORD PTR [rip+0x1aa31]        # 22020 <gauge_info_keyword>
    75ef:	mov    DWORD PTR [rsp+0xc],r9d
    75f4:	cmp    BYTE PTR [rdi],0x0
    75f7:	jne    7611 <write_gauge_info_item+0x51>
    75f9:	jmp    7790 <write_gauge_info_item+0x1d0>
    75fe:	xchg   ax,ax
    7600:	mov    rdi,QWORD PTR [rbp+0x0]
    7604:	add    rbp,0x8
    7608:	cmp    BYTE PTR [rdi],0x0
    760b:	je     7790 <write_gauge_info_item+0x1d0>
    7611:	mov    rsi,r15
    7614:	call   23e0 <strcmp@plt>
    7619:	test   eax,eax
    761b:	jne    7600 <write_gauge_info_item+0x40>
    761d:	xor    eax,eax
    761f:	mov    rcx,r15
    7622:	lea    rdx,[rip+0x1389b]        # 1aec4 <_IO_stdin_used+0xec4>
    7629:	mov    rdi,r13
    762c:	mov    esi,0x1
    7631:	call   24d0 <__fprintf_chk@plt>
    7636:	cmp    r14d,0x1
    763a:	jg     7768 <write_gauge_info_item+0x1a8>
    7640:	test   r14d,r14d
    7643:	jne    77ab <write_gauge_info_item+0x1eb>
    7649:	mov    r14d,0x1
    764f:	movsxd r15,DWORD PTR [rsp+0xc]
    7654:	xor    ebp,ebp
    7656:	jmp    7680 <write_gauge_info_item+0xc0>
    7658:	nop    DWORD PTR [rax+rax*1+0x0]
    7660:	mov    rcx,rbx
    7663:	mov    rdx,r12
    7666:	mov    esi,0x1
    766b:	mov    rdi,r13
    766e:	xor    eax,eax
    7670:	call   24d0 <__fprintf_chk@plt>
    7675:	add    ebp,0x1
    7678:	add    rbx,r15
    767b:	cmp    r14d,ebp
    767e:	jle    76d0 <write_gauge_info_item+0x110>
    7680:	mov    rsi,r13
    7683:	mov    edi,0x20
    7688:	call   23a0 <fputc@plt>
    768d:	mov    esi,0x73
    7692:	mov    rdi,r12
    7695:	call   2360 <strchr@plt>
    769a:	test   rax,rax
    769d:	jne    7660 <write_gauge_info_item+0xa0>
    769f:	mov    esi,0x64
    76a4:	mov    rdi,r12
    76a7:	call   2360 <strchr@plt>
    76ac:	test   rax,rax
    76af:	je     76f0 <write_gauge_info_item+0x130>
    76b1:	mov    ecx,DWORD PTR [rbx]
    76b3:	mov    rdx,r12
    76b6:	mov    esi,0x1
    76bb:	mov    rdi,r13
    76be:	xor    eax,eax
    76c0:	add    ebp,0x1
    76c3:	add    rbx,r15
    76c6:	call   24d0 <__fprintf_chk@plt>
    76cb:	cmp    r14d,ebp
    76ce:	jg     7680 <write_gauge_info_item+0xc0>
    76d0:	mov    rsi,r13
    76d3:	mov    edi,0xa
    76d8:	call   23a0 <fputc@plt>
    76dd:	xor    eax,eax
    76df:	add    rsp,0x18
    76e3:	pop    rbx
    76e4:	pop    rbp
    76e5:	pop    r12
    76e7:	pop    r13
    76e9:	pop    r14
    76eb:	pop    r15
    76ed:	ret    
    76ee:	xchg   ax,ax
    76f0:	mov    esi,0x65
    76f5:	mov    rdi,r12
    76f8:	call   2360 <strchr@plt>
    76fd:	test   rax,rax
    7700:	je     7720 <write_gauge_info_item+0x160>
    7702:	movsd  xmm0,QWORD PTR [rbx]
    7706:	mov    rdx,r12
    7709:	mov    esi,0x1
    770e:	mov    rdi,r13
    7711:	mov    eax,0x1
    7716:	call   24d0 <__fprintf_chk@plt>
    771b:	jmp    7675 <write_gauge_info_item+0xb5>
    7720:	mov    esi,0x66
    7725:	mov    rdi,r12
    7728:	call   2360 <strchr@plt>
    772d:	test   rax,rax
    7730:	jne    7702 <write_gauge_info_item+0x142>
    7732:	mov    esi,0x67
    7737:	mov    rdi,r12
    773a:	call   2360 <strchr@plt>
    773f:	test   rax,rax
    7742:	jne    7702 <write_gauge_info_item+0x142>
    7744:	mov    rdx,r12
    7747:	lea    rsi,[rip+0x13cda]        # 1b428 <_IO_stdin_used+0x1428>
    774e:	mov    edi,0x1
    7753:	xor    eax,eax
    7755:	call   2470 <__printf_chk@plt>
    775a:	mov    eax,0x1
    775f:	jmp    76df <write_gauge_info_item+0x11f>
    7764:	nop    DWORD PTR [rax+0x0]
    7768:	mov    ecx,r14d
    776b:	lea    rdx,[rip+0x13757]        # 1aec9 <_IO_stdin_used+0xec9>
    7772:	mov    rdi,r13
    7775:	xor    eax,eax
    7777:	mov    esi,0x1
    777c:	call   24d0 <__fprintf_chk@plt>
    7781:	jmp    764f <write_gauge_info_item+0x8f>
    7786:	nop    WORD PTR cs:[rax+rax*1+0x0]
    7790:	mov    rdx,r15
    7793:	lea    rsi,[rip+0x13cc6]        # 1b460 <_IO_stdin_used+0x1460>
    779a:	mov    edi,0x1
    779f:	xor    eax,eax
    77a1:	call   2470 <__printf_chk@plt>
    77a6:	jmp    761d <write_gauge_info_item+0x5d>
    77ab:	cmp    r14d,0x1
    77af:	jne    76d0 <write_gauge_info_item+0x110>
    77b5:	jmp    764f <write_gauge_info_item+0x8f>
    77ba:	nop    WORD PTR [rax+rax*1+0x0]

00000000000077c0 <write_gauge_info_file>:
    77c0:	endbr64 
    77c4:	push   r13
    77c6:	mov    edx,0x100
    77cb:	push   r12
    77cd:	push   rbp
    77ce:	push   rbx
    77cf:	mov    rbx,rdi
    77d2:	sub    rsp,0x138
    77d9:	mov    rsi,QWORD PTR [rdi+0x10]
    77dd:	mov    r13,QWORD PTR [rdi+0x8]
    77e1:	mov    rax,QWORD PTR fs:0x28
    77ea:	mov    QWORD PTR [rsp+0x128],rax
    77f2:	xor    eax,eax
    77f4:	lea    r12,[rsp+0x20]
    77f9:	mov    rdi,r12
    77fc:	call   2410 <__stpcpy_chk@plt>
    7801:	mov    rcx,r12
    7804:	mov    edx,0x6
    7809:	lea    rsi,[rip+0x136be]        # 1aece <_IO_stdin_used+0xece>
    7810:	sub    rcx,rax
    7813:	mov    rdi,rax
    7816:	add    rcx,0x100
    781d:	call   23f0 <__memcpy_chk@plt>
    7822:	lea    rsi,[rip+0x136ab]        # 1aed4 <_IO_stdin_used+0xed4>
    7829:	mov    rdi,r12
    782c:	call   2490 <fopen@plt>
    7831:	test   rax,rax
    7834:	je     7998 <write_gauge_info_file+0x1d8>
    783a:	mov    rbp,rax
    783d:	mov    rcx,r13
    7840:	xor    r9d,r9d
    7843:	xor    r8d,r8d
    7846:	lea    rdx,[rip+0x1395d]        # 1b1aa <_IO_stdin_used+0x11aa>
    784d:	lea    rsi,[rip+0x127e6]        # 1a03a <_IO_stdin_used+0x3a>
    7854:	mov    rdi,rax
    7857:	call   75c0 <write_gauge_info_item>
    785c:	lea    rcx,[r13+0x4]
    7860:	xor    r9d,r9d
    7863:	xor    r8d,r8d
    7866:	lea    rdx,[rip+0x13669]        # 1aed6 <_IO_stdin_used+0xed6>
    786d:	lea    rsi,[rip+0x1286c]        # 1a0e0 <_IO_stdin_used+0xe0>
    7874:	mov    rdi,rbp
    7877:	mov    r13,rsp
    787a:	call   75c0 <write_gauge_info_item>
    787f:	mov    r9d,DWORD PTR [rbx+0x2c]
    7883:	mov    r8d,DWORD PTR [rbx+0x30]
    7887:	mov    rdi,r13
    788a:	lea    rcx,[rip+0x1364a]        # 1aedb <_IO_stdin_used+0xedb>
    7891:	mov    edx,0x14
    7896:	mov    esi,0x1
    789b:	xor    eax,eax
    789d:	call   24f0 <__sprintf_chk@plt>
    78a2:	xor    r9d,r9d
    78a5:	xor    r8d,r8d
    78a8:	mov    rcx,r13
    78ab:	lea    rdx,[rip+0x13624]        # 1aed6 <_IO_stdin_used+0xed6>
    78b2:	lea    rsi,[rip+0x12841]        # 1a0fa <_IO_stdin_used+0xfa>
    78b9:	mov    rdi,rbp
    78bc:	call   75c0 <write_gauge_info_item>
    78c1:	xor    r9d,r9d
    78c4:	xor    r8d,r8d
    78c7:	mov    rdi,rbp
    78ca:	lea    rcx,[rip+0x1ab07]        # 223d8 <nx>
    78d1:	lea    rdx,[rip+0x138d2]        # 1b1aa <_IO_stdin_used+0x11aa>
    78d8:	lea    rsi,[rip+0x12768]        # 1a047 <_IO_stdin_used+0x47>
    78df:	call   75c0 <write_gauge_info_item>
    78e4:	xor    r9d,r9d
    78e7:	xor    r8d,r8d
    78ea:	mov    rdi,rbp
    78ed:	lea    rcx,[rip+0x1af48]        # 2283c <ny>
    78f4:	lea    rdx,[rip+0x138af]        # 1b1aa <_IO_stdin_used+0x11aa>
    78fb:	lea    rsi,[rip+0x12748]        # 1a04a <_IO_stdin_used+0x4a>
    7902:	call   75c0 <write_gauge_info_item>
    7907:	xor    r9d,r9d
    790a:	xor    r8d,r8d
    790d:	mov    rdi,rbp
    7910:	lea    rcx,[rip+0x1aabd]        # 223d4 <nz>
    7917:	lea    rdx,[rip+0x1388c]        # 1b1aa <_IO_stdin_used+0x11aa>
    791e:	lea    rsi,[rip+0x12728]        # 1a04d <_IO_stdin_used+0x4d>
    7925:	call   75c0 <write_gauge_info_item>
    792a:	xor    r9d,r9d
    792d:	xor    r8d,r8d
    7930:	mov    rdi,rbp
    7933:	lea    rdx,[rip+0x13870]        # 1b1aa <_IO_stdin_used+0x11aa>
    793a:	lea    rsi,[rip+0x13758]        # 1b099 <_IO_stdin_used+0x1099>
    7941:	lea    rcx,[rip+0x1aa88]        # 223d0 <nt>
    7948:	call   75c0 <write_gauge_info_item>
    794d:	mov    rdi,rbp
    7950:	call   2ad0 <write_appl_gauge_info>
    7955:	mov    rdi,rbp
    7958:	call   2320 <fclose@plt>
    795d:	mov    rdx,r12
    7960:	mov    edi,0x1
    7965:	xor    eax,eax
    7967:	lea    rsi,[rip+0x13573]        # 1aee1 <_IO_stdin_used+0xee1>
    796e:	call   2470 <__printf_chk@plt>
    7973:	mov    rax,QWORD PTR [rsp+0x128]
    797b:	xor    rax,QWORD PTR fs:0x28
    7984:	jne    79b0 <write_gauge_info_file+0x1f0>
    7986:	add    rsp,0x138
    798d:	pop    rbx
    798e:	pop    rbp
    798f:	pop    r12
    7991:	pop    r13
    7993:	ret    
    7994:	nop    DWORD PTR [rax+0x0]
    7998:	mov    rdx,r12
    799b:	lea    rsi,[rip+0x13afe]        # 1b4a0 <_IO_stdin_used+0x14a0>
    79a2:	mov    edi,0x1
    79a7:	xor    eax,eax
    79a9:	call   2470 <__printf_chk@plt>
    79ae:	jmp    7973 <write_gauge_info_file+0x1b3>
    79b0:	call   2350 <__stack_chk_fail@plt>
    79b5:	data16 nop WORD PTR cs:[rax+rax*1+0x0]

00000000000079c0 <setup_input_gauge_file>:
    79c0:	endbr64 
    79c4:	push   r12
    79c6:	mov    esi,0x38
    79cb:	push   rbx
    79cc:	mov    rbx,rdi
    79cf:	mov    edi,0x1
    79d4:	sub    rsp,0x28
    79d8:	movdqa xmm0,XMMWORD PTR [rip+0x148f0]        # 1c2d0 <_IO_stdin_used+0x22d0>
    79e0:	mov    rax,QWORD PTR fs:0x28
    79e9:	mov    QWORD PTR [rsp+0x18],rax
    79ee:	xor    eax,eax
    79f0:	mov    eax,0x656c
    79f5:	mov    DWORD PTR [rsp+0x10],0x69665f65
    79fd:	mov    WORD PTR [rsp+0x14],ax
    7a02:	mov    BYTE PTR [rsp+0x16],0x0
    7a07:	movaps XMMWORD PTR [rsp],xmm0
    7a0b:	call   23d0 <calloc@plt>
    7a10:	mov    r12,rax
    7a13:	test   rax,rax
    7a16:	je     7a5d <setup_input_gauge_file+0x9d>
    7a18:	mov    esi,0x5c
    7a1d:	mov    edi,0x1
    7a22:	mov    QWORD PTR [r12+0x10],rbx
    7a27:	call   23d0 <calloc@plt>
    7a2c:	mov    rbx,rax
    7a2f:	test   rax,rax
    7a32:	je     7a84 <setup_input_gauge_file+0xc4>
    7a34:	mov    QWORD PTR [r12+0x8],rbx
    7a39:	mov    QWORD PTR [r12+0x2c],0x0
    7a42:	mov    rax,QWORD PTR [rsp+0x18]
    7a47:	xor    rax,QWORD PTR fs:0x28
    7a50:	jne    7a7f <setup_input_gauge_file+0xbf>
    7a52:	add    rsp,0x28
    7a56:	mov    rax,r12
    7a59:	pop    rbx
    7a5a:	pop    r12
    7a5c:	ret    
    7a5d:	mov    rdx,rsp
    7a60:	lea    rsi,[rip+0x1348e]        # 1aef5 <_IO_stdin_used+0xef5>
    7a67:	mov    edi,0x1
    7a6c:	xor    eax,eax
    7a6e:	call   2470 <__printf_chk@plt>
    7a73:	mov    edi,0x1
    7a78:	call   19570 <terminate>
    7a7d:	jmp    7a18 <setup_input_gauge_file+0x58>
    7a7f:	call   2350 <__stack_chk_fail@plt>
    7a84:	mov    rdx,rsp
    7a87:	lea    rsi,[rip+0x1347c]        # 1af0a <_IO_stdin_used+0xf0a>
    7a8e:	mov    edi,0x1
    7a93:	xor    eax,eax
    7a95:	call   2470 <__printf_chk@plt>
    7a9a:	mov    edi,0x1
    7a9f:	call   19570 <terminate>
    7aa4:	jmp    7a34 <setup_input_gauge_file+0x74>
    7aa6:	nop    WORD PTR cs:[rax+rax*1+0x0]

0000000000007ab0 <setup_output_gauge_file>:
    7ab0:	endbr64 
    7ab4:	push   r13
    7ab6:	mov    esi,0x38
    7abb:	mov    edi,0x1
    7ac0:	push   r12
    7ac2:	push   rbp
    7ac3:	push   rbx
    7ac4:	sub    rsp,0x38
    7ac8:	movdqa xmm0,XMMWORD PTR [rip+0x14810]        # 1c2e0 <_IO_stdin_used+0x22e0>
    7ad0:	mov    rax,QWORD PTR fs:0x28
    7ad9:	mov    QWORD PTR [rsp+0x28],rax
    7ade:	xor    eax,eax
    7ae0:	movabs rax,0x656c69665f6567
    7aea:	mov    QWORD PTR [rsp+0x20],rax
    7aef:	movaps XMMWORD PTR [rsp+0x10],xmm0
    7af4:	call   23d0 <calloc@plt>
    7af9:	mov    r12,rax
    7afc:	test   rax,rax
    7aff:	je     7c27 <setup_output_gauge_file+0x177>
    7b05:	mov    esi,0x5c
    7b0a:	mov    edi,0x1
    7b0f:	call   23d0 <calloc@plt>
    7b14:	mov    rbx,rax
    7b17:	test   rax,rax
    7b1a:	je     7c00 <setup_output_gauge_file+0x150>
    7b20:	mov    eax,DWORD PTR [rip+0x1a8b2]        # 223d8 <nx>
    7b26:	mov    QWORD PTR [r12+0x8],rbx
    7b2b:	lea    rbp,[rbx+0x4]
    7b2f:	mov    QWORD PTR [r12+0x2c],0x0
    7b38:	mov    DWORD PTR [rbx+0x44],eax
    7b3b:	mov    eax,DWORD PTR [rip+0x1acfb]        # 2283c <ny>
    7b41:	mov    DWORD PTR [rbx],0x4e87
    7b47:	mov    DWORD PTR [rbx+0x48],eax
    7b4a:	mov    eax,DWORD PTR [rip+0x1a884]        # 223d4 <nz>
    7b50:	mov    DWORD PTR [rbx+0x4c],eax
    7b53:	mov    eax,DWORD PTR [rip+0x1a877]        # 223d0 <nt>
    7b59:	mov    DWORD PTR [rbx+0x50],eax
    7b5c:	mov    eax,DWORD PTR [rip+0x1ad82]        # 228e4 <this_node>
    7b62:	test   eax,eax
    7b64:	je     7b98 <setup_output_gauge_file+0xe8>
    7b66:	mov    esi,0x40
    7b6b:	mov    rdi,rbp
    7b6e:	call   194c0 <broadcast_bytes>
    7b73:	mov    rax,QWORD PTR [rsp+0x28]
    7b78:	xor    rax,QWORD PTR fs:0x28
    7b81:	jne    7bfb <setup_output_gauge_file+0x14b>
    7b83:	add    rsp,0x38
    7b87:	mov    rax,r12
    7b8a:	pop    rbx
    7b8b:	pop    rbp
    7b8c:	pop    r12
    7b8e:	pop    r13
    7b90:	ret    
    7b91:	nop    DWORD PTR [rax+0x0]
    7b98:	lea    r13,[rsp+0x8]
    7b9d:	mov    rdi,r13
    7ba0:	call   2400 <time@plt>
    7ba5:	mov    rdi,r13
    7ba8:	call   2330 <ctime@plt>
    7bad:	mov    edx,0x40
    7bb2:	mov    rdi,rbp
    7bb5:	mov    rsi,rax
    7bb8:	call   2410 <__stpcpy_chk@plt>
    7bbd:	sub    rax,rbp
    7bc0:	lea    edx,[rax+0x1]
    7bc3:	cmp    edx,0x3f
    7bc6:	jg     7be6 <setup_output_gauge_file+0x136>
    7bc8:	movsxd rax,edx
    7bcb:	nop    DWORD PTR [rax+rax*1+0x0]
    7bd0:	mov    BYTE PTR [rbx+rax*1+0x4],0x0
    7bd5:	add    rax,0x1
    7bd9:	cmp    eax,0x3f
    7bdc:	jle    7bd0 <setup_output_gauge_file+0x120>
    7bde:	mov    rdi,rbp
    7be1:	call   2340 <strlen@plt>
    7be6:	cmp    BYTE PTR [rbx+rax*1+0x3],0xa
    7beb:	jne    7b66 <setup_output_gauge_file+0xb6>
    7bf1:	mov    BYTE PTR [rbx+rax*1+0x3],0x0
    7bf6:	jmp    7b66 <setup_output_gauge_file+0xb6>
    7bfb:	call   2350 <__stack_chk_fail@plt>
    7c00:	lea    rdx,[rsp+0x10]
    7c05:	lea    rsi,[rip+0x132fe]        # 1af0a <_IO_stdin_used+0xf0a>
    7c0c:	mov    edi,0x1
    7c11:	xor    eax,eax
    7c13:	call   2470 <__printf_chk@plt>
    7c18:	mov    edi,0x1
    7c1d:	call   19570 <terminate>
    7c22:	jmp    7b20 <setup_output_gauge_file+0x70>
    7c27:	lea    rdx,[rsp+0x10]
    7c2c:	lea    rsi,[rip+0x132c2]        # 1aef5 <_IO_stdin_used+0xef5>
    7c33:	mov    edi,0x1
    7c38:	xor    eax,eax
    7c3a:	call   2470 <__printf_chk@plt>
    7c3f:	mov    edi,0x1
    7c44:	call   19570 <terminate>
    7c49:	jmp    7b05 <setup_output_gauge_file+0x55>
    7c4e:	xchg   ax,ax

0000000000007c50 <w_serial_i>:
    7c50:	endbr64 
    7c54:	push   r13
    7c56:	mov    edx,0x695f
    7c5b:	push   r12
    7c5d:	push   rbp
    7c5e:	push   rbx
    7c5f:	mov    rbx,rdi
    7c62:	sub    rsp,0x28
    7c66:	mov    rax,QWORD PTR fs:0x28
    7c6f:	mov    QWORD PTR [rsp+0x18],rax
    7c74:	xor    eax,eax
    7c76:	mov    WORD PTR [rsp+0x15],dx
    7c7b:	movabs rax,0x6c61697265735f77
    7c85:	mov    QWORD PTR [rsp+0xd],rax
    7c8a:	xor    eax,eax
    7c8c:	mov    BYTE PTR [rsp+0x17],0x0
    7c91:	call   7ab0 <setup_output_gauge_file>
    7c96:	mov    ecx,DWORD PTR [rip+0x1ac48]        # 228e4 <this_node>
    7c9c:	mov    r13,QWORD PTR [rax+0x8]
    7ca0:	mov    r12,rax
    7ca3:	mov    DWORD PTR [r13+0x58],0x0
    7cab:	test   ecx,ecx
    7cad:	je     7d00 <w_serial_i+0xb0>
    7caf:	xor    ebp,ebp
    7cb1:	mov    QWORD PTR [r12],rbp
    7cb5:	mov    QWORD PTR [r12+0x10],rbx
    7cba:	mov    DWORD PTR [r12+0x18],0x0
    7cc3:	mov    QWORD PTR [r12+0x20],0x0
    7ccc:	mov    DWORD PTR [r12+0x28],0x0
    7cd5:	mov    rax,QWORD PTR [rsp+0x18]
    7cda:	xor    rax,QWORD PTR fs:0x28
    7ce3:	jne    7d71 <w_serial_i+0x121>
    7ce9:	add    rsp,0x28
    7ced:	mov    rax,r12
    7cf0:	pop    rbx
    7cf1:	pop    rbp
    7cf2:	pop    r12
    7cf4:	pop    r13
    7cf6:	ret    
    7cf7:	nop    WORD PTR [rax+rax*1+0x0]
    7d00:	lea    rsi,[rip+0x13218]        # 1af1f <_IO_stdin_used+0xf1f>
    7d07:	mov    rdi,rbx
    7d0a:	call   2490 <fopen@plt>
    7d0f:	mov    rbp,rax
    7d12:	test   rax,rax
    7d15:	je     7d30 <w_serial_i+0xe0>
    7d17:	mov    rsi,r13
    7d1a:	mov    rdi,rbp
    7d1d:	call   7500 <swrite_gauge_hdr>
    7d22:	mov    eax,DWORD PTR [rip+0x1abbc]        # 228e4 <this_node>
    7d28:	test   eax,eax
    7d2a:	je     7cb1 <w_serial_i+0x61>
    7d2c:	jmp    7caf <w_serial_i+0x5f>
    7d2e:	xchg   ax,ax
    7d30:	call   22c0 <__errno_location@plt>
    7d35:	mov    ecx,DWORD PTR [rip+0x1aba9]        # 228e4 <this_node>
    7d3b:	mov    r8,rbx
    7d3e:	lea    rdx,[rsp+0xd]
    7d43:	mov    r9d,DWORD PTR [rax]
    7d46:	lea    rsi,[rip+0x1378b]        # 1b4d8 <_IO_stdin_used+0x14d8>
    7d4d:	mov    edi,0x1
    7d52:	xor    eax,eax
    7d54:	call   2470 <__printf_chk@plt>
    7d59:	mov    rdi,QWORD PTR [rip+0x1a580]        # 222e0 <stdout@@GLIBC_2.2.5>
    7d60:	call   2420 <fflush@plt>
    7d65:	mov    edi,0x1
    7d6a:	call   19570 <terminate>
    7d6f:	jmp    7d17 <w_serial_i+0xc7>
    7d71:	call   2350 <__stack_chk_fail@plt>
    7d76:	nop    WORD PTR cs:[rax+rax*1+0x0]

0000000000007d80 <read_checksum>:
    7d80:	endbr64 
    7d84:	push   r14
    7d86:	lea    r14,[rip+0x13195]        # 1af22 <_IO_stdin_used+0xf22>
    7d8d:	lea    rcx,[rsi+0x30]
    7d91:	mov    r8d,0x4
    7d97:	push   r13
    7d99:	push   r12
    7d9b:	mov    r12d,edi
    7d9e:	mov    edi,0x6d
    7da3:	push   rbp
    7da4:	mov    rbp,rdx
    7da7:	push   rbx
    7da8:	mov    rbx,rsi
    7dab:	sub    rsp,0x20
    7daf:	mov    rdx,QWORD PTR [rsi]
    7db2:	mov    rax,QWORD PTR fs:0x28
    7dbb:	mov    QWORD PTR [rsp+0x18],rax
    7dc0:	xor    eax,eax
    7dc2:	lea    r13,[rsp+0xa]
    7dc7:	mov    WORD PTR [rsp+0x16],di
    7dcc:	movabs rax,0x6568635f64616572
    7dd6:	mov    QWORD PTR [rsp+0xa],rax
    7ddb:	sub    rsp,0x8
    7ddf:	mov    edi,DWORD PTR [rsi+0x18]
    7de2:	mov    r9,r13
    7de5:	mov    DWORD PTR [rsp+0x1a],0x75736b63
    7ded:	mov    esi,r12d
    7df0:	push   r14
    7df2:	call   7410 <psread_byteorder>
    7df7:	pop    r8
    7df9:	pop    r9
    7dfb:	test   eax,eax
    7dfd:	jne    7e90 <read_checksum+0x110>
    7e03:	sub    rsp,0x8
    7e07:	mov    edi,DWORD PTR [rbx+0x18]
    7e0a:	mov    rdx,QWORD PTR [rbx]
    7e0d:	lea    rcx,[rbx+0x2c]
    7e11:	push   r14
    7e13:	mov    esi,r12d
    7e16:	mov    r9,r13
    7e19:	mov    r8d,0x4
    7e1f:	call   7410 <psread_byteorder>
    7e24:	pop    rcx
    7e25:	pop    rsi
    7e26:	test   eax,eax
    7e28:	jne    7e80 <read_checksum+0x100>
    7e2a:	mov    r9d,DWORD PTR [rbx+0x30]
    7e2e:	mov    ecx,DWORD PTR [rbp+0x4]
    7e31:	mov    eax,DWORD PTR [rbx+0x2c]
    7e34:	mov    r8d,DWORD PTR [rbp+0x0]
    7e38:	cmp    r9d,ecx
    7e3b:	jne    7e42 <read_checksum+0xc2>
    7e3d:	cmp    r8d,eax
    7e40:	je     7ea0 <read_checksum+0x120>
    7e42:	sub    rsp,0x8
    7e46:	mov    rdx,r13
    7e49:	mov    edi,0x1
    7e4e:	push   rax
    7e4f:	lea    rsi,[rip+0x136b2]        # 1b508 <_IO_stdin_used+0x1508>
    7e56:	xor    eax,eax
    7e58:	call   2470 <__printf_chk@plt>
    7e5d:	pop    rax
    7e5e:	pop    rdx
    7e5f:	mov    rax,QWORD PTR [rsp+0x18]
    7e64:	xor    rax,QWORD PTR fs:0x28
    7e6d:	jne    7ec7 <read_checksum+0x147>
    7e6f:	add    rsp,0x20
    7e73:	pop    rbx
    7e74:	pop    rbp
    7e75:	pop    r12
    7e77:	pop    r13
    7e79:	pop    r14
    7e7b:	ret    
    7e7c:	nop    DWORD PTR [rax+0x0]
    7e80:	mov    edi,0x1
    7e85:	call   19570 <terminate>
    7e8a:	jmp    7e2a <read_checksum+0xaa>
    7e8c:	nop    DWORD PTR [rax+0x0]
    7e90:	mov    edi,0x1
    7e95:	call   19570 <terminate>
    7e9a:	jmp    7e03 <read_checksum+0x83>
    7e9f:	nop
    7ea0:	mov    ecx,r8d
    7ea3:	mov    edx,r9d
    7ea6:	lea    rsi,[rip+0x1307e]        # 1af2b <_IO_stdin_used+0xf2b>
    7ead:	xor    eax,eax
    7eaf:	mov    edi,0x1
    7eb4:	call   2470 <__printf_chk@plt>
    7eb9:	mov    rdi,QWORD PTR [rip+0x1a420]        # 222e0 <stdout@@GLIBC_2.2.5>
    7ec0:	call   2420 <fflush@plt>
    7ec5:	jmp    7e5f <read_checksum+0xdf>
    7ec7:	call   2350 <__stack_chk_fail@plt>
    7ecc:	nop    DWORD PTR [rax+0x0]

0000000000007ed0 <write_checksum>:
    7ed0:	endbr64 
    7ed4:	push   r12
    7ed6:	lea    rdx,[rsi+0x30]
    7eda:	mov    ecx,0x4
    7edf:	lea    r9,[rip+0x1303c]        # 1af22 <_IO_stdin_used+0xf22>
    7ee6:	push   rbp
    7ee7:	mov    ebp,edi
    7ee9:	push   rbx
    7eea:	mov    rbx,rsi
    7eed:	sub    rsp,0x20
    7ef1:	mov    rsi,QWORD PTR [rsi]
    7ef4:	mov    rax,QWORD PTR fs:0x28
    7efd:	mov    QWORD PTR [rsp+0x18],rax
    7f02:	xor    eax,eax
    7f04:	lea    r12,[rsp+0x9]
    7f09:	mov    DWORD PTR [rsp+0x11],0x736b6365
    7f11:	movabs rax,0x68635f6574697277
    7f1b:	mov    QWORD PTR [rsp+0x9],rax
    7f20:	mov    r8,r12
    7f23:	mov    eax,0x6d75
    7f28:	mov    WORD PTR [rsp+0x15],ax
    7f2d:	mov    BYTE PTR [rsp+0x17],0x0
    7f32:	call   7230 <pswrite_data>
    7f37:	mov    rsi,QWORD PTR [rbx]
    7f3a:	lea    rdx,[rbx+0x2c]
    7f3e:	mov    r8,r12
    7f41:	lea    r9,[rip+0x12fda]        # 1af22 <_IO_stdin_used+0xf22>
    7f48:	mov    ecx,0x4
    7f4d:	mov    edi,ebp
    7f4f:	call   7230 <pswrite_data>
    7f54:	mov    ecx,DWORD PTR [rbx+0x2c]
    7f57:	mov    edx,DWORD PTR [rbx+0x30]
    7f5a:	xor    eax,eax
    7f5c:	lea    rsi,[rip+0x12fdc]        # 1af3f <_IO_stdin_used+0xf3f>
    7f63:	mov    edi,0x1
    7f68:	call   2470 <__printf_chk@plt>
    7f6d:	mov    rax,QWORD PTR [rsp+0x18]
    7f72:	xor    rax,QWORD PTR fs:0x28
    7f7b:	jne    7f86 <write_checksum+0xb6>
    7f7d:	add    rsp,0x20
    7f81:	pop    rbx
    7f82:	pop    rbp
    7f83:	pop    r12
    7f85:	ret    
    7f86:	call   2350 <__stack_chk_fail@plt>
    7f8b:	nop    DWORD PTR [rax+rax*1+0x0]

0000000000007f90 <w_serial>:
    7f90:	endbr64 
    7f94:	push   r15
    7f96:	push   r14
    7f98:	push   r13
    7f9a:	push   r12
    7f9c:	push   rbp
    7f9d:	push   rbx
    7f9e:	sub    rsp,0x298
    7fa5:	mov    QWORD PTR [rsp+0x8],rdi
    7faa:	mov    rax,QWORD PTR fs:0x28
    7fb3:	mov    QWORD PTR [rsp+0x288],rax
    7fbb:	xor    eax,eax
    7fbd:	movsxd rax,DWORD PTR [rip+0x1a920]        # 228e4 <this_node>
    7fc4:	test   eax,eax
    7fc6:	jne    802b <w_serial+0x9b>
    7fc8:	mov    r8d,DWORD PTR [rdi+0x28]
    7fcc:	test   r8d,r8d
    7fcf:	jne    8533 <w_serial+0x5a3>
    7fd5:	mov    esi,0x90
    7fda:	mov    edi,0x4000
    7fdf:	call   23d0 <calloc@plt>
    7fe4:	mov    QWORD PTR [rsp+0x10],rax
    7fe9:	test   rax,rax
    7fec:	je     85d0 <w_serial+0x640>
    7ff2:	mov    rax,QWORD PTR [rsp+0x8]
    7ff7:	xor    edx,edx
    7ff9:	mov    rdi,QWORD PTR [rax]
    7ffc:	mov    rax,QWORD PTR [rax+0x8]
    8000:	mov    QWORD PTR [rsp+0x38],rax
    8005:	movsxd rax,DWORD PTR [rax+0x54]
    8009:	mov    QWORD PTR [rsp+0x28],rdi
    800e:	lea    rsi,[rax+0x8]
    8012:	mov    QWORD PTR [rsp+0x30],rax
    8017:	call   2440 <fseek@plt>
    801c:	test   eax,eax
    801e:	js     8585 <w_serial+0x5f5>
    8024:	movsxd rax,DWORD PTR [rip+0x1a8b9]        # 228e4 <this_node>
    802b:	movsxd rdx,DWORD PTR [rip+0x1a4ce]        # 22500 <sites_on_node>
    8032:	mov    rbx,QWORD PTR [rsp+0x8]
    8037:	imul   rax,rdx
    803b:	mov    QWORD PTR [rbx+0x2c],0x0
    8043:	movabs rdx,0x1a7b9611a7b9611b
    804d:	lea    rbx,[rax+rax*8]
    8051:	shl    rbx,0x4
    8055:	mov    rax,rbx
    8058:	mov    r13d,ebx
    805b:	mul    rdx
    805e:	mov    rax,rbx
    8061:	sub    rax,rdx
    8064:	shr    rax,1
    8067:	add    rax,rdx
    806a:	shr    rax,0x4
    806e:	lea    rdx,[rax*8+0x0]
    8076:	sub    rdx,rax
    8079:	lea    rax,[rax+rdx*4]
    807d:	movabs rdx,0x842108421084211
    8087:	sub    r13d,eax
    808a:	mov    rax,rbx
    808d:	mul    rdx
    8090:	mov    rax,rbx
    8093:	sub    rax,rdx
    8096:	shr    rax,1
    8099:	add    rax,rdx
    809c:	shr    rax,0x4
    80a0:	mov    rdx,rax
    80a3:	shl    rdx,0x5
    80a7:	sub    rdx,rax
    80aa:	xor    eax,eax
    80ac:	sub    ebx,edx
    80ae:	call   193d0 <g_sync>
    80b3:	mov    edi,DWORD PTR [rip+0x1a317]        # 223d0 <nt>
    80b9:	test   edi,edi
    80bb:	jle    81b3 <w_serial+0x223>
    80c1:	mov    DWORD PTR [rsp+0x20],0x0
    80c9:	xor    ebp,ebp
    80cb:	mov    r14d,ebx
    80ce:	mov    DWORD PTR [rsp+0x4],0x0
    80d6:	mov    DWORD PTR [rsp],0x0
    80dd:	mov    edx,DWORD PTR [rip+0x1a2f1]        # 223d4 <nz>
    80e3:	xor    r15d,r15d
    80e6:	mov    r12d,r14d
    80e9:	test   edx,edx
    80eb:	jle    819e <w_serial+0x20e>
    80f1:	mov    ecx,DWORD PTR [rip+0x1a745]        # 2283c <ny>
    80f7:	xor    ebx,ebx
    80f9:	mov    r14d,r12d
    80fc:	test   ecx,ecx
    80fe:	jle    818a <w_serial+0x1fa>
    8104:	mov    esi,DWORD PTR [rip+0x1a2ce]        # 223d8 <nx>
    810a:	xor    r12d,r12d
    810d:	test   esi,esi
    810f:	jle    8178 <w_serial+0x1e8>
    8111:	mov    eax,r12d
    8114:	mov    r12d,r14d
    8117:	mov    r14d,ebx
    811a:	mov    ebx,eax
    811c:	nop    DWORD PTR [rax+0x0]
    8120:	mov    ecx,DWORD PTR [rsp+0x20]
    8124:	mov    edx,r15d
    8127:	mov    esi,r14d
    812a:	mov    edi,ebx
    812c:	call   3ac0 <node_number>
    8131:	mov    edx,DWORD PTR [rip+0x1a7ad]        # 228e4 <this_node>
    8137:	cmp    eax,ebp
    8139:	je     8338 <w_serial+0x3a8>
    813f:	test   edx,edx
    8141:	jne    814b <w_serial+0x1bb>
    8143:	test   eax,eax
    8145:	jne    8450 <w_serial+0x4c0>
    814b:	cmp    edx,eax
    814d:	je     837e <w_serial+0x3ee>
    8153:	test   edx,edx
    8155:	je     81f1 <w_serial+0x261>
    815b:	mov    ebp,eax
    815d:	mov    eax,DWORD PTR [rsp+0x4]
    8161:	add    ebx,0x1
    8164:	add    eax,ebx
    8166:	cmp    DWORD PTR [rip+0x1a26c],ebx        # 223d8 <nx>
    816c:	jg     8120 <w_serial+0x190>
    816e:	mov    DWORD PTR [rsp+0x4],eax
    8172:	mov    ebx,r14d
    8175:	mov    r14d,r12d
    8178:	add    ebx,0x1
    817b:	cmp    DWORD PTR [rip+0x1a6bb],ebx        # 2283c <ny>
    8181:	jg     8104 <w_serial+0x174>
    8187:	mov    r12d,r14d
    818a:	add    r15d,0x1
    818e:	cmp    DWORD PTR [rip+0x1a23f],r15d        # 223d4 <nz>
    8195:	jg     80f1 <w_serial+0x161>
    819b:	mov    r14d,r12d
    819e:	add    DWORD PTR [rsp+0x20],0x1
    81a3:	mov    eax,DWORD PTR [rsp+0x20]
    81a7:	cmp    DWORD PTR [rip+0x1a223],eax        # 223d0 <nt>
    81ad:	jg     80dd <w_serial+0x14d>
    81b3:	xor    eax,eax
    81b5:	call   193d0 <g_sync>
    81ba:	mov    eax,DWORD PTR [rip+0x1a724]        # 228e4 <this_node>
    81c0:	test   eax,eax
    81c2:	je     84cb <w_serial+0x53b>
    81c8:	mov    rax,QWORD PTR [rsp+0x288]
    81d0:	xor    rax,QWORD PTR fs:0x28
    81d9:	jne    85f7 <w_serial+0x667>
    81df:	add    rsp,0x298
    81e6:	pop    rbx
    81e7:	pop    rbp
    81e8:	pop    r12
    81ea:	pop    r13
    81ec:	pop    r14
    81ee:	pop    r15
    81f0:	ret    
    81f1:	lea    r8,[rsp+0x40]
    81f6:	test   eax,eax
    81f8:	je     838b <w_serial+0x3fb>
    81fe:	mov    rdi,r8
    8201:	mov    esi,0x240
    8206:	mov    DWORD PTR [rsp+0x24],eax
    820a:	mov    QWORD PTR [rsp+0x18],r8
    820f:	call   19390 <get_field>
    8214:	mov    eax,DWORD PTR [rsp+0x24]
    8218:	mov    r8,QWORD PTR [rsp+0x18]
    821d:	mov    ebp,eax
    821f:	mov    eax,DWORD PTR [rsp]
    8222:	mov    rsi,r8
    8225:	mov    ecx,0x48
    822a:	xor    r8d,r8d
    822d:	shl    eax,0x2
    8230:	cdqe   
    8232:	lea    rdx,[rax+rax*8]
    8236:	mov    rax,QWORD PTR [rsp+0x8]
    823b:	shl    rdx,0x4
    823f:	add    rdx,QWORD PTR [rsp+0x10]
    8244:	mov    rdi,rdx
    8247:	lea    r11,[rdx+0x240]
    824e:	rep movs QWORD PTR es:[rdi],QWORD PTR ds:[rsi]
    8251:	mov    edi,DWORD PTR [rax+0x30]
    8254:	mov    esi,DWORD PTR [rax+0x2c]
    8257:	nop    WORD PTR [rax+rax*1+0x0]
    8260:	mov    eax,DWORD PTR [rdx]
    8262:	mov    ecx,r13d
    8265:	add    r13d,0x1
    8269:	mov    r9d,eax
    826c:	rol    r9d,cl
    826f:	mov    ecx,r12d
    8272:	rol    eax,cl
    8274:	xor    edi,r9d
    8277:	xor    esi,eax
    8279:	cmp    r13d,0x1d
    827d:	cmove  r13d,r8d
    8281:	add    r12d,0x1
    8285:	cmp    r12d,0x1f
    8289:	cmove  r12d,r8d
    828d:	add    rdx,0x4
    8291:	cmp    r11,rdx
    8294:	jne    8260 <w_serial+0x2d0>
    8296:	mov    rax,QWORD PTR [rsp+0x8]
    829b:	add    DWORD PTR [rsp],0x1
    829f:	mov    DWORD PTR [rax+0x30],edi
    82a2:	mov    DWORD PTR [rax+0x2c],esi
    82a5:	mov    eax,DWORD PTR [rsp]
    82a8:	cmp    eax,0x1000
    82ad:	je     82c7 <w_serial+0x337>
    82af:	mov    eax,DWORD PTR [rsp+0x4]
    82b3:	lea    edx,[rax+rbx*1]
    82b6:	mov    eax,DWORD PTR [rip+0x1a134]        # 223f0 <volume>
    82bc:	sub    eax,0x1
    82bf:	cmp    eax,edx
    82c1:	jne    815d <w_serial+0x1cd>
    82c7:	movsxd rdx,DWORD PTR [rsp]
    82cb:	mov    rcx,QWORD PTR [rsp+0x28]
    82d0:	mov    esi,0x240
    82d5:	mov    rdi,QWORD PTR [rsp+0x10]
    82da:	call   24c0 <fwrite@plt>
    82df:	cmp    DWORD PTR [rsp],eax
    82e2:	je     84bf <w_serial+0x52f>
    82e8:	call   22c0 <__errno_location@plt>
    82ed:	mov    rsi,QWORD PTR [rsp+0x8]
    82f2:	mov    edx,DWORD PTR [rip+0x1a5ec]        # 228e4 <this_node>
    82f8:	mov    edi,0x1
    82fd:	mov    ecx,DWORD PTR [rax]
    82ff:	xor    eax,eax
    8301:	mov    r8,QWORD PTR [rsi+0x10]
    8305:	lea    rsi,[rip+0x132cc]        # 1b5d8 <_IO_stdin_used+0x15d8>
    830c:	call   2470 <__printf_chk@plt>
    8311:	mov    rdi,QWORD PTR [rip+0x19fc8]        # 222e0 <stdout@@GLIBC_2.2.5>
    8318:	call   2420 <fflush@plt>
    831d:	mov    edi,0x1
    8322:	call   19570 <terminate>
    8327:	mov    DWORD PTR [rsp],0x0
    832e:	jmp    815d <w_serial+0x1cd>
    8333:	nop    DWORD PTR [rax+rax*1+0x0]
    8338:	test   edx,edx
    833a:	je     81f1 <w_serial+0x261>
    8340:	mov    ebp,eax
    8342:	cmp    edx,eax
    8344:	jne    815d <w_serial+0x1cd>
    834a:	mov    ecx,DWORD PTR [rsp+0x20]
    834e:	mov    edx,r15d
    8351:	mov    esi,r14d
    8354:	mov    edi,ebx
    8356:	call   3b10 <node_index>
    835b:	xor    edx,edx
    835d:	mov    esi,0x240
    8362:	movsxd rdi,eax
    8365:	shl    rdi,0xb
    8369:	add    rdi,QWORD PTR [rip+0x1a458]        # 227c8 <lattice>
    8370:	add    rdi,0x70
    8374:	call   19380 <send_field>
    8379:	jmp    815d <w_serial+0x1cd>
    837e:	lea    r8,[rsp+0x40]
    8383:	test   eax,eax
    8385:	jne    848d <w_serial+0x4fd>
    838b:	mov    ecx,DWORD PTR [rsp+0x20]
    838f:	mov    edx,r15d
    8392:	mov    esi,r14d
    8395:	mov    edi,ebx
    8397:	call   3b10 <node_index>
    839c:	lea    r8,[rsp+0x40]
    83a1:	movsxd rdx,eax
    83a4:	xor    eax,eax
    83a6:	shl    rdx,0xb
    83aa:	add    rdx,QWORD PTR [rip+0x1a417]        # 227c8 <lattice>
    83b1:	movdqu xmm0,XMMWORD PTR [rdx+rax*1+0x70]
    83b7:	movaps XMMWORD PTR [r8+rax*1],xmm0
    83bc:	movdqu xmm1,XMMWORD PTR [rdx+rax*1+0x80]
    83c5:	movaps XMMWORD PTR [r8+rax*1+0x10],xmm1
    83cb:	movdqu xmm2,XMMWORD PTR [rdx+rax*1+0x90]
    83d4:	movaps XMMWORD PTR [r8+rax*1+0x20],xmm2
    83da:	movdqu xmm3,XMMWORD PTR [rdx+rax*1+0xa0]
    83e3:	movaps XMMWORD PTR [r8+rax*1+0x30],xmm3
    83e9:	movdqu xmm4,XMMWORD PTR [rdx+rax*1+0xb0]
    83f2:	movaps XMMWORD PTR [r8+rax*1+0x40],xmm4
    83f8:	movdqu xmm5,XMMWORD PTR [rdx+rax*1+0xc0]
    8401:	movaps XMMWORD PTR [r8+rax*1+0x50],xmm5
    8407:	movdqu xmm6,XMMWORD PTR [rdx+rax*1+0xd0]
    8410:	movaps XMMWORD PTR [r8+rax*1+0x60],xmm6
    8416:	movdqu xmm7,XMMWORD PTR [rdx+rax*1+0xe0]
    841f:	movaps XMMWORD PTR [r8+rax*1+0x70],xmm7
    8425:	movdqu xmm0,XMMWORD PTR [rdx+rax*1+0xf0]
    842e:	movaps XMMWORD PTR [r8+rax*1+0x80],xmm0
    8437:	add    rax,0x90
    843d:	cmp    rax,0x240
    8443:	jne    83b1 <w_serial+0x421>
    8449:	xor    ebp,ebp
    844b:	jmp    821f <w_serial+0x28f>
    8450:	lea    r8,[rsp+0x40]
    8455:	mov    edx,eax
    8457:	mov    esi,0x4
    845c:	mov    DWORD PTR [rsp+0x24],eax
    8460:	mov    rdi,r8
    8463:	mov    QWORD PTR [rsp+0x18],r8
    8468:	call   19380 <send_field>
    846d:	mov    edx,DWORD PTR [rip+0x1a471]        # 228e4 <this_node>
    8473:	mov    eax,DWORD PTR [rsp+0x24]
    8477:	mov    r8,QWORD PTR [rsp+0x18]
    847c:	cmp    edx,eax
    847e:	je     848d <w_serial+0x4fd>
    8480:	test   edx,edx
    8482:	jne    815b <w_serial+0x1cb>
    8488:	jmp    81fe <w_serial+0x26e>
    848d:	mov    rdi,r8
    8490:	mov    esi,0x4
    8495:	mov    DWORD PTR [rsp+0x24],eax
    8499:	mov    QWORD PTR [rsp+0x18],r8
    849e:	call   19390 <get_field>
    84a3:	mov    edx,DWORD PTR [rip+0x1a43b]        # 228e4 <this_node>
    84a9:	mov    r8,QWORD PTR [rsp+0x18]
    84ae:	mov    eax,DWORD PTR [rsp+0x24]
    84b2:	test   edx,edx
    84b4:	jne    8340 <w_serial+0x3b0>
    84ba:	jmp    81fe <w_serial+0x26e>
    84bf:	mov    DWORD PTR [rsp],0x0
    84c6:	jmp    815d <w_serial+0x1cd>
    84cb:	mov    rdi,QWORD PTR [rsp+0x10]
    84d0:	call   22a0 <free@plt>
    84d5:	mov    rax,QWORD PTR [rsp+0x8]
    84da:	mov    edi,0x1
    84df:	lea    rsi,[rip+0x13132]        # 1b618 <_IO_stdin_used+0x1618>
    84e6:	mov    rdx,QWORD PTR [rax+0x10]
    84ea:	xor    eax,eax
    84ec:	call   2470 <__printf_chk@plt>
    84f1:	mov    rdx,QWORD PTR [rsp+0x38]
    84f6:	lea    rsi,[rip+0x12a53]        # 1af50 <_IO_stdin_used+0xf50>
    84fd:	xor    eax,eax
    84ff:	mov    edi,0x1
    8504:	add    rdx,0x4
    8508:	call   2470 <__printf_chk@plt>
    850d:	mov    rsi,QWORD PTR [rsp+0x30]
    8512:	mov    rdi,QWORD PTR [rsp+0x28]
    8517:	xor    edx,edx
    8519:	call   2440 <fseek@plt>
    851e:	test   eax,eax
    8520:	js     8544 <w_serial+0x5b4>
    8522:	mov    rsi,QWORD PTR [rsp+0x8]
    8527:	xor    edi,edi
    8529:	call   7ed0 <write_checksum>
    852e:	jmp    81c8 <w_serial+0x238>
    8533:	lea    rdi,[rip+0x13006]        # 1b540 <_IO_stdin_used+0x1540>
    853a:	call   22f0 <puts@plt>
    853f:	jmp    7fd5 <w_serial+0x45>
    8544:	call   22c0 <__errno_location@plt>
    8549:	mov    rbx,QWORD PTR [rsp+0x8]
    854e:	mov    edx,DWORD PTR [rip+0x1a390]        # 228e4 <this_node>
    8554:	lea    rsi,[rip+0x13045]        # 1b5a0 <_IO_stdin_used+0x15a0>
    855b:	mov    ecx,DWORD PTR [rax]
    855d:	mov    edi,0x1
    8562:	xor    eax,eax
    8564:	mov    r8,QWORD PTR [rbx+0x10]
    8568:	call   2470 <__printf_chk@plt>
    856d:	mov    rdi,QWORD PTR [rip+0x19d6c]        # 222e0 <stdout@@GLIBC_2.2.5>
    8574:	call   2420 <fflush@plt>
    8579:	mov    edi,0x1
    857e:	call   19570 <terminate>
    8583:	jmp    8522 <w_serial+0x592>
    8585:	call   22c0 <__errno_location@plt>
    858a:	mov    rbx,QWORD PTR [rsp+0x8]
    858f:	mov    edx,DWORD PTR [rip+0x1a34f]        # 228e4 <this_node>
    8595:	lea    rsi,[rip+0x13004]        # 1b5a0 <_IO_stdin_used+0x15a0>
    859c:	mov    ecx,DWORD PTR [rax]
    859e:	mov    edi,0x1
    85a3:	xor    eax,eax
    85a5:	mov    r8,QWORD PTR [rbx+0x10]
    85a9:	call   2470 <__printf_chk@plt>
    85ae:	mov    rdi,QWORD PTR [rip+0x19d2b]        # 222e0 <stdout@@GLIBC_2.2.5>
    85b5:	call   2420 <fflush@plt>
    85ba:	mov    edi,0x1
    85bf:	call   19570 <terminate>
    85c4:	movsxd rax,DWORD PTR [rip+0x1a319]        # 228e4 <this_node>
    85cb:	jmp    802b <w_serial+0x9b>
    85d0:	lea    rdi,[rip+0x12fa1]        # 1b578 <_IO_stdin_used+0x1578>
    85d7:	call   22f0 <puts@plt>
    85dc:	mov    rdi,QWORD PTR [rip+0x19cfd]        # 222e0 <stdout@@GLIBC_2.2.5>
    85e3:	call   2420 <fflush@plt>
    85e8:	mov    edi,0x1
    85ed:	call   19570 <terminate>
    85f2:	jmp    7ff2 <w_serial+0x62>
    85f7:	call   2350 <__stack_chk_fail@plt>
    85fc:	nop    DWORD PTR [rax+0x0]

0000000000008600 <w_serial_f>:
    8600:	endbr64 
    8604:	push   rbp
    8605:	xor    eax,eax
    8607:	mov    rbp,rdi
    860a:	call   193d0 <g_sync>
    860f:	mov    ecx,DWORD PTR [rip+0x1a2cf]        # 228e4 <this_node>
    8615:	test   ecx,ecx
    8617:	jne    8640 <w_serial_f+0x40>
    8619:	mov    edx,DWORD PTR [rbp+0x28]
    861c:	test   edx,edx
    861e:	jne    8648 <w_serial_f+0x48>
    8620:	mov    rdi,QWORD PTR [rbp+0x0]
    8624:	call   2320 <fclose@plt>
    8629:	mov    eax,DWORD PTR [rip+0x1a2b5]        # 228e4 <this_node>
    862f:	test   eax,eax
    8631:	jne    8640 <w_serial_f+0x40>
    8633:	mov    rdi,rbp
    8636:	pop    rbp
    8637:	jmp    77c0 <write_gauge_info_file>
    863c:	nop    DWORD PTR [rax+0x0]
    8640:	pop    rbp
    8641:	ret    
    8642:	nop    WORD PTR [rax+rax*1+0x0]
    8648:	lea    rdi,[rip+0x13001]        # 1b650 <_IO_stdin_used+0x1650>
    864f:	call   22f0 <puts@plt>
    8654:	jmp    8620 <w_serial_f+0x20>
    8656:	nop    WORD PTR cs:[rax+rax*1+0x0]

0000000000008660 <read_site_list>:
    8660:	endbr64 
    8664:	mov    rax,QWORD PTR [rsi+0x8]
    8668:	mov    eax,DWORD PTR [rax+0x58]
    866b:	test   eax,eax
    866d:	jne    8680 <read_site_list+0x20>
    866f:	mov    QWORD PTR [rsi+0x20],0x0
    8677:	ret    
    8678:	nop    DWORD PTR [rax+rax*1+0x0]
    8680:	jmp    6ad0 <read_site_list.part.0>
    8685:	data16 nop WORD PTR cs:[rax+rax*1+0x0]

0000000000008690 <read_v3_gauge_hdr>:
    8690:	endbr64 
    8694:	push   r15
    8696:	mov    ecx,0x72
    869b:	push   r14
    869d:	push   r13
    869f:	push   r12
    86a1:	mov    r12d,esi
    86a4:	push   rbp
    86a5:	push   rbx
    86a6:	sub    rsp,0x58
    86aa:	movdqa xmm0,XMMWORD PTR [rip+0x13c3e]        # 1c2f0 <_IO_stdin_used+0x22f0>
    86b2:	mov    rbp,QWORD PTR [rdi+0x8]
    86b6:	mov    QWORD PTR [rsp+0x10],rdx
    86bb:	mov    r13,QWORD PTR [rdi]
    86be:	mov    rax,QWORD PTR fs:0x28
    86c7:	mov    QWORD PTR [rsp+0x48],rax
    86cc:	xor    eax,eax
    86ce:	mov    WORD PTR [rsp+0x40],cx
    86d3:	movaps XMMWORD PTR [rsp+0x30],xmm0
    86d8:	mov    ebx,DWORD PTR [rbp+0x0]
    86db:	mov    DWORD PTR [rsp+0x4],0x0
    86e3:	test   ebx,ebx
    86e5:	je     89c0 <read_v3_gauge_hdr+0x330>
    86eb:	cmp    ebx,0xe7da
    86f1:	je     89a0 <read_v3_gauge_hdr+0x310>
    86f7:	mov    esi,0x1
    86fc:	mov    rdi,rbp
    86ff:	call   15960 <byterevn>
    8704:	cmp    DWORD PTR [rbp+0x0],0xe7da
    870b:	je     8740 <read_v3_gauge_hdr+0xb0>
    870d:	mov    DWORD PTR [rbp+0x0],ebx
    8710:	mov    eax,0x1
    8715:	mov    rcx,QWORD PTR [rsp+0x48]
    871a:	xor    rcx,QWORD PTR fs:0x28
    8723:	jne    8a85 <read_v3_gauge_hdr+0x3f5>
    8729:	add    rsp,0x58
    872d:	pop    rbx
    872e:	pop    rbp
    872f:	pop    r12
    8731:	pop    r13
    8733:	pop    r14
    8735:	pop    r15
    8737:	ret    
    8738:	nop    DWORD PTR [rax+rax*1+0x0]
    8740:	mov    rbx,QWORD PTR [rsp+0x10]
    8745:	lea    rdi,[rip+0x12fbc]        # 1b708 <_IO_stdin_used+0x1708>
    874c:	mov    DWORD PTR [rbx],0x1
    8752:	call   22f0 <puts@plt>
    8757:	lea    rdi,[rip+0x12ff2]        # 1b750 <_IO_stdin_used+0x1750>
    875e:	call   22f0 <puts@plt>
    8763:	mov    ecx,0x8
    8768:	mov    edx,0x4
    876d:	xor    eax,eax
    876f:	lea    rsi,[rip+0x13002]        # 1b778 <_IO_stdin_used+0x1778>
    8776:	mov    edi,0x1
    877b:	call   2470 <__printf_chk@plt>
    8780:	mov    edi,0x1
    8785:	call   19570 <terminate>
    878a:	mov    edi,DWORD PTR [rbx]
    878c:	lea    rbx,[rbp+0x44]
    8790:	lea    rax,[rbp+0x54]
    8794:	mov    r15,QWORD PTR [rsp+0x10]
    8799:	mov    QWORD PTR [rsp+0x8],rax
    879e:	lea    r14,[rsp+0x30]
    87a3:	mov    QWORD PTR [rsp+0x18],rbx
    87a8:	sub    rsp,0x8
    87ac:	mov    rdx,r13
    87af:	mov    r9,r14
    87b2:	mov    r8d,0x4
    87b8:	lea    rax,[rip+0x12a36]        # 1b1f5 <_IO_stdin_used+0x11f5>
    87bf:	mov    rcx,rbx
    87c2:	mov    esi,r12d
    87c5:	push   rax
    87c6:	call   7410 <psread_byteorder>
    87cb:	pop    r11
    87cd:	pop    rdx
    87ce:	test   eax,eax
    87d0:	jne    87f0 <read_v3_gauge_hdr+0x160>
    87d2:	mov    r10d,DWORD PTR [rsp+0x4]
    87d7:	test   r10d,r10d
    87da:	jne    8804 <read_v3_gauge_hdr+0x174>
    87dc:	add    rbx,0x4
    87e0:	cmp    QWORD PTR [rsp+0x8],rbx
    87e5:	je     8850 <read_v3_gauge_hdr+0x1c0>
    87e7:	mov    edi,DWORD PTR [r15]
    87ea:	jmp    87a8 <read_v3_gauge_hdr+0x118>
    87ec:	nop    DWORD PTR [rax+0x0]
    87f0:	mov    edi,0x1
    87f5:	call   19570 <terminate>
    87fa:	mov    r10d,DWORD PTR [rsp+0x4]
    87ff:	test   r10d,r10d
    8802:	je     87dc <read_v3_gauge_hdr+0x14c>
    8804:	sub    rsp,0x8
    8808:	mov    edi,DWORD PTR [r15]
    880b:	mov    r9,r14
    880e:	mov    r8d,0x4
    8814:	lea    rax,[rip+0x129da]        # 1b1f5 <_IO_stdin_used+0x11f5>
    881b:	mov    rcx,rbx
    881e:	mov    rdx,r13
    8821:	mov    esi,r12d
    8824:	push   rax
    8825:	call   7410 <psread_byteorder>
    882a:	pop    r8
    882c:	pop    r9
    882e:	test   eax,eax
    8830:	je     87dc <read_v3_gauge_hdr+0x14c>
    8832:	mov    edi,0x1
    8837:	add    rbx,0x4
    883b:	call   19570 <terminate>
    8840:	cmp    QWORD PTR [rsp+0x8],rbx
    8845:	jne    87e7 <read_v3_gauge_hdr+0x157>
    8847:	nop    WORD PTR [rax+rax*1+0x0]
    8850:	mov    edx,DWORD PTR [rbp+0x44]
    8853:	mov    eax,DWORD PTR [rip+0x19b7f]        # 223d8 <nx>
    8859:	mov    rbx,QWORD PTR [rsp+0x18]
    885e:	mov    ecx,DWORD PTR [rip+0x19fd8]        # 2283c <ny>
    8864:	mov    esi,DWORD PTR [rip+0x19b6a]        # 223d4 <nz>
    886a:	mov    edi,DWORD PTR [rip+0x19b60]        # 223d0 <nt>
    8870:	cmp    edx,eax
    8872:	je     8a00 <read_v3_gauge_hdr+0x370>
    8878:	and    eax,ecx
    887a:	and    eax,esi
    887c:	and    eax,edi
    887e:	cmp    eax,0xffffffff
    8881:	je     8a50 <read_v3_gauge_hdr+0x3c0>
    8887:	lea    rsi,[rip+0x12f22]        # 1b7b0 <_IO_stdin_used+0x17b0>
    888e:	mov    edi,0x1
    8893:	xor    eax,eax
    8895:	call   2470 <__printf_chk@plt>
    889a:	mov    QWORD PTR [rsp+0x18],rbp
    889f:	mov    rbp,rbx
    88a2:	mov    rbx,QWORD PTR [rsp+0x8]
    88a7:	lea    r15,[rip+0x126be]        # 1af6c <_IO_stdin_used+0xf6c>
    88ae:	mov    edx,DWORD PTR [rbp+0x0]
    88b1:	mov    rsi,r15
    88b4:	mov    edi,0x1
    88b9:	xor    eax,eax
    88bb:	add    rbp,0x4
    88bf:	call   2470 <__printf_chk@plt>
    88c4:	cmp    rbp,rbx
    88c7:	jne    88ae <read_v3_gauge_hdr+0x21e>
    88c9:	mov    edi,0xa
    88ce:	mov    rbp,QWORD PTR [rsp+0x18]
    88d3:	call   22b0 <putchar@plt>
    88d8:	mov    rdi,QWORD PTR [rip+0x19a01]        # 222e0 <stdout@@GLIBC_2.2.5>
    88df:	call   2420 <fflush@plt>
    88e4:	mov    edi,0x1
    88e9:	call   19570 <terminate>
    88ee:	cmp    DWORD PTR [rsp+0x4],0x1
    88f3:	lea    rcx,[rsp+0x20]
    88f8:	mov    esi,r12d
    88fb:	mov    r9,r14
    88fe:	sbb    eax,eax
    8900:	sub    rsp,0x8
    8904:	mov    r8d,0x8
    890a:	mov    rdx,r13
    890d:	and    eax,0xffffffec
    8910:	mov    DWORD PTR [rbp+0x58],0x0
    8917:	add    eax,0x30
    891a:	mov    DWORD PTR [rbp+0x54],eax
    891d:	lea    rax,[rip+0x118bf]        # 1a1e3 <_IO_stdin_used+0x1e3>
    8924:	push   rax
    8925:	mov    rax,QWORD PTR [rsp+0x20]
    892a:	mov    edi,DWORD PTR [rax]
    892c:	call   7410 <psread_byteorder>
    8931:	pop    rsi
    8932:	pop    rdi
    8933:	test   eax,eax
    8935:	jne    8a30 <read_v3_gauge_hdr+0x3a0>
    893b:	lea    rcx,[rsp+0x28]
    8940:	sub    rsp,0x8
    8944:	mov    rdx,r13
    8947:	mov    r9,r14
    894a:	lea    rax,[rip+0x1261f]        # 1af70 <_IO_stdin_used+0xf70>
    8951:	mov    r8d,0x8
    8957:	mov    esi,r12d
    895a:	push   rax
    895b:	mov    rax,QWORD PTR [rsp+0x20]
    8960:	mov    edi,DWORD PTR [rax]
    8962:	call   7410 <psread_byteorder>
    8967:	pop    rdx
    8968:	pop    rcx
    8969:	test   eax,eax
    896b:	jne    8a20 <read_v3_gauge_hdr+0x390>
    8971:	movsd  xmm1,QWORD PTR [rsp+0x28]
    8977:	movsd  xmm0,QWORD PTR [rsp+0x20]
    897d:	mov    edi,0x1
    8982:	lea    rsi,[rip+0x12e5f]        # 1b7e8 <_IO_stdin_used+0x17e8>
    8989:	mov    eax,0x2
    898e:	call   2470 <__printf_chk@plt>
    8993:	xor    eax,eax
    8995:	jmp    8715 <read_v3_gauge_hdr+0x85>
    899a:	nop    WORD PTR [rax+rax*1+0x0]
    89a0:	lea    rdi,[rip+0x12d31]        # 1b6d8 <_IO_stdin_used+0x16d8>
    89a7:	call   22f0 <puts@plt>
    89ac:	mov    rax,QWORD PTR [rsp+0x10]
    89b1:	xor    edi,edi
    89b3:	mov    DWORD PTR [rax],0x0
    89b9:	jmp    878c <read_v3_gauge_hdr+0xfc>
    89be:	xchg   ax,ax
    89c0:	lea    rdi,[rip+0x12cc1]        # 1b688 <_IO_stdin_used+0x1688>
    89c7:	call   22f0 <puts@plt>
    89cc:	lea    r8,[rsp+0x30]
    89d1:	mov    rdx,rbp
    89d4:	mov    rsi,r13
    89d7:	lea    r9,[rip+0x12581]        # 1af5f <_IO_stdin_used+0xf5f>
    89de:	mov    ecx,0x4
    89e3:	mov    edi,r12d
    89e6:	call   73e0 <psread_data>
    89eb:	test   eax,eax
    89ed:	jne    8a40 <read_v3_gauge_hdr+0x3b0>
    89ef:	mov    DWORD PTR [rsp+0x4],0x1
    89f7:	mov    ebx,DWORD PTR [rbp+0x0]
    89fa:	jmp    86eb <read_v3_gauge_hdr+0x5b>
    89ff:	nop
    8a00:	cmp    DWORD PTR [rbp+0x48],ecx
    8a03:	jne    8878 <read_v3_gauge_hdr+0x1e8>
    8a09:	cmp    DWORD PTR [rbp+0x4c],esi
    8a0c:	jne    8878 <read_v3_gauge_hdr+0x1e8>
    8a12:	cmp    DWORD PTR [rbp+0x50],edi
    8a15:	jne    8878 <read_v3_gauge_hdr+0x1e8>
    8a1b:	jmp    88ee <read_v3_gauge_hdr+0x25e>
    8a20:	mov    edi,0x1
    8a25:	call   19570 <terminate>
    8a2a:	jmp    8971 <read_v3_gauge_hdr+0x2e1>
    8a2f:	nop
    8a30:	mov    edi,0x1
    8a35:	call   19570 <terminate>
    8a3a:	jmp    893b <read_v3_gauge_hdr+0x2ab>
    8a3f:	nop
    8a40:	mov    edi,0x1
    8a45:	call   19570 <terminate>
    8a4a:	jmp    89ef <read_v3_gauge_hdr+0x35f>
    8a4c:	nop    DWORD PTR [rax+0x0]
    8a50:	mov    eax,DWORD PTR [rbp+0x48]
    8a53:	mov    esi,DWORD PTR [rbp+0x4c]
    8a56:	mov    DWORD PTR [rip+0x1997c],edx        # 223d8 <nx>
    8a5c:	mov    ecx,DWORD PTR [rbp+0x50]
    8a5f:	mov    DWORD PTR [rip+0x19dd7],eax        # 2283c <ny>
    8a65:	imul   eax,edx
    8a68:	mov    DWORD PTR [rip+0x19966],esi        # 223d4 <nz>
    8a6e:	mov    DWORD PTR [rip+0x1995c],ecx        # 223d0 <nt>
    8a74:	imul   eax,esi
    8a77:	imul   eax,ecx
    8a7a:	mov    DWORD PTR [rip+0x19970],eax        # 223f0 <volume>
    8a80:	jmp    88ee <read_v3_gauge_hdr+0x25e>
    8a85:	call   2350 <__stack_chk_fail@plt>
    8a8a:	nop    WORD PTR [rax+rax*1+0x0]

0000000000008a90 <read_1996_gauge_hdr>:
    8a90:	endbr64 
    8a94:	push   r15
    8a96:	push   r14
    8a98:	push   r13
    8a9a:	push   r12
    8a9c:	mov    r12,rdx
    8a9f:	push   rbp
    8aa0:	push   rbx
    8aa1:	mov    ebx,esi
    8aa3:	sub    rsp,0x118
    8aaa:	mov    rbp,QWORD PTR [rdi+0x8]
    8aae:	mov    r13,QWORD PTR [rdi]
    8ab1:	mov    rax,QWORD PTR fs:0x28
    8aba:	mov    QWORD PTR [rsp+0x108],rax
    8ac2:	xor    eax,eax
    8ac4:	movdqa xmm0,XMMWORD PTR [rip+0x13834]        # 1c300 <_IO_stdin_used+0x2300>
    8acc:	mov    DWORD PTR [rsp+0x100],0x726468
    8ad7:	movaps XMMWORD PTR [rsp+0xf0],xmm0
    8adf:	mov    r14d,DWORD PTR [rbp+0x0]
    8ae3:	cmp    r14d,0xd12a
    8aea:	je     8e10 <read_1996_gauge_hdr+0x380>
    8af0:	mov    esi,0x1
    8af5:	mov    rdi,rbp
    8af8:	call   15960 <byterevn>
    8afd:	cmp    DWORD PTR [rbp+0x0],0xd12a
    8b04:	je     8b40 <read_1996_gauge_hdr+0xb0>
    8b06:	mov    DWORD PTR [rbp+0x0],r14d
    8b0a:	mov    eax,0x1
    8b0f:	mov    rbx,QWORD PTR [rsp+0x108]
    8b17:	xor    rbx,QWORD PTR fs:0x28
    8b20:	jne    8f8e <read_1996_gauge_hdr+0x4fe>
    8b26:	add    rsp,0x118
    8b2d:	pop    rbx
    8b2e:	pop    rbp
    8b2f:	pop    r12
    8b31:	pop    r13
    8b33:	pop    r14
    8b35:	pop    r15
    8b37:	ret    
    8b38:	nop    DWORD PTR [rax+rax*1+0x0]
    8b40:	mov    DWORD PTR [r12],0x1
    8b48:	lea    rdi,[rip+0x12cf9]        # 1b848 <_IO_stdin_used+0x1848>
    8b4f:	call   22f0 <puts@plt>
    8b54:	lea    rdi,[rip+0x12d35]        # 1b890 <_IO_stdin_used+0x1890>
    8b5b:	call   22f0 <puts@plt>
    8b60:	mov    ecx,0x8
    8b65:	mov    edx,0x4
    8b6a:	xor    eax,eax
    8b6c:	lea    rsi,[rip+0x12c05]        # 1b778 <_IO_stdin_used+0x1778>
    8b73:	mov    edi,0x1
    8b78:	call   2470 <__printf_chk@plt>
    8b7d:	mov    edi,0x1
    8b82:	call   19570 <terminate>
    8b87:	mov    edi,DWORD PTR [r12]
    8b8b:	lea    rax,[rip+0x12663]        # 1b1f5 <_IO_stdin_used+0x11f5>
    8b92:	lea    r15,[rbp+0x44]
    8b96:	mov    esi,ebx
    8b98:	mov    rdx,r13
    8b9b:	lea    r14,[rsp+0xf0]
    8ba3:	sub    rsp,0x8
    8ba7:	mov    rcx,r15
    8baa:	mov    r8d,0x10
    8bb0:	push   rax
    8bb1:	mov    r9,r14
    8bb4:	call   7410 <psread_byteorder>
    8bb9:	pop    rcx
    8bba:	pop    rsi
    8bbb:	test   eax,eax
    8bbd:	jne    8e60 <read_1996_gauge_hdr+0x3d0>
    8bc3:	mov    edx,DWORD PTR [rbp+0x44]
    8bc6:	mov    eax,DWORD PTR [rip+0x1980c]        # 223d8 <nx>
    8bcc:	mov    ecx,DWORD PTR [rip+0x19c6a]        # 2283c <ny>
    8bd2:	mov    esi,DWORD PTR [rip+0x197fc]        # 223d4 <nz>
    8bd8:	mov    edi,DWORD PTR [rip+0x197f2]        # 223d0 <nt>
    8bde:	cmp    edx,eax
    8be0:	je     8e30 <read_1996_gauge_hdr+0x3a0>
    8be6:	and    eax,ecx
    8be8:	and    eax,esi
    8bea:	and    eax,edi
    8bec:	cmp    eax,0xffffffff
    8bef:	je     8f50 <read_1996_gauge_hdr+0x4c0>
    8bf5:	lea    rsi,[rip+0x12cbc]        # 1b8b8 <_IO_stdin_used+0x18b8>
    8bfc:	mov    edi,0x1
    8c01:	xor    eax,eax
    8c03:	call   2470 <__printf_chk@plt>
    8c08:	lea    rax,[rbp+0x54]
    8c0c:	mov    QWORD PTR [rsp+0x8],rax
    8c11:	mov    edx,DWORD PTR [r15]
    8c14:	lea    rsi,[rip+0x12351]        # 1af6c <_IO_stdin_used+0xf6c>
    8c1b:	xor    eax,eax
    8c1d:	add    r15,0x4
    8c21:	mov    edi,0x1
    8c26:	call   2470 <__printf_chk@plt>
    8c2b:	cmp    r15,QWORD PTR [rsp+0x8]
    8c30:	jne    8c11 <read_1996_gauge_hdr+0x181>
    8c32:	mov    edi,0xa
    8c37:	call   22b0 <putchar@plt>
    8c3c:	mov    rdi,QWORD PTR [rip+0x1969d]        # 222e0 <stdout@@GLIBC_2.2.5>
    8c43:	call   2420 <fflush@plt>
    8c48:	mov    edi,0x1
    8c4d:	call   19570 <terminate>
    8c52:	sub    rsp,0x8
    8c56:	lea    rax,[rip+0x12316]        # 1af73 <_IO_stdin_used+0xf73>
    8c5d:	mov    rdx,r13
    8c60:	mov    esi,ebx
    8c62:	push   rax
    8c63:	mov    edi,DWORD PTR [r12]
    8c67:	mov    r9,r14
    8c6a:	mov    r8d,0x4
    8c70:	mov    rcx,QWORD PTR [rsp+0x18]
    8c75:	call   7410 <psread_byteorder>
    8c7a:	pop    r15
    8c7c:	pop    rdx
    8c7d:	test   eax,eax
    8c7f:	jne    8f40 <read_1996_gauge_hdr+0x4b0>
    8c85:	sub    rsp,0x8
    8c89:	lea    rax,[rip+0x1222e]        # 1aebe <_IO_stdin_used+0xebe>
    8c90:	mov    r9,r14
    8c93:	mov    esi,ebx
    8c95:	push   rax
    8c96:	mov    edi,DWORD PTR [r12]
    8c9a:	lea    rcx,[rbp+0x58]
    8c9e:	mov    r8d,0x4
    8ca4:	mov    rdx,r13
    8ca7:	call   7410 <psread_byteorder>
    8cac:	pop    r10
    8cae:	pop    r11
    8cb0:	test   eax,eax
    8cb2:	jne    8f30 <read_1996_gauge_hdr+0x4a0>
    8cb8:	lea    rcx,[rsp+0x10]
    8cbd:	sub    rsp,0x8
    8cc1:	mov    edi,DWORD PTR [r12]
    8cc5:	mov    r9,r14
    8cc8:	lea    rax,[rip+0x122b0]        # 1af7f <_IO_stdin_used+0xf7f>
    8ccf:	mov    r8d,0x4
    8cd5:	mov    rdx,r13
    8cd8:	mov    esi,ebx
    8cda:	push   rax
    8cdb:	call   7410 <psread_byteorder>
    8ce0:	pop    r8
    8ce2:	pop    r9
    8ce4:	test   eax,eax
    8ce6:	jne    8f20 <read_1996_gauge_hdr+0x490>
    8cec:	mov    edx,DWORD PTR [rsp+0x10]
    8cf0:	cmp    edx,0xc8
    8cf6:	jg     8ee0 <read_1996_gauge_hdr+0x450>
    8cfc:	lea    r15,[rsp+0x14]
    8d01:	mov    r8,r14
    8d04:	mov    ecx,0xc8
    8d09:	mov    rsi,r13
    8d0c:	lea    r9,[rip+0x12294]        # 1afa7 <_IO_stdin_used+0xfa7>
    8d13:	mov    rdx,r15
    8d16:	mov    edi,ebx
    8d18:	call   73e0 <psread_data>
    8d1d:	test   eax,eax
    8d1f:	jne    8ed0 <read_1996_gauge_hdr+0x440>
    8d25:	mov    eax,DWORD PTR [rsp+0x10]
    8d29:	mov    rdx,r15
    8d2c:	mov    edi,0x1
    8d31:	lea    rsi,[rip+0x12277]        # 1afaf <_IO_stdin_used+0xfaf>
    8d38:	sub    eax,0x1
    8d3b:	cdqe   
    8d3d:	mov    BYTE PTR [rsp+rax*1+0x14],0x0
    8d42:	xor    eax,eax
    8d44:	call   2470 <__printf_chk@plt>
    8d49:	mov    edi,DWORD PTR [r12]
    8d4d:	mov    esi,ebx
    8d4f:	mov    r9,r14
    8d52:	lea    rax,[rip+0x12270]        # 1afc9 <_IO_stdin_used+0xfc9>
    8d59:	lea    rcx,[rsp+0xdc]
    8d61:	sub    rsp,0x8
    8d65:	mov    r8d,0x4
    8d6b:	push   rax
    8d6c:	mov    rdx,r13
    8d6f:	call   7410 <psread_byteorder>
    8d74:	pop    rsi
    8d75:	pop    rdi
    8d76:	test   eax,eax
    8d78:	jne    8eb8 <read_1996_gauge_hdr+0x428>
    8d7e:	mov    edx,DWORD PTR [rsp+0xdc]
    8d85:	cmp    edx,0x2
    8d88:	jg     8e70 <read_1996_gauge_hdr+0x3e0>
    8d8e:	lea    rbp,[rsp+0xe0]
    8d96:	xor    r15d,r15d
    8d99:	test   edx,edx
    8d9b:	jle    8df9 <read_1996_gauge_hdr+0x369>
    8d9d:	sub    rsp,0x8
    8da1:	lea    rax,[rip+0x12229]        # 1afd1 <_IO_stdin_used+0xfd1>
    8da8:	mov    rcx,rbp
    8dab:	mov    esi,ebx
    8dad:	push   rax
    8dae:	mov    edi,DWORD PTR [r12]
    8db2:	mov    rdx,r13
    8db5:	mov    r9,r14
    8db8:	mov    r8d,0x8
    8dbe:	call   7410 <psread_byteorder>
    8dc3:	pop    rdx
    8dc4:	pop    rcx
    8dc5:	test   eax,eax
    8dc7:	jne    8e00 <read_1996_gauge_hdr+0x370>
    8dc9:	movsd  xmm0,QWORD PTR [rbp+0x0]
    8dce:	mov    edx,r15d
    8dd1:	mov    edi,0x1
    8dd6:	lea    rsi,[rip+0x12200]        # 1afdd <_IO_stdin_used+0xfdd>
    8ddd:	mov    eax,0x1
    8de2:	add    r15d,0x1
    8de6:	add    rbp,0x8
    8dea:	call   2470 <__printf_chk@plt>
    8def:	cmp    DWORD PTR [rsp+0xdc],r15d
    8df7:	jg     8d9d <read_1996_gauge_hdr+0x30d>
    8df9:	xor    eax,eax
    8dfb:	jmp    8b0f <read_1996_gauge_hdr+0x7f>
    8e00:	mov    edi,0x1
    8e05:	call   19570 <terminate>
    8e0a:	jmp    8dc9 <read_1996_gauge_hdr+0x339>
    8e0c:	nop    DWORD PTR [rax+0x0]
    8e10:	lea    rdi,[rip+0x129f9]        # 1b810 <_IO_stdin_used+0x1810>
    8e17:	call   22f0 <puts@plt>
    8e1c:	mov    DWORD PTR [r12],0x0
    8e24:	xor    edi,edi
    8e26:	jmp    8b8b <read_1996_gauge_hdr+0xfb>
    8e2b:	nop    DWORD PTR [rax+rax*1+0x0]
    8e30:	cmp    DWORD PTR [rbp+0x48],ecx
    8e33:	jne    8be6 <read_1996_gauge_hdr+0x156>
    8e39:	cmp    DWORD PTR [rbp+0x4c],esi
    8e3c:	jne    8be6 <read_1996_gauge_hdr+0x156>
    8e42:	lea    r10,[rbp+0x54]
    8e46:	mov    QWORD PTR [rsp+0x8],r10
    8e4b:	cmp    DWORD PTR [rbp+0x50],edi
    8e4e:	jne    8be6 <read_1996_gauge_hdr+0x156>
    8e54:	jmp    8c52 <read_1996_gauge_hdr+0x1c2>
    8e59:	nop    DWORD PTR [rax+0x0]
    8e60:	mov    edi,0x1
    8e65:	call   19570 <terminate>
    8e6a:	jmp    8bc3 <read_1996_gauge_hdr+0x133>
    8e6f:	nop
    8e70:	lea    rsi,[rip+0x12ab1]        # 1b928 <_IO_stdin_used+0x1928>
    8e77:	mov    edi,0x1
    8e7c:	xor    eax,eax
    8e7e:	call   2470 <__printf_chk@plt>
    8e83:	mov    edx,0x2
    8e88:	lea    rsi,[rip+0x120fb]        # 1af8a <_IO_stdin_used+0xf8a>
    8e8f:	xor    eax,eax
    8e91:	mov    edi,0x1
    8e96:	call   2470 <__printf_chk@plt>
    8e9b:	mov    edi,0x1
    8ea0:	call   19570 <terminate>
    8ea5:	mov    edx,DWORD PTR [rsp+0xdc]
    8eac:	jmp    8d8e <read_1996_gauge_hdr+0x2fe>
    8eb1:	nop    DWORD PTR [rax+0x0]
    8eb8:	mov    edi,0x1
    8ebd:	call   19570 <terminate>
    8ec2:	jmp    8d7e <read_1996_gauge_hdr+0x2ee>
    8ec7:	nop    WORD PTR [rax+rax*1+0x0]
    8ed0:	mov    edi,0x1
    8ed5:	call   19570 <terminate>
    8eda:	jmp    8d25 <read_1996_gauge_hdr+0x295>
    8edf:	nop
    8ee0:	lea    rsi,[rip+0x12a09]        # 1b8f0 <_IO_stdin_used+0x18f0>
    8ee7:	mov    edi,0x1
    8eec:	xor    eax,eax
    8eee:	call   2470 <__printf_chk@plt>
    8ef3:	mov    edx,0xc8
    8ef8:	lea    rsi,[rip+0x1208b]        # 1af8a <_IO_stdin_used+0xf8a>
    8eff:	xor    eax,eax
    8f01:	mov    edi,0x1
    8f06:	call   2470 <__printf_chk@plt>
    8f0b:	mov    edi,0x1
    8f10:	call   19570 <terminate>
    8f15:	jmp    8cfc <read_1996_gauge_hdr+0x26c>
    8f1a:	nop    WORD PTR [rax+rax*1+0x0]
    8f20:	mov    edi,0x1
    8f25:	call   19570 <terminate>
    8f2a:	jmp    8cec <read_1996_gauge_hdr+0x25c>
    8f2f:	nop
    8f30:	mov    edi,0x1
    8f35:	call   19570 <terminate>
    8f3a:	jmp    8cb8 <read_1996_gauge_hdr+0x228>
    8f3f:	nop
    8f40:	mov    edi,0x1
    8f45:	call   19570 <terminate>
    8f4a:	jmp    8c85 <read_1996_gauge_hdr+0x1f5>
    8f4f:	nop
    8f50:	mov    eax,DWORD PTR [rbp+0x48]
    8f53:	mov    esi,DWORD PTR [rbp+0x4c]
    8f56:	mov    DWORD PTR [rip+0x1947c],edx        # 223d8 <nx>
    8f5c:	mov    ecx,DWORD PTR [rbp+0x50]
    8f5f:	mov    DWORD PTR [rip+0x198d7],eax        # 2283c <ny>
    8f65:	imul   eax,edx
    8f68:	mov    DWORD PTR [rip+0x19466],esi        # 223d4 <nz>
    8f6e:	mov    DWORD PTR [rip+0x1945c],ecx        # 223d0 <nt>
    8f74:	imul   eax,esi
    8f77:	imul   eax,ecx
    8f7a:	mov    DWORD PTR [rip+0x19470],eax        # 223f0 <volume>
    8f80:	lea    rax,[rbp+0x54]
    8f84:	mov    QWORD PTR [rsp+0x8],rax
    8f89:	jmp    8c52 <read_1996_gauge_hdr+0x1c2>
    8f8e:	call   2350 <__stack_chk_fail@plt>
    8f93:	data16 nop WORD PTR cs:[rax+rax*1+0x0]
    8f9e:	xchg   ax,ax

0000000000008fa0 <read_gauge_hdr>:
    8fa0:	endbr64 
    8fa4:	push   r15
    8fa6:	mov    r9d,0x7264
    8fac:	mov    ecx,0x4
    8fb1:	push   r14
    8fb3:	mov    r14,rdi
    8fb6:	push   r13
    8fb8:	push   r12
    8fba:	push   rbp
    8fbb:	mov    ebp,esi
    8fbd:	push   rbx
    8fbe:	sub    rsp,0x68
    8fc2:	mov    r15,QWORD PTR [rdi]
    8fc5:	mov    rbx,QWORD PTR [rdi+0x8]
    8fc9:	mov    edi,ebp
    8fcb:	mov    rax,QWORD PTR fs:0x28
    8fd4:	mov    QWORD PTR [rsp+0x58],rax
    8fd9:	xor    eax,eax
    8fdb:	lea    r12,[rsp+0x49]
    8fe0:	mov    WORD PTR [rsp+0x55],r9w
    8fe6:	movabs rax,0x7561675f64616572
    8ff0:	lea    r9,[rip+0x11f68]        # 1af5f <_IO_stdin_used+0xf5f>
    8ff7:	mov    r8,r12
    8ffa:	mov    rdx,rbx
    8ffd:	mov    rsi,r15
    9000:	mov    QWORD PTR [rsp+0x49],rax
    9005:	mov    DWORD PTR [rsp+0x51],0x685f6567
    900d:	mov    BYTE PTR [rsp+0x57],0x0
    9012:	call   73e0 <psread_data>
    9017:	test   eax,eax
    9019:	jne    91f0 <read_gauge_hdr+0x250>
    901f:	mov    r13d,DWORD PTR [rbx]
    9022:	lea    rdi,[rsp+0x24]
    9027:	mov    esi,0x1
    902c:	mov    DWORD PTR [rsp+0x24],r13d
    9031:	call   15960 <byterevn>
    9036:	cmp    r13d,0x42454749
    903d:	je     9320 <read_gauge_hdr+0x380>
    9043:	mov    eax,DWORD PTR [rsp+0x24]
    9047:	cmp    eax,0x42454749
    904c:	je     9430 <read_gauge_hdr+0x490>
    9052:	cmp    r13d,0x4e87
    9059:	je     91e0 <read_gauge_hdr+0x240>
    905f:	cmp    eax,0x4e87
    9064:	jne    9290 <read_gauge_hdr+0x2f0>
    906a:	mov    DWORD PTR [rsp+0x28],0x1
    9072:	lea    rdi,[rip+0x11fb2]        # 1b02b <_IO_stdin_used+0x102b>
    9079:	mov    DWORD PTR [rbx],0x4e87
    907f:	call   22f0 <puts@plt>
    9084:	mov    rdx,r12
    9087:	mov    edi,0x1
    908c:	xor    eax,eax
    908e:	lea    rsi,[rip+0x11f7e]        # 1b013 <_IO_stdin_used+0x1013>
    9095:	call   2470 <__printf_chk@plt>
    909a:	mov    ecx,0x8
    909f:	mov    edx,0x4
    90a4:	xor    eax,eax
    90a6:	lea    rsi,[rip+0x126cb]        # 1b778 <_IO_stdin_used+0x1778>
    90ad:	mov    edi,0x1
    90b2:	call   2470 <__printf_chk@plt>
    90b7:	mov    edi,0x1
    90bc:	call   19570 <terminate>
    90c1:	mov    edi,DWORD PTR [rsp+0x28]
    90c5:	sub    rsp,0x8
    90c9:	lea    rax,[rip+0x12125]        # 1b1f5 <_IO_stdin_used+0x11f5>
    90d0:	mov    r9,r12
    90d3:	mov    esi,ebp
    90d5:	push   rax
    90d6:	mov    r8d,0x10
    90dc:	lea    rcx,[rbx+0x44]
    90e0:	mov    rdx,r15
    90e3:	call   7410 <psread_byteorder>
    90e8:	mov    DWORD PTR [rsp+0x2c],eax
    90ec:	pop    rdi
    90ed:	pop    r8
    90ef:	test   eax,eax
    90f1:	jne    94d0 <read_gauge_hdr+0x530>
    90f7:	mov    edx,DWORD PTR [rbx+0x44]
    90fa:	mov    eax,DWORD PTR [rip+0x192d8]        # 223d8 <nx>
    9100:	mov    ecx,DWORD PTR [rip+0x19736]        # 2283c <ny>
    9106:	mov    esi,DWORD PTR [rip+0x192c8]        # 223d4 <nz>
    910c:	mov    edi,DWORD PTR [rip+0x192be]        # 223d0 <nt>
    9112:	cmp    edx,eax
    9114:	je     9200 <read_gauge_hdr+0x260>
    911a:	and    eax,ecx
    911c:	and    eax,esi
    911e:	and    eax,edi
    9120:	cmp    eax,0xffffffff
    9123:	je     9590 <read_gauge_hdr+0x5f0>
    9129:	mov    rdx,r12
    912c:	lea    rsi,[rip+0x128e5]        # 1ba18 <_IO_stdin_used+0x1a18>
    9133:	lea    r13,[rbx+0x44]
    9137:	xor    eax,eax
    9139:	mov    edi,0x1
    913e:	lea    r14,[rip+0x11e27]        # 1af6c <_IO_stdin_used+0xf6c>
    9145:	call   2470 <__printf_chk@plt>
    914a:	lea    rax,[rbx+0x54]
    914e:	mov    QWORD PTR [rsp+0x8],rax
    9153:	mov    edx,DWORD PTR [r13+0x0]
    9157:	mov    rsi,r14
    915a:	mov    edi,0x1
    915f:	xor    eax,eax
    9161:	add    r13,0x4
    9165:	call   2470 <__printf_chk@plt>
    916a:	cmp    QWORD PTR [rsp+0x8],r13
    916f:	jne    9153 <read_gauge_hdr+0x1b3>
    9171:	mov    edi,0xa
    9176:	call   22b0 <putchar@plt>
    917b:	mov    rdi,QWORD PTR [rip+0x1915e]        # 222e0 <stdout@@GLIBC_2.2.5>
    9182:	call   2420 <fflush@plt>
    9187:	mov    edi,0x1
    918c:	call   19570 <terminate>
    9191:	mov    esi,DWORD PTR [rsp+0x1c]
    9195:	test   esi,esi
    9197:	je     9220 <read_gauge_hdr+0x280>
    919d:	mov    rax,QWORD PTR [rsp+0x10]
    91a2:	test   rax,rax
    91a5:	je     91af <read_gauge_hdr+0x20f>
    91a7:	mov    rdi,rax
    91aa:	call   6a20 <qcdhdr_destroy_hdr.part.0>
    91af:	mov    rcx,QWORD PTR [rsp+0x58]
    91b4:	xor    rcx,QWORD PTR fs:0x28
    91bd:	mov    eax,DWORD PTR [rsp+0x28]
    91c1:	jne    95c5 <read_gauge_hdr+0x625>
    91c7:	add    rsp,0x68
    91cb:	pop    rbx
    91cc:	pop    rbp
    91cd:	pop    r12
    91cf:	pop    r13
    91d1:	pop    r14
    91d3:	pop    r15
    91d5:	ret    
    91d6:	nop    WORD PTR cs:[rax+rax*1+0x0]
    91e0:	mov    DWORD PTR [rsp+0x28],0x0
    91e8:	xor    edi,edi
    91ea:	jmp    90c5 <read_gauge_hdr+0x125>
    91ef:	nop
    91f0:	mov    edi,0x1
    91f5:	call   19570 <terminate>
    91fa:	jmp    901f <read_gauge_hdr+0x7f>
    91ff:	nop
    9200:	cmp    DWORD PTR [rbx+0x48],ecx
    9203:	jne    911a <read_gauge_hdr+0x17a>
    9209:	cmp    DWORD PTR [rbx+0x4c],esi
    920c:	jne    911a <read_gauge_hdr+0x17a>
    9212:	cmp    DWORD PTR [rbx+0x50],edi
    9215:	jne    911a <read_gauge_hdr+0x17a>
    921b:	jmp    9191 <read_gauge_hdr+0x1f1>
    9220:	lea    rdx,[rbx+0x4]
    9224:	lea    r9,[rip+0x11fa1]        # 1b1cc <_IO_stdin_used+0x11cc>
    922b:	mov    r8,r12
    922e:	mov    edi,ebp
    9230:	mov    ecx,0x40
    9235:	mov    rsi,r15
    9238:	call   73e0 <psread_data>
    923d:	test   eax,eax
    923f:	jne    9418 <read_gauge_hdr+0x478>
    9245:	sub    rsp,0x8
    9249:	lea    rax,[rip+0x11ed6]        # 1b126 <_IO_stdin_used+0x1126>
    9250:	mov    rdx,r15
    9253:	mov    esi,ebp
    9255:	mov    DWORD PTR [rbx+0x54],0x58
    925c:	lea    rcx,[rbx+0x58]
    9260:	mov    r9,r12
    9263:	mov    r8d,0x4
    9269:	push   rax
    926a:	mov    edi,DWORD PTR [rsp+0x38]
    926e:	call   7410 <psread_byteorder>
    9273:	pop    rdx
    9274:	pop    rcx
    9275:	test   eax,eax
    9277:	je     91af <read_gauge_hdr+0x20f>
    927d:	mov    edi,0x1
    9282:	call   19570 <terminate>
    9287:	jmp    91af <read_gauge_hdr+0x20f>
    928c:	nop    DWORD PTR [rax+0x0]
    9290:	lea    r15,[rsp+0x28]
    9295:	mov    esi,ebp
    9297:	mov    rdi,r14
    929a:	mov    rdx,r15
    929d:	call   8690 <read_v3_gauge_hdr>
    92a2:	test   eax,eax
    92a4:	je     91af <read_gauge_hdr+0x20f>
    92aa:	mov    rdx,r15
    92ad:	mov    esi,ebp
    92af:	mov    rdi,r14
    92b2:	call   8a90 <read_1996_gauge_hdr>
    92b7:	test   eax,eax
    92b9:	je     91af <read_gauge_hdr+0x20f>
    92bf:	mov    rdx,r12
    92c2:	lea    rsi,[rip+0x126cf]        # 1b998 <_IO_stdin_used+0x1998>
    92c9:	mov    edi,0x1
    92ce:	xor    eax,eax
    92d0:	call   2470 <__printf_chk@plt>
    92d5:	mov    ecx,r13d
    92d8:	mov    edx,0x4e87
    92dd:	xor    eax,eax
    92df:	lea    rsi,[rip+0x11d60]        # 1b046 <_IO_stdin_used+0x1046>
    92e6:	mov    edi,0x1
    92eb:	call   2470 <__printf_chk@plt>
    92f0:	movsxd rcx,r13d
    92f3:	mov    edx,0x4e87
    92f8:	xor    eax,eax
    92fa:	lea    rsi,[rip+0x11d5e]        # 1b05f <_IO_stdin_used+0x105f>
    9301:	mov    edi,0x1
    9306:	call   2470 <__printf_chk@plt>
    930b:	mov    edi,0x1
    9310:	call   19570 <terminate>
    9315:	jmp    91af <read_gauge_hdr+0x20f>
    931a:	nop    WORD PTR [rax+rax*1+0x0]
    9320:	lea    rdi,[rip+0x11cd2]        # 1aff9 <_IO_stdin_used+0xff9>
    9327:	call   22f0 <puts@plt>
    932c:	mov    rax,QWORD PTR [r14+0x8]
    9330:	mov    DWORD PTR [rsp+0x28],0x0
    9338:	mov    DWORD PTR [rax+0x58],0x0
    933f:	test   ebp,ebp
    9341:	jne    949a <read_gauge_hdr+0x4fa>
    9347:	mov    rdi,r15
    934a:	call   6f70 <qcdhdr_get_hdr>
    934f:	lea    rdx,[rsp+0x30]
    9354:	lea    rdi,[rip+0x11d1d]        # 1b078 <_IO_stdin_used+0x1078>
    935b:	mov    rsi,rax
    935e:	mov    QWORD PTR [rsp+0x10],rax
    9363:	call   6c70 <qcdhdr_get_int>
    9368:	cmp    eax,0xffffffff
    936b:	je     9570 <read_gauge_hdr+0x5d0>
