
h264ref:     file format elf64-x86-64


Disassembly of section .init:

0000000000004000 <_init>:
    4000:	endbr64 
    4004:	sub    rsp,0x8
    4008:	mov    rax,QWORD PTR [rip+0x81fc9]        # 85fd8 <__gmon_start__>
    400f:	test   rax,rax
    4012:	je     4016 <_init+0x16>
    4014:	call   rax
    4016:	add    rsp,0x8
    401a:	ret    

Disassembly of section .plt:

0000000000004020 <.plt>:
    4020:	push   QWORD PTR [rip+0x81e52]        # 85e78 <_GLOBAL_OFFSET_TABLE_+0x8>
    4026:	bnd jmp QWORD PTR [rip+0x81e53]        # 85e80 <_GLOBAL_OFFSET_TABLE_+0x10>
    402d:	nop    DWORD PTR [rax]
    4030:	endbr64 
    4034:	push   0x0
    4039:	bnd jmp 4020 <.plt>
    403f:	nop
    4040:	endbr64 
    4044:	push   0x1
    4049:	bnd jmp 4020 <.plt>
    404f:	nop
    4050:	endbr64 
    4054:	push   0x2
    4059:	bnd jmp 4020 <.plt>
    405f:	nop
    4060:	endbr64 
    4064:	push   0x3
    4069:	bnd jmp 4020 <.plt>
    406f:	nop
    4070:	endbr64 
    4074:	push   0x4
    4079:	bnd jmp 4020 <.plt>
    407f:	nop
    4080:	endbr64 
    4084:	push   0x5
    4089:	bnd jmp 4020 <.plt>
    408f:	nop
    4090:	endbr64 
    4094:	push   0x6
    4099:	bnd jmp 4020 <.plt>
    409f:	nop
    40a0:	endbr64 
    40a4:	push   0x7
    40a9:	bnd jmp 4020 <.plt>
    40af:	nop
    40b0:	endbr64 
    40b4:	push   0x8
    40b9:	bnd jmp 4020 <.plt>
    40bf:	nop
    40c0:	endbr64 
    40c4:	push   0x9
    40c9:	bnd jmp 4020 <.plt>
    40cf:	nop
    40d0:	endbr64 
    40d4:	push   0xa
    40d9:	bnd jmp 4020 <.plt>
    40df:	nop
    40e0:	endbr64 
    40e4:	push   0xb
    40e9:	bnd jmp 4020 <.plt>
    40ef:	nop
    40f0:	endbr64 
    40f4:	push   0xc
    40f9:	bnd jmp 4020 <.plt>
    40ff:	nop
    4100:	endbr64 
    4104:	push   0xd
    4109:	bnd jmp 4020 <.plt>
    410f:	nop
    4110:	endbr64 
    4114:	push   0xe
    4119:	bnd jmp 4020 <.plt>
    411f:	nop
    4120:	endbr64 
    4124:	push   0xf
    4129:	bnd jmp 4020 <.plt>
    412f:	nop
    4130:	endbr64 
    4134:	push   0x10
    4139:	bnd jmp 4020 <.plt>
    413f:	nop
    4140:	endbr64 
    4144:	push   0x11
    4149:	bnd jmp 4020 <.plt>
    414f:	nop
    4150:	endbr64 
    4154:	push   0x12
    4159:	bnd jmp 4020 <.plt>
    415f:	nop
    4160:	endbr64 
    4164:	push   0x13
    4169:	bnd jmp 4020 <.plt>
    416f:	nop
    4170:	endbr64 
    4174:	push   0x14
    4179:	bnd jmp 4020 <.plt>
    417f:	nop
    4180:	endbr64 
    4184:	push   0x15
    4189:	bnd jmp 4020 <.plt>
    418f:	nop
    4190:	endbr64 
    4194:	push   0x16
    4199:	bnd jmp 4020 <.plt>
    419f:	nop
    41a0:	endbr64 
    41a4:	push   0x17
    41a9:	bnd jmp 4020 <.plt>
    41af:	nop
    41b0:	endbr64 
    41b4:	push   0x18
    41b9:	bnd jmp 4020 <.plt>
    41bf:	nop
    41c0:	endbr64 
    41c4:	push   0x19
    41c9:	bnd jmp 4020 <.plt>
    41cf:	nop
    41d0:	endbr64 
    41d4:	push   0x1a
    41d9:	bnd jmp 4020 <.plt>
    41df:	nop
    41e0:	endbr64 
    41e4:	push   0x1b
    41e9:	bnd jmp 4020 <.plt>
    41ef:	nop
    41f0:	endbr64 
    41f4:	push   0x1c
    41f9:	bnd jmp 4020 <.plt>
    41ff:	nop
    4200:	endbr64 
    4204:	push   0x1d
    4209:	bnd jmp 4020 <.plt>
    420f:	nop
    4210:	endbr64 
    4214:	push   0x1e
    4219:	bnd jmp 4020 <.plt>
    421f:	nop
    4220:	endbr64 
    4224:	push   0x1f
    4229:	bnd jmp 4020 <.plt>
    422f:	nop
    4230:	endbr64 
    4234:	push   0x20
    4239:	bnd jmp 4020 <.plt>
    423f:	nop
    4240:	endbr64 
    4244:	push   0x21
    4249:	bnd jmp 4020 <.plt>
    424f:	nop
    4250:	endbr64 
    4254:	push   0x22
    4259:	bnd jmp 4020 <.plt>
    425f:	nop
    4260:	endbr64 
    4264:	push   0x23
    4269:	bnd jmp 4020 <.plt>
    426f:	nop
    4270:	endbr64 
    4274:	push   0x24
    4279:	bnd jmp 4020 <.plt>
    427f:	nop
    4280:	endbr64 
    4284:	push   0x25
    4289:	bnd jmp 4020 <.plt>
    428f:	nop
    4290:	endbr64 
    4294:	push   0x26
    4299:	bnd jmp 4020 <.plt>
    429f:	nop
    42a0:	endbr64 
    42a4:	push   0x27
    42a9:	bnd jmp 4020 <.plt>
    42af:	nop

Disassembly of section .plt.got:

00000000000042b0 <__cxa_finalize@plt>:
    42b0:	endbr64 
    42b4:	bnd jmp QWORD PTR [rip+0x81d35]        # 85ff0 <__cxa_finalize@GLIBC_2.2.5>
    42bb:	nop    DWORD PTR [rax+rax*1+0x0]

Disassembly of section .plt.sec:

00000000000042c0 <__snprintf_chk@plt>:
    42c0:	endbr64 
    42c4:	bnd jmp QWORD PTR [rip+0x81bbd]        # 85e88 <__snprintf_chk@GLIBC_2.3.4>
    42cb:	nop    DWORD PTR [rax+rax*1+0x0]

00000000000042d0 <free@plt>:
    42d0:	endbr64 
    42d4:	bnd jmp QWORD PTR [rip+0x81bb5]        # 85e90 <free@GLIBC_2.2.5>
    42db:	nop    DWORD PTR [rax+rax*1+0x0]

00000000000042e0 <putchar@plt>:
    42e0:	endbr64 
    42e4:	bnd jmp QWORD PTR [rip+0x81bad]        # 85e98 <putchar@GLIBC_2.2.5>
    42eb:	nop    DWORD PTR [rax+rax*1+0x0]

00000000000042f0 <localtime@plt>:
    42f0:	endbr64 
    42f4:	bnd jmp QWORD PTR [rip+0x81ba5]        # 85ea0 <localtime@GLIBC_2.2.5>
    42fb:	nop    DWORD PTR [rax+rax*1+0x0]

0000000000004300 <strncpy@plt>:
    4300:	endbr64 
    4304:	bnd jmp QWORD PTR [rip+0x81b9d]        # 85ea8 <strncpy@GLIBC_2.2.5>
    430b:	nop    DWORD PTR [rax+rax*1+0x0]

0000000000004310 <__isoc99_fscanf@plt>:
    4310:	endbr64 
    4314:	bnd jmp QWORD PTR [rip+0x81b95]        # 85eb0 <__isoc99_fscanf@GLIBC_2.7>
    431b:	nop    DWORD PTR [rax+rax*1+0x0]

0000000000004320 <puts@plt>:
    4320:	endbr64 
    4324:	bnd jmp QWORD PTR [rip+0x81b8d]        # 85eb8 <puts@GLIBC_2.2.5>
    432b:	nop    DWORD PTR [rax+rax*1+0x0]

0000000000004330 <qsort@plt>:
    4330:	endbr64 
    4334:	bnd jmp QWORD PTR [rip+0x81b85]        # 85ec0 <qsort@GLIBC_2.2.5>
    433b:	nop    DWORD PTR [rax+rax*1+0x0]

0000000000004340 <fread@plt>:
    4340:	endbr64 
    4344:	bnd jmp QWORD PTR [rip+0x81b7d]        # 85ec8 <fread@GLIBC_2.2.5>
    434b:	nop    DWORD PTR [rax+rax*1+0x0]

0000000000004350 <write@plt>:
    4350:	endbr64 
    4354:	bnd jmp QWORD PTR [rip+0x81b75]        # 85ed0 <write@GLIBC_2.2.5>
    435b:	nop    DWORD PTR [rax+rax*1+0x0]

0000000000004360 <pow@plt>:
    4360:	endbr64 
    4364:	bnd jmp QWORD PTR [rip+0x81b6d]        # 85ed8 <pow@GLIBC_2.29>
    436b:	nop    DWORD PTR [rax+rax*1+0x0]

0000000000004370 <fclose@plt>:
    4370:	endbr64 
    4374:	bnd jmp QWORD PTR [rip+0x81b65]        # 85ee0 <fclose@GLIBC_2.2.5>
    437b:	nop    DWORD PTR [rax+rax*1+0x0]

0000000000004380 <strlen@plt>:
    4380:	endbr64 
    4384:	bnd jmp QWORD PTR [rip+0x81b5d]        # 85ee8 <strlen@GLIBC_2.2.5>
    438b:	nop    DWORD PTR [rax+rax*1+0x0]

0000000000004390 <__stack_chk_fail@plt>:
    4390:	endbr64 
    4394:	bnd jmp QWORD PTR [rip+0x81b55]        # 85ef0 <__stack_chk_fail@GLIBC_2.4>
    439b:	nop    DWORD PTR [rax+rax*1+0x0]

00000000000043a0 <lseek@plt>:
    43a0:	endbr64 
    43a4:	bnd jmp QWORD PTR [rip+0x81b4d]        # 85ef8 <lseek@GLIBC_2.2.5>
    43ab:	nop    DWORD PTR [rax+rax*1+0x0]

00000000000043b0 <memset@plt>:
    43b0:	endbr64 
    43b4:	bnd jmp QWORD PTR [rip+0x81b45]        # 85f00 <memset@GLIBC_2.2.5>
    43bb:	nop    DWORD PTR [rax+rax*1+0x0]

00000000000043c0 <close@plt>:
    43c0:	endbr64 
    43c4:	bnd jmp QWORD PTR [rip+0x81b3d]        # 85f08 <close@GLIBC_2.2.5>
    43cb:	nop    DWORD PTR [rax+rax*1+0x0]

00000000000043d0 <log@plt>:
    43d0:	endbr64 
    43d4:	bnd jmp QWORD PTR [rip+0x81b35]        # 85f10 <log@GLIBC_2.29>
    43db:	nop    DWORD PTR [rax+rax*1+0x0]

00000000000043e0 <fputc@plt>:
    43e0:	endbr64 
    43e4:	bnd jmp QWORD PTR [rip+0x81b2d]        # 85f18 <fputc@GLIBC_2.2.5>
    43eb:	nop    DWORD PTR [rax+rax*1+0x0]

00000000000043f0 <read@plt>:
    43f0:	endbr64 
    43f4:	bnd jmp QWORD PTR [rip+0x81b25]        # 85f20 <read@GLIBC_2.2.5>
    43fb:	nop    DWORD PTR [rax+rax*1+0x0]

0000000000004400 <calloc@plt>:
    4400:	endbr64 
    4404:	bnd jmp QWORD PTR [rip+0x81b1d]        # 85f28 <calloc@GLIBC_2.2.5>
    440b:	nop    DWORD PTR [rax+rax*1+0x0]

0000000000004410 <strcmp@plt>:
    4410:	endbr64 
    4414:	bnd jmp QWORD PTR [rip+0x81b15]        # 85f30 <strcmp@GLIBC_2.2.5>
    441b:	nop    DWORD PTR [rax+rax*1+0x0]

0000000000004420 <log10@plt>:
    4420:	endbr64 
    4424:	bnd jmp QWORD PTR [rip+0x81b0d]        # 85f38 <log10@GLIBC_2.2.5>
    442b:	nop    DWORD PTR [rax+rax*1+0x0]

0000000000004430 <ftell@plt>:
    4430:	endbr64 
    4434:	bnd jmp QWORD PTR [rip+0x81b05]        # 85f40 <ftell@GLIBC_2.2.5>
    443b:	nop    DWORD PTR [rax+rax*1+0x0]

0000000000004440 <memcpy@plt>:
    4440:	endbr64 
    4444:	bnd jmp QWORD PTR [rip+0x81afd]        # 85f48 <memcpy@GLIBC_2.14>
    444b:	nop    DWORD PTR [rax+rax*1+0x0]

0000000000004450 <time@plt>:
    4450:	endbr64 
    4454:	bnd jmp QWORD PTR [rip+0x81af5]        # 85f50 <time@GLIBC_2.2.5>
    445b:	nop    DWORD PTR [rax+rax*1+0x0]

0000000000004460 <malloc@plt>:
    4460:	endbr64 
    4464:	bnd jmp QWORD PTR [rip+0x81aed]        # 85f58 <malloc@GLIBC_2.2.5>
    446b:	nop    DWORD PTR [rax+rax*1+0x0]

0000000000004470 <__isoc99_sscanf@plt>:
    4470:	endbr64 
    4474:	bnd jmp QWORD PTR [rip+0x81ae5]        # 85f60 <__isoc99_sscanf@GLIBC_2.7>
    447b:	nop    DWORD PTR [rax+rax*1+0x0]

0000000000004480 <fseek@plt>:
    4480:	endbr64 
    4484:	bnd jmp QWORD PTR [rip+0x81add]        # 85f68 <fseek@GLIBC_2.2.5>
    448b:	nop    DWORD PTR [rax+rax*1+0x0]

0000000000004490 <__printf_chk@plt>:
    4490:	endbr64 
    4494:	bnd jmp QWORD PTR [rip+0x81ad5]        # 85f70 <__printf_chk@GLIBC_2.3.4>
    449b:	nop    DWORD PTR [rax+rax*1+0x0]

00000000000044a0 <strftime@plt>:
    44a0:	endbr64 
    44a4:	bnd jmp QWORD PTR [rip+0x81acd]        # 85f78 <strftime@GLIBC_2.2.5>
    44ab:	nop    DWORD PTR [rax+rax*1+0x0]

00000000000044b0 <open@plt>:
    44b0:	endbr64 
    44b4:	bnd jmp QWORD PTR [rip+0x81ac5]        # 85f80 <open@GLIBC_2.2.5>
    44bb:	nop    DWORD PTR [rax+rax*1+0x0]

00000000000044c0 <fopen@plt>:
    44c0:	endbr64 
    44c4:	bnd jmp QWORD PTR [rip+0x81abd]        # 85f88 <fopen@GLIBC_2.2.5>
    44cb:	nop    DWORD PTR [rax+rax*1+0x0]

00000000000044d0 <floor@plt>:
    44d0:	endbr64 
    44d4:	bnd jmp QWORD PTR [rip+0x81ab5]        # 85f90 <floor@GLIBC_2.2.5>
    44db:	nop    DWORD PTR [rax+rax*1+0x0]

00000000000044e0 <exit@plt>:
    44e0:	endbr64 
    44e4:	bnd jmp QWORD PTR [rip+0x81aad]        # 85f98 <exit@GLIBC_2.2.5>
    44eb:	nop    DWORD PTR [rax+rax*1+0x0]

00000000000044f0 <fwrite@plt>:
    44f0:	endbr64 
    44f4:	bnd jmp QWORD PTR [rip+0x81aa5]        # 85fa0 <fwrite@GLIBC_2.2.5>
    44fb:	nop    DWORD PTR [rax+rax*1+0x0]

0000000000004500 <__fprintf_chk@plt>:
    4500:	endbr64 
    4504:	bnd jmp QWORD PTR [rip+0x81a9d]        # 85fa8 <__fprintf_chk@GLIBC_2.3.4>
    450b:	nop    DWORD PTR [rax+rax*1+0x0]

0000000000004510 <__strncat_chk@plt>:
    4510:	endbr64 
    4514:	bnd jmp QWORD PTR [rip+0x81a95]        # 85fb0 <__strncat_chk@GLIBC_2.3.4>
    451b:	nop    DWORD PTR [rax+rax*1+0x0]

0000000000004520 <sqrt@plt>:
    4520:	endbr64 
    4524:	bnd jmp QWORD PTR [rip+0x81a8d]        # 85fb8 <sqrt@GLIBC_2.2.5>
    452b:	nop    DWORD PTR [rax+rax*1+0x0]

0000000000004530 <__ctype_b_loc@plt>:
    4530:	endbr64 
    4534:	bnd jmp QWORD PTR [rip+0x81a85]        # 85fc0 <__ctype_b_loc@GLIBC_2.3>
    453b:	nop    DWORD PTR [rax+rax*1+0x0]

Disassembly of section .text:

0000000000004540 <main>:
    4540:	endbr64 
    4544:	push   rbp
    4545:	push   rbx
    4546:	sub    rsp,0x8
    454a:	mov    DWORD PTR [rip+0xae50c],0xffffffff        # b2a60 <p_in>
    4554:	mov    DWORD PTR [rip+0xb2196],0xffffffff        # b66f4 <p_dec>
    455e:	mov    QWORD PTR [rip+0xb2177],0x0        # b66e0 <p_trace>
    4569:	mov    QWORD PTR [rip+0xafbcc],0x0        # b4140 <p_log>
    4574:	mov    QWORD PTR [rip+0x9c8a1],0x0        # a0e20 <p_stat>
    457f:	mov    DWORD PTR [rip+0xafbb3],0x1        # b413c <frame_statistic_start>
    4589:	call   f6f0 <Configure>
    458e:	call   49810 <Init_QMatrix>
    4593:	xor    eax,eax
    4595:	call   4a6b0 <Init_QOffsetMatrix>
    459a:	xor    eax,eax
    459c:	call   46710 <AllocNalPayloadBuffer>
    45a1:	xor    eax,eax
    45a3:	call   20fe0 <init_poc>
    45a8:	xor    eax,eax
    45aa:	call   479c0 <GenerateParameterSets>
    45af:	xor    eax,eax
    45b1:	call   23d00 <init_img>
    45b6:	xor    eax,eax
    45b8:	call   21130 <malloc_picture>
    45bd:	mov    QWORD PTR [rip+0xb09bc],rax        # b4f80 <frame_pic>
    45c4:	mov    rax,QWORD PTR [rip+0x83fed]        # 885b8 <input>
    45cb:	mov    r10d,DWORD PTR [rax+0x510]
    45d2:	test   r10d,r10d
    45d5:	jne    4c0c <main+0x6cc>
    45db:	mov    r9d,DWORD PTR [rax+0xb40]
    45e2:	test   r9d,r9d
    45e5:	jne    4beb <main+0x6ab>
    45eb:	xor    eax,eax
    45ed:	call   4e740 <init_rdopt>
    45f2:	mov    rdi,QWORD PTR [rip+0x83fbf]        # 885b8 <input>
    45f9:	mov    r8d,DWORD PTR [rdi+0x528]
    4600:	test   r8d,r8d
    4603:	jne    4bbe <main+0x67e>
    4609:	xor    eax,eax
    460b:	call   31af0 <init_dpb>
    4610:	xor    eax,eax
    4612:	call   46e80 <init_out_buffer>
    4617:	xor    eax,eax
    4619:	mov    QWORD PTR [rip+0x8637c],0x0        # 8a9a0 <enc_bottom_picture>
    4624:	mov    QWORD PTR [rip+0x86369],0x0        # 8a998 <enc_top_picture>
    462f:	mov    QWORD PTR [rip+0x86376],0x0        # 8a9b0 <enc_frame_picture>
    463a:	mov    QWORD PTR [rip+0x86363],0x0        # 8a9a8 <enc_picture>
    4645:	call   22d10 <init_global_buffers>
    464a:	xor    eax,eax
    464c:	call   118f0 <create_context_memory>
    4651:	xor    eax,eax
    4653:	call   3ae30 <Init_Motion_Search_Module>
    4658:	xor    eax,eax
    465a:	call   229b0 <information_init>
    465f:	mov    rcx,QWORD PTR [rip+0x83f52]        # 885b8 <input>
    4666:	mov    edi,DWORD PTR [rcx+0xca4]
    466c:	test   edi,edi
    466e:	jne    4bab <main+0x66b>
    4674:	mov    esi,DWORD PTR [rcx+0xcdc]
    467a:	test   esi,esi
    467c:	jne    4b8c <main+0x64c>
    4682:	mov    DWORD PTR [rip+0xaf67c],0x0        # b3d08 <Iframe_ctr>
    468c:	mov    eax,DWORD PTR [rcx+0x988]
    4692:	mov    DWORD PTR [rip+0x9aa04],0x0        # 9f0a0 <Pframe_ctr>
    469c:	mov    DWORD PTR [rip+0xb17c6],0x0        # b5e6c <Bframe_ctr>
    46a6:	mov    DWORD PTR [rip+0xb2100],0x0        # b67b0 <tot_time>
    46b0:	test   eax,eax
    46b2:	jle    46c5 <main+0x185>
    46b4:	mov    esi,DWORD PTR [rcx+0x14]
    46b7:	add    eax,esi
    46b9:	add    esi,0x1
    46bc:	cdq    
    46bd:	idiv   esi
    46bf:	add    eax,0x1
    46c2:	mov    DWORD PTR [rcx+0x8],eax
    46c5:	mov    eax,DWORD PTR [rcx+0x4d4]
    46cb:	mov    DWORD PTR [rip+0x84423],eax        # 88af4 <initial_Bframes>
    46d1:	xor    eax,eax
    46d3:	call   118a0 <PatchInputNoFrames>
    46d8:	mov    rbx,QWORD PTR [rip+0x83ec9]        # 885a8 <stats>
    46df:	xor    eax,eax
    46e1:	mov    DWORD PTR [rbx+0x5d0],0x0
    46eb:	call   19200 <start_sequence>
    46f0:	mov    rdi,QWORD PTR [rip+0x83ec1]        # 885b8 <input>
    46f7:	mov    rsi,QWORD PTR [rip+0x83eb2]        # 885b0 <img>
    46fe:	mov    DWORD PTR [rip+0x843e4],0x0        # 88aec <start_frame_no_in_this_IGOP>
    4708:	mov    DWORD PTR [rbx+0x18],eax
    470b:	mov    rax,QWORD PTR [rip+0x83e96]        # 885a8 <stats>
    4712:	mov    edx,DWORD PTR [rax+0x5d4]
    4718:	add    DWORD PTR [rax+0x5d0],edx
    471e:	mov    edx,DWORD PTR [rdi+0x8]
    4721:	mov    DWORD PTR [rsi],0x0
    4727:	test   edx,edx
    4729:	jle    4a08 <main+0x4c8>
    472f:	xor    eax,eax
    4731:	xor    r8d,r8d
    4734:	mov    ebx,0x1
    4739:	xor    ebp,ebp
    473b:	jmp    47cf <main+0x28f>
    4740:	mov    ecx,DWORD PTR [rcx+0xb60]
    4746:	mov    eax,DWORD PTR [r8]
    4749:	sub    eax,DWORD PTR [rip+0x8439d]        # 88aec <start_frame_no_in_this_IGOP>
    474f:	add    ecx,0x1
    4752:	cdq    
    4753:	idiv   ecx
    4755:	xor    eax,eax
    4757:	test   edx,edx
    4759:	setne  al
    475c:	mov    DWORD PTR [r8+0x11ac0],eax
    4763:	xor    eax,eax
    4765:	call   1e300 <encode_one_frame>
    476a:	mov    rax,QWORD PTR [rip+0x83e47]        # 885b8 <input>
    4771:	mov    ecx,DWORD PTR [rax+0xc9c]
    4777:	test   ecx,ecx
    4779:	jne    49b0 <main+0x470>
    477f:	mov    rdx,QWORD PTR [rip+0x83e2a]        # 885b0 <img>
    4786:	mov    eax,DWORD PTR [rdx+0x8]
    4789:	mov    ecx,DWORD PTR [rdx+0x11ab8]
    478f:	add    eax,0x1
    4792:	cmp    eax,ecx
    4794:	cmovg  eax,ecx
    4797:	mov    DWORD PTR [rdx+0x8],eax
    479a:	xor    eax,eax
    479c:	call   15980 <encode_enhancement_layer>
    47a1:	xor    eax,eax
    47a3:	call   24c30 <process_2nd_IGOP>
    47a8:	mov    rsi,QWORD PTR [rip+0x83e01]        # 885b0 <img>
    47af:	mov    rdi,QWORD PTR [rip+0x83e02]        # 885b8 <input>
    47b6:	mov    eax,DWORD PTR [rsi]
    47b8:	lea    r8d,[rax+0x1]
    47bc:	mov    DWORD PTR [rsi],r8d
    47bf:	cmp    r8d,DWORD PTR [rdi+0x8]
    47c3:	jge    4a08 <main+0x4c8>
    47c9:	mov    eax,DWORD PTR [rip+0x8431d]        # 88aec <start_frame_no_in_this_IGOP>
    47cf:	mov    edx,DWORD PTR [rdi+0x14]
    47d2:	mov    r9d,r8d
    47d5:	mov    r10d,DWORD PTR [rdi+0x4c8]
    47dc:	mov    DWORD PTR [rsi+0x11b30],0x1
    47e6:	sub    r9d,eax
    47e9:	lea    ecx,[rdx+0x1]
    47ec:	mov    edx,r9d
    47ef:	test   r10d,r10d
    47f2:	je     4805 <main+0x2c5>
    47f4:	mov    eax,DWORD PTR [rdi+0x4cc]
    47fa:	test   eax,eax
    47fc:	je     4805 <main+0x2c5>
    47fe:	mov    eax,r9d
    4801:	cdq    
    4802:	idiv   r10d
    4805:	mov    r11d,DWORD PTR [rdi+0x524]
    480c:	imul   ecx,edx
    480f:	add    ecx,ecx
    4811:	cmp    QWORD PTR [rdi+0xb40],0x1
    4819:	mov    eax,ecx
    481b:	mov    DWORD PTR [rsi+0x11b00],ecx
    4821:	sbb    eax,0xffffffff
    4824:	mov    DWORD PTR [rsi+0x11b08],ecx
    482a:	mov    DWORD PTR [rsi+0x11b04],eax
    4830:	test   r11d,r11d
    4833:	jne    483f <main+0x2ff>
    4835:	mov    eax,DWORD PTR [rdi+0x528]
    483b:	test   eax,eax
    483d:	je     4853 <main+0x313>
    483f:	mov    eax,DWORD PTR [rdi+0x4d4]
    4845:	test   eax,eax
    4847:	je     4853 <main+0x313>
    4849:	cmp    r8d,0x1
    484d:	jg     49c0 <main+0x480>
    4853:	test   r10d,r10d
    4856:	je     486c <main+0x32c>
    4858:	mov    eax,DWORD PTR [rdi+0x4cc]
    485e:	test   eax,eax
    4860:	je     486c <main+0x32c>
    4862:	mov    eax,r9d
    4865:	cdq    
    4866:	idiv   r10d
    4869:	mov    r9d,edx
    486c:	mov    eax,DWORD PTR [rip+0xb15f6]        # b5e68 <log2_max_frame_num_minus4>
    4872:	lea    ecx,[rax+0x4]
    4875:	mov    eax,ebx
    4877:	shl    eax,cl
    4879:	mov    ecx,eax
    487b:	mov    eax,r9d
    487e:	cdq    
    487f:	idiv   ecx
    4881:	mov    DWORD PTR [rsi+0x11b10],edx
    4887:	mov    DWORD PTR [rsi+0x11af4],0x0
    4891:	test   r8d,r8d
    4894:	je     48a9 <main+0x369>
    4896:	test   r11d,r11d
    4899:	je     48a9 <main+0x369>
    489b:	mov    eax,DWORD PTR [rdi+0x4d4]
    48a1:	add    eax,eax
    48a3:	mov    DWORD PTR [rsi+0x11af4],eax
    48a9:	xor    eax,eax
    48ab:	call   24ca0 <SetImgType>
    48b0:	mov    rcx,QWORD PTR [rip+0x83d01]        # 885b8 <input>
    48b7:	mov    r8,QWORD PTR [rip+0x83cf2]        # 885b0 <img>
    48be:	mov    esi,DWORD PTR [rcx+0x4d4]
    48c4:	test   esi,esi
    48c6:	je     4960 <main+0x420>
    48cc:	mov    eax,DWORD PTR [rcx+0x988]
    48d2:	mov    r8,QWORD PTR [rip+0x83cd7]        # 885b0 <img>
    48d9:	test   eax,eax
    48db:	je     4960 <main+0x420>
    48e1:	mov    edi,DWORD PTR [r8]
    48e4:	mov    edx,edi
    48e6:	sub    edx,DWORD PTR [rip+0x84200]        # 88aec <start_frame_no_in_this_IGOP>
    48ec:	add    edx,0x1
    48ef:	cmp    edx,DWORD PTR [rcx+0x8]
    48f2:	jne    4960 <main+0x420>
    48f4:	mov    edx,DWORD PTR [rcx+0x14]
    48f7:	pxor   xmm0,xmm0
    48fb:	pxor   xmm1,xmm1
    48ff:	sub    edi,0x1
    4902:	add    edx,0x1
    4905:	cvtsi2ss xmm0,edx
    4909:	imul   edi,edx
    490c:	cvtss2sd xmm1,xmm0
    4910:	pxor   xmm0,xmm0
    4914:	sub    eax,edi
    4916:	cvtsi2sd xmm0,esi
    491a:	addsd  xmm0,QWORD PTR [rip+0x6dea6]        # 727c8 <INIT_MB_TYPE_I+0x108>
    4922:	cdq    
    4923:	divsd  xmm1,xmm0
    4927:	movsd  xmm0,QWORD PTR [rip+0x705f9]        # 74f28 <mb_width_cr.6670+0x18>
    492f:	addsd  xmm0,xmm1
    4933:	cvttsd2si esi,xmm0
    4937:	idiv   esi
    4939:	sub    eax,0x1
    493c:	mov    DWORD PTR [rcx+0x4d4],eax
    4942:	sub    eax,DWORD PTR [rip+0x841ac]        # 88af4 <initial_Bframes>
    4948:	add    eax,eax
    494a:	add    DWORD PTR [r8+0x11b00],eax
    4951:	add    DWORD PTR [r8+0x11b04],eax
    4958:	mov    DWORD PTR [r8+0x11af4],eax
    495f:	nop
    4960:	cmp    DWORD PTR [r8+0x18],0x2
    4965:	jne    4740 <main+0x200>
    496b:	mov    esi,DWORD PTR [rcx+0xca4]
    4971:	test   esi,esi
    4973:	je     4740 <main+0x200>
    4979:	mov    r9d,DWORD PTR [rcx+0x4c8]
    4980:	mov    edi,DWORD PTR [rcx+0x8]
    4983:	mov    esi,DWORD PTR [rcx+0x4d4]
    4989:	test   r9d,r9d
    498c:	jne    4b30 <main+0x5f0>
    4992:	sub    edi,0x1
    4995:	imul   esi,edi
    4998:	call   4b110 <rc_init_GOP>
    499d:	mov    r8,QWORD PTR [rip+0x83c0c]        # 885b0 <img>
    49a4:	mov    rcx,QWORD PTR [rip+0x83c0d]        # 885b8 <input>
    49ab:	jmp    4740 <main+0x200>
    49b0:	xor    eax,eax
    49b2:	call   21190 <report_frame_statistic>
    49b7:	jmp    477f <main+0x23f>
    49bc:	nop    DWORD PTR [rax+0x0]
    49c0:	mov    eax,DWORD PTR [rsi+0x11b10]
    49c6:	lea    r9d,[rax+0x1]
    49ca:	test   r10d,r10d
    49cd:	je     49e6 <main+0x4a6>
    49cf:	mov    eax,DWORD PTR [rdi+0x4cc]
    49d5:	test   eax,eax
    49d7:	je     49e6 <main+0x4a6>
    49d9:	mov    eax,r8d
    49dc:	cdq    
    49dd:	idiv   r10d
    49e0:	test   edx,edx
    49e2:	cmove  r9d,ebp
    49e6:	mov    eax,DWORD PTR [rip+0xb147c]        # b5e68 <log2_max_frame_num_minus4>
    49ec:	lea    ecx,[rax+0x4]
    49ef:	mov    eax,ebx
    49f1:	shl    eax,cl
    49f3:	sub    eax,0x1
    49f6:	and    eax,r9d
    49f9:	mov    DWORD PTR [rsi+0x11b10],eax
    49ff:	jmp    4887 <main+0x347>
    4a04:	nop    DWORD PTR [rax+0x0]
    4a08:	xor    eax,eax
    4a0a:	call   19300 <terminate_sequence>
    4a0f:	xor    eax,eax
    4a11:	call   33570 <flush_dpb>
    4a16:	mov    edi,DWORD PTR [rip+0xae044]        # b2a60 <p_in>
    4a1c:	call   43c0 <close@plt>
    4a21:	mov    edi,DWORD PTR [rip+0xb1ccd]        # b66f4 <p_dec>
    4a27:	cmp    edi,0xffffffff
    4a2a:	je     4a31 <main+0x4f1>
    4a2c:	call   43c0 <close@plt>
    4a31:	mov    rdi,QWORD PTR [rip+0xb1ca8]        # b66e0 <p_trace>
    4a38:	test   rdi,rdi
    4a3b:	je     4a42 <main+0x502>
    4a3d:	call   4370 <fclose@plt>
    4a42:	xor    eax,eax
    4a44:	call   3b330 <Clear_Motion_Search_Module>
    4a49:	xor    eax,eax
    4a4b:	call   20770 <RandomIntraUninit>
    4a50:	xor    eax,eax
    4a52:	call   19a70 <FmoUninit>
    4a57:	mov    rax,QWORD PTR [rip+0x83b5a]        # 885b8 <input>
    4a5e:	mov    edx,DWORD PTR [rax+0x528]
    4a64:	test   edx,edx
    4a66:	jne    4b9f <main+0x65f>
    4a6c:	xor    eax,eax
    4a6e:	call   4e680 <clear_rdopt>
    4a73:	xor    eax,eax
    4a75:	call   20a80 <calc_buffer>
    4a7a:	xor    eax,eax
    4a7c:	call   21dd0 <report>
    4a81:	mov    rdi,QWORD PTR [rip+0xb04f8]        # b4f80 <frame_pic>
    4a88:	test   rdi,rdi
    4a8b:	je     4a92 <main+0x552>
    4a8d:	call   20fc0 <free_picture.part.0>
    4a92:	mov    rax,QWORD PTR [rip+0x83b1f]        # 885b8 <input>
    4a99:	mov    eax,DWORD PTR [rax+0x510]
    4a9f:	test   eax,eax
    4aa1:	je     4ac5 <main+0x585>
    4aa3:	mov    rdi,QWORD PTR [rip+0x9a746]        # 9f1f0 <frame_pic2>
    4aaa:	test   rdi,rdi
    4aad:	je     4ab4 <main+0x574>
    4aaf:	call   20fc0 <free_picture.part.0>
    4ab4:	mov    rdi,QWORD PTR [rip+0xb0675]        # b5130 <frame_pic3>
    4abb:	test   rdi,rdi
    4abe:	je     4ac5 <main+0x585>
    4ac0:	call   20fc0 <free_picture.part.0>
    4ac5:	mov    rdi,QWORD PTR [rip+0x9c34c]        # a0e18 <top_pic>
    4acc:	test   rdi,rdi
    4acf:	je     4ad6 <main+0x596>
    4ad1:	call   20fc0 <free_picture.part.0>
    4ad6:	mov    rdi,QWORD PTR [rip+0xae40b]        # b2ee8 <bottom_pic>
    4add:	test   rdi,rdi
    4ae0:	je     4ae7 <main+0x5a7>
    4ae2:	call   20fc0 <free_picture.part.0>
    4ae7:	xor    eax,eax
    4ae9:	call   31a20 <free_dpb>
    4aee:	mov    rdi,QWORD PTR [rip+0x84313]        # 88e08 <Co_located>
    4af5:	call   36470 <free_colocated>
    4afa:	xor    eax,eax
    4afc:	call   46ea0 <uninit_out_buffer>
    4b01:	xor    eax,eax
    4b03:	call   232b0 <free_global_buffers>
    4b08:	xor    eax,eax
    4b0a:	call   24650 <free_img>
    4b0f:	xor    eax,eax
    4b11:	call   11b60 <free_context_memory>
    4b16:	xor    eax,eax
    4b18:	call   46770 <FreeNalPayloadBuffer>
    4b1d:	xor    eax,eax
    4b1f:	call   472a0 <FreeParameterSets>
    4b24:	add    rsp,0x8
    4b28:	xor    eax,eax
    4b2a:	pop    rbx
    4b2b:	pop    rbp
    4b2c:	ret    
    4b2d:	nop    DWORD PTR [rax]
    4b30:	mov    eax,edi
    4b32:	mov    r8d,DWORD PTR [r8]
    4b35:	lea    r10d,[rsi+0x1]
    4b39:	mov    ecx,r9d
    4b3c:	cdq    
    4b3d:	imul   ecx,r10d
    4b41:	idiv   r9d
    4b44:	mov    r11d,eax
    4b47:	test   r8d,r8d
    4b4a:	jne    4b66 <main+0x626>
    4b4c:	sub    ecx,esi
    4b4e:	test   eax,eax
    4b50:	jg     4b5a <main+0x61a>
    4b52:	lea    ecx,[rdi-0x1]
    4b55:	imul   ecx,esi
    4b58:	add    ecx,edi
    4b5a:	lea    eax,[rcx+rsi*2]
    4b5d:	cdq    
    4b5e:	idiv   r10d
    4b61:	lea    edi,[rax-0x1]
    4b64:	jmp    4b80 <main+0x640>
    4b66:	mov    eax,r8d
    4b69:	cdq    
    4b6a:	idiv   r9d
    4b6d:	cmp    eax,r11d
    4b70:	jge    4c34 <main+0x6f4>
    4b76:	lea    eax,[rcx+rsi*1]
    4b79:	cdq    
    4b7a:	idiv   r10d
    4b7d:	lea    edi,[rax-0x1]
    4b80:	mov    esi,ecx
    4b82:	sub    esi,edi
    4b84:	sub    esi,0x1
    4b87:	jmp    4998 <main+0x458>
    4b8c:	xor    eax,eax
    4b8e:	call   160e0 <DefineThreshold>
    4b93:	mov    rcx,QWORD PTR [rip+0x83a1e]        # 885b8 <input>
    4b9a:	jmp    4682 <main+0x142>
    4b9f:	xor    eax,eax
    4ba1:	call   15100 <clear_gop_structure>
    4ba6:	jmp    4a6c <main+0x52c>
    4bab:	xor    eax,eax
    4bad:	call   4adb0 <rc_init_seq>
    4bb2:	mov    rcx,QWORD PTR [rip+0x839ff]        # 885b8 <input>
    4bb9:	jmp    4674 <main+0x134>
    4bbe:	xor    eax,eax
    4bc0:	call   15090 <init_gop_structure>
    4bc5:	mov    rax,QWORD PTR [rip+0x839ec]        # 885b8 <input>
    4bcc:	cmp    DWORD PTR [rax+0x528],0x3
    4bd3:	mov    eax,0x0
    4bd8:	je     4c46 <main+0x706>
    4bda:	call   14e00 <create_pyramid>
    4bdf:	mov    rdi,QWORD PTR [rip+0x839d2]        # 885b8 <input>
    4be6:	jmp    4609 <main+0xc9>
    4beb:	xor    eax,eax
    4bed:	call   21130 <malloc_picture>
    4bf2:	mov    QWORD PTR [rip+0x9c21f],rax        # a0e18 <top_pic>
    4bf9:	xor    eax,eax
    4bfb:	call   21130 <malloc_picture>
    4c00:	mov    QWORD PTR [rip+0xae2e1],rax        # b2ee8 <bottom_pic>
    4c07:	jmp    45eb <main+0xab>
    4c0c:	xor    eax,eax
    4c0e:	call   21130 <malloc_picture>
    4c13:	mov    QWORD PTR [rip+0x9a5d6],rax        # 9f1f0 <frame_pic2>
    4c1a:	xor    eax,eax
    4c1c:	call   21130 <malloc_picture>
    4c21:	mov    QWORD PTR [rip+0xb0508],rax        # b5130 <frame_pic3>
    4c28:	mov    rax,QWORD PTR [rip+0x83989]        # 885b8 <input>
    4c2f:	jmp    45db <main+0x9b>
    4c34:	sub    edi,r8d
    4c37:	lea    ecx,[rdi-0x1]
    4c3a:	imul   ecx,esi
    4c3d:	add    ecx,edi
    4c3f:	add    ecx,esi
    4c41:	jmp    4b76 <main+0x636>
    4c46:	call   15120 <interpret_gop_structure>
    4c4b:	mov    rdi,QWORD PTR [rip+0x83966]        # 885b8 <input>
    4c52:	jmp    4609 <main+0xc9>
    4c57:	nop    WORD PTR [rax+rax*1+0x0]

0000000000004c60 <_start>:
    4c60:	endbr64 
    4c64:	xor    ebp,ebp
    4c66:	mov    r9,rdx
    4c69:	pop    rsi
    4c6a:	mov    rdx,rsp
    4c6d:	and    rsp,0xfffffffffffffff0
    4c71:	push   rax
    4c72:	push   rsp
    4c73:	lea    r8,[rip+0x64536]        # 691b0 <__libc_csu_fini>
    4c7a:	lea    rcx,[rip+0x644bf]        # 69140 <__libc_csu_init>
    4c81:	lea    rdi,[rip+0xfffffffffffff8b8]        # 4540 <main>
    4c88:	call   QWORD PTR [rip+0x81342]        # 85fd0 <__libc_start_main@GLIBC_2.2.5>
    4c8e:	hlt    
    4c8f:	nop

0000000000004c90 <deregister_tm_clones>:
    4c90:	lea    rdi,[rip+0x83bd1]        # 88868 <__TMC_END__>
    4c97:	lea    rax,[rip+0x83bca]        # 88868 <__TMC_END__>
    4c9e:	cmp    rax,rdi
    4ca1:	je     4cb8 <deregister_tm_clones+0x28>
    4ca3:	mov    rax,QWORD PTR [rip+0x8131e]        # 85fc8 <_ITM_deregisterTMCloneTable>
    4caa:	test   rax,rax
    4cad:	je     4cb8 <deregister_tm_clones+0x28>
    4caf:	jmp    rax
    4cb1:	nop    DWORD PTR [rax+0x0]
    4cb8:	ret    
    4cb9:	nop    DWORD PTR [rax+0x0]

0000000000004cc0 <register_tm_clones>:
    4cc0:	lea    rdi,[rip+0x83ba1]        # 88868 <__TMC_END__>
    4cc7:	lea    rsi,[rip+0x83b9a]        # 88868 <__TMC_END__>
    4cce:	sub    rsi,rdi
    4cd1:	mov    rax,rsi
    4cd4:	shr    rsi,0x3f
    4cd8:	sar    rax,0x3
    4cdc:	add    rsi,rax
    4cdf:	sar    rsi,1
    4ce2:	je     4cf8 <register_tm_clones+0x38>
    4ce4:	mov    rax,QWORD PTR [rip+0x812fd]        # 85fe8 <_ITM_registerTMCloneTable>
    4ceb:	test   rax,rax
    4cee:	je     4cf8 <register_tm_clones+0x38>
    4cf0:	jmp    rax
    4cf2:	nop    WORD PTR [rax+rax*1+0x0]
    4cf8:	ret    
    4cf9:	nop    DWORD PTR [rax+0x0]

0000000000004d00 <__do_global_dtors_aux>:
    4d00:	endbr64 
    4d04:	cmp    BYTE PTR [rip+0x83b9d],0x0        # 888a8 <completed.8061>
    4d0b:	jne    4d38 <__do_global_dtors_aux+0x38>
    4d0d:	push   rbp
    4d0e:	cmp    QWORD PTR [rip+0x812da],0x0        # 85ff0 <__cxa_finalize@GLIBC_2.2.5>
    4d16:	mov    rbp,rsp
    4d19:	je     4d27 <__do_global_dtors_aux+0x27>
    4d1b:	mov    rdi,QWORD PTR [rip+0x812e6]        # 86008 <__dso_handle>
    4d22:	call   42b0 <__cxa_finalize@plt>
    4d27:	call   4c90 <deregister_tm_clones>
    4d2c:	mov    BYTE PTR [rip+0x83b75],0x1        # 888a8 <completed.8061>
    4d33:	pop    rbp
    4d34:	ret    
    4d35:	nop    DWORD PTR [rax]
    4d38:	ret    
    4d39:	nop    DWORD PTR [rax+0x0]

0000000000004d40 <frame_dummy>:
    4d40:	endbr64 
    4d44:	jmp    4cc0 <register_tm_clones>
    4d49:	nop    DWORD PTR [rax+0x0]

0000000000004d50 <WriteAnnexbNALU>:
    4d50:	endbr64 
    4d54:	mov    eax,DWORD PTR [rdi+0x14]
    4d57:	mov    ecx,DWORD PTR [rdi+0x10]
    4d5a:	xor    edx,edx
    4d5c:	cmp    DWORD PTR [rdi],0x4
    4d5f:	mov    rsi,QWORD PTR [rdi+0x18]
    4d63:	setge  dl
    4d66:	shl    eax,0x7
    4d69:	shl    ecx,0x5
    4d6c:	or     eax,ecx
    4d6e:	or     al,BYTE PTR [rdi+0xc]
    4d71:	mov    BYTE PTR [rsi],al
    4d73:	mov    eax,DWORD PTR [rdi+0x4]
    4d76:	add    eax,edx
    4d78:	lea    eax,[rax*8+0x18]
    4d7f:	ret    

0000000000004d80 <OpenAnnexbFile>:
    4d80:	endbr64 
    4d84:	push   r12
    4d86:	lea    rsi,[rip+0x65277]        # 6a004 <_IO_stdin_used+0x4>
    4d8d:	mov    r12,rdi
    4d90:	call   44c0 <fopen@plt>
    4d95:	mov    QWORD PTR [rip+0x83b14],rax        # 888b0 <f>
    4d9c:	test   rax,rax
    4d9f:	je     4da4 <OpenAnnexbFile+0x24>
    4da1:	pop    r12
    4da3:	ret    
    4da4:	mov    edi,0x1
    4da9:	mov    rdx,r12
    4dac:	lea    rsi,[rip+0x65255]        # 6a008 <_IO_stdin_used+0x8>
    4db3:	call   4490 <__printf_chk@plt>
    4db8:	or     edi,0xffffffff
    4dbb:	call   44e0 <exit@plt>

0000000000004dc0 <CloseAnnexbFile>:
    4dc0:	endbr64 
    4dc4:	sub    rsp,0x8
    4dc8:	mov    rdi,QWORD PTR [rip+0x83ae1]        # 888b0 <f>
    4dcf:	call   4370 <fclose@plt>
    4dd4:	test   eax,eax
    4dd6:	jne    4ddd <CloseAnnexbFile+0x1d>
    4dd8:	add    rsp,0x8
    4ddc:	ret    
    4ddd:	lea    rdi,[rip+0x65264]        # 6a048 <_IO_stdin_used+0x48>
    4de4:	call   4320 <puts@plt>
    4de9:	or     edi,0xffffffff
    4dec:	call   44e0 <exit@plt>
    4df1:	nop    WORD PTR cs:[rax+rax*1+0x0]
    4dfb:	nop    DWORD PTR [rax+rax*1+0x0]

0000000000004e00 <arienco_create_encoding_environment>:
    4e00:	endbr64 
    4e04:	sub    rsp,0x18
    4e08:	mov    esi,0x68
    4e0d:	mov    edi,0x1
    4e12:	call   4400 <calloc@plt>
    4e17:	test   rax,rax
    4e1a:	je     4e21 <arienco_create_encoding_environment+0x21>
    4e1c:	add    rsp,0x18
    4e20:	ret    
    4e21:	lea    rdi,[rip+0x65258]        # 6a080 <_IO_stdin_used+0x80>
    4e28:	mov    QWORD PTR [rsp+0x8],rax
    4e2d:	call   38210 <no_mem_exit>
    4e32:	mov    rax,QWORD PTR [rsp+0x8]
    4e37:	jmp    4e1c <arienco_create_encoding_environment+0x1c>
    4e39:	nop    DWORD PTR [rax+0x0]

0000000000004e40 <arienco_delete_encoding_environment>:
    4e40:	endbr64 
    4e44:	test   rdi,rdi
    4e47:	je     4e50 <arienco_delete_encoding_environment+0x10>
    4e49:	jmp    42d0 <free@plt>
    4e4e:	xchg   ax,ax
    4e50:	movdqa xmm0,XMMWORD PTR [rip+0x65468]        # 6a2c0 <rLPS_table_64x4+0x100>
    4e58:	mov    esi,0xc8
    4e5d:	lea    rdi,[rip+0xb013c]        # b4fa0 <errortext>
    4e64:	mov    BYTE PTR [rip+0xb0155],0x0        # b4fc0 <errortext+0x20>
    4e6b:	movups XMMWORD PTR [rip+0xb012e],xmm0        # b4fa0 <errortext>
    4e72:	movdqa xmm0,XMMWORD PTR [rip+0x65456]        # 6a2d0 <rLPS_table_64x4+0x110>
    4e7a:	movups XMMWORD PTR [rip+0xb012f],xmm0        # b4fb0 <errortext+0x10>
    4e81:	jmp    19180 <error>
    4e86:	nop    WORD PTR cs:[rax+rax*1+0x0]

0000000000004e90 <arienco_start_encoding>:
    4e90:	endbr64 
    4e94:	movabs rax,0x1fe00000000
    4e9e:	mov    DWORD PTR [rdi+0x10],0x0
    4ea5:	mov    QWORD PTR [rdi],rax
    4ea8:	movabs rax,0x900000000
    4eb2:	mov    QWORD PTR [rdi+0x8],rax
    4eb6:	mov    DWORD PTR [rdi+0x50],0x0
    4ebd:	mov    eax,DWORD PTR [rdx]
    4ebf:	mov    QWORD PTR [rdi+0x18],rsi
    4ec3:	mov    QWORD PTR [rdi+0x20],rdx
    4ec7:	mov    DWORD PTR [rdi+0x60],eax
    4eca:	mov    DWORD PTR [rdi+0x58],0x0
    4ed1:	ret    
    4ed2:	data16 nop WORD PTR cs:[rax+rax*1+0x0]
    4edd:	nop    DWORD PTR [rax]

0000000000004ee0 <arienco_bits_written>:
    4ee0:	endbr64 
    4ee4:	mov    rdx,QWORD PTR [rdi+0x20]
    4ee8:	mov    eax,DWORD PTR [rdi+0x10]
    4eeb:	mov    edx,DWORD PTR [rdx]
    4eed:	add    eax,0x8
    4ef0:	sub    eax,DWORD PTR [rdi+0xc]
    4ef3:	lea    eax,[rax+rdx*8]
    4ef6:	ret    
    4ef7:	nop    WORD PTR [rax+rax*1+0x0]

0000000000004f00 <arienco_done_encoding>:
    4f00:	endbr64 
    4f04:	mov    eax,DWORD PTR [rdi+0x8]
    4f07:	mov    r9d,DWORD PTR [rdi]
    4f0a:	mov    ecx,DWORD PTR [rdi+0xc]
    4f0d:	mov    r10,QWORD PTR [rdi+0x20]
    4f11:	lea    edx,[rax+rax*1]
    4f14:	mov    eax,r9d
    4f17:	shr    eax,0x9
    4f1a:	and    eax,0x1
    4f1d:	or     eax,edx
    4f1f:	lea    edx,[rcx-0x1]
    4f22:	mov    DWORD PTR [rdi+0x8],eax
    4f25:	mov    DWORD PTR [rdi+0xc],edx
    4f28:	test   edx,edx
    4f2a:	jne    4f74 <arienco_done_encoding+0x74>
    4f2c:	movsxd rdx,DWORD PTR [r10]
    4f2f:	mov    rcx,QWORD PTR [rdi+0x18]
    4f33:	lea    esi,[rdx+0x1]
    4f36:	mov    DWORD PTR [r10],esi
    4f39:	mov    BYTE PTR [rcx+rdx*1],al
    4f3c:	mov    eax,DWORD PTR [rdi+0x50]
    4f3f:	mov    DWORD PTR [rdi+0xc],0x8
    4f46:	cmp    eax,0x7
    4f49:	jle    4f65 <arienco_done_encoding+0x65>
    4f4b:	sub    eax,0x8
    4f4e:	mov    ecx,DWORD PTR [rdi+0x58]
    4f51:	mov    edx,eax
    4f53:	shr    edx,0x3
    4f56:	lea    ecx,[rdx+rcx*1+0x1]
    4f5a:	neg    edx
    4f5c:	lea    eax,[rax+rdx*8]
    4f5f:	mov    DWORD PTR [rdi+0x58],ecx
    4f62:	mov    DWORD PTR [rdi+0x50],eax
    4f65:	mov    r9d,DWORD PTR [rdi]
    4f68:	mov    r10,QWORD PTR [rdi+0x20]
    4f6c:	mov    edx,0x8
    4f71:	mov    eax,DWORD PTR [rdi+0x8]
    4f74:	mov    r8d,r9d
    4f77:	mov    esi,DWORD PTR [rdi+0x10]
    4f7a:	shr    r8d,0x9
    4f7e:	xor    r8d,0x1
    4f82:	and    r8d,0x1
    4f86:	jmp    4fa5 <arienco_done_encoding+0xa5>
    4f88:	nop    DWORD PTR [rax+rax*1+0x0]
    4f90:	mov    eax,ecx
    4f92:	sub    esi,0x1
    4f95:	mov    DWORD PTR [rdi+0xc],edx
    4f98:	or     eax,r8d
    4f9b:	mov    DWORD PTR [rdi+0x10],esi
    4f9e:	mov    DWORD PTR [rdi+0x8],eax
    4fa1:	test   edx,edx
    4fa3:	je     4f2c <arienco_done_encoding+0x2c>
    4fa5:	lea    ecx,[rax+rax*1]
    4fa8:	mov    eax,edx
    4faa:	sub    edx,0x1
    4fad:	test   esi,esi
    4faf:	jne    4f90 <arienco_done_encoding+0x90>
    4fb1:	shr    r9d,0x8
    4fb5:	mov    DWORD PTR [rdi+0xc],edx
    4fb8:	and    r9d,0x1
    4fbc:	or     ecx,r9d
    4fbf:	mov    DWORD PTR [rdi+0x8],ecx
    4fc2:	test   edx,edx
    4fc4:	je     50e0 <arienco_done_encoding+0x1e0>
    4fca:	sub    eax,0x2
    4fcd:	lea    ecx,[rcx+rcx*1+0x1]
    4fd1:	mov    DWORD PTR [rdi+0x8],ecx
    4fd4:	mov    DWORD PTR [rdi+0xc],eax
    4fd7:	jne    501b <arienco_done_encoding+0x11b>
    4fd9:	movsxd rax,DWORD PTR [r10]
    4fdc:	mov    rdx,QWORD PTR [rdi+0x18]
    4fe0:	lea    esi,[rax+0x1]
    4fe3:	mov    DWORD PTR [r10],esi
    4fe6:	mov    BYTE PTR [rdx+rax*1],cl
    4fe9:	mov    eax,DWORD PTR [rdi+0x50]
    4fec:	mov    DWORD PTR [rdi+0xc],0x8
    4ff3:	cmp    eax,0x7
    4ff6:	jle    5012 <arienco_done_encoding+0x112>
    4ff8:	sub    eax,0x8
    4ffb:	mov    ecx,DWORD PTR [rdi+0x58]
    4ffe:	mov    edx,eax
    5000:	shr    edx,0x3
    5003:	lea    ecx,[rdx+rcx*1+0x1]
    5007:	neg    edx
    5009:	lea    eax,[rax+rdx*8]
    500c:	mov    DWORD PTR [rdi+0x58],ecx
    500f:	mov    DWORD PTR [rdi+0x50],eax
    5012:	mov    r10,QWORD PTR [rdi+0x20]
    5016:	mov    eax,0x8
    501b:	mov    rdx,QWORD PTR [rip+0x8358e]        # 885b0 <img>
    5022:	movsxd rcx,DWORD PTR [rdx+0x18]
    5026:	mov    rdx,QWORD PTR [rip+0x8357b]        # 885a8 <stats>
    502d:	lea    rcx,[rdx+rcx*4]
    5031:	mov    esi,DWORD PTR [rcx+0x530]
    5037:	lea    edx,[rsi+0x8]
    503a:	sub    edx,eax
    503c:	mov    DWORD PTR [rcx+0x530],edx
    5042:	jmp    5059 <arienco_done_encoding+0x159>
    5044:	nop    DWORD PTR [rax+0x0]
    5048:	mov    esi,DWORD PTR [rdi+0x8]
    504b:	sub    eax,0x1
    504e:	mov    DWORD PTR [rdi+0xc],eax
    5051:	lea    edx,[rsi+rsi*1]
    5054:	mov    DWORD PTR [rdi+0x8],edx
    5057:	je     5098 <arienco_done_encoding+0x198>
    5059:	cmp    eax,0x8
    505c:	jne    5048 <arienco_done_encoding+0x148>
    505e:	mov    edx,DWORD PTR [rdi+0x58]
    5061:	mov    eax,DWORD PTR [rdi+0x50]
    5064:	lea    eax,[rax+rdx*8]
    5067:	mov    DWORD PTR [rdi+0x58],eax
    506a:	mov    edx,DWORD PTR [r10]
    506d:	sub    edx,DWORD PTR [rdi+0x60]
    5070:	mov    DWORD PTR [rdi+0x60],edx
    5073:	mov    rdx,QWORD PTR [rip+0x83536]        # 885b0 <img>
    507a:	mov    rcx,QWORD PTR [rdx+0x3750]
    5081:	sub    eax,DWORD PTR [rdx+0xc]
    5084:	add    eax,DWORD PTR [rcx+0xc]
    5087:	add    eax,0x1f
    508a:	sar    eax,0x5
    508d:	mov    DWORD PTR [rdi+0x58],eax
    5090:	ret    
    5091:	nop    DWORD PTR [rax+0x0]
    5098:	movsxd rax,DWORD PTR [r10]
    509b:	mov    rcx,QWORD PTR [rdi+0x18]
    509f:	lea    esi,[rax+0x1]
    50a2:	mov    DWORD PTR [r10],esi
    50a5:	mov    BYTE PTR [rcx+rax*1],dl
    50a8:	mov    eax,DWORD PTR [rdi+0x50]
    50ab:	mov    DWORD PTR [rdi+0xc],0x8
    50b2:	cmp    eax,0x7
    50b5:	jle    50d1 <arienco_done_encoding+0x1d1>
    50b7:	sub    eax,0x8
    50ba:	mov    ecx,DWORD PTR [rdi+0x58]
    50bd:	mov    edx,eax
    50bf:	shr    edx,0x3
    50c2:	lea    ecx,[rdx+rcx*1+0x1]
    50c6:	neg    edx
    50c8:	lea    eax,[rax+rdx*8]
    50cb:	mov    DWORD PTR [rdi+0x58],ecx
    50ce:	mov    DWORD PTR [rdi+0x50],eax
    50d1:	mov    r10,QWORD PTR [rdi+0x20]
    50d5:	jmp    505e <arienco_done_encoding+0x15e>
    50d7:	nop    WORD PTR [rax+rax*1+0x0]
    50e0:	movsxd rax,DWORD PTR [r10]
    50e3:	mov    rdx,QWORD PTR [rdi+0x18]
    50e7:	lea    esi,[rax+0x1]
    50ea:	mov    DWORD PTR [r10],esi
    50ed:	mov    BYTE PTR [rdx+rax*1],cl
    50f0:	mov    eax,DWORD PTR [rdi+0x50]
    50f3:	mov    DWORD PTR [rdi+0xc],0x8
    50fa:	cmp    eax,0x7
    50fd:	jle    5119 <arienco_done_encoding+0x219>
    50ff:	sub    eax,0x8
    5102:	mov    ecx,DWORD PTR [rdi+0x58]
    5105:	mov    edx,eax
    5107:	shr    edx,0x3
    510a:	lea    ecx,[rdx+rcx*1+0x1]
    510e:	neg    edx
    5110:	lea    eax,[rax+rdx*8]
    5113:	mov    DWORD PTR [rdi+0x58],ecx
    5116:	mov    DWORD PTR [rdi+0x50],eax
    5119:	mov    eax,DWORD PTR [rdi+0x8]
    511c:	mov    r10,QWORD PTR [rdi+0x20]
    5120:	mov    DWORD PTR [rdi+0xc],0x7
    5127:	lea    eax,[rax+rax*1+0x1]
    512b:	mov    DWORD PTR [rdi+0x8],eax
    512e:	mov    eax,0x7
    5133:	jmp    501b <arienco_done_encoding+0x11b>
    5138:	nop    DWORD PTR [rax+rax*1+0x0]

0000000000005140 <biari_encode_symbol>:
    5140:	endbr64 
    5144:	mov    eax,DWORD PTR [rdi+0x4]
    5147:	lea    r9,[rip+0x65072]        # 6a1c0 <rLPS_table_64x4>
    514e:	mov    r8d,DWORD PTR [rdi]
    5151:	push   rbx
    5152:	movzx  r10d,WORD PTR [rdx]
    5156:	mov    ecx,eax
    5158:	shr    ecx,0x6
    515b:	lea    r9,[r9+r10*4]
    515f:	mov    r11,r10
    5162:	and    ecx,0x3
    5165:	movzx  r9d,BYTE PTR [r9+rcx*1]
    516a:	mov    ecx,DWORD PTR [rip+0x83970]        # 88ae0 <cabac_encoding>
    5170:	test   ecx,ecx
    5172:	je     5179 <biari_encode_symbol+0x39>
    5174:	add    QWORD PTR [rdx+0x8],0x1
    5179:	movzx  ecx,BYTE PTR [rdx+0x2]
    517d:	xor    ebx,ebx
    517f:	sub    eax,r9d
    5182:	test   si,si
    5185:	setne  bl
    5188:	movzx  esi,cl
    518b:	cmp    ebx,esi
    518d:	je     537d <biari_encode_symbol+0x23d>
    5193:	add    r8d,eax
    5196:	test   r11w,r11w
    519a:	je     533d <biari_encode_symbol+0x1fd>
    51a0:	lea    rax,[rip+0x64f19]        # 6a0c0 <AC_next_state_LPS_64>
    51a7:	movzx  eax,WORD PTR [rax+r10*2]
    51ac:	mov    WORD PTR [rdx],ax
    51af:	jmp    51df <biari_encode_symbol+0x9f>
    51b1:	nop    DWORD PTR [rax+0x0]
    51b8:	cmp    r8d,0xff
    51bf:	jbe    5290 <biari_encode_symbol+0x150>
    51c5:	add    DWORD PTR [rdi+0x10],0x1
    51c9:	sub    r8d,0x100
    51d0:	add    r9d,r9d
    51d3:	add    r8d,r8d
    51d6:	cmp    r9d,0xff
    51dd:	ja     5237 <biari_encode_symbol+0xf7>
    51df:	cmp    r8d,0x1ff
    51e6:	jbe    51b8 <biari_encode_symbol+0x78>
    51e8:	sub    DWORD PTR [rdi+0xc],0x1
    51ec:	mov    edx,DWORD PTR [rdi+0x8]
    51ef:	lea    edx,[rdx+rdx*1+0x1]
    51f3:	mov    DWORD PTR [rdi+0x8],edx
    51f6:	je     5310 <biari_encode_symbol+0x1d0>
    51fc:	mov    edx,DWORD PTR [rdi+0x10]
    51ff:	jmp    521d <biari_encode_symbol+0xdd>
    5201:	nop    DWORD PTR [rax+0x0]
    5208:	sub    edx,0x1
    520b:	sub    DWORD PTR [rdi+0xc],0x1
    520f:	mov    eax,DWORD PTR [rdi+0x8]
    5212:	mov    DWORD PTR [rdi+0x10],edx
    5215:	lea    ecx,[rax+rax*1]
    5218:	mov    DWORD PTR [rdi+0x8],ecx
    521b:	je     5248 <biari_encode_symbol+0x108>
    521d:	test   edx,edx
    521f:	jne    5208 <biari_encode_symbol+0xc8>
    5221:	sub    r8d,0x200
    5228:	add    r9d,r9d
    522b:	add    r8d,r8d
    522e:	cmp    r9d,0xff
    5235:	jbe    51df <biari_encode_symbol+0x9f>
    5237:	add    DWORD PTR [rdi+0x50],0x1
    523b:	pop    rbx
    523c:	mov    DWORD PTR [rdi+0x4],r9d
    5240:	mov    DWORD PTR [rdi],r8d
    5243:	ret    
    5244:	nop    DWORD PTR [rax+0x0]
    5248:	mov    rdx,QWORD PTR [rdi+0x20]
    524c:	mov    rsi,QWORD PTR [rdi+0x18]
    5250:	movsxd rax,DWORD PTR [rdx]
    5253:	lea    r10d,[rax+0x1]
    5257:	mov    DWORD PTR [rdx],r10d
    525a:	mov    BYTE PTR [rsi+rax*1],cl
    525d:	mov    eax,DWORD PTR [rdi+0x50]
    5260:	mov    DWORD PTR [rdi+0xc],0x8
    5267:	cmp    eax,0x7
    526a:	jle    51fc <biari_encode_symbol+0xbc>
    526c:	sub    eax,0x8
    526f:	mov    ecx,DWORD PTR [rdi+0x58]
    5272:	mov    edx,eax
    5274:	shr    edx,0x3
    5277:	lea    ecx,[rdx+rcx*1+0x1]
    527b:	neg    edx
    527d:	lea    eax,[rax+rdx*8]
    5280:	mov    DWORD PTR [rdi+0x58],ecx
    5283:	mov    DWORD PTR [rdi+0x50],eax
    5286:	jmp    51fc <biari_encode_symbol+0xbc>
    528b:	nop    DWORD PTR [rax+rax*1+0x0]
    5290:	sub    DWORD PTR [rdi+0xc],0x1
    5294:	mov    eax,DWORD PTR [rdi+0x8]
    5297:	lea    edx,[rax+rax*1]
    529a:	mov    DWORD PTR [rdi+0x8],edx
    529d:	je     5350 <biari_encode_symbol+0x210>
    52a3:	mov    edx,DWORD PTR [rdi+0x10]
    52a6:	nop    WORD PTR cs:[rax+rax*1+0x0]
    52b0:	test   edx,edx
    52b2:	je     51d0 <biari_encode_symbol+0x90>
    52b8:	sub    edx,0x1
    52bb:	sub    DWORD PTR [rdi+0xc],0x1
    52bf:	mov    ecx,DWORD PTR [rdi+0x8]
    52c2:	mov    DWORD PTR [rdi+0x10],edx
    52c5:	lea    ecx,[rcx+rcx*1+0x1]
    52c9:	mov    DWORD PTR [rdi+0x8],ecx
    52cc:	jne    52b0 <biari_encode_symbol+0x170>
    52ce:	mov    rdx,QWORD PTR [rdi+0x20]
    52d2:	mov    rsi,QWORD PTR [rdi+0x18]
    52d6:	movsxd rax,DWORD PTR [rdx]
    52d9:	lea    r10d,[rax+0x1]
    52dd:	mov    DWORD PTR [rdx],r10d
    52e0:	mov    BYTE PTR [rsi+rax*1],cl
    52e3:	mov    eax,DWORD PTR [rdi+0x50]
    52e6:	mov    DWORD PTR [rdi+0xc],0x8
    52ed:	cmp    eax,0x7
    52f0:	jle    52a3 <biari_encode_symbol+0x163>
    52f2:	sub    eax,0x8
    52f5:	mov    ecx,DWORD PTR [rdi+0x58]
    52f8:	mov    edx,eax
    52fa:	shr    edx,0x3
    52fd:	lea    ecx,[rdx+rcx*1+0x1]
    5301:	neg    edx
    5303:	lea    eax,[rax+rdx*8]
    5306:	mov    DWORD PTR [rdi+0x58],ecx
    5309:	mov    DWORD PTR [rdi+0x50],eax
    530c:	jmp    52a3 <biari_encode_symbol+0x163>
    530e:	xchg   ax,ax
    5310:	mov    rcx,QWORD PTR [rdi+0x20]
    5314:	mov    rsi,QWORD PTR [rdi+0x18]
    5318:	movsxd rax,DWORD PTR [rcx]
    531b:	lea    r10d,[rax+0x1]
    531f:	mov    DWORD PTR [rcx],r10d
    5322:	mov    BYTE PTR [rsi+rax*1],dl
    5325:	mov    eax,DWORD PTR [rdi+0x50]
    5328:	mov    DWORD PTR [rdi+0xc],0x8
    532f:	cmp    eax,0x7
    5332:	jg     526c <biari_encode_symbol+0x12c>
    5338:	jmp    51fc <biari_encode_symbol+0xbc>
    533d:	xor    ecx,0x1
    5340:	mov    BYTE PTR [rdx+0x2],cl
    5343:	jmp    51a0 <biari_encode_symbol+0x60>
    5348:	nop    DWORD PTR [rax+rax*1+0x0]
    5350:	mov    rcx,QWORD PTR [rdi+0x20]
    5354:	mov    rsi,QWORD PTR [rdi+0x18]
    5358:	movsxd rax,DWORD PTR [rcx]
    535b:	lea    r10d,[rax+0x1]
    535f:	mov    DWORD PTR [rcx],r10d
    5362:	mov    BYTE PTR [rsi+rax*1],dl
    5365:	mov    eax,DWORD PTR [rdi+0x50]
    5368:	mov    DWORD PTR [rdi+0xc],0x8
    536f:	cmp    eax,0x7
    5372:	jg     52f2 <biari_encode_symbol+0x1b2>
    5378:	jmp    52a3 <biari_encode_symbol+0x163>
    537d:	lea    rcx,[rip+0x64dbc]        # 6a140 <AC_next_state_MPS_64>
    5384:	mov    r9d,eax
    5387:	movzx  ecx,WORD PTR [rcx+r10*2]
    538c:	mov    WORD PTR [rdx],cx
    538f:	cmp    eax,0xff
    5394:	jbe    51df <biari_encode_symbol+0x9f>
    539a:	add    DWORD PTR [rdi+0x50],0x1
    539e:	pop    rbx
    539f:	mov    DWORD PTR [rdi+0x4],r9d
    53a3:	mov    DWORD PTR [rdi],r8d
    53a6:	ret    
    53a7:	nop    WORD PTR [rax+rax*1+0x0]

00000000000053b0 <biari_encode_symbol_eq_prob>:
    53b0:	endbr64 
    53b4:	mov    eax,DWORD PTR [rdi]
    53b6:	mov    r8d,esi
    53b9:	lea    esi,[rax+rax*1]
    53bc:	test   r8w,r8w
    53c0:	je     53c5 <biari_encode_symbol_eq_prob+0x15>
    53c2:	add    esi,DWORD PTR [rdi+0x4]
    53c5:	cmp    esi,0x3ff
    53cb:	jbe    5468 <biari_encode_symbol_eq_prob+0xb8>
    53d1:	sub    DWORD PTR [rdi+0xc],0x1
    53d5:	mov    edx,DWORD PTR [rdi+0x8]
    53d8:	lea    edx,[rdx+rdx*1+0x1]
    53dc:	mov    DWORD PTR [rdi+0x8],edx
    53df:	je     5420 <biari_encode_symbol_eq_prob+0x70>
    53e1:	mov    edx,DWORD PTR [rdi+0x10]
    53e4:	jmp    5409 <biari_encode_symbol_eq_prob+0x59>
    53e6:	nop    WORD PTR cs:[rax+rax*1+0x0]
    53f0:	sub    edx,0x1
    53f3:	sub    DWORD PTR [rdi+0xc],0x1
    53f7:	mov    eax,DWORD PTR [rdi+0x8]
    53fa:	mov    DWORD PTR [rdi+0x10],edx
    53fd:	lea    ecx,[rax+rax*1]
    5400:	mov    DWORD PTR [rdi+0x8],ecx
    5403:	je     54f0 <biari_encode_symbol_eq_prob+0x140>
    5409:	test   edx,edx
    540b:	jne    53f0 <biari_encode_symbol_eq_prob+0x40>
    540d:	sub    esi,0x400
    5413:	add    DWORD PTR [rdi+0x50],0x1
    5417:	mov    DWORD PTR [rdi],esi
    5419:	ret    
    541a:	nop    WORD PTR [rax+rax*1+0x0]
    5420:	mov    rcx,QWORD PTR [rdi+0x20]
    5424:	mov    r8,QWORD PTR [rdi+0x18]
    5428:	movsxd rax,DWORD PTR [rcx]
    542b:	lea    r9d,[rax+0x1]
    542f:	mov    DWORD PTR [rcx],r9d
    5432:	mov    BYTE PTR [r8+rax*1],dl
    5436:	mov    eax,DWORD PTR [rdi+0x50]
    5439:	mov    DWORD PTR [rdi+0xc],0x8
    5440:	cmp    eax,0x7
    5443:	jle    53e1 <biari_encode_symbol_eq_prob+0x31>
    5445:	sub    eax,0x8
    5448:	mov    ecx,DWORD PTR [rdi+0x58]
    544b:	mov    edx,eax
    544d:	shr    edx,0x3
    5450:	lea    ecx,[rdx+rcx*1+0x1]
    5454:	neg    edx
    5456:	lea    eax,[rax+rdx*8]
    5459:	mov    DWORD PTR [rdi+0x58],ecx
    545c:	mov    DWORD PTR [rdi+0x50],eax
    545f:	jmp    53e1 <biari_encode_symbol_eq_prob+0x31>
    5461:	nop    DWORD PTR [rax+0x0]
    5468:	cmp    esi,0x1ff
    546e:	ja     5520 <biari_encode_symbol_eq_prob+0x170>
    5474:	sub    DWORD PTR [rdi+0xc],0x1
    5478:	mov    eax,DWORD PTR [rdi+0x8]
    547b:	lea    edx,[rax+rax*1]
    547e:	mov    DWORD PTR [rdi+0x8],edx
    5481:	je     5538 <biari_encode_symbol_eq_prob+0x188>
    5487:	mov    edx,DWORD PTR [rdi+0x10]
    548a:	nop    WORD PTR [rax+rax*1+0x0]
    5490:	test   edx,edx
    5492:	je     5413 <biari_encode_symbol_eq_prob+0x63>
    5498:	sub    edx,0x1
    549b:	sub    DWORD PTR [rdi+0xc],0x1
    549f:	mov    ecx,DWORD PTR [rdi+0x8]
    54a2:	mov    DWORD PTR [rdi+0x10],edx
    54a5:	lea    ecx,[rcx+rcx*1+0x1]
    54a9:	mov    DWORD PTR [rdi+0x8],ecx
    54ac:	jne    5490 <biari_encode_symbol_eq_prob+0xe0>
    54ae:	mov    rdx,QWORD PTR [rdi+0x20]
    54b2:	mov    r8,QWORD PTR [rdi+0x18]
    54b6:	movsxd rax,DWORD PTR [rdx]
    54b9:	lea    r9d,[rax+0x1]
    54bd:	mov    DWORD PTR [rdx],r9d
    54c0:	mov    BYTE PTR [r8+rax*1],cl
    54c4:	mov    eax,DWORD PTR [rdi+0x50]
    54c7:	mov    DWORD PTR [rdi+0xc],0x8
    54ce:	cmp    eax,0x7
    54d1:	jle    5487 <biari_encode_symbol_eq_prob+0xd7>
    54d3:	sub    eax,0x8
    54d6:	mov    ecx,DWORD PTR [rdi+0x58]
    54d9:	mov    edx,eax
    54db:	shr    edx,0x3
    54de:	lea    ecx,[rdx+rcx*1+0x1]
    54e2:	neg    edx
    54e4:	lea    eax,[rax+rdx*8]
    54e7:	mov    DWORD PTR [rdi+0x58],ecx
    54ea:	mov    DWORD PTR [rdi+0x50],eax
    54ed:	jmp    5487 <biari_encode_symbol_eq_prob+0xd7>
    54ef:	nop
    54f0:	mov    rdx,QWORD PTR [rdi+0x20]
    54f4:	mov    r8,QWORD PTR [rdi+0x18]
    54f8:	movsxd rax,DWORD PTR [rdx]
    54fb:	lea    r9d,[rax+0x1]
    54ff:	mov    DWORD PTR [rdx],r9d
    5502:	mov    BYTE PTR [r8+rax*1],cl
    5506:	mov    eax,DWORD PTR [rdi+0x50]
    5509:	mov    DWORD PTR [rdi+0xc],0x8
    5510:	cmp    eax,0x7
    5513:	jg     5445 <biari_encode_symbol_eq_prob+0x95>
    5519:	jmp    53e1 <biari_encode_symbol_eq_prob+0x31>
    551e:	xchg   ax,ax
    5520:	sub    esi,0x200
    5526:	add    DWORD PTR [rdi+0x10],0x1
    552a:	add    DWORD PTR [rdi+0x50],0x1
    552e:	mov    DWORD PTR [rdi],esi
    5530:	ret    
    5531:	nop    DWORD PTR [rax+0x0]
    5538:	mov    rcx,QWORD PTR [rdi+0x20]
    553c:	mov    r8,QWORD PTR [rdi+0x18]
    5540:	movsxd rax,DWORD PTR [rcx]
    5543:	lea    r9d,[rax+0x1]
    5547:	mov    DWORD PTR [rcx],r9d
    554a:	mov    BYTE PTR [r8+rax*1],dl
    554e:	mov    eax,DWORD PTR [rdi+0x50]
    5551:	mov    DWORD PTR [rdi+0xc],0x8
    5558:	cmp    eax,0x7
    555b:	jg     54d3 <biari_encode_symbol_eq_prob+0x123>
    5561:	jmp    5487 <biari_encode_symbol_eq_prob+0xd7>
    5566:	nop    WORD PTR cs:[rax+rax*1+0x0]

0000000000005570 <biari_encode_symbol_final>:
    5570:	endbr64 
    5574:	mov    eax,DWORD PTR [rdi+0x4]
    5577:	mov    r9d,esi
    557a:	mov    esi,DWORD PTR [rdi]
    557c:	lea    r8d,[rax-0x2]
    5580:	test   r9w,r9w
    5584:	je     55b3 <biari_encode_symbol_final+0x43>
    5586:	add    esi,r8d
    5589:	mov    r8d,0x2
    558f:	jmp    55c0 <biari_encode_symbol_final+0x50>
    5591:	nop    DWORD PTR [rax+0x0]
    5598:	cmp    esi,0xff
    559e:	jbe    5658 <biari_encode_symbol_final+0xe8>
    55a4:	add    DWORD PTR [rdi+0x10],0x1
    55a8:	sub    esi,0x100
    55ae:	add    esi,esi
    55b0:	add    r8d,r8d
    55b3:	cmp    r8d,0xff
    55ba:	ja     56d0 <biari_encode_symbol_final+0x160>
    55c0:	cmp    esi,0x1ff
    55c6:	jbe    5598 <biari_encode_symbol_final+0x28>
    55c8:	sub    DWORD PTR [rdi+0xc],0x1
    55cc:	mov    edx,DWORD PTR [rdi+0x8]
    55cf:	lea    edx,[rdx+rdx*1+0x1]
    55d3:	mov    DWORD PTR [rdi+0x8],edx
    55d6:	je     56e0 <biari_encode_symbol_final+0x170>
    55dc:	mov    edx,DWORD PTR [rdi+0x10]
    55df:	jmp    55fd <biari_encode_symbol_final+0x8d>
    55e1:	nop    DWORD PTR [rax+0x0]
    55e8:	sub    edx,0x1
    55eb:	sub    DWORD PTR [rdi+0xc],0x1
    55ef:	mov    eax,DWORD PTR [rdi+0x8]
    55f2:	mov    DWORD PTR [rdi+0x10],edx
    55f5:	lea    ecx,[rax+rax*1]
    55f8:	mov    DWORD PTR [rdi+0x8],ecx
    55fb:	je     5610 <biari_encode_symbol_final+0xa0>
    55fd:	test   edx,edx
    55ff:	jne    55e8 <biari_encode_symbol_final+0x78>
    5601:	sub    esi,0x200
    5607:	jmp    55ae <biari_encode_symbol_final+0x3e>
    5609:	nop    DWORD PTR [rax+0x0]
    5610:	mov    rdx,QWORD PTR [rdi+0x20]
    5614:	mov    r9,QWORD PTR [rdi+0x18]
    5618:	movsxd rax,DWORD PTR [rdx]
    561b:	lea    r10d,[rax+0x1]
    561f:	mov    DWORD PTR [rdx],r10d
    5622:	mov    BYTE PTR [r9+rax*1],cl
    5626:	mov    eax,DWORD PTR [rdi+0x50]
    5629:	mov    DWORD PTR [rdi+0xc],0x8
    5630:	cmp    eax,0x7
    5633:	jle    55dc <biari_encode_symbol_final+0x6c>
    5635:	sub    eax,0x8
    5638:	mov    ecx,DWORD PTR [rdi+0x58]
    563b:	mov    edx,eax
    563d:	shr    edx,0x3
    5640:	lea    ecx,[rdx+rcx*1+0x1]
    5644:	neg    edx
    5646:	lea    eax,[rax+rdx*8]
    5649:	mov    DWORD PTR [rdi+0x58],ecx
    564c:	mov    DWORD PTR [rdi+0x50],eax
    564f:	jmp    55dc <biari_encode_symbol_final+0x6c>
    5651:	nop    DWORD PTR [rax+0x0]
    5658:	sub    DWORD PTR [rdi+0xc],0x1
    565c:	mov    eax,DWORD PTR [rdi+0x8]
    565f:	lea    edx,[rax+rax*1]
    5662:	mov    DWORD PTR [rdi+0x8],edx
    5665:	je     5710 <biari_encode_symbol_final+0x1a0>
    566b:	mov    edx,DWORD PTR [rdi+0x10]
    566e:	xchg   ax,ax
    5670:	test   edx,edx
    5672:	je     55ae <biari_encode_symbol_final+0x3e>
    5678:	sub    edx,0x1
    567b:	sub    DWORD PTR [rdi+0xc],0x1
    567f:	mov    ecx,DWORD PTR [rdi+0x8]
    5682:	mov    DWORD PTR [rdi+0x10],edx
    5685:	lea    ecx,[rcx+rcx*1+0x1]
    5689:	mov    DWORD PTR [rdi+0x8],ecx
    568c:	jne    5670 <biari_encode_symbol_final+0x100>
    568e:	mov    rdx,QWORD PTR [rdi+0x20]
    5692:	mov    r9,QWORD PTR [rdi+0x18]
    5696:	movsxd rax,DWORD PTR [rdx]
    5699:	lea    r10d,[rax+0x1]
    569d:	mov    DWORD PTR [rdx],r10d
    56a0:	mov    BYTE PTR [r9+rax*1],cl
    56a4:	mov    eax,DWORD PTR [rdi+0x50]
    56a7:	mov    DWORD PTR [rdi+0xc],0x8
    56ae:	cmp    eax,0x7
    56b1:	jle    566b <biari_encode_symbol_final+0xfb>
    56b3:	sub    eax,0x8
    56b6:	mov    ecx,DWORD PTR [rdi+0x58]
    56b9:	mov    edx,eax
    56bb:	shr    edx,0x3
    56be:	lea    ecx,[rdx+rcx*1+0x1]
    56c2:	neg    edx
    56c4:	lea    eax,[rax+rdx*8]
    56c7:	mov    DWORD PTR [rdi+0x58],ecx
    56ca:	mov    DWORD PTR [rdi+0x50],eax
    56cd:	jmp    566b <biari_encode_symbol_final+0xfb>
    56cf:	nop
    56d0:	add    DWORD PTR [rdi+0x50],0x1
    56d4:	mov    DWORD PTR [rdi+0x4],r8d
    56d8:	mov    DWORD PTR [rdi],esi
    56da:	ret    
    56db:	nop    DWORD PTR [rax+rax*1+0x0]
    56e0:	mov    rcx,QWORD PTR [rdi+0x20]
    56e4:	mov    r9,QWORD PTR [rdi+0x18]
    56e8:	movsxd rax,DWORD PTR [rcx]
    56eb:	lea    r10d,[rax+0x1]
    56ef:	mov    DWORD PTR [rcx],r10d
    56f2:	mov    BYTE PTR [r9+rax*1],dl
    56f6:	mov    eax,DWORD PTR [rdi+0x50]
    56f9:	mov    DWORD PTR [rdi+0xc],0x8
    5700:	cmp    eax,0x7
    5703:	jg     5635 <biari_encode_symbol_final+0xc5>
    5709:	jmp    55dc <biari_encode_symbol_final+0x6c>
    570e:	xchg   ax,ax
    5710:	mov    rcx,QWORD PTR [rdi+0x20]
    5714:	mov    r9,QWORD PTR [rdi+0x18]
    5718:	movsxd rax,DWORD PTR [rcx]
    571b:	lea    r10d,[rax+0x1]
    571f:	mov    DWORD PTR [rcx],r10d
    5722:	mov    BYTE PTR [r9+rax*1],dl
    5726:	mov    eax,DWORD PTR [rdi+0x50]
    5729:	mov    DWORD PTR [rdi+0xc],0x8
    5730:	cmp    eax,0x7
    5733:	jg     56b3 <biari_encode_symbol_final+0x143>
    5739:	jmp    566b <biari_encode_symbol_final+0xfb>
    573e:	xchg   ax,ax

0000000000005740 <biari_init_context>:
    5740:	endbr64 
    5744:	mov    rdx,QWORD PTR [rip+0x82e65]        # 885b0 <img>
    574b:	mov    eax,DWORD PTR [rdx+0x28]
    574e:	test   eax,eax
    5750:	mov    eax,0x0
    5755:	cmovns eax,DWORD PTR [rdx+0x28]
    5759:	imul   eax,DWORD PTR [rsi]
    575c:	sar    eax,0x4
    575f:	add    eax,DWORD PTR [rsi+0x4]
    5762:	cmp    eax,0x7d
    5765:	jg     5780 <biari_init_context+0x40>
    5767:	test   eax,eax
    5769:	mov    edx,0x1
    576e:	cmovg  edx,eax
    5771:	cmp    eax,0x3f
    5774:	jle    5798 <biari_init_context+0x58>
    5776:	lea    eax,[rdx-0x40]
    5779:	jmp    5785 <biari_init_context+0x45>
    577b:	nop    DWORD PTR [rax+rax*1+0x0]
    5780:	mov    eax,0x3e
    5785:	mov    WORD PTR [rdi],ax
    5788:	mov    BYTE PTR [rdi+0x2],0x1
    578c:	mov    QWORD PTR [rdi+0x8],0x0
    5794:	ret    
    5795:	nop    DWORD PTR [rax]
    5798:	mov    eax,0x3f
    579d:	mov    BYTE PTR [rdi+0x2],0x0
    57a1:	sub    eax,edx
    57a3:	mov    QWORD PTR [rdi+0x8],0x0
    57ab:	mov    WORD PTR [rdi],ax
    57ae:	ret    
    57af:	nop

00000000000057b0 <intrapred_luma>:
    57b0:	endbr64 
    57b4:	push   r15
    57b6:	push   r14
    57b8:	push   r13
    57ba:	push   r12
    57bc:	push   rbp
    57bd:	push   rbx
    57be:	sub    rsp,0x148
    57c5:	mov    DWORD PTR [rsp+0x28],edi
    57c9:	and    edi,0xf
    57cc:	lea    rbx,[rsp+0xd0]
    57d4:	lea    rbp,[rsp+0x130]
    57dc:	mov    DWORD PTR [rsp+0x2c],esi
    57e0:	and    esi,0xf
    57e3:	lea    r13d,[rdi-0x1]
    57e7:	mov    r12,rbx
    57ea:	mov    QWORD PTR [rsp+0x10],rdx
    57ef:	mov    r15d,esi
    57f2:	mov    QWORD PTR [rsp+0x18],rcx
    57f7:	mov    QWORD PTR [rsp+0x20],r8
    57fc:	mov    rax,QWORD PTR fs:0x28
    5805:	mov    QWORD PTR [rsp+0x138],rax
    580d:	xor    eax,eax
    580f:	mov    rax,QWORD PTR [rip+0x85192]        # 8a9a8 <enc_picture>
    5816:	mov    DWORD PTR [rsp+0x8],edi
    581a:	mov    DWORD PTR [rsp+0xc],esi
    581e:	mov    rax,QWORD PTR [rax+0x1918]
    5825:	mov    QWORD PTR [rsp],rax
    5829:	mov    rax,QWORD PTR [rip+0x82d80]        # 885b0 <img>
    5830:	mov    r14d,DWORD PTR [rax+0xc]
    5834:	mov    r8,r12
    5837:	mov    edx,r15d
    583a:	mov    ecx,0x1
    583f:	mov    esi,r13d
    5842:	mov    edi,r14d
    5845:	add    r12,0x18
    5849:	add    r15d,0x1
    584d:	call   30ae0 <getNeighbour>
    5852:	cmp    rbp,r12
    5855:	jne    5834 <intrapred_luma+0x84>
    5857:	mov    r12d,DWORD PTR [rsp+0xc]
    585c:	mov    r15d,DWORD PTR [rsp+0x8]
    5861:	lea    r8,[rsp+0x30]
    5866:	mov    edi,r14d
    5869:	mov    ecx,0x1
    586e:	sub    r12d,0x1
    5872:	mov    esi,r15d
    5875:	mov    edx,r12d
    5878:	call   30ae0 <getNeighbour>
    587d:	mov    esi,r15d
    5880:	lea    r8,[rsp+0x50]
    5885:	mov    edx,r12d
    5888:	add    esi,0x4
    588b:	mov    ecx,0x1
    5890:	mov    edi,r14d
    5893:	call   30ae0 <getNeighbour>
    5898:	mov    ecx,0x1
    589d:	mov    edx,r12d
    58a0:	mov    esi,r13d
    58a3:	lea    r8,[rsp+0x70]
    58a8:	mov    edi,r14d
    58ab:	call   30ae0 <getNeighbour>
    58b0:	mov    ecx,DWORD PTR [rsp+0x50]
    58b4:	test   ecx,ecx
    58b6:	je     58d0 <intrapred_luma+0x120>
    58b8:	mov    r14d,DWORD PTR [rsp+0x28]
    58bd:	mov    ecx,0x1
    58c2:	and    r14d,0x7
    58c6:	cmp    r14d,0x4
    58ca:	je     6448 <intrapred_luma+0xc98>
    58d0:	mov    rdi,QWORD PTR [rip+0x82ce1]        # 885b8 <input>
    58d7:	mov    esi,DWORD PTR [rsp+0x30]
    58db:	mov    DWORD PTR [rsp+0x50],ecx
    58df:	mov    rax,QWORD PTR [rip+0x82cca]        # 885b0 <img>
    58e6:	mov    edx,DWORD PTR [rsp+0xd0]
    58ed:	mov    r14d,DWORD PTR [rdi+0xd8]
    58f4:	mov    r8d,DWORD PTR [rsp+0x70]
    58f9:	test   r14d,r14d
    58fc:	je     5978 <intrapred_luma+0x1c8>
    58fe:	mov    edi,0x1
    5903:	test   edx,edx
    5905:	je     5918 <intrapred_luma+0x168>
    5907:	mov    rdx,QWORD PTR [rax+0x11868]
    590e:	movsxd r9,DWORD PTR [rbx+0x4]
    5912:	and    edi,DWORD PTR [rdx+r9*4]
    5916:	mov    edx,edi
    5918:	add    rbx,0x18
    591c:	cmp    rbp,rbx
    591f:	je     5932 <intrapred_luma+0x182>
    5921:	mov    edi,edx
    5923:	mov    edx,DWORD PTR [rbx]
    5925:	test   edx,edx
    5927:	jne    5907 <intrapred_luma+0x157>
    5929:	add    rbx,0x18
    592d:	cmp    rbp,rbx
    5930:	jne    5921 <intrapred_luma+0x171>
    5932:	mov    r10d,edx
    5935:	and    r10d,0x1
    5939:	test   esi,esi
    593b:	jne    6478 <intrapred_luma+0xcc8>
    5941:	xor    edi,edi
    5943:	xor    ebx,ebx
    5945:	test   ecx,ecx
    5947:	je     5959 <intrapred_luma+0x1a9>
    5949:	movsxd r9,DWORD PTR [rsp+0x54]
    594e:	mov    rcx,QWORD PTR [rax+0x11868]
    5955:	mov    ecx,DWORD PTR [rcx+r9*4]
    5959:	test   r8d,r8d
    595c:	je     5a78 <intrapred_luma+0x2c8>
    5962:	movsxd r9,DWORD PTR [rsp+0x74]
    5967:	mov    r8,QWORD PTR [rax+0x11868]
    596e:	mov    r8d,DWORD PTR [r8+r9*4]
    5972:	jmp    5988 <intrapred_luma+0x1d8>
    5974:	nop    DWORD PTR [rax+0x0]
    5978:	test   esi,esi
    597a:	setne  bl
    597d:	test   edx,edx
    597f:	setne  r10b
    5983:	mov    edi,ebx
    5985:	and    edi,r10d
    5988:	mov    r14,QWORD PTR [rsp+0x10]
    598d:	mov    DWORD PTR [r14],edx
    5990:	mov    r14,QWORD PTR [rsp+0x18]
    5995:	mov    DWORD PTR [r14],esi
    5998:	test   dil,dil
    599b:	je     5a91 <intrapred_luma+0x2e1>
    59a1:	test   r8d,r8d
    59a4:	je     64f0 <intrapred_luma+0xd40>
    59aa:	mov    rbx,QWORD PTR [rsp+0x20]
    59af:	mov    ebp,edi
    59b1:	mov    r10d,edi
    59b4:	mov    DWORD PTR [rbx],0x1
    59ba:	mov    ebx,edi
    59bc:	movsxd r9,DWORD PTR [rsp+0x44]
    59c1:	mov    r11,QWORD PTR [rsp]
    59c5:	movsxd r12,DWORD PTR [rsp+0x40]
    59ca:	mov    r11,QWORD PTR [r11+r9*8]
    59ce:	movzx  r13d,WORD PTR [r11+r12*2+0x2]
    59d4:	movzx  r9d,WORD PTR [r11+r12*2]
    59d9:	mov    DWORD PTR [rsp+0x98],r13d
    59e1:	movzx  r13d,WORD PTR [r11+r12*2+0x4]
    59e7:	movzx  r11d,WORD PTR [r11+r12*2+0x6]
    59ed:	mov    DWORD PTR [rsp+0x94],r9d
    59f5:	mov    DWORD PTR [rsp+0x9c],r13d
    59fd:	mov    DWORD PTR [rsp+0xa0],r11d
    5a05:	test   ecx,ecx
    5a07:	jne    5ad7 <intrapred_luma+0x327>
    5a0d:	mov    ecx,DWORD PTR [rsp+0xa0]
    5a14:	mov    DWORD PTR [rsp+0xb0],ecx
    5a1b:	mov    DWORD PTR [rsp+0xac],ecx
    5a22:	mov    DWORD PTR [rsp+0xa8],ecx
    5a29:	mov    DWORD PTR [rsp+0xa4],ecx
    5a30:	test   edx,edx
    5a32:	jne    5b27 <intrapred_luma+0x377>
    5a38:	mov    r11d,DWORD PTR [rax+0x11be8]
    5a3f:	mov    DWORD PTR [rsp+0xc0],r11d
    5a47:	mov    DWORD PTR [rsp+0xbc],r11d
    5a4f:	mov    DWORD PTR [rsp+0xb8],r11d
    5a57:	mov    DWORD PTR [rsp+0xb4],r11d
    5a5f:	test   r8d,r8d
    5a62:	jne    5bb5 <intrapred_luma+0x405>
    5a68:	mov    r15d,DWORD PTR [rax+0x11be8]
    5a6f:	jmp    5bd2 <intrapred_luma+0x422>
    5a74:	nop    DWORD PTR [rax+0x0]
    5a78:	mov    r11,QWORD PTR [rsp+0x10]
    5a7d:	mov    DWORD PTR [r11],edx
    5a80:	mov    r11,QWORD PTR [rsp+0x18]
    5a85:	mov    DWORD PTR [r11],esi
    5a88:	test   dil,dil
    5a8b:	jne    64f0 <intrapred_luma+0xd40>
    5a91:	mov    rdi,QWORD PTR [rsp+0x20]
    5a96:	mov    DWORD PTR [rdi],0x0
    5a9c:	test   esi,esi
    5a9e:	jne    6525 <intrapred_luma+0xd75>
    5aa4:	mov    r9d,DWORD PTR [rax+0x11be8]
    5aab:	xor    ebp,ebp
    5aad:	xor    edi,edi
    5aaf:	mov    DWORD PTR [rsp+0xa0],r9d
    5ab7:	mov    DWORD PTR [rsp+0x9c],r9d
    5abf:	mov    DWORD PTR [rsp+0x98],r9d
    5ac7:	mov    DWORD PTR [rsp+0x94],r9d
    5acf:	test   ecx,ecx
    5ad1:	je     5a0d <intrapred_luma+0x25d>
    5ad7:	movsxd rcx,DWORD PTR [rsp+0x64]
    5adc:	mov    r14,QWORD PTR [rsp]
    5ae0:	movsxd r11,DWORD PTR [rsp+0x60]
    5ae5:	mov    rcx,QWORD PTR [r14+rcx*8]
    5ae9:	movzx  r12d,WORD PTR [rcx+r11*2]
    5aee:	mov    DWORD PTR [rsp+0xa4],r12d
    5af6:	movzx  r12d,WORD PTR [rcx+r11*2+0x2]
    5afc:	mov    DWORD PTR [rsp+0xa8],r12d
    5b04:	movzx  r12d,WORD PTR [rcx+r11*2+0x4]
    5b0a:	movzx  ecx,WORD PTR [rcx+r11*2+0x6]
    5b10:	mov    DWORD PTR [rsp+0xac],r12d
    5b18:	mov    DWORD PTR [rsp+0xb0],ecx
    5b1f:	test   edx,edx
    5b21:	je     5a38 <intrapred_luma+0x288>
    5b27:	mov    r14,QWORD PTR [rsp]
    5b2b:	movsxd rcx,DWORD PTR [rsp+0xe4]
    5b33:	movsxd r11,DWORD PTR [rsp+0xe0]
    5b3b:	movsxd r12,DWORD PTR [rsp+0xf8]
    5b43:	mov    rcx,QWORD PTR [r14+rcx*8]
    5b47:	movzx  r11d,WORD PTR [rcx+r11*2]
    5b4c:	movsxd rcx,DWORD PTR [rsp+0xfc]
    5b54:	mov    rcx,QWORD PTR [r14+rcx*8]
    5b58:	mov    DWORD PTR [rsp+0xb4],r11d
    5b60:	movzx  ecx,WORD PTR [rcx+r12*2]
    5b65:	movsxd r12,DWORD PTR [rsp+0x110]
    5b6d:	mov    DWORD PTR [rsp+0xb8],ecx
    5b74:	movsxd rcx,DWORD PTR [rsp+0x114]
    5b7c:	mov    rcx,QWORD PTR [r14+rcx*8]
    5b80:	movzx  ecx,WORD PTR [rcx+r12*2]
    5b85:	movsxd r12,DWORD PTR [rsp+0x128]
    5b8d:	mov    DWORD PTR [rsp+0xbc],ecx
    5b94:	movsxd rcx,DWORD PTR [rsp+0x12c]
    5b9c:	mov    rcx,QWORD PTR [r14+rcx*8]
    5ba0:	movzx  ecx,WORD PTR [rcx+r12*2]
    5ba5:	mov    DWORD PTR [rsp+0xc0],ecx
    5bac:	test   r8d,r8d
    5baf:	je     5a68 <intrapred_luma+0x2b8>
    5bb5:	movsxd rcx,DWORD PTR [rsp+0x84]
    5bbd:	mov    r14,QWORD PTR [rsp]
    5bc1:	movsxd r8,DWORD PTR [rsp+0x80]
    5bc9:	mov    rcx,QWORD PTR [r14+rcx*8]
    5bcd:	movzx  r15d,WORD PTR [rcx+r8*2]
    5bd2:	mov    DWORD PTR [rsp+0x90],r15d
    5bda:	lea    r8,[rax+0xb8]
    5be1:	lea    r12,[rax+0x12b8]
    5be8:	mov    rcx,r8
    5beb:	nop    DWORD PTR [rax+rax*1+0x0]
    5bf0:	mov    r13d,0xffffffff
    5bf6:	add    rcx,0x200
    5bfd:	mov    WORD PTR [rcx-0x200],r13w
    5c05:	cmp    r12,rcx
    5c08:	jne    5bf0 <intrapred_luma+0x440>
    5c0a:	test   dil,dil
    5c0d:	je     6408 <intrapred_luma+0xc58>
    5c13:	mov    ecx,DWORD PTR [rsp+0x98]
    5c1a:	add    ecx,r9d
    5c1d:	add    ecx,DWORD PTR [rsp+0x9c]
    5c24:	add    ecx,DWORD PTR [rsp+0xa0]
    5c2b:	add    ecx,r11d
    5c2e:	add    ecx,DWORD PTR [rsp+0xb8]
    5c35:	add    ecx,DWORD PTR [rsp+0xbc]
    5c3c:	add    ecx,DWORD PTR [rsp+0xc0]
    5c43:	lea    edi,[rcx+0xb]
    5c46:	add    ecx,0x4
    5c49:	cmovns edi,ecx
    5c4c:	sar    edi,0x3
    5c4f:	lea    rcx,[rax+0x4b8]
    5c56:	lea    r10,[rax+0x4c0]
    5c5d:	mov    WORD PTR [rcx],di
    5c60:	add    rcx,0x2
    5c64:	mov    WORD PTR [rcx+0x1e],di
    5c68:	mov    WORD PTR [rcx+0x3e],di
    5c6c:	mov    WORD PTR [rcx+0x5e],di
    5c70:	cmp    r10,rcx
    5c73:	jne    5c5d <intrapred_luma+0x4ad>
    5c75:	lea    rcx,[rax+0x2b8]
    5c7c:	lea    rbx,[rsp+0x90]
    5c84:	mov    r10d,r11d
    5c87:	mov    edi,r9d
    5c8a:	lea    r12,[rsp+0xa0]
    5c92:	add    rbx,0x4
    5c96:	mov    WORD PTR [r8],di
    5c9a:	add    rcx,0x20
    5c9e:	add    r8,0x2
    5ca2:	mov    WORD PTR [r8+0x5e],di
    5ca7:	mov    WORD PTR [r8+0x3e],di
    5cac:	mov    WORD PTR [r8+0x1e],di
    5cb1:	mov    WORD PTR [rcx-0x1a],r10w
    5cb6:	mov    WORD PTR [rcx-0x1c],r10w
    5cbb:	mov    WORD PTR [rcx-0x1e],r10w
    5cc0:	mov    WORD PTR [rcx-0x20],r10w
    5cc5:	cmp    r12,rbx
    5cc8:	je     5cd8 <intrapred_luma+0x528>
    5cca:	mov    edi,DWORD PTR [rbx+0x4]
    5ccd:	mov    r10d,DWORD PTR [rbx+0x24]
    5cd1:	jmp    5c92 <intrapred_luma+0x4e2>
    5cd3:	nop    DWORD PTR [rax+rax*1+0x0]
    5cd8:	test   esi,esi
    5cda:	jne    5e10 <intrapred_luma+0x660>
    5ce0:	mov    edi,0xffffffff
    5ce5:	mov    WORD PTR [rax+0xb8],di
    5cec:	test   edx,edx
    5cee:	je     64a0 <intrapred_luma+0xcf0>
    5cf4:	mov    edx,DWORD PTR [rsp+0xb8]
    5cfb:	lea    ecx,[rdx+r11*1]
    5cff:	lea    edi,[rcx+0x1]
    5d02:	add    ecx,edx
    5d04:	mov    esi,edi
    5d06:	shr    esi,0x1f
    5d09:	add    esi,edi
    5d0b:	sar    esi,1
    5d0d:	mov    WORD PTR [rax+0x10b8],si
    5d14:	mov    esi,DWORD PTR [rsp+0xbc]
    5d1b:	add    ecx,esi
    5d1d:	lea    edi,[rcx+0x5]
    5d20:	add    ecx,0x2
    5d23:	cmovs  ecx,edi
    5d26:	add    edx,esi
    5d28:	lea    edi,[rdx+0x1]
    5d2b:	add    edx,esi
    5d2d:	sar    ecx,0x2
    5d30:	mov    WORD PTR [rax+0x10ba],cx
    5d37:	mov    ecx,edi
    5d39:	shr    ecx,0x1f
    5d3c:	add    ecx,edi
    5d3e:	sar    ecx,1
    5d40:	mov    WORD PTR [rax+0x10d8],cx
    5d47:	mov    WORD PTR [rax+0x10bc],cx
    5d4e:	mov    ecx,DWORD PTR [rsp+0xc0]
    5d55:	add    edx,ecx
    5d57:	mov    WORD PTR [rax+0x111e],cx
    5d5e:	lea    edi,[rdx+0x5]
    5d61:	add    edx,0x2
    5d64:	mov    WORD PTR [rax+0x111c],cx
    5d6b:	cmovs  edx,edi
    5d6e:	add    esi,ecx
    5d70:	mov    WORD PTR [rax+0x111a],cx
    5d77:	lea    edi,[rsi+0x1]
    5d7a:	lea    esi,[rsi+rcx*2]
    5d7d:	mov    WORD PTR [rax+0x10fe],cx
    5d84:	sar    edx,0x2
    5d87:	mov    WORD PTR [rax+0x10fc],cx
    5d8e:	mov    WORD PTR [rax+0x10da],dx
    5d95:	mov    WORD PTR [rax+0x10be],dx
    5d9c:	mov    edx,edi
    5d9e:	shr    edx,0x1f
    5da1:	mov    WORD PTR [rax+0x1118],cx
    5da8:	add    edx,edi
    5daa:	sar    edx,1
    5dac:	mov    WORD PTR [rax+0x10f8],dx
    5db3:	mov    WORD PTR [rax+0x10dc],dx
    5dba:	lea    edx,[rsi+0x5]
    5dbd:	add    esi,0x2
    5dc0:	cmovns edx,esi
    5dc3:	sar    edx,0x2
    5dc6:	mov    WORD PTR [rax+0x10fa],dx
    5dcd:	mov    WORD PTR [rax+0x10de],dx
    5dd4:	test   bpl,bpl
    5dd7:	jne    60c3 <intrapred_luma+0x913>
    5ddd:	mov    rax,QWORD PTR [rsp+0x138]
    5de5:	xor    rax,QWORD PTR fs:0x28
    5dee:	jne    6520 <intrapred_luma+0xd70>
    5df4:	add    rsp,0x148
    5dfb:	pop    rbx
    5dfc:	pop    rbp
    5dfd:	pop    r12
    5dff:	pop    r13
    5e01:	pop    r14
    5e03:	pop    r15
    5e05:	ret    
    5e06:	nop    WORD PTR cs:[rax+rax*1+0x0]
    5e10:	test   edx,edx
    5e12:	je     6460 <intrapred_luma+0xcb0>
    5e18:	mov    edi,DWORD PTR [rsp+0x9c]
    5e1f:	mov    r10d,DWORD PTR [rsp+0x98]
    5e27:	mov    r14d,DWORD PTR [rsp+0xac]
    5e2f:	lea    ecx,[rdi+r9*1]
    5e33:	lea    esi,[rcx+r10*2]
    5e37:	lea    ecx,[rsi+0x5]
    5e3a:	add    esi,0x2
    5e3d:	cmovns ecx,esi
    5e40:	mov    esi,DWORD PTR [rsp+0xa0]
    5e47:	sar    ecx,0x2
    5e4a:	mov    WORD PTR [rax+0x6b8],cx
    5e51:	lea    ecx,[r10+rsi*1]
    5e55:	lea    r8d,[rcx+rdi*2]
    5e59:	lea    ecx,[r8+0x5]
    5e5d:	add    r8d,0x2
    5e61:	cmovns ecx,r8d
    5e65:	sar    ecx,0x2
    5e68:	mov    WORD PTR [rax+0x6d8],cx
    5e6f:	mov    WORD PTR [rax+0x6ba],cx
    5e76:	mov    ecx,DWORD PTR [rsp+0xa4]
    5e7d:	lea    r8d,[rdi+rcx*1]
    5e81:	lea    ebx,[r8+rsi*2]
    5e85:	lea    r8d,[rbx+0x5]
    5e89:	add    ebx,0x2
    5e8c:	cmovns r8d,ebx
    5e90:	sar    r8d,0x2
    5e94:	mov    WORD PTR [rax+0x6f8],r8w
    5e9c:	mov    WORD PTR [rax+0x6da],r8w
    5ea4:	mov    WORD PTR [rax+0x6bc],r8w
    5eac:	mov    r8d,DWORD PTR [rsp+0xa8]
    5eb4:	lea    ebx,[rsi+r8*1]
    5eb8:	lea    r12d,[rbx+rcx*2]
    5ebc:	lea    ebx,[r12+0x5]
    5ec1:	add    r12d,0x2
    5ec5:	cmovns ebx,r12d
    5ec9:	sar    ebx,0x2
    5ecc:	mov    WORD PTR [rax+0x718],bx
    5ed3:	mov    WORD PTR [rax+0x6fa],bx
    5eda:	mov    WORD PTR [rax+0x6dc],bx
    5ee1:	mov    WORD PTR [rax+0x6be],bx
    5ee8:	mov    ebx,DWORD PTR [rsp+0xac]
    5eef:	add    ebx,ecx
    5ef1:	lea    r12d,[rbx+r8*2]
    5ef5:	lea    ebx,[r12+0x5]
    5efa:	add    r12d,0x2
    5efe:	cmovns ebx,r12d
    5f02:	mov    r12d,DWORD PTR [rsp+0xb0]
    5f0a:	sar    ebx,0x2
    5f0d:	mov    WORD PTR [rax+0x71a],bx
    5f14:	mov    WORD PTR [rax+0x6fc],bx
    5f1b:	mov    WORD PTR [rax+0x6de],bx
    5f22:	lea    ebx,[r8+r12*1]
    5f26:	lea    r13d,[rbx+r14*2]
    5f2a:	lea    ebx,[r13+0x5]
    5f2e:	add    r13d,0x2
    5f32:	cmovns ebx,r13d
    5f36:	sar    ebx,0x2
    5f39:	mov    WORD PTR [rax+0x71c],bx
    5f40:	mov    WORD PTR [rax+0x6fe],bx
    5f47:	lea    ebx,[r12+r12*2]
    5f4b:	add    ebx,r14d
    5f4e:	lea    r14d,[r10+r9*1]
    5f52:	lea    r12d,[rbx+0x5]
    5f56:	add    ebx,0x2
    5f59:	cmovs  ebx,r12d
    5f5d:	lea    r12d,[r14+0x1]
    5f61:	sar    ebx,0x2
    5f64:	mov    WORD PTR [rax+0x71e],bx
    5f6b:	mov    ebx,r12d
    5f6e:	shr    ebx,0x1f
    5f71:	add    ebx,r12d
    5f74:	sar    ebx,1
    5f76:	mov    WORD PTR [rax+0xeb8],bx
    5f7d:	lea    ebx,[rdi+r10*1]
    5f81:	add    r10d,r14d
    5f84:	lea    r12d,[rbx+0x1]
    5f88:	mov    DWORD PTR [rsp],ebx
    5f8b:	add    r10d,edi
    5f8e:	mov    r13d,r12d
    5f91:	shr    r13d,0x1f
    5f95:	mov    ebx,r13d
    5f98:	lea    r13d,[rdi+rsi*1]
    5f9c:	add    ebx,r12d
    5f9f:	lea    r12d,[r13+0x1]
    5fa3:	mov    DWORD PTR [rsp+0x8],r13d
    5fa8:	mov    r13d,r12d
    5fab:	sar    ebx,1
    5fad:	shr    r13d,0x1f
    5fb1:	mov    WORD PTR [rax+0xef8],bx
    5fb8:	mov    WORD PTR [rax+0xeba],bx
    5fbf:	mov    ebx,r13d
    5fc2:	lea    r13d,[rsi+rcx*1]
    5fc6:	add    ebx,r12d
    5fc9:	lea    r12d,[r13+0x1]
    5fcd:	sar    ebx,1
    5fcf:	mov    WORD PTR [rax+0xefa],bx
    5fd6:	mov    WORD PTR [rax+0xebc],bx
    5fdd:	mov    ebx,r12d
    5fe0:	shr    ebx,0x1f
    5fe3:	add    ebx,r12d
    5fe6:	sar    ebx,1
    5fe8:	mov    WORD PTR [rax+0xefc],bx
    5fef:	mov    WORD PTR [rax+0xebe],bx
    5ff6:	lea    ebx,[rcx+r8*1]
    5ffa:	mov    DWORD PTR [rsp+0xc],ebx
    5ffe:	add    ebx,0x1
    6001:	mov    r12d,ebx
    6004:	shr    r12d,0x1f
    6008:	add    ebx,r12d
    600b:	sar    ebx,1
    600d:	mov    WORD PTR [rax+0xefe],bx
    6014:	lea    ebx,[r10+0x5]
    6018:	add    r10d,0x2
    601c:	cmovs  r10d,ebx
    6020:	add    edi,DWORD PTR [rsp]
    6023:	add    edi,esi
    6025:	sar    r10d,0x2
    6029:	mov    WORD PTR [rax+0xed8],r10w
    6031:	lea    r10d,[rdi+0x5]
    6035:	add    edi,0x2
    6038:	cmovs  edi,r10d
    603c:	add    esi,DWORD PTR [rsp+0x8]
    6040:	add    esi,ecx
    6042:	sar    edi,0x2
    6045:	mov    WORD PTR [rax+0xf18],di
    604c:	mov    WORD PTR [rax+0xeda],di
    6053:	lea    edi,[rsi+0x5]
    6056:	add    esi,0x2
    6059:	cmovs  esi,edi
    605c:	add    ecx,r13d
    605f:	add    ecx,r8d
    6062:	sar    esi,0x2
    6065:	mov    WORD PTR [rax+0xf1a],si
    606c:	mov    WORD PTR [rax+0xedc],si
    6073:	lea    esi,[rcx+0x5]
    6076:	add    ecx,0x2
    6079:	cmovs  ecx,esi
    607c:	add    r8d,DWORD PTR [rsp+0xc]
    6081:	add    r8d,DWORD PTR [rsp+0xac]
    6089:	sar    ecx,0x2
    608c:	mov    WORD PTR [rax+0xf1c],cx
    6093:	mov    WORD PTR [rax+0xede],cx
    609a:	lea    ecx,[r8+0x5]
    609e:	add    r8d,0x2
    60a2:	cmovs  r8d,ecx
    60a6:	sar    r8d,0x2
    60aa:	mov    WORD PTR [rax+0xf1e],r8w
    60b2:	test   edx,edx
    60b4:	jne    5cf4 <intrapred_luma+0x544>
    60ba:	test   bpl,bpl
    60bd:	je     5ddd <intrapred_luma+0x62d>
    60c3:	mov    edx,DWORD PTR [rsp+0xbc]
    60ca:	mov    esi,DWORD PTR [rsp+0xc0]
    60d1:	lea    edi,[r11+r11*1]
    60d5:	mov    ebp,DWORD PTR [rsp+0xb8]
    60dc:	mov    r14d,DWORD PTR [rsp+0x98]
    60e4:	mov    DWORD PTR [rsp+0xc],edi
    60e8:	lea    esi,[rsi+rdx*2]
    60eb:	mov    r8d,DWORD PTR [rsp+0x9c]
    60f3:	mov    r13d,DWORD PTR [rsp+0xa0]
    60fb:	mov    DWORD PTR [rsp],esi
    60fe:	add    esi,ebp
    6100:	lea    r12d,[rbp+rbp*1+0x0]
    6105:	lea    r10d,[r9+r14*2]
    6109:	lea    ecx,[rsi+0x5]
    610c:	add    esi,0x2
    610f:	lea    ebx,[rdx+r12*1]
    6113:	cmovns ecx,esi
    6116:	lea    esi,[rbx+r11*1]
    611a:	mov    DWORD PTR [rsp+0x8],ebx
    611e:	lea    ebx,[r15+r9*2]
    6122:	sar    ecx,0x2
    6125:	mov    WORD PTR [rax+0x918],cx
    612c:	lea    ecx,[rsi+0x5]
    612f:	add    esi,0x2
    6132:	cmovns ecx,esi
    6135:	lea    esi,[rbp+rdi*1+0x0]
    6139:	add    esi,r15d
    613c:	sar    ecx,0x2
    613f:	mov    WORD PTR [rax+0x91a],cx
    6146:	mov    WORD PTR [rax+0x8f8],cx
    614d:	lea    ecx,[rsi+0x5]
    6150:	add    esi,0x2
    6153:	cmovns ecx,esi
    6156:	sar    ecx,0x2
    6159:	mov    WORD PTR [rax+0x91c],cx
    6160:	mov    WORD PTR [rax+0x8fa],cx
    6167:	mov    WORD PTR [rax+0x8d8],cx
    616e:	lea    ecx,[r11+r15*2]
    6172:	add    ecx,r9d
    6175:	lea    esi,[rcx+0x5]
    6178:	add    ecx,0x2
    617b:	cmovs  ecx,esi
    617e:	lea    esi,[rbx+r14*1]
    6182:	lea    edi,[rsi+0x5]
    6185:	sar    ecx,0x2
    6188:	add    esi,0x2
    618b:	cmovs  esi,edi
    618e:	add    r8d,r10d
    6191:	mov    WORD PTR [rax+0x91e],cx
    6198:	mov    edi,r8d
    619b:	lea    r8d,[r8+0x5]
    619f:	mov    WORD PTR [rax+0x8fc],cx
    61a6:	sar    esi,0x2
    61a9:	add    edi,0x2
    61ac:	mov    WORD PTR [rax+0x8da],cx
    61b3:	cmovs  edi,r8d
    61b7:	mov    r8d,DWORD PTR [rsp+0x9c]
    61bf:	mov    WORD PTR [rax+0x8b8],cx
    61c6:	mov    WORD PTR [rax+0x8fe],si
    61cd:	lea    r8d,[r14+r8*2]
    61d1:	sar    edi,0x2
    61d4:	mov    WORD PTR [rax+0x8dc],si
    61db:	add    r13d,r8d
    61de:	mov    DWORD PTR [rsp+0x10],r8d
    61e3:	lea    r8d,[r13+0x5]
    61e7:	add    r13d,0x2
    61eb:	mov    WORD PTR [rax+0x8ba],si
    61f2:	cmovs  r13d,r8d
    61f6:	sub    ebx,r9d
    61f9:	sub    r10d,r14d
    61fc:	mov    WORD PTR [rax+0x8de],di
    6203:	lea    r9d,[rbx+0x1]
    6207:	mov    WORD PTR [rax+0x8bc],di
    620e:	mov    r8d,DWORD PTR [rsp+0x10]
    6213:	mov    ebx,r9d
    6216:	sar    r13d,0x2
    621a:	shr    ebx,0x1f
    621d:	mov    WORD PTR [rax+0x8be],r13w
    6225:	add    r9d,ebx
    6228:	sar    r9d,1
    622b:	mov    WORD PTR [rax+0xafa],r9w
    6233:	mov    WORD PTR [rax+0xab8],r9w
    623b:	lea    r9d,[r10+0x1]
    623f:	mov    r10d,r9d
    6242:	shr    r10d,0x1f
    6246:	add    r9d,r10d
    6249:	sar    r9d,1
    624c:	mov    WORD PTR [rax+0xafc],r9w
    6254:	mov    WORD PTR [rax+0xaba],r9w
    625c:	sub    r8d,DWORD PTR [rsp+0x9c]
    6264:	add    r8d,0x1
    6268:	mov    r14d,DWORD PTR [rsp+0x9c]
    6270:	mov    r10d,DWORD PTR [rsp+0xa0]
    6278:	mov    WORD PTR [rax+0xb1a],cx
    627f:	mov    r9d,r8d
    6282:	mov    WORD PTR [rax+0xad8],cx
    6289:	shr    r9d,0x1f
    628d:	mov    WORD PTR [rax+0xcde],cx
    6294:	add    r8d,r9d
    6297:	lea    r9d,[r14+r10*1+0x1]
    629c:	lea    r10d,[r12+r11*1]
    62a0:	mov    WORD PTR [rax+0xcba],cx
    62a7:	sar    r8d,1
    62aa:	mov    WORD PTR [rax+0xb1e],di
    62b1:	mov    WORD PTR [rax+0xafe],r8w
    62b9:	mov    WORD PTR [rax+0xabc],r8w
    62c1:	mov    r8d,r9d
    62c4:	shr    r8d,0x1f
    62c8:	mov    WORD PTR [rax+0xadc],di
    62cf:	add    r8d,r9d
    62d2:	mov    r9d,DWORD PTR [rsp+0xc]
    62d7:	mov    WORD PTR [rax+0xcbe],di
    62de:	sar    r8d,1
    62e1:	mov    WORD PTR [rax+0xb1c],si
    62e8:	lea    ebx,[r9+r15*1]
    62ec:	mov    WORD PTR [rax+0xabe],r8w
    62f4:	lea    r8d,[rbp+rbx*1+0x0]
    62f9:	mov    WORD PTR [rax+0xada],si
    6300:	lea    r9d,[r8+0x5]
    6304:	add    r8d,0x2
    6308:	mov    WORD PTR [rax+0xcbc],si
    630f:	cmovns r9d,r8d
    6313:	lea    r8d,[rdx+r10*1]
    6317:	mov    WORD PTR [rax+0xade],r13w
    631f:	lea    r12d,[r8+0x5]
    6323:	sar    r9d,0x2
    6327:	add    r8d,0x2
    632b:	cmovs  r8d,r12d
    632f:	sub    ebx,r11d
    6332:	sub    r10d,ebp
    6335:	mov    WORD PTR [rax+0xaf8],r9w
    633d:	lea    r11d,[rbx+0x1]
    6341:	lea    ecx,[r10+0x1]
    6345:	mov    ebx,DWORD PTR [rsp+0x8]
    6349:	mov    WORD PTR [rax+0xcfe],r9w
    6351:	mov    edi,ecx
    6353:	mov    r14d,r11d
    6356:	sar    r8d,0x2
    635a:	mov    WORD PTR [rax+0xcda],r9w
    6362:	sub    ebx,ebp
    6364:	shr    edi,0x1f
    6367:	mov    WORD PTR [rax+0xb18],r8w
    636f:	add    ecx,edi
    6371:	lea    edi,[rbx+0x1]
    6374:	mov    esi,ebx
    6376:	shr    r14d,0x1f
    637a:	mov    ebx,edi
    637c:	sar    ecx,1
    637e:	add    r11d,r14d
    6381:	mov    WORD PTR [rax+0xd1e],r8w
    6389:	shr    ebx,0x1f
    638c:	mov    WORD PTR [rax+0xcfc],cx
    6393:	sar    r11d,1
    6396:	mov    WORD PTR [rax+0xcd8],cx
    639d:	mov    ecx,ebx
    639f:	add    ecx,edi
    63a1:	mov    WORD PTR [rax+0xcdc],r11w
    63a9:	sar    ecx,1
    63ab:	mov    WORD PTR [rax+0xcb8],r11w
    63b3:	mov    WORD PTR [rax+0xd1c],cx
    63ba:	mov    WORD PTR [rax+0xcf8],cx
    63c1:	mov    ecx,DWORD PTR [rsp]
    63c4:	mov    WORD PTR [rax+0xcfa],r8w
    63cc:	sub    ecx,edx
    63ce:	add    edx,esi
    63d0:	add    ecx,0x1
    63d3:	mov    edi,ecx
    63d5:	shr    edi,0x1f
    63d8:	add    ecx,edi
    63da:	sar    ecx,1
    63dc:	mov    WORD PTR [rax+0xd18],cx
    63e3:	add    edx,DWORD PTR [rsp+0xc0]
    63ea:	lea    ecx,[rdx+0x5]
    63ed:	add    edx,0x2
    63f0:	cmovs  edx,ecx
    63f3:	sar    edx,0x2
    63f6:	mov    WORD PTR [rax+0xd1a],dx
    63fd:	jmp    5ddd <intrapred_luma+0x62d>
    6402:	nop    WORD PTR [rax+rax*1+0x0]
    6408:	test   esi,esi
    640a:	jne    64b8 <intrapred_luma+0xd08>
    6410:	test   r10b,r10b
    6413:	je     64b8 <intrapred_luma+0xd08>
    6419:	mov    ecx,DWORD PTR [rsp+0xb8]
    6420:	add    ecx,r11d
    6423:	add    ecx,DWORD PTR [rsp+0xbc]
    642a:	add    ecx,DWORD PTR [rsp+0xc0]
    6431:	lea    edi,[rcx+0x5]
    6434:	add    ecx,0x2
    6437:	cmovns edi,ecx
    643a:	sar    edi,0x2
    643d:	jmp    5c4f <intrapred_luma+0x49f>
    6442:	nop    WORD PTR [rax+rax*1+0x0]
    6448:	mov    esi,DWORD PTR [rsp+0x2c]
    644c:	xor    ecx,ecx
    644e:	and    esi,0x7
    6451:	cmp    esi,0x4
    6454:	setne  cl
    6457:	jmp    58d0 <intrapred_luma+0x120>
    645c:	nop    DWORD PTR [rax+0x0]
    6460:	mov    ecx,0xffffffff
    6465:	mov    WORD PTR [rax+0x2b8],cx
    646c:	jmp    5e18 <intrapred_luma+0x668>
    6471:	nop    DWORD PTR [rax+0x0]
    6478:	movsxd rdi,DWORD PTR [rsp+0x34]
    647d:	mov    rsi,QWORD PTR [rax+0x11868]
    6484:	mov    esi,DWORD PTR [rsi+rdi*4]
    6487:	test   esi,esi
    6489:	setne  bl
    648c:	mov    edi,ebx
    648e:	and    edi,r10d
    6491:	jmp    5945 <intrapred_luma+0x195>
    6496:	nop    WORD PTR cs:[rax+rax*1+0x0]
    64a0:	mov    esi,0xffffffff
    64a5:	mov    WORD PTR [rax+0x2b8],si
    64ac:	jmp    5dd4 <intrapred_luma+0x624>
    64b1:	nop    DWORD PTR [rax+0x0]
    64b8:	test   edx,edx
    64ba:	jne    6515 <intrapred_luma+0xd65>
    64bc:	test   bl,bl
    64be:	je     6515 <intrapred_luma+0xd65>
    64c0:	mov    ecx,DWORD PTR [rsp+0x98]
    64c7:	add    ecx,r9d
    64ca:	add    ecx,DWORD PTR [rsp+0x9c]
    64d1:	add    ecx,DWORD PTR [rsp+0xa0]
    64d8:	lea    edi,[rcx+0x5]
    64db:	add    ecx,0x2
    64de:	cmovns edi,ecx
    64e1:	sar    edi,0x2
    64e4:	jmp    5c4f <intrapred_luma+0x49f>
    64e9:	nop    DWORD PTR [rax+0x0]
    64f0:	mov    rbx,QWORD PTR [rsp+0x20]
    64f5:	xor    ebp,ebp
    64f7:	xor    r8d,r8d
    64fa:	mov    edi,0x1
    64ff:	mov    r10d,0x1
    6505:	mov    DWORD PTR [rbx],0x0
    650b:	mov    ebx,0x1
    6510:	jmp    59bc <intrapred_luma+0x20c>
    6515:	mov    edi,DWORD PTR [rax+0x11be8]
    651b:	jmp    5c4f <intrapred_luma+0x49f>
    6520:	call   4390 <__stack_chk_fail@plt>
    6525:	xor    ebp,ebp
    6527:	xor    edi,edi
    6529:	jmp    59bc <intrapred_luma+0x20c>
    652e:	xchg   ax,ax

0000000000006530 <intrapred_luma_16x16>:
    6530:	endbr64 
    6534:	push   r15
    6536:	push   r14
    6538:	mov    r14d,0xffffffff
    653e:	push   r13
    6540:	push   r12
    6542:	push   rbp
    6543:	push   rbx
    6544:	sub    rsp,0x258
    654b:	mov    rax,QWORD PTR fs:0x28
    6554:	mov    QWORD PTR [rsp+0x248],rax
    655c:	xor    eax,eax
    655e:	mov    rax,QWORD PTR [rip+0x84443]        # 8a9a8 <enc_picture>
    6565:	lea    r12,[rsp+0xb0]
    656d:	lea    rbp,[rsp+0x248]
    6575:	mov    r13,r12
    6578:	mov    rbx,QWORD PTR [rax+0x1918]
    657f:	mov    rax,QWORD PTR [rip+0x8202a]        # 885b0 <img>
    6586:	mov    r15d,DWORD PTR [rax+0xc]
    658a:	nop    WORD PTR [rax+rax*1+0x0]
    6590:	mov    r8,r13
    6593:	mov    edx,r14d
    6596:	mov    ecx,0x1
    659b:	mov    esi,0xffffffff
    65a0:	mov    edi,r15d
    65a3:	add    r13,0x18
    65a7:	add    r14d,0x1
    65ab:	call   30ae0 <getNeighbour>
    65b0:	cmp    rbp,r13
    65b3:	jne    6590 <intrapred_luma_16x16+0x60>
    65b5:	lea    r8,[rsp+0x10]
    65ba:	mov    ecx,0x1
    65bf:	xor    esi,esi
    65c1:	mov    edi,r15d
    65c4:	mov    edx,0xffffffff
    65c9:	call   30ae0 <getNeighbour>
    65ce:	mov    rax,QWORD PTR [rip+0x81fe3]        # 885b8 <input>
    65d5:	mov    r8d,DWORD PTR [rsp+0x10]
    65da:	mov    r9d,DWORD PTR [rax+0xd8]
    65e1:	test   r9d,r9d
    65e4:	jne    678c <intrapred_luma_16x16+0x25c>
    65ea:	mov    edi,DWORD PTR [rsp+0xb0]
    65f1:	mov    esi,DWORD PTR [rsp+0xc8]
    65f8:	mov    r13,QWORD PTR [rip+0x81fb1]        # 885b0 <img>
    65ff:	test   edi,edi
    6601:	sete   BYTE PTR [rsp+0x8]
    6606:	test   r8d,r8d
    6609:	setne  r14b
    660d:	movsxd rax,DWORD PTR [rsp+0x24]
    6612:	movsxd rbp,DWORD PTR [rsp+0x20]
    6617:	xor    r9d,r9d
    661a:	lea    rcx,[rsp+0xd8]
    6622:	add    r12,0x1a8
    6629:	mov    rdx,rcx
    662c:	lea    r10,[rbx+rax*8]
    6630:	mov    edi,ebp
    6632:	xor    eax,eax
    6634:	nop    DWORD PTR [rax+0x0]
    6638:	test   r8d,r8d
    663b:	je     664b <intrapred_luma_16x16+0x11b>
    663d:	mov    r15,QWORD PTR [r10]
    6640:	movsxd r11,edi
    6643:	movzx  r11d,WORD PTR [r15+r11*2]
    6648:	add    eax,r11d
    664b:	test   esi,esi
    664d:	je     6662 <intrapred_luma_16x16+0x132>
    664f:	movsxd r11,DWORD PTR [rdx+0x4]
    6653:	movsxd r15,DWORD PTR [rdx]
    6656:	mov    r11,QWORD PTR [rbx+r11*8]
    665a:	movzx  r11d,WORD PTR [r11+r15*2]
    665f:	add    r9d,r11d
    6662:	add    rdx,0x18
    6666:	add    edi,0x1
    6669:	cmp    rdx,r12
    666c:	jne    6638 <intrapred_luma_16x16+0x108>
    666e:	test   esi,esi
    6670:	setne  dil
    6674:	je     6771 <intrapred_luma_16x16+0x241>
    667a:	test   r14b,r14b
    667d:	je     6771 <intrapred_luma_16x16+0x241>
    6683:	lea    eax,[rax+r9*1+0x10]
    6688:	movzx  edi,BYTE PTR [rsp+0x8]
    668d:	sar    eax,0x5
    6690:	xor    edx,edx
    6692:	lea    r9,[rsp+0x30]
    6697:	nop    WORD PTR [rax+rax*1+0x0]
    66a0:	test   r8d,r8d
    66a3:	je     66b9 <intrapred_luma_16x16+0x189>
    66a5:	mov    r12,QWORD PTR [r10]
    66a8:	lea    r11d,[rbp+rdx*1+0x0]
    66ad:	movsxd r11,r11d
    66b0:	movzx  r11d,WORD PTR [r12+r11*2]
    66b5:	mov    DWORD PTR [r9+rdx*8],r11d
    66b9:	test   esi,esi
    66bb:	je     66d2 <intrapred_luma_16x16+0x1a2>
    66bd:	movsxd r11,DWORD PTR [rcx+0x4]
    66c1:	movsxd r12,DWORD PTR [rcx]
    66c4:	mov    r11,QWORD PTR [rbx+r11*8]
    66c8:	movzx  r11d,WORD PTR [r11+r12*2]
    66cd:	mov    DWORD PTR [r9+rdx*8+0x4],r11d
    66d2:	add    rdx,0x1
    66d6:	add    rcx,0x18
    66da:	cmp    rdx,0x10
    66de:	jne    66a0 <intrapred_luma_16x16+0x170>
    66e0:	mov    r8d,eax
    66e3:	lea    r12,[rsp+0x34]
    66e8:	lea    r14,[r13+0x12b8]
    66ef:	lea    r15,[rsp+0xb4]
    66f7:	lea    r11,[r9+0x80]
    66fe:	xchg   ax,ax
    6700:	movzx  esi,WORD PTR [r12]
    6705:	mov    rax,r14
    6708:	mov    rdx,r9
    670b:	nop    DWORD PTR [rax+rax*1+0x0]
    6710:	mov    ecx,DWORD PTR [rdx]
    6712:	add    rdx,0x8
    6716:	add    rax,0x2
    671a:	mov    WORD PTR [rax+0x1fe],si
    6721:	mov    WORD PTR [rax+0x3fe],r8w
    6729:	mov    WORD PTR [rax-0x2],cx
    672d:	cmp    r11,rdx
    6730:	jne    6710 <intrapred_luma_16x16+0x1e0>
    6732:	add    r12,0x8
    6736:	add    r14,0x20
    673a:	cmp    r15,r12
    673d:	jne    6700 <intrapred_luma_16x16+0x1d0>
    673f:	test   dil,dil
    6742:	je     6860 <intrapred_luma_16x16+0x330>
    6748:	mov    rax,QWORD PTR [rsp+0x248]
    6750:	xor    rax,QWORD PTR fs:0x28
    6759:	jne    69de <intrapred_luma_16x16+0x4ae>
    675f:	add    rsp,0x258
    6766:	pop    rbx
    6767:	pop    rbp
    6768:	pop    r12
    676a:	pop    r13
    676c:	pop    r14
    676e:	pop    r15
    6770:	ret    
    6771:	test   r8d,r8d
    6774:	sete   dl
    6777:	and    dil,dl
    677a:	je     6826 <intrapred_luma_16x16+0x2f6>
    6780:	lea    eax,[r9+0x8]
    6784:	sar    eax,0x4
    6787:	jmp    6690 <intrapred_luma_16x16+0x160>
    678c:	mov    r13,QWORD PTR [rip+0x81e1d]        # 885b0 <img>
    6793:	xor    r14d,r14d
    6796:	test   r8d,r8d
    6799:	jne    680a <intrapred_luma_16x16+0x2da>
    679b:	lea    rax,[rsp+0xc8]
    67a3:	mov    esi,0x1
    67a8:	jmp    67c7 <intrapred_luma_16x16+0x297>
    67aa:	nop    WORD PTR [rax+rax*1+0x0]
    67b0:	movsxd rcx,DWORD PTR [rax+0x4]
    67b4:	mov    rdx,QWORD PTR [r13+0x11868]
    67bb:	add    rax,0x18
    67bf:	and    esi,DWORD PTR [rdx+rcx*4]
    67c2:	cmp    rbp,rax
    67c5:	je     67d8 <intrapred_luma_16x16+0x2a8>
    67c7:	mov    ecx,DWORD PTR [rax]
    67c9:	test   ecx,ecx
    67cb:	jne    67b0 <intrapred_luma_16x16+0x280>
    67cd:	add    rax,0x18
    67d1:	xor    esi,esi
    67d3:	cmp    rbp,rax
    67d6:	jne    67c7 <intrapred_luma_16x16+0x297>
    67d8:	mov    edx,DWORD PTR [rsp+0xb0]
    67df:	mov    BYTE PTR [rsp+0x8],0x1
    67e4:	test   edx,edx
    67e6:	je     660d <intrapred_luma_16x16+0xdd>
    67ec:	movsxd rdx,DWORD PTR [rsp+0xb4]
    67f4:	mov    rax,QWORD PTR [r13+0x11868]
    67fb:	mov    eax,DWORD PTR [rax+rdx*4]
    67fe:	test   eax,eax
    6800:	sete   BYTE PTR [rsp+0x8]
    6805:	jmp    660d <intrapred_luma_16x16+0xdd>
    680a:	movsxd rdx,DWORD PTR [rsp+0x14]
    680f:	mov    rax,QWORD PTR [r13+0x11868]
    6816:	mov    r8d,DWORD PTR [rax+rdx*4]
    681a:	test   r8d,r8d
    681d:	setne  r14b
    6821:	jmp    679b <intrapred_luma_16x16+0x26b>
    6826:	test   esi,esi
    6828:	mov    edi,r14d
    682b:	sete   r9b
    682f:	and    dil,r9b
    6832:	je     683f <intrapred_luma_16x16+0x30f>
    6834:	add    eax,0x8
    6837:	sar    eax,0x4
    683a:	jmp    6690 <intrapred_luma_16x16+0x160>
    683f:	movzx  edi,BYTE PTR [rsp+0x8]
    6844:	or     edx,r9d
    6847:	mov    eax,r8d
    684a:	or     edi,edx
    684c:	or     eax,esi
    684e:	jne    69d7 <intrapred_luma_16x16+0x4a7>
    6854:	mov    eax,DWORD PTR [r13+0x11be8]
    685b:	jmp    6690 <intrapred_luma_16x16+0x160>
    6860:	movsxd rax,DWORD PTR [rsp+0xc4]
    6868:	mov    r15,QWORD PTR [r10]
    686b:	xor    edi,edi
    686d:	xor    r8d,r8d
    6870:	lea    r12d,[rbp+0xf]
    6874:	lea    r11d,[rbp+0x7]
    6878:	lea    r14,[rbx+rax*8]
    687c:	movsxd rax,DWORD PTR [rsp+0xc0]
    6884:	movsxd r12,r12d
    6887:	lea    rsi,[rsp+0x198]
    688f:	add    r12,r12
    6892:	lea    rcx,[rsp+0x168]
    689a:	add    rax,rax
    689d:	mov    QWORD PTR [rsp+0x8],rax
    68a2:	mov    eax,0x1
    68a7:	jmp    6905 <intrapred_luma_16x16+0x3d5>
    68a9:	mov    r9d,r11d
    68ac:	lea    edx,[r11+rax*1]
    68b0:	sub    r9d,eax
    68b3:	movsxd rdx,edx
    68b6:	movsxd r9,r9d
    68b9:	movzx  edx,WORD PTR [r15+rdx*2]
    68be:	movzx  r9d,WORD PTR [r15+r9*2]
    68c3:	sub    edx,r9d
    68c6:	imul   edx,eax
    68c9:	add    r8d,edx
    68cc:	movsxd rdx,DWORD PTR [rsi+0x4]
    68d0:	movsxd r9,DWORD PTR [rsi]
    68d3:	sub    rcx,0x18
    68d7:	add    rsi,0x18
    68db:	movsxd r10,DWORD PTR [rcx+0x18]
    68df:	mov    rdx,QWORD PTR [rbx+rdx*8]
    68e3:	movzx  edx,WORD PTR [rdx+r9*2]
    68e8:	movsxd r9,DWORD PTR [rcx+0x1c]
    68ec:	mov    r9,QWORD PTR [rbx+r9*8]
    68f0:	movzx  r9d,WORD PTR [r9+r10*2]
    68f5:	sub    edx,r9d
    68f8:	imul   edx,eax
    68fb:	add    eax,0x1
    68fe:	add    edi,edx
    6900:	cmp    eax,0x9
    6903:	je     6925 <intrapred_luma_16x16+0x3f5>
    6905:	cmp    eax,0x8
    6908:	jne    68a9 <intrapred_luma_16x16+0x379>
    690a:	mov    r9,QWORD PTR [r14]
    690d:	mov    r10,QWORD PTR [rsp+0x8]
    6912:	movzx  edx,WORD PTR [r15+r12*1]
    6917:	movzx  r9d,WORD PTR [r9+r10*1]
    691c:	sub    edx,r9d
    691f:	lea    r8d,[r8+rdx*8]
    6923:	jmp    68cc <intrapred_luma_16x16+0x39c>
    6925:	lea    r10d,[rdi+rdi*4+0x20]
    692a:	lea    r8d,[r8+r8*4+0x20]
    692f:	xor    r11d,r11d
    6932:	movsxd rdx,DWORD PTR [rsp+0x240]
    693a:	sar    r10d,0x6
    693e:	sar    r8d,0x6
    6942:	mov    esi,DWORD PTR [r13+0x11bec]
    6949:	lea    rdi,[r13+0x18d8]
    6950:	lea    eax,[r10*8+0x0]
    6958:	mov    r9d,r10d
    695b:	add    r13,0x1ad8
    6962:	sub    r9d,eax
    6965:	movsxd rax,DWORD PTR [rsp+0x244]
    696d:	mov    rax,QWORD PTR [rbx+rax*8]
    6971:	movzx  eax,WORD PTR [rax+rdx*2]
    6975:	movzx  edx,WORD PTR [r15+rbp*2+0x1e]
    697b:	add    eax,edx
    697d:	lea    edx,[r8*8+0x0]
    6985:	shl    eax,0x4
    6988:	sub    edx,r8d
    698b:	sub    eax,edx
    698d:	lea    ebx,[rax+0x10]
    6990:	lea    edx,[rbx+r9*1]
    6994:	lea    rcx,[rdi-0x20]
    6998:	nop    DWORD PTR [rax+rax*1+0x0]
    69a0:	test   edx,edx
    69a2:	lea    eax,[rdx+0x1f]
    69a5:	cmovns eax,edx
    69a8:	sar    eax,0x5
    69ab:	cmp    eax,esi
    69ad:	cmovg  eax,esi
    69b0:	test   eax,eax
    69b2:	cmovs  eax,r11d
    69b6:	add    rcx,0x2
    69ba:	add    edx,r8d
    69bd:	mov    WORD PTR [rcx-0x2],ax
    69c1:	cmp    rdi,rcx
    69c4:	jne    69a0 <intrapred_luma_16x16+0x470>
    69c6:	add    rdi,0x20
    69ca:	add    r9d,r10d
    69cd:	cmp    r13,rdi
    69d0:	jne    6990 <intrapred_luma_16x16+0x460>
    69d2:	jmp    6748 <intrapred_luma_16x16+0x218>
    69d7:	xor    eax,eax
    69d9:	jmp    6690 <intrapred_luma_16x16+0x160>
    69de:	call   4390 <__stack_chk_fail@plt>
    69e3:	data16 nop WORD PTR cs:[rax+rax*1+0x0]
    69ee:	xchg   ax,ax

00000000000069f0 <dct_luma_16x16>:
    69f0:	endbr64 
    69f4:	push   r15
    69f6:	push   r14
    69f8:	push   r13
    69fa:	push   r12
    69fc:	push   rbp
    69fd:	push   rbx
    69fe:	sub    rsp,0x908
    6a05:	mov    r8,QWORD PTR [rip+0x81ba4]        # 885b0 <img>
    6a0c:	mov    rax,QWORD PTR fs:0x28
    6a15:	mov    QWORD PTR [rsp+0x8f8],rax
    6a1d:	xor    eax,eax
    6a1f:	mov    rax,QWORD PTR [r8+0x3740]
    6a26:	mov    edx,DWORD PTR [r8+0x11bdc]
    6a2d:	mov    rax,QWORD PTR [rax]
    6a30:	mov    rbx,QWORD PTR [rax]
    6a33:	mov    rax,QWORD PTR [rax+0x8]
    6a37:	mov    QWORD PTR [rsp+0x40],rax
    6a3c:	movsxd rax,DWORD PTR [r8+0xc]
    6a40:	mov    QWORD PTR [rsp+0x30],rbx
    6a45:	imul   rax,rax,0x278
    6a4c:	add    rax,QWORD PTR [r8+0x3758]
    6a53:	add    edx,DWORD PTR [rax+0xc]
    6a56:	mov    DWORD PTR [rsp+0x3c],edx
    6a5a:	jne    6a7a <dct_luma_16x16+0x8a>
    6a5c:	mov    r14d,DWORD PTR [r8+0x11c00]
    6a63:	cmp    r14d,0x1
    6a67:	je     763e <dct_luma_16x16+0xc4e>
    6a6d:	mov    BYTE PTR [rsp+0x8b],0x1
    6a75:	xor    r14d,r14d
    6a78:	jmp    6a85 <dct_luma_16x16+0x95>
    6a7a:	mov    BYTE PTR [rsp+0x8b],0x1
    6a82:	xor    r14d,r14d
    6a85:	movsxd rax,DWORD PTR [rsp+0x3c]
    6a8a:	movsxd rdi,edi
    6a8d:	lea    rbp,[rsp+0xf0]
    6a95:	mov    r11d,DWORD PTR [r8+0x11c14]
    6a9c:	shl    rdi,0x9
    6aa0:	mov    QWORD PTR [rsp+0x78],rbp
    6aa5:	mov    r12,QWORD PTR [rip+0xb091c]        # b73c8 <imgY_org>
    6aac:	xor    r13d,r13d
    6aaf:	mov    rbx,rax
    6ab2:	imul   rax,rax,0x2aaaaaab
    6ab9:	mov    QWORD PTR [rsp+0x80],rdi
    6ac1:	mov    edx,ebx
    6ac3:	sar    edx,0x1f
    6ac6:	shr    rax,0x20
    6aca:	mov    ecx,eax
    6acc:	sub    ecx,edx
    6ace:	lea    eax,[rcx+rcx*2]
    6ad1:	mov    DWORD PTR [rsp+0x18],ecx
    6ad5:	add    eax,eax
    6ad7:	sub    ebx,eax
    6ad9:	lea    eax,[rcx+0xf]
    6adc:	mov    DWORD PTR [rsp+0x38],eax
    6ae0:	mov    DWORD PTR [rsp+0x5c],ebx
    6ae4:	lea    rbx,[r8+rdi*1]
    6ae8:	nop    DWORD PTR [rax+rax*1+0x0]
    6af0:	mov    r9d,r13d
    6af3:	mov    r10,r13
    6af6:	mov    r15d,r13d
    6af9:	xor    eax,eax
    6afb:	sar    r9d,0x2
    6aff:	lea    rdi,[r13*4+0x0]
    6b07:	and    r10d,0x3
    6b0b:	movsxd r9,r9d
    6b0e:	jmp    6b6a <dct_luma_16x16+0x17a>
    6b10:	mov    esi,DWORD PTR [r8+0xac]
    6b17:	mov    ecx,DWORD PTR [r8+0xa8]
    6b1e:	add    esi,r15d
    6b21:	add    ecx,eax
    6b23:	movsxd rsi,esi
    6b26:	movsxd rcx,ecx
    6b29:	mov    rsi,QWORD PTR [r12+rsi*8]
    6b2d:	movzx  ecx,WORD PTR [rsi+rcx*2]
    6b31:	movzx  esi,WORD PTR [rbx+rax*2+0x12b8]
    6b39:	sub    ecx,esi
    6b3b:	mov    esi,edx
    6b3d:	and    edx,0x3
    6b40:	add    rax,0x1
    6b44:	mov    DWORD PTR [rdi+rbp*1],ecx
    6b47:	sar    esi,0x2
    6b4a:	add    rdi,0x40
    6b4e:	movsxd rsi,esi
    6b51:	lea    rdx,[rsi+rdx*4]
    6b55:	lea    rdx,[r10+rdx*4]
    6b59:	lea    rdx,[r9+rdx*4]
    6b5d:	mov    DWORD PTR [rsp+rdx*4+0x4f0],ecx
    6b64:	cmp    rax,0x10
    6b68:	je     6b80 <dct_luma_16x16+0x190>
    6b6a:	mov    edx,eax
    6b6c:	test   r11d,r11d
    6b6f:	je     6b10 <dct_luma_16x16+0x120>
    6b71:	mov    ecx,DWORD PTR [r8+rdi*1+0x3338]
    6b79:	jmp    6b3b <dct_luma_16x16+0x14b>
    6b7b:	nop    DWORD PTR [rax+rax*1+0x0]
    6b80:	add    r13,0x1
    6b84:	add    rbx,0x20
    6b88:	cmp    r13,0x10
    6b8c:	jne    6af0 <dct_luma_16x16+0x100>
    6b92:	cmp    BYTE PTR [rsp+0x8b],0x0
    6b9a:	je     6c90 <dct_luma_16x16+0x2a0>
    6ba0:	lea    rbx,[rsp+0x9f0]
    6ba8:	xor    ebp,ebp
    6baa:	lea    rsi,[rbx-0x100]
    6bb1:	lea    rdi,[rbx-0x4c0]
    6bb8:	lea    rax,[rsi-0x400]
    6bbf:	mov    rdx,rax
    6bc2:	mov    r9d,DWORD PTR [rdx+0x300]
    6bc9:	mov    ecx,DWORD PTR [rdx]
    6bcb:	add    rdx,0x10
    6bcf:	mov    r12d,DWORD PTR [rdx+0x1f0]
    6bd6:	lea    r10d,[rcx+r9*1]
    6bda:	sub    ecx,r9d
    6bdd:	mov    r9d,DWORD PTR [rdx+0xf0]
    6be4:	lea    r11d,[r9+r12*1]
    6be8:	sub    r9d,r12d
    6beb:	lea    r12d,[r10+r11*1]
    6bef:	sub    r10d,r11d
    6bf2:	mov    DWORD PTR [rdx+0x1f0],r10d
    6bf9:	lea    r10d,[r9+rcx*2]
    6bfd:	add    r9d,r9d
    6c00:	sub    ecx,r9d
    6c03:	mov    DWORD PTR [rdx-0x10],r12d
    6c07:	mov    DWORD PTR [rdx+0xf0],r10d
    6c0e:	mov    DWORD PTR [rdx+0x2f0],ecx
    6c14:	cmp    rdx,rdi
    6c17:	jne    6bc2 <dct_luma_16x16+0x1d2>
    6c19:	mov    ecx,DWORD PTR [rax+0x30]
    6c1c:	mov    edx,DWORD PTR [rax]
    6c1e:	add    rax,0x100
    6c24:	mov    r11d,DWORD PTR [rax-0xe0]
    6c2b:	lea    r9d,[rdx+rcx*1]
    6c2f:	sub    edx,ecx
    6c31:	mov    ecx,DWORD PTR [rax-0xf0]
    6c37:	lea    r10d,[rcx+r11*1]
    6c3b:	sub    ecx,r11d
    6c3e:	lea    r11d,[r9+r10*1]
    6c42:	sub    r9d,r10d
    6c45:	mov    DWORD PTR [rax-0xe0],r9d
    6c4c:	lea    r9d,[rcx+rdx*2]
    6c50:	add    ecx,ecx
    6c52:	sub    edx,ecx
    6c54:	mov    DWORD PTR [rax-0x100],r11d
    6c5b:	mov    DWORD PTR [rax-0xf0],r9d
    6c62:	mov    DWORD PTR [rax-0xd0],edx
    6c68:	cmp    rsi,rax
    6c6b:	jne    6c19 <dct_luma_16x16+0x229>
    6c6d:	add    rsi,0x40
    6c71:	add    rdi,0x40
    6c75:	cmp    rsi,rbx
    6c78:	jne    6bb8 <dct_luma_16x16+0x1c8>
    6c7e:	add    rbp,0x1
    6c82:	add    rbx,0x4
    6c86:	cmp    rbp,0x4
    6c8a:	jne    6baa <dct_luma_16x16+0x1ba>
    6c90:	lea    rbx,[rsp+0xb0]
    6c98:	lea    rax,[rsp+0x4f0]
    6ca0:	mov    QWORD PTR [rsp+0x60],rax
    6ca5:	lea    rsi,[rsp+0x500]
    6cad:	mov    rdx,rbx
    6cb0:	mov    QWORD PTR [rsp+0x50],rbx
    6cb5:	mov    ecx,DWORD PTR [rax]
    6cb7:	add    rax,0x4
    6cbb:	add    rdx,0x4
    6cbf:	mov    DWORD PTR [rdx-0x4],ecx
    6cc2:	mov    ecx,DWORD PTR [rax+0x3c]
    6cc5:	mov    DWORD PTR [rdx+0xc],ecx
    6cc8:	mov    ecx,DWORD PTR [rax+0x7c]
    6ccb:	mov    DWORD PTR [rdx+0x1c],ecx
    6cce:	mov    ecx,DWORD PTR [rax+0xbc]
    6cd4:	mov    DWORD PTR [rdx+0x2c],ecx
    6cd7:	cmp    rsi,rax
    6cda:	jne    6cb5 <dct_luma_16x16+0x2c5>
    6cdc:	mov    rax,QWORD PTR [rsp+0x50]
    6ce1:	cmp    BYTE PTR [rsp+0x8b],0x0
    6ce9:	lea    rdi,[rax+0x10]
    6ced:	je     6d79 <dct_luma_16x16+0x389>
    6cf3:	mov    ecx,DWORD PTR [rax+0x30]
    6cf6:	mov    edx,DWORD PTR [rax]
    6cf8:	add    rax,0x4
    6cfc:	mov    r10d,DWORD PTR [rax+0x1c]
    6d00:	lea    esi,[rdx+rcx*1]
    6d03:	sub    edx,ecx
    6d05:	mov    ecx,DWORD PTR [rax+0xc]
    6d08:	lea    r9d,[rcx+r10*1]
    6d0c:	sub    ecx,r10d
    6d0f:	lea    r10d,[rsi+r9*1]
    6d13:	sub    esi,r9d
    6d16:	mov    DWORD PTR [rax+0x1c],esi
    6d19:	lea    esi,[rdx+rcx*1]
    6d1c:	sub    edx,ecx
    6d1e:	mov    DWORD PTR [rax-0x4],r10d
    6d22:	mov    DWORD PTR [rax+0xc],esi
    6d25:	mov    DWORD PTR [rax+0x2c],edx
    6d28:	cmp    rax,rdi
    6d2b:	jne    6cf3 <dct_luma_16x16+0x303>
    6d2d:	mov    rax,QWORD PTR [rsp+0x50]
    6d32:	lea    rsi,[rax+0x40]
    6d36:	mov    edi,DWORD PTR [rax+0xc]
    6d39:	mov    edx,DWORD PTR [rax]
    6d3b:	add    rax,0x10
    6d3f:	mov    r9d,DWORD PTR [rax-0x8]
    6d43:	lea    ecx,[rdx+rdi*1]
    6d46:	sub    edx,edi
    6d48:	mov    edi,DWORD PTR [rax-0xc]
    6d4b:	lea    r10d,[rdi+r9*1]
    6d4f:	sub    edi,r9d
    6d52:	lea    r9d,[rcx+r10*1]
    6d56:	sub    ecx,r10d
    6d59:	sar    ecx,1
    6d5b:	sar    r9d,1
    6d5e:	mov    DWORD PTR [rax-0x8],ecx
    6d61:	lea    ecx,[rdx+rdi*1]
    6d64:	sub    edx,edi
    6d66:	sar    ecx,1
    6d68:	sar    edx,1
    6d6a:	mov    DWORD PTR [rax-0x10],r9d
    6d6e:	mov    DWORD PTR [rax-0xc],ecx
    6d71:	mov    DWORD PTR [rax-0x4],edx
    6d74:	cmp    rsi,rax
    6d77:	jne    6d36 <dct_luma_16x16+0x346>
    6d79:	movsxd rax,DWORD PTR [rsp+0x5c]
    6d7e:	lea    rcx,[rip+0xd1ebb]        # d8c40 <LevelScale4x4Luma_Intra>
    6d85:	lea    rbx,[rip+0x63c75]        # 6aa01 <FIELD_SCAN+0x1>
    6d8c:	mov    DWORD PTR [rsp+0x8],0x0
    6d94:	lea    rdx,[rip+0x63c86]        # 6aa21 <SNGL_SCAN+0x1>
    6d9b:	mov    r13,rbx
    6d9e:	mov    r15d,0xffffffff
    6da4:	shl    rax,0x6
    6da8:	mov    rbx,rdx
    6dab:	add    rax,rcx
    6dae:	mov    QWORD PTR [rsp+0x48],rax
    6db3:	jmp    6ec2 <dct_luma_16x16+0x4d2>
    6db8:	nop    DWORD PTR [rax+rax*1+0x0]
    6dc0:	mov    r11d,DWORD PTR [rip+0x9a049]        # a0e10 <mb_adaptive>
    6dc7:	test   r11d,r11d
    6dca:	je     6ddc <dct_luma_16x16+0x3ec>
    6dcc:	mov    r10d,DWORD PTR [r8+0x11948]
    6dd3:	test   r10d,r10d
    6dd6:	jne    6ed1 <dct_luma_16x16+0x4e1>
    6ddc:	movzx  r12d,BYTE PTR [rbx-0x1]
    6de1:	movzx  ebp,BYTE PTR [rbx]
    6de4:	lea    rax,[rbp+r12*4+0x0]
    6de9:	add    r15d,0x1
    6ded:	mov    esi,DWORD PTR [rsp+rax*4+0xb0]
    6df4:	mov    eax,esi
    6df6:	sar    eax,0x1f
    6df9:	mov    edi,eax
    6dfb:	xor    edi,esi
    6dfd:	sub    edi,eax
    6dff:	test   r14d,r14d
    6e02:	jne    6e2a <dct_luma_16x16+0x43a>
    6e04:	mov    rax,QWORD PTR [rsp+0x48]
    6e09:	lea    rcx,[rip+0xd4af0]        # db900 <LevelOffset4x4Luma_Intra>
    6e10:	imul   edi,DWORD PTR [rax]
    6e13:	movsxd rax,DWORD PTR [rsp+0x18]
    6e18:	mov    rdx,rax
    6e1b:	shl    rax,0x6
    6e1f:	mov    eax,DWORD PTR [rcx+rax*1]
    6e22:	lea    ecx,[rdx+0x10]
    6e25:	lea    edi,[rdi+rax*2]
    6e28:	sar    edi,cl
    6e2a:	mov    rax,QWORD PTR [rip+0x81787]        # 885b8 <input>
    6e31:	mov    r9d,DWORD PTR [rax+0x934]
    6e38:	test   r9d,r9d
    6e3b:	jne    6e50 <dct_luma_16x16+0x460>
    6e3d:	cmp    DWORD PTR [r8+0x28],0x9
    6e42:	jg     6e50 <dct_luma_16x16+0x460>
    6e44:	cmp    edi,0x80f
    6e4a:	jg     6ef7 <dct_luma_16x16+0x507>
    6e50:	test   edi,edi
    6e52:	je     6ea2 <dct_luma_16x16+0x4b2>
    6e54:	movsxd rcx,DWORD PTR [rsp+0x8]
    6e59:	mov    rdx,QWORD PTR [rsp+0x30]
    6e5e:	mov    DWORD PTR [rsp+0x1c],esi
    6e62:	mov    DWORD PTR [rsp+0x10],edi
    6e66:	lea    r8,[rdx+rcx*4]
    6e6a:	mov    QWORD PTR [rsp+0x28],rcx
    6e6f:	mov    QWORD PTR [rsp+0x20],r8
    6e74:	call   465a0 <sign>
    6e79:	mov    rdi,QWORD PTR [rsp+0x40]
    6e7e:	mov    r8,QWORD PTR [rsp+0x20]
    6e83:	mov    rcx,QWORD PTR [rsp+0x28]
    6e88:	add    DWORD PTR [rsp+0x8],0x1
    6e8d:	mov    DWORD PTR [r8],eax
    6e90:	mov    esi,DWORD PTR [rsp+0x1c]
    6e94:	mov    DWORD PTR [rdi+rcx*4],r15d
    6e98:	mov    edi,DWORD PTR [rsp+0x10]
    6e9c:	mov    r15d,0xffffffff
    6ea2:	test   r14d,r14d
    6ea5:	je     6ee0 <dct_luma_16x16+0x4f0>
    6ea7:	add    r13,0x2
    6eab:	lea    rax,[rip+0x63b6f]        # 6aa21 <SNGL_SCAN+0x1>
    6eb2:	add    rbx,0x2
    6eb6:	cmp    rax,r13
    6eb9:	je     6f01 <dct_luma_16x16+0x511>
    6ebb:	mov    r8,QWORD PTR [rip+0x816ee]        # 885b0 <img>
    6ec2:	mov    ebp,DWORD PTR [r8+0x11afc]
    6ec9:	test   ebp,ebp
    6ecb:	je     6dc0 <dct_luma_16x16+0x3d0>
    6ed1:	movzx  r12d,BYTE PTR [r13-0x1]
    6ed6:	movzx  ebp,BYTE PTR [r13+0x0]
    6edb:	jmp    6de4 <dct_luma_16x16+0x3f4>
    6ee0:	call   465a0 <sign>
    6ee5:	mov    r8d,eax
    6ee8:	lea    rax,[rbp+r12*4+0x0]
    6eed:	mov    DWORD PTR [rsp+rax*4+0xb0],r8d
    6ef5:	jmp    6ea7 <dct_luma_16x16+0x4b7>
    6ef7:	mov    edi,0x80f
    6efc:	jmp    6e54 <dct_luma_16x16+0x464>
    6f01:	movsxd rax,DWORD PTR [rsp+0x8]
    6f06:	mov    rbx,QWORD PTR [rsp+0x30]
    6f0b:	cmp    BYTE PTR [rsp+0x8b],0x0
    6f13:	mov    DWORD PTR [rbx+rax*4],0x0
    6f1a:	mov    rax,QWORD PTR [rsp+0x50]
    6f1f:	lea    r8,[rax+0x10]
    6f23:	je     709f <dct_luma_16x16+0x6af>
    6f29:	mov    edi,DWORD PTR [rax+0x20]
    6f2c:	mov    edx,DWORD PTR [rax]
    6f2e:	add    rax,0x4
    6f32:	mov    ecx,DWORD PTR [rax+0xc]
    6f35:	mov    r9d,DWORD PTR [rax+0x2c]
    6f39:	lea    esi,[rdx+rdi*1]
    6f3c:	sub    edx,edi
    6f3e:	mov    edi,ecx
    6f40:	add    ecx,r9d
    6f43:	sub    edi,r9d
    6f46:	lea    r9d,[rsi+rcx*1]
    6f4a:	sub    esi,ecx
    6f4c:	lea    ecx,[rdx+rdi*1]
    6f4f:	sub    edx,edi
    6f51:	mov    DWORD PTR [rax-0x4],r9d
    6f55:	mov    DWORD PTR [rax+0x2c],esi
    6f58:	mov    DWORD PTR [rax+0xc],ecx
    6f5b:	mov    DWORD PTR [rax+0x1c],edx
    6f5e:	cmp    r8,rax
    6f61:	jne    6f29 <dct_luma_16x16+0x539>
    6f63:	mov    edi,DWORD PTR [rsp+0x18]
    6f67:	mov    ecx,0x5
    6f6c:	mov    eax,0x1
    6f71:	lea    rdx,[rip+0xd1848]        # d87c0 <InvLevelScale4x4Luma_Intra>
    6f78:	mov    DWORD PTR [rsp+0x1c],r14d
    6f7d:	mov    r13d,0x6
    6f83:	mov    rbp,QWORD PTR [rsp+0x60]
    6f88:	lea    r9,[rsp+0xa0]
    6f90:	sub    ecx,edi
    6f92:	mov    r11d,DWORD PTR [rsp+0x3c]
    6f97:	lea    r12d,[rdi-0x6]
    6f9b:	sub    r13d,edi
    6f9e:	shl    eax,cl
    6fa0:	mov    r15d,eax
    6fa3:	movsxd rax,DWORD PTR [rsp+0x5c]
    6fa8:	shl    rax,0x6
    6fac:	mov    ebx,DWORD PTR [rdx+rax*1]
    6faf:	mov    rdx,QWORD PTR [rsp+0x50]
    6fb4:	lea    rax,[rdx+0x40]
    6fb8:	mov    QWORD PTR [rsp+0x8],rax
    6fbd:	lea    rax,[rsp+0xac]
    6fc5:	mov    QWORD PTR [rsp+0x10],rax
    6fca:	mov    esi,DWORD PTR [rdx+0x8]
    6fcd:	mov    eax,DWORD PTR [rdx]
    6fcf:	mov    r10,rbp
    6fd2:	mov    ecx,DWORD PTR [rdx+0x4]
    6fd5:	mov    edx,DWORD PTR [rdx+0xc]
    6fd8:	lea    edi,[rax+rsi*1]
    6fdb:	sub    eax,esi
    6fdd:	xor    esi,esi
    6fdf:	mov    DWORD PTR [rsp+0xa4],eax
    6fe6:	mov    eax,ecx
    6fe8:	sub    eax,edx
    6fea:	add    edx,ecx
    6fec:	mov    DWORD PTR [rsp+0xa0],edi
    6ff3:	mov    rdi,rbp
    6ff6:	mov    DWORD PTR [rsp+0xa8],eax
    6ffd:	mov    DWORD PTR [rsp+0xac],edx
    7004:	mov    eax,DWORD PTR [r9+rsi*1]
    7008:	lea    r14d,[rax+rdx*1]
    700c:	imul   r14d,ebx
    7010:	cmp    r11d,0x23
    7014:	jg     7060 <dct_luma_16x16+0x670>
    7016:	sub    eax,edx
    7018:	mov    ecx,r13d
    701b:	add    r14d,r15d
    701e:	imul   eax,ebx
    7021:	sar    r14d,cl
    7024:	mov    DWORD PTR [rdi],r14d
    7027:	add    eax,r15d
    702a:	sar    eax,cl
    702c:	mov    DWORD PTR [r10+0xc],eax
    7030:	add    rdi,0x4
    7034:	sub    r10,0x4
    7038:	lea    rax,[rsi+0x4]
    703c:	cmp    rsi,0x4
    7040:	jne    7080 <dct_luma_16x16+0x690>
    7042:	mov    rdx,r8
    7045:	add    rbp,0x40
    7049:	cmp    QWORD PTR [rsp+0x8],r8
    704e:	je     709a <dct_luma_16x16+0x6aa>
    7050:	add    r8,0x10
    7054:	jmp    6fca <dct_luma_16x16+0x5da>
    7059:	nop    DWORD PTR [rax+0x0]
    7060:	sub    eax,edx
    7062:	mov    ecx,r12d
    7065:	imul   eax,ebx
    7068:	shl    r14d,cl
    706b:	mov    DWORD PTR [rdi],r14d
    706e:	shl    eax,cl
    7070:	mov    DWORD PTR [r10+0xc],eax
    7074:	jmp    7030 <dct_luma_16x16+0x640>
    7076:	nop    WORD PTR cs:[rax+rax*1+0x0]
    7080:	mov    rcx,QWORD PTR [rsp+0x10]
    7085:	mov    rdx,0xfffffffffffffffc
    708c:	sub    rdx,rsi
    708f:	mov    rsi,rax
    7092:	mov    edx,DWORD PTR [rcx+rdx*1]
    7095:	jmp    7004 <dct_luma_16x16+0x614>
    709a:	mov    r14d,DWORD PTR [rsp+0x1c]
    709f:	mov    ecx,0x3
    70a4:	mov    eax,0x1
    70a9:	sub    ecx,DWORD PTR [rsp+0x18]
    70ad:	mov    QWORD PTR [rsp+0x68],0x0
    70b6:	shl    eax,cl
    70b8:	mov    DWORD PTR [rsp+0x40],0x0
    70c0:	mov    rcx,QWORD PTR [rip+0x814e9]        # 885b0 <img>
    70c7:	mov    DWORD PTR [rsp+0x58],eax
    70cb:	mov    rax,QWORD PTR [rsp+0x60]
    70d0:	mov    DWORD PTR [rsp+0x8],r14d
    70d5:	add    rax,0x400
    70db:	mov    QWORD PTR [rsp+0x70],rax
    70e0:	movsxd rax,DWORD PTR [rsp+0x5c]
    70e5:	shl    rax,0x2
    70e9:	mov    QWORD PTR [rsp+0x10],rax
    70ee:	mov    rbx,QWORD PTR [rsp+0x68]
    70f3:	mov    DWORD PTR [rsp+0x48],0x0
    70fb:	mov    eax,ebx
    70fd:	movsxd r14,ebx
    7100:	and    eax,0xfffffffe
    7103:	mov    r15,r14
    7106:	mov    DWORD PTR [rsp+0x5c],eax
    710a:	mov    eax,ebx
    710c:	and    eax,0x1
    710f:	add    eax,eax
    7111:	mov    DWORD PTR [rsp+0x60],eax
    7115:	mov    rax,QWORD PTR [rsp+0x70]
    711a:	mov    QWORD PTR [rsp+0x50],rax
    711f:	movsxd r13,DWORD PTR [rsp+0x48]
    7124:	mov    rsi,QWORD PTR [rcx+0x3738]
    712b:	mov    r9,r15
    712e:	lea    r14,[rip+0x638ee]        # 6aa23 <SNGL_SCAN+0x3>
    7135:	mov    r15,r14
    7138:	mov    DWORD PTR [rsp+0x1c],0x0
    7140:	lea    r12,[rip+0x638bc]        # 6aa03 <FIELD_SCAN+0x3>
    7147:	mov    edx,r13d
    714a:	mov    eax,r13d
    714d:	sar    edx,1
    714f:	add    edx,DWORD PTR [rsp+0x5c]
    7153:	and    eax,0x1
    7156:	add    eax,DWORD PTR [rsp+0x60]
    715a:	movsxd rdx,edx
    715d:	cdqe   
    715f:	mov    rdx,QWORD PTR [rsi+rdx*8]
    7163:	mov    rax,QWORD PTR [rdx+rax*8]
    7167:	mov    edx,0xffffffff
    716c:	mov    r14d,edx
    716f:	mov    rdi,QWORD PTR [rax]
    7172:	mov    rax,QWORD PTR [rax+0x8]
    7176:	mov    QWORD PTR [rsp+0x28],rdi
    717b:	mov    QWORD PTR [rsp+0x30],rax
    7180:	jmp    7238 <dct_luma_16x16+0x848>
    7185:	nop    DWORD PTR [rax]
    7188:	mov    edi,DWORD PTR [rip+0x99c82]        # a0e10 <mb_adaptive>
    718e:	test   edi,edi
    7190:	je     71a0 <dct_luma_16x16+0x7b0>
    7192:	mov    esi,DWORD PTR [rcx+0x11948]
    7198:	test   esi,esi
    719a:	jne    7248 <dct_luma_16x16+0x858>
    71a0:	movzx  ebx,BYTE PTR [r15-0x1]
    71a5:	movzx  ebp,BYTE PTR [r15]
    71a9:	lea    rax,[r13+rbx*4+0x0]
    71ae:	mov    edx,DWORD PTR [rsp+0x8]
    71b2:	add    r14d,0x1
    71b6:	lea    rax,[rbp+rax*4+0x0]
    71bb:	lea    rax,[r9+rax*4]
    71bf:	mov    esi,DWORD PTR [rsp+rax*4+0x4f0]
    71c6:	mov    eax,esi
    71c8:	sar    eax,0x1f
    71cb:	mov    edi,eax
    71cd:	xor    edi,esi
    71cf:	sub    edi,eax
    71d1:	test   edx,edx
    71d3:	je     7260 <dct_luma_16x16+0x870>
    71d9:	test   esi,esi
    71db:	je     7220 <dct_luma_16x16+0x830>
    71dd:	movsxd rbx,DWORD PTR [rsp+0x1c]
    71e2:	mov    rcx,QWORD PTR [rsp+0x28]
    71e7:	mov    QWORD PTR [rsp+0x20],r9
    71ec:	lea    rbp,[rcx+rbx*4]
    71f0:	call   465a0 <sign>
    71f5:	mov    rcx,QWORD PTR [rsp+0x30]
    71fa:	add    DWORD PTR [rsp+0x1c],0x1
    71ff:	mov    DWORD PTR [rsp+0x40],0xf
    7207:	mov    r9,QWORD PTR [rsp+0x20]
    720c:	mov    DWORD PTR [rbp+0x0],eax
    720f:	mov    DWORD PTR [rcx+rbx*4],r14d
    7213:	mov    rcx,QWORD PTR [rip+0x81396]        # 885b0 <img>
    721a:	mov    r14d,0xffffffff
    7220:	add    r12,0x2
    7224:	lea    rax,[rip+0x637f6]        # 6aa21 <SNGL_SCAN+0x1>
    722b:	add    r15,0x2
    722f:	cmp    rax,r12
    7232:	je     7320 <dct_luma_16x16+0x930>
    7238:	mov    r8d,DWORD PTR [rcx+0x11afc]
    723f:	test   r8d,r8d
    7242:	je     7188 <dct_luma_16x16+0x798>
    7248:	movzx  ebx,BYTE PTR [r12-0x1]
    724e:	movzx  ebp,BYTE PTR [r12]
    7253:	jmp    71a9 <dct_luma_16x16+0x7b9>
    7258:	nop    DWORD PTR [rax+rax*1+0x0]
    7260:	mov    rax,QWORD PTR [rsp+0x10]
    7265:	lea    rcx,[rip+0xd19d4]        # d8c40 <LevelScale4x4Luma_Intra>
    726c:	add    rax,rbx
    726f:	lea    rax,[rbp+rax*4+0x0]
    7274:	imul   edi,DWORD PTR [rcx+rax*4]
    7278:	movsxd rax,DWORD PTR [rsp+0x18]
    727d:	lea    rcx,[rip+0xd467c]        # db900 <LevelOffset4x4Luma_Intra>
    7284:	lea    rax,[rbx+rax*4]
    7288:	lea    rax,[rbp+rax*4+0x0]
    728d:	add    edi,DWORD PTR [rcx+rax*4]
    7290:	movzx  ecx,BYTE PTR [rsp+0x38]
    7295:	sar    edi,cl
    7297:	test   edi,edi
    7299:	jne    7650 <dct_luma_16x16+0xc60>
    729f:	mov    QWORD PTR [rsp+0x20],r9
    72a4:	call   465a0 <sign>
    72a9:	lea    rcx,[r13+rbx*4+0x0]
    72ae:	mov    r9,QWORD PTR [rsp+0x20]
    72b3:	add    rbx,QWORD PTR [rsp+0x10]
    72b8:	lea    rcx,[rbp+rcx*4+0x0]
    72bd:	cmp    DWORD PTR [rsp+0x3c],0x17
    72c2:	lea    rdi,[rbp+rbx*4+0x0]
    72c7:	lea    rsi,[r9+rcx*4]
    72cb:	lea    rcx,[rip+0xd14ee]        # d87c0 <InvLevelScale4x4Luma_Intra>
    72d2:	jg     7300 <dct_luma_16x16+0x910>
    72d4:	imul   eax,DWORD PTR [rcx+rdi*4]
    72d8:	mov    ecx,0x4
    72dd:	add    eax,DWORD PTR [rsp+0x58]
    72e1:	sub    ecx,DWORD PTR [rsp+0x18]
    72e5:	sar    eax,cl
    72e7:	mov    rcx,QWORD PTR [rip+0x812c2]        # 885b0 <img>
    72ee:	mov    DWORD PTR [rsp+rsi*4+0x4f0],eax
    72f5:	jmp    7220 <dct_luma_16x16+0x830>
    72fa:	nop    WORD PTR [rax+rax*1+0x0]
    7300:	imul   eax,DWORD PTR [rcx+rdi*4]
    7304:	mov    ebx,DWORD PTR [rsp+0x18]
    7308:	lea    ecx,[rbx-0x4]
    730b:	shl    eax,cl
    730d:	mov    rcx,QWORD PTR [rip+0x8129c]        # 885b0 <img>
    7314:	mov    DWORD PTR [rsp+rsi*4+0x4f0],eax
    731b:	jmp    7220 <dct_luma_16x16+0x830>
    7320:	movsxd r13,DWORD PTR [rsp+0x1c]
    7325:	mov    rax,QWORD PTR [rsp+0x28]
    732a:	mov    r15,r9
    732d:	cmp    BYTE PTR [rsp+0x8b],0x0
    7335:	mov    DWORD PTR [rax+r13*4],0x0
    733d:	je     7419 <dct_luma_16x16+0xa29>
    7343:	mov    rbx,QWORD PTR [rsp+0x50]
    7348:	lea    rax,[rbx-0x400]
    734f:	lea    r11,[rbx-0x3c0]
    7356:	mov    rdx,rax
    7359:	nop    DWORD PTR [rax+0x0]
    7360:	mov    r9d,DWORD PTR [rdx+0x100]
    7367:	mov    esi,DWORD PTR [rdx]
    7369:	add    rdx,0x10
    736d:	mov    r8d,DWORD PTR [rdx+0x1f0]
    7374:	mov    edi,DWORD PTR [rdx+0x2f0]
    737a:	lea    r10d,[rsi+r8*1]
    737e:	sub    esi,r8d
    7381:	mov    r8d,r9d
    7384:	sar    r8d,1
    7387:	sub    r8d,edi
    738a:	sar    edi,1
    738c:	add    edi,r9d
    738f:	lea    r9d,[r10+rdi*1]
    7393:	sub    r10d,edi
    7396:	lea    edi,[rsi+r8*1]
    739a:	sub    esi,r8d
    739d:	mov    DWORD PTR [rdx-0x10],r9d
    73a1:	mov    DWORD PTR [rdx+0x2f0],r10d
    73a8:	mov    DWORD PTR [rdx+0xf0],edi
    73ae:	mov    DWORD PTR [rdx+0x1f0],esi
    73b4:	cmp    r11,rdx
    73b7:	jne    7360 <dct_luma_16x16+0x970>
    73b9:	mov    r10,QWORD PTR [rsp+0x50]
    73be:	mov    r9d,DWORD PTR [rax+0x10]
    73c2:	mov    edi,DWORD PTR [rax+0x20]
    73c5:	add    rax,0x100
    73cb:	mov    edx,DWORD PTR [rax-0x100]
    73d1:	mov    esi,DWORD PTR [rax-0xd0]
    73d7:	lea    r8d,[rdx+rdi*1]
    73db:	sub    edx,edi
    73dd:	mov    edi,r9d
    73e0:	sar    edi,1
    73e2:	sub    edi,esi
    73e4:	sar    esi,1
    73e6:	add    esi,r9d
    73e9:	lea    r9d,[r8+rsi*1]
    73ed:	sub    r8d,esi
    73f0:	lea    esi,[rdx+rdi*1]
    73f3:	sub    edx,edi
    73f5:	mov    DWORD PTR [rax-0x100],r9d
    73fc:	mov    DWORD PTR [rax-0xd0],r8d
    7403:	mov    DWORD PTR [rax-0xf0],esi
    7409:	mov    DWORD PTR [rax-0xe0],edx
    740f:	cmp    r10,rax
    7412:	jne    73be <dct_luma_16x16+0x9ce>
    7414:	mov    QWORD PTR [rsp+0x50],r10
    7419:	add    DWORD PTR [rsp+0x48],0x1
    741e:	mov    eax,DWORD PTR [rsp+0x48]
    7422:	add    QWORD PTR [rsp+0x50],0x40
    7428:	cmp    eax,0x4
    742b:	jne    711f <dct_luma_16x16+0x72f>
    7431:	add    QWORD PTR [rsp+0x68],0x1
    7437:	mov    rax,QWORD PTR [rsp+0x68]
    743c:	add    QWORD PTR [rsp+0x70],0x4
    7442:	cmp    rax,0x4
    7446:	jne    70ee <dct_luma_16x16+0x6fe>
    744c:	mov    eax,DWORD PTR [rcx+0x11c14]
    7452:	mov    r14d,DWORD PTR [rsp+0x8]
    7457:	test   eax,eax
    7459:	jne    75c8 <dct_luma_16x16+0xbd8>
    745f:	mov    r10,QWORD PTR [rsp+0x78]
    7464:	xor    r9d,r9d
    7467:	mov    r12,r10
    746a:	nop    WORD PTR [rax+rax*1+0x0]
    7470:	mov    edi,r9d
    7473:	mov    r8d,r9d
    7476:	mov    rsi,r10
    7479:	xor    eax,eax
    747b:	sar    edi,0x2
    747e:	and    r8d,0x3
    7482:	movsxd rdi,edi
    7485:	nop    DWORD PTR [rax]
    7488:	mov    edx,eax
    748a:	mov    r11d,eax
    748d:	add    eax,0x1
    7490:	add    rsi,0x40
    7494:	sar    edx,0x2
    7497:	and    r11d,0x3
    749b:	movsxd rdx,edx
    749e:	lea    rdx,[rdx+r11*4]
    74a2:	lea    rdx,[r8+rdx*4]
    74a6:	lea    rdx,[rdi+rdx*4]
    74aa:	mov    edx,DWORD PTR [rsp+rdx*4+0x4f0]
    74b1:	mov    DWORD PTR [rsi-0x40],edx
    74b4:	cmp    eax,0x10
    74b7:	jne    7488 <dct_luma_16x16+0xa98>
    74b9:	add    r9d,0x1
    74bd:	add    r10,0x4
    74c1:	cmp    r9d,0x10
    74c5:	jne    7470 <dct_luma_16x16+0xa80>
    74c7:	mov    rax,QWORD PTR [rip+0x834da]        # 8a9a8 <enc_picture>
    74ce:	mov    r15,QWORD PTR [rsp+0x78]
    74d3:	xor    ebx,ebx
    74d5:	xor    ebp,ebp
    74d7:	movsxd rdx,DWORD PTR [rcx+0x9c]
    74de:	mov    r8,QWORD PTR [rsp+0x80]
    74e6:	mov    rax,QWORD PTR [rax+0x1918]
    74ed:	add    r15,0x40
    74f1:	add    r8,rcx
    74f4:	lea    r13,[rax+rdx*8]
    74f8:	movsxd rax,DWORD PTR [rcx+0x98]
    74ff:	add    rax,rax
    7502:	mov    QWORD PTR [rsp+0x8],rax
    7507:	nop    WORD PTR [rax+rax*1+0x0]
    7510:	mov    r9,QWORD PTR [rsp+0x8]
    7515:	mov    rdx,r12
    7518:	add    r9,QWORD PTR [r13+0x0]
    751c:	xor    eax,eax
    751e:	jmp    7535 <dct_luma_16x16+0xb45>
    7520:	add    esi,edi
    7522:	add    rdx,0x40
    7526:	mov    WORD PTR [r9+rax*1],si
    752b:	add    rax,0x2
    752f:	cmp    rax,0x20
    7533:	je     7586 <dct_luma_16x16+0xb96>
    7535:	movzx  esi,WORD PTR [r8+rax*1+0x12b8]
    753e:	movsxd rdi,DWORD PTR [rdx]
    7541:	test   r14d,r14d
    7544:	jne    7520 <dct_luma_16x16+0xb30>
    7546:	shl    rsi,0x6
    754a:	mov    r10d,DWORD PTR [rcx+0x11bec]
    7551:	mov    r11,rbx
    7554:	lea    rsi,[rsi+rdi*1+0x20]
    7559:	sar    rsi,0x6
    755d:	movsxd rdi,r10d
    7560:	cmovns r11,rsi
    7564:	cmp    rdi,r11
    7567:	jl     7573 <dct_luma_16x16+0xb83>
    7569:	test   rsi,rsi
    756c:	mov    r10d,esi
    756f:	cmovs  r10d,ebp
    7573:	mov    WORD PTR [r9+rax*1],r10w
    7578:	add    rax,0x2
    757c:	add    rdx,0x40
    7580:	cmp    rax,0x20
    7584:	jne    7535 <dct_luma_16x16+0xb45>
    7586:	add    r12,0x4
    758a:	add    r13,0x8
    758e:	add    r8,0x20
    7592:	cmp    r15,r12
    7595:	jne    7510 <dct_luma_16x16+0xb20>
    759b:	mov    rax,QWORD PTR [rsp+0x8f8]
    75a3:	xor    rax,QWORD PTR fs:0x28
    75ac:	jne    764b <dct_luma_16x16+0xc5b>
    75b2:	mov    eax,DWORD PTR [rsp+0x40]
    75b6:	add    rsp,0x908
    75bd:	pop    rbx
    75be:	pop    rbp
    75bf:	pop    r12
    75c1:	pop    r13
    75c3:	pop    r14
    75c5:	pop    r15
    75c7:	ret    
    75c8:	add    rcx,0x3338
    75cf:	xor    r10d,r10d
    75d2:	nop    WORD PTR [rax+rax*1+0x0]
    75d8:	mov    r8d,r10d
    75db:	mov    r9d,r10d
    75de:	mov    rdi,rcx
    75e1:	xor    eax,eax
    75e3:	sar    r8d,0x2
    75e7:	and    r9d,0x3
    75eb:	movsxd r8,r8d
    75ee:	xchg   ax,ax
    75f0:	mov    edx,eax
    75f2:	mov    esi,eax
    75f4:	sar    edx,0x2
    75f7:	and    esi,0x3
    75fa:	movsxd rdx,edx
    75fd:	lea    rdx,[rdx+rsi*4]
    7601:	lea    rdx,[r9+rdx*4]
    7605:	lea    rdx,[r8+rdx*4]
    7609:	mov    edx,DWORD PTR [rsp+rdx*4+0x4f0]
    7610:	lea    esi,[rdx+0x20]
    7613:	sar    esi,0x6
    7616:	test   r14d,r14d
    7619:	cmove  edx,esi
    761c:	add    eax,0x1
    761f:	add    rdi,0x40
    7623:	mov    DWORD PTR [rdi-0x40],edx
    7626:	cmp    eax,0x10
    7629:	jne    75f0 <dct_luma_16x16+0xc00>
    762b:	add    r10d,0x1
    762f:	add    rcx,0x4
    7633:	cmp    r10d,0x10
    7637:	jne    75d8 <dct_luma_16x16+0xbe8>
    7639:	jmp    759b <dct_luma_16x16+0xbab>
    763e:	mov    BYTE PTR [rsp+0x8b],0x0
    7646:	jmp    6a85 <dct_luma_16x16+0x95>
    764b:	call   4390 <__stack_chk_fail@plt>
    7650:	movsxd rcx,DWORD PTR [rsp+0x1c]
    7655:	mov    rdx,QWORD PTR [rsp+0x28]
    765a:	mov    DWORD PTR [rsp+0x20],edi
    765e:	mov    QWORD PTR [rsp+0x98],r9
    7666:	lea    r10,[rdx+rcx*4]
    766a:	mov    QWORD PTR [rsp+0x90],rcx
    7672:	mov    QWORD PTR [rsp+0x40],r10
    7677:	mov    DWORD PTR [rsp+0x8c],esi
    767e:	call   465a0 <sign>
    7683:	mov    r10,QWORD PTR [rsp+0x40]
    7688:	mov    rdi,QWORD PTR [rsp+0x30]
    768d:	mov    DWORD PTR [rsp+0x40],0xf
    7695:	mov    rcx,QWORD PTR [rsp+0x90]
    769d:	add    DWORD PTR [rsp+0x1c],0x1
    76a2:	mov    DWORD PTR [r10],eax
    76a5:	mov    esi,DWORD PTR [rsp+0x8c]
    76ac:	mov    DWORD PTR [rdi+rcx*4],r14d
    76b0:	mov    r9,QWORD PTR [rsp+0x98]
    76b8:	or     r14d,0xffffffff
    76bc:	mov    edi,DWORD PTR [rsp+0x20]
    76c0:	jmp    729f <dct_luma_16x16+0x8af>
    76c5:	data16 nop WORD PTR cs:[rax+rax*1+0x0]

00000000000076d0 <dct_luma>:
    76d0:	endbr64 
    76d4:	push   r15
    76d6:	lea    r8d,[rdi+0x3]
    76da:	mov    r9d,esi
    76dd:	mov    r11,rdx
    76e0:	push   r14
    76e2:	push   r13
    76e4:	push   r12
    76e6:	push   rbp
    76e7:	push   rbx
    76e8:	sub    rsp,0x98
    76ef:	mov    DWORD PTR [rsp+0x6c],edi
    76f3:	mov    DWORD PTR [rsp+0x50],esi
    76f7:	mov    DWORD PTR [rsp+0x48],ecx
    76fb:	mov    rax,QWORD PTR fs:0x28
    7704:	mov    QWORD PTR [rsp+0x88],rax
    770c:	xor    eax,eax
    770e:	test   edi,edi
    7710:	lea    eax,[rsi+0x3]
    7713:	cmovns r8d,edi
    7717:	mov    DWORD PTR [rsp+0x60],eax
    771b:	mov    ecx,r8d
    771e:	sar    ecx,0x2
    7721:	test   esi,esi
    7723:	cmovs  r9d,eax
    7727:	mov    rax,QWORD PTR [rip+0x80e82]        # 885b0 <img>
    772e:	mov    esi,r9d
    7731:	mov    edx,r9d
    7734:	shr    r9d,0x1f
    7738:	sar    esi,0x2
    773b:	shr    edx,0x1f
    773e:	add    edx,esi
    7740:	add    esi,r9d
    7743:	and    edx,0xfffffffe
    7746:	and    esi,0x1
    7749:	mov    edi,edx
    774b:	mov    edx,r8d
    774e:	shr    r8d,0x1f
    7752:	sub    esi,r9d
    7755:	shr    edx,0x1f
    7758:	add    edx,ecx
    775a:	add    ecx,r8d
    775d:	sar    edx,1
    775f:	and    ecx,0x1
    7762:	add    edx,edi
    7764:	mov    rdi,QWORD PTR [rax+0x3738]
    776b:	sub    ecx,r8d
    776e:	movsxd rdx,edx
    7771:	lea    ecx,[rcx+rsi*2]
    7774:	mov    rdx,QWORD PTR [rdi+rdx*8]
    7778:	movsxd rcx,ecx
    777b:	mov    rdx,QWORD PTR [rdx+rcx*8]
    777f:	mov    rbx,QWORD PTR [rdx]
    7782:	mov    QWORD PTR [rsp+0x38],rbx
    7787:	mov    rbx,QWORD PTR [rdx+0x8]
    778b:	movsxd rdx,DWORD PTR [rax+0xc]
    778f:	mov    QWORD PTR [rsp+0x40],rbx
    7794:	imul   rdx,rdx,0x278
    779b:	add    rdx,QWORD PTR [rax+0x3758]
    77a2:	mov    rbx,rdx
    77a5:	mov    QWORD PTR [rsp+0x58],rdx
    77aa:	mov    edx,DWORD PTR [rax+0x11bdc]
    77b0:	add    edx,DWORD PTR [rbx+0xc]
    77b3:	mov    ebx,edx
    77b5:	mov    DWORD PTR [rsp+0x54],edx
    77b9:	movsxd rdx,edx
    77bc:	imul   rdx,rdx,0x2aaaaaab
    77c3:	mov    ecx,ebx
    77c5:	mov    ebp,ebx
    77c7:	sar    ecx,0x1f
    77ca:	shr    rdx,0x20
    77ce:	mov    esi,edx
    77d0:	sub    esi,ecx
    77d2:	lea    edx,[rsi+0xf]
    77d5:	mov    DWORD PTR [rsp+0x2c],esi
    77d9:	mov    DWORD PTR [rsp+0x4c],edx
    77dd:	lea    edx,[rsi+rsi*2]
    77e0:	add    edx,edx
    77e2:	sub    ebp,edx
    77e4:	test   ebx,ebx
    77e6:	jne    77fc <dct_luma+0x12c>
    77e8:	mov    ebx,DWORD PTR [rax+0x11c00]
    77ee:	mov    BYTE PTR [rsp+0x6b],0x0
    77f3:	cmp    ebx,0x1
    77f6:	je     789a <dct_luma+0x1ca>
    77fc:	lea    rdx,[rax+0x3338]
    7803:	lea    r10,[rax+0x3348]
    780a:	mov    rcx,rdx
    780d:	mov    edi,DWORD PTR [rcx+0xc0]
    7813:	mov    esi,DWORD PTR [rcx]
    7815:	add    rcx,0x4
    7819:	mov    ebx,DWORD PTR [rcx+0x7c]
    781c:	lea    r8d,[rsi+rdi*1]
    7820:	sub    esi,edi
    7822:	mov    edi,DWORD PTR [rcx+0x3c]
    7825:	lea    r9d,[rdi+rbx*1]
    7829:	sub    edi,ebx
    782b:	lea    ebx,[r8+r9*1]
    782f:	sub    r8d,r9d
    7832:	mov    DWORD PTR [rcx+0x7c],r8d
    7836:	lea    r8d,[rdi+rsi*2]
    783a:	add    edi,edi
    783c:	sub    esi,edi
    783e:	mov    DWORD PTR [rcx-0x4],ebx
    7841:	mov    DWORD PTR [rcx+0x3c],r8d
    7845:	mov    DWORD PTR [rcx+0xbc],esi
    784b:	cmp    rcx,r10
    784e:	jne    780d <dct_luma+0x13d>
    7850:	lea    r9,[rax+0x3438]
    7857:	mov    esi,DWORD PTR [rdx+0xc]
    785a:	mov    ecx,DWORD PTR [rdx]
    785c:	add    rdx,0x40
    7860:	mov    r10d,DWORD PTR [rdx-0x38]
    7864:	lea    edi,[rcx+rsi*1]
    7867:	sub    ecx,esi
    7869:	mov    esi,DWORD PTR [rdx-0x3c]
    786c:	lea    r8d,[rsi+r10*1]
    7870:	sub    esi,r10d
    7873:	lea    r10d,[rdi+r8*1]
    7877:	sub    edi,r8d
    787a:	mov    DWORD PTR [rdx-0x38],edi
    787d:	lea    edi,[rsi+rcx*2]
    7880:	add    esi,esi
    7882:	sub    ecx,esi
    7884:	mov    DWORD PTR [rdx-0x40],r10d
    7888:	mov    DWORD PTR [rdx-0x3c],edi
    788b:	mov    DWORD PTR [rdx-0x34],ecx
    788e:	cmp    rdx,r9
    7891:	jne    7857 <dct_luma+0x187>
    7893:	mov    BYTE PTR [rsp+0x6b],0x1
    7898:	xor    ebx,ebx
    789a:	mov    ecx,0x3
    789f:	mov    edx,0x1
    78a4:	sub    ecx,DWORD PTR [rsp+0x2c]
    78a8:	xor    edi,edi
    78aa:	movsxd rbp,ebp
    78ad:	shl    edx,cl
    78af:	xor    r12d,r12d
    78b2:	mov    r14d,0xffffffff
    78b8:	lea    r8,[rip+0x63142]        # 6aa01 <FIELD_SCAN+0x1>
    78bf:	lea    rsi,[rbp*4+0x0]
    78c7:	mov    DWORD PTR [rsp+0x64],edx
    78cb:	mov    r9d,r12d
    78ce:	mov    edx,r14d
    78d1:	mov    r12d,ebx
    78d4:	mov    QWORD PTR [rsp+0x30],rsi
    78d9:	mov    r14,r8
    78dc:	lea    r10,[rip+0x6313e]        # 6aa21 <SNGL_SCAN+0x1>
    78e3:	mov    ebx,edi
    78e5:	jmp    79fe <dct_luma+0x32e>
    78ea:	nop    WORD PTR [rax+rax*1+0x0]
    78f0:	mov    esi,DWORD PTR [rax+0x11ad0]
    78f6:	test   esi,esi
    78f8:	je     790d <dct_luma+0x23d>
    78fa:	mov    rsi,QWORD PTR [rsp+0x58]
    78ff:	mov    ecx,DWORD PTR [rsi+0x214]
    7905:	test   ecx,ecx
    7907:	jne    7a0c <dct_luma+0x33c>
    790d:	movzx  r13d,BYTE PTR [r10-0x1]
    7912:	movzx  r15d,BYTE PTR [r10]
    7916:	mov    rcx,r13
    7919:	add    edx,0x1
    791c:	shl    rcx,0x4
    7920:	add    rcx,r15
    7923:	lea    rsi,[rax+rcx*4]
    7927:	mov    ecx,DWORD PTR [rsi+0x3338]
    792d:	mov    edi,ecx
    792f:	sar    edi,0x1f
    7932:	mov    ebp,edi
    7934:	xor    ebp,ecx
    7936:	sub    ebp,edi
    7938:	test   r12d,r12d
    793b:	je     7a20 <dct_luma+0x350>
    7941:	test   ecx,ecx
    7943:	je     79e6 <dct_luma+0x316>
    7949:	mov    eax,DWORD PTR [r11]
    794c:	add    eax,0xf423f
    7951:	mov    DWORD PTR [r11],eax
    7954:	mov    rax,QWORD PTR [rsp+0x38]
    7959:	movsxd rcx,ebx
    795c:	mov    edi,ebp
    795e:	mov    esi,DWORD PTR [rsi+0x3338]
    7964:	mov    QWORD PTR [rsp+0x20],r10
    7969:	add    ebx,0x1
    796c:	lea    r9,[rax+rcx*4]
    7970:	mov    QWORD PTR [rsp+0x18],r11
    7975:	mov    DWORD PTR [rsp+0x28],edx
    7979:	mov    QWORD PTR [rsp+0x10],rcx
    797e:	mov    QWORD PTR [rsp+0x8],r9
    7983:	call   465a0 <sign>
    7988:	mov    r9,QWORD PTR [rsp+0x8]
    798d:	mov    edx,DWORD PTR [rsp+0x28]
    7991:	mov    edi,ebp
    7993:	mov    rcx,QWORD PTR [rsp+0x10]
    7998:	mov    DWORD PTR [r9],eax
    799b:	mov    rax,QWORD PTR [rsp+0x40]
    79a0:	mov    DWORD PTR [rax+rcx*4],edx
    79a3:	mov    rax,r13
    79a6:	shl    rax,0x4
    79aa:	lea    rdx,[rax+r15*1+0xccc]
    79b2:	mov    rax,QWORD PTR [rip+0x80bf7]        # 885b0 <img>
    79b9:	mov    esi,DWORD PTR [rax+rdx*4+0x8]
    79bd:	call   465a0 <sign>
    79c2:	test   r12d,r12d
    79c5:	mov    r11,QWORD PTR [rsp+0x18]
    79ca:	mov    r10,QWORD PTR [rsp+0x20]
    79cf:	mov    ebp,eax
    79d1:	mov    rax,QWORD PTR [rip+0x80bd8]        # 885b0 <img>
    79d8:	je     7aa0 <dct_luma+0x3d0>
    79de:	mov    r9d,r12d
    79e1:	mov    edx,0xffffffff
    79e6:	add    r14,0x2
    79ea:	lea    rsi,[rip+0x63030]        # 6aa21 <SNGL_SCAN+0x1>
    79f1:	add    r10,0x2
    79f5:	cmp    r14,rsi
    79f8:	je     7b80 <dct_luma+0x4b0>
    79fe:	mov    edi,DWORD PTR [rax+0x11afc]
    7a04:	test   edi,edi
    7a06:	je     78f0 <dct_luma+0x220>
    7a0c:	movzx  r13d,BYTE PTR [r14-0x1]
    7a11:	movzx  r15d,BYTE PTR [r14]
    7a15:	jmp    7916 <dct_luma+0x246>
    7a1a:	nop    WORD PTR [rax+rax*1+0x0]
    7a20:	mov    rdi,QWORD PTR [rsp+0x30]
    7a25:	cmp    DWORD PTR [rsp+0x48],0x1
    7a2a:	lea    rcx,[rdi+r13*1]
    7a2e:	lea    rdi,[r15+rcx*4]
    7a32:	je     7b00 <dct_luma+0x430>
    7a38:	lea    rcx,[rip+0xd1981]        # d93c0 <LevelScale4x4Luma_Inter>
    7a3f:	imul   ebp,DWORD PTR [rcx+rdi*4]
    7a43:	movsxd rcx,DWORD PTR [rsp+0x2c]
    7a48:	lea    rcx,[r13+rcx*4+0x0]
    7a4d:	lea    rdi,[r15+rcx*4]
    7a51:	lea    rcx,[rip+0xd22a8]        # d9d00 <LevelOffset4x4Luma_Inter>
    7a58:	add    ebp,DWORD PTR [rcx+rdi*4]
    7a5b:	movzx  ecx,BYTE PTR [rsp+0x4c]
    7a60:	sar    ebp,cl
    7a62:	test   ebp,ebp
    7a64:	je     7aeb <dct_luma+0x41b>
    7a6a:	mov    eax,DWORD PTR [r11]
    7a6d:	cmp    ebp,0x1
    7a70:	jg     794c <dct_luma+0x27c>
    7a76:	mov    rcx,QWORD PTR [rip+0x80b3b]        # 885b8 <input>
    7a7d:	lea    r9,[rip+0x62f5c]        # 6a9e0 <COEFF_COST>
    7a84:	movsxd rdi,edx
    7a87:	movsxd rcx,DWORD PTR [rcx+0x9a4]
    7a8e:	shl    rcx,0x4
    7a92:	add    rcx,r9
    7a95:	movzx  ecx,BYTE PTR [rcx+rdi*1]
    7a99:	add    eax,ecx
    7a9b:	jmp    7951 <dct_luma+0x281>
    7aa0:	cmp    DWORD PTR [rsp+0x54],0x17
    7aa5:	jg     7b30 <dct_luma+0x460>
    7aab:	mov    rsi,QWORD PTR [rsp+0x30]
    7ab0:	mov    ecx,0x4
    7ab5:	sub    ecx,DWORD PTR [rsp+0x2c]
    7ab9:	cmp    DWORD PTR [rsp+0x48],0x1
    7abe:	lea    rdx,[rsi+r13*1]
    7ac2:	lea    rsi,[rip+0xd0cf7]        # d87c0 <InvLevelScale4x4Luma_Intra>
    7ac9:	lea    rdx,[r15+rdx*4]
    7acd:	je     7ad6 <dct_luma+0x406>
    7acf:	lea    rsi,[rip+0xcfa6a]        # d7540 <InvLevelScale4x4Luma_Inter>
    7ad6:	imul   ebp,DWORD PTR [rsi+rdx*4]
    7ada:	add    ebp,DWORD PTR [rsp+0x64]
    7ade:	mov    r9d,0x1
    7ae4:	mov    edx,0xffffffff
    7ae9:	sar    ebp,cl
    7aeb:	shl    r13,0x4
    7aef:	lea    rcx,[r13+r15*1+0xccc]
    7af7:	mov    DWORD PTR [rax+rcx*4+0x8],ebp
    7afb:	jmp    79e6 <dct_luma+0x316>
    7b00:	lea    rcx,[rip+0xd1139]        # d8c40 <LevelScale4x4Luma_Intra>
    7b07:	imul   ebp,DWORD PTR [rcx+rdi*4]
    7b0b:	movsxd rcx,DWORD PTR [rsp+0x2c]
    7b10:	lea    rcx,[r13+rcx*4+0x0]
    7b15:	lea    rdi,[r15+rcx*4]
    7b19:	lea    rcx,[rip+0xd3de0]        # db900 <LevelOffset4x4Luma_Intra>
    7b20:	add    ebp,DWORD PTR [rcx+rdi*4]
    7b23:	movzx  ecx,BYTE PTR [rsp+0x4c]
    7b28:	sar    ebp,cl
    7b2a:	jmp    7a62 <dct_luma+0x392>
    7b2f:	nop
    7b30:	mov    esi,DWORD PTR [rsp+0x2c]
    7b34:	cmp    DWORD PTR [rsp+0x48],0x1
    7b39:	lea    ecx,[rsi-0x4]
    7b3c:	mov    rsi,QWORD PTR [rsp+0x30]
    7b41:	lea    rdx,[rsi+r13*1]
    7b45:	lea    rdx,[r15+rdx*4]
    7b49:	je     7e60 <dct_luma+0x790>
    7b4f:	lea    rsi,[rip+0xcf9ea]        # d7540 <InvLevelScale4x4Luma_Inter>
    7b56:	shl    r13,0x4
    7b5a:	mov    r9d,0x1
    7b60:	imul   ebp,DWORD PTR [rsi+rdx*4]
    7b64:	mov    edx,0xffffffff
    7b69:	shl    ebp,cl
    7b6b:	lea    rcx,[r13+r15*1+0xccc]
    7b73:	mov    DWORD PTR [rax+rcx*4+0x8],ebp
    7b77:	jmp    79e6 <dct_luma+0x316>
    7b7c:	nop    DWORD PTR [rax+0x0]
    7b80:	mov    rsi,QWORD PTR [rsp+0x38]
    7b85:	movsxd r13,ebx
    7b88:	cmp    BYTE PTR [rsp+0x6b],0x0
    7b8d:	mov    ebx,r12d
    7b90:	mov    r12d,r9d
    7b93:	mov    DWORD PTR [rsi+r13*4],0x0
    7b9b:	je     7e8d <dct_luma+0x7bd>
    7ba1:	lea    rdx,[rax+0x3338]
    7ba8:	mov    rsi,rax
    7bab:	lea    r9,[rax+0x3348]
    7bb2:	nop    WORD PTR [rax+rax*1+0x0]
    7bb8:	mov    r10d,DWORD PTR [rdx+0x40]
    7bbc:	mov    ecx,DWORD PTR [rdx]
    7bbe:	add    rdx,0x4
    7bc2:	mov    r8d,DWORD PTR [rdx+0x7c]
    7bc6:	mov    edi,DWORD PTR [rdx+0xbc]
    7bcc:	lea    r11d,[r8+rcx*1]
    7bd0:	sub    ecx,r8d
    7bd3:	mov    r8d,r10d
    7bd6:	sar    r8d,1
    7bd9:	sub    r8d,edi
    7bdc:	sar    edi,1
    7bde:	add    edi,r10d
    7be1:	lea    r10d,[r11+rdi*1]
    7be5:	sub    r11d,edi
    7be8:	lea    edi,[rcx+r8*1]
    7bec:	sub    ecx,r8d
    7bef:	mov    DWORD PTR [rdx-0x4],r10d
    7bf3:	mov    DWORD PTR [rdx+0xbc],r11d
    7bfa:	mov    DWORD PTR [rdx+0x3c],edi
    7bfd:	mov    DWORD PTR [rdx+0x7c],ecx
    7c00:	cmp    r9,rdx
    7c03:	jne    7bb8 <dct_luma+0x4e8>
    7c05:	lea    rdx,[rax+0x100]
    7c0c:	mov    ebp,DWORD PTR [rax+0x11c14]
    7c12:	mov    r11d,DWORD PTR [rsp+0x6c]
    7c17:	xor    r13d,r13d
    7c1a:	mov    DWORD PTR [rsp+0x8],r12d
    7c1f:	lea    r14,[rsp+0x70]
    7c24:	mov    r12,rdx
    7c27:	mov    r8d,DWORD PTR [rsi+0x3340]
    7c2e:	mov    edx,DWORD PTR [rsi+0x3338]
    7c34:	mov    edi,DWORD PTR [rsi+0x333c]
    7c3a:	mov    ecx,DWORD PTR [rsi+0x3344]
    7c40:	lea    r9d,[r8+rdx*1]
    7c44:	sub    edx,r8d
    7c47:	movsxd r8,r11d
    7c4a:	mov    DWORD PTR [rsp+0x74],edx
    7c4e:	mov    edx,edi
    7c50:	shl    r8,0x4
    7c54:	sar    edx,1
    7c56:	mov    DWORD PTR [rsp+0x70],r9d
    7c5b:	sub    edx,ecx
    7c5d:	sar    ecx,1
    7c5f:	add    ecx,edi
    7c61:	mov    DWORD PTR [rsp+0x78],edx
    7c65:	xor    edx,edx
    7c67:	mov    DWORD PTR [rsp+0x7c],ecx
    7c6b:	test   ebp,ebp
    7c6d:	jne    7d16 <dct_luma+0x646>
    7c73:	mov    edi,DWORD PTR [rsp+0x50]
    7c77:	mov    r10d,DWORD PTR [r14+rdx*4]
    7c7b:	movsxd r9,DWORD PTR [rax+0x11bec]
    7c82:	add    edi,edx
    7c84:	movsxd rdi,edi
    7c87:	lea    rdi,[rdi+r8*1+0x1898]
    7c8f:	movzx  r15d,WORD PTR [rax+rdi*2+0x8]
    7c95:	lea    edi,[r10+rcx*1]
    7c99:	movsxd rdi,edi
    7c9c:	shl    r15,0x6
    7ca0:	lea    rdi,[r15+rdi*1+0x20]
    7ca5:	mov    r15d,DWORD PTR [rsp+0x60]
    7caa:	sar    rdi,0x6
    7cae:	cmovs  rdi,r13
    7cb2:	cmp    rdi,r9
    7cb5:	cmovg  rdi,r9
    7cb9:	sub    r15d,edx
    7cbc:	sub    r10d,ecx
    7cbf:	movsxd r15,r15d
    7cc2:	movsxd r10,r10d
    7cc5:	lea    r15,[r15+r8*1+0x1898]
    7ccd:	mov    DWORD PTR [rsi+rdx*4+0x3338],edi
    7cd4:	mov    rdi,rdx
    7cd7:	movzx  r15d,WORD PTR [rax+r15*2+0x8]
    7cdd:	neg    rdi
    7ce0:	shl    r15,0x6
    7ce4:	lea    rcx,[r15+r10*1+0x20]
    7ce9:	sar    rcx,0x6
    7ced:	cmovs  rcx,r13
    7cf1:	cmp    rcx,r9
    7cf4:	cmovg  rcx,r9
    7cf8:	mov    DWORD PTR [rsi+rdi*4+0x3344],ecx
    7cff:	cmp    rdx,0x1
    7d03:	je     7d44 <dct_luma+0x674>
    7d05:	mov    ecx,DWORD PTR [rsp+0x78]
    7d09:	mov    edx,0x1
    7d0e:	test   ebp,ebp
    7d10:	je     7c73 <dct_luma+0x5a3>
    7d16:	mov    edi,DWORD PTR [r14+rdx*4]
    7d1a:	test   ebx,ebx
    7d1c:	je     7e30 <dct_luma+0x760>
    7d22:	lea    r9d,[rdi+rcx*1]
    7d26:	sub    edi,ecx
    7d28:	mov    DWORD PTR [rsi+rdx*4+0x3338],r9d
    7d30:	mov    r9,rdx
    7d33:	neg    r9
    7d36:	mov    DWORD PTR [rsi+r9*4+0x3344],edi
    7d3e:	cmp    rdx,0x1
    7d42:	jne    7d05 <dct_luma+0x635>
    7d44:	add    rsi,0x40
    7d48:	add    r11d,0x1
    7d4c:	cmp    rsi,r12
    7d4f:	jne    7c27 <dct_luma+0x557>
    7d55:	mov    r12d,DWORD PTR [rsp+0x8]
    7d5a:	test   ebp,ebp
    7d5c:	jne    7df3 <dct_luma+0x723>
    7d62:	mov    esi,DWORD PTR [rsp+0x50]
    7d66:	mov    r15d,DWORD PTR [rsp+0x6c]
    7d6b:	mov    r10,rax
    7d6e:	lea    r14,[rax+0x10]
    7d72:	mov    edx,DWORD PTR [rax+0x9c]
    7d78:	mov    rcx,QWORD PTR [rip+0x82c29]        # 8a9a8 <enc_picture>
    7d7f:	mov    r13d,DWORD PTR [rax+0x98]
    7d86:	mov    rcx,QWORD PTR [rcx+0x1918]
    7d8d:	add    edx,esi
    7d8f:	add    r13d,r15d
    7d92:	movsxd rdx,edx
    7d95:	movsxd r13,r13d
    7d98:	lea    r11,[rcx+rdx*8]
    7d9c:	add    r13,r13
    7d9f:	mov    r9,QWORD PTR [r11]
    7da2:	mov    rcx,r10
    7da5:	xor    edx,edx
    7da7:	movsxd rbp,esi
    7daa:	add    r9,r13
    7dad:	mov    edi,DWORD PTR [rcx+0x3338]
    7db3:	test   ebx,ebx
    7db5:	je     7e20 <dct_luma+0x750>
    7db7:	lea    r8d,[r15+rdx*1]
    7dbb:	movsxd r8,r8d
    7dbe:	shl    r8,0x4
    7dc2:	lea    r8,[r8+rbp*1+0x1898]
    7dca:	add    di,WORD PTR [rax+r8*2+0x8]
    7dd0:	mov    WORD PTR [r9+rdx*2],di
    7dd5:	add    rdx,0x1
    7dd9:	add    rcx,0x40
    7ddd:	cmp    rdx,0x4
    7de1:	jne    7dad <dct_luma+0x6dd>
    7de3:	add    r10,0x4
    7de7:	add    r11,0x8
    7deb:	add    esi,0x1
    7dee:	cmp    r14,r10
    7df1:	jne    7d9f <dct_luma+0x6cf>
    7df3:	mov    rax,QWORD PTR [rsp+0x88]
    7dfb:	xor    rax,QWORD PTR fs:0x28
    7e04:	jne    7e98 <dct_luma+0x7c8>
    7e0a:	add    rsp,0x98
    7e11:	mov    eax,r12d
    7e14:	pop    rbx
    7e15:	pop    rbp
    7e16:	pop    r12
    7e18:	pop    r13
    7e1a:	pop    r14
    7e1c:	pop    r15
    7e1e:	ret    
    7e1f:	nop
    7e20:	mov    WORD PTR [r9+rdx*2],di
    7e25:	jmp    7dd5 <dct_luma+0x705>
    7e27:	nop    WORD PTR [rax+rax*1+0x0]
    7e30:	lea    r9d,[rdi+rcx*1+0x20]
    7e35:	sub    edi,ecx
    7e37:	sar    r9d,0x6
    7e3b:	add    edi,0x20
    7e3e:	mov    DWORD PTR [rsi+rdx*4+0x3338],r9d
    7e46:	mov    r9,rdx
    7e49:	sar    edi,0x6
    7e4c:	neg    r9
    7e4f:	mov    DWORD PTR [rsi+r9*4+0x3344],edi
    7e57:	jmp    7cff <dct_luma+0x62f>
    7e5c:	nop    DWORD PTR [rax+0x0]
    7e60:	lea    rsi,[rip+0xd0959]        # d87c0 <InvLevelScale4x4Luma_Intra>
    7e67:	shl    r13,0x4
    7e6b:	mov    r9d,0x1
    7e71:	imul   ebp,DWORD PTR [rsi+rdx*4]
    7e75:	mov    edx,0xffffffff
    7e7a:	shl    ebp,cl
    7e7c:	lea    rcx,[r13+r15*1+0xccc]
    7e84:	mov    DWORD PTR [rax+rcx*4+0x8],ebp
    7e88:	jmp    79e6 <dct_luma+0x316>
    7e8d:	mov    ebp,DWORD PTR [rax+0x11c14]
    7e93:	jmp    7d5a <dct_luma+0x68a>
    7e98:	call   4390 <__stack_chk_fail@plt>
    7e9d:	nop    DWORD PTR [rax]

0000000000007ea0 <dct_chroma>:
    7ea0:	endbr64 
    7ea4:	push   r15
    7ea6:	push   r14
    7ea8:	push   r13
    7eaa:	push   r12
    7eac:	push   rbp
    7ead:	push   rbx
    7eae:	sub    rsp,0x1f8
    7eb5:	mov    r10,QWORD PTR [rip+0x806f4]        # 885b0 <img>
    7ebc:	mov    DWORD PTR [rsp+0x68],esi
    7ec0:	mov    DWORD PTR [rsp+0xf4],edi
    7ec7:	mov    rbx,QWORD PTR [r10+0x3758]
    7ece:	mov    rdx,QWORD PTR [r10+0x3740]
    7ed5:	mov    rax,QWORD PTR fs:0x28
    7ede:	mov    QWORD PTR [rsp+0x1e8],rax
    7ee6:	xor    eax,eax
    7ee8:	movsxd rax,DWORD PTR [r10+0xc]
    7eec:	mov    QWORD PTR [rsp+0x140],0x0
    7ef8:	mov    QWORD PTR [rsp+0x148],0xf0000
    7f04:	imul   rax,rax,0x278
    7f0b:	mov    QWORD PTR [rsp+0x150],0xff0000
    7f17:	add    rbx,rax
    7f1a:	movsxd rax,edi
    7f1d:	mov    QWORD PTR [rsp+0x40],rax
    7f22:	add    rax,0x1
    7f26:	lea    rsi,[rax*8+0x0]
    7f2e:	mov    rax,QWORD PTR [rdx+rax*8]
    7f32:	mov    QWORD PTR [rsp+0xd8],rbx
    7f3a:	mov    QWORD PTR [rsp+0xf8],rsi
    7f42:	mov    rsi,QWORD PTR [rax]
    7f45:	mov    rax,QWORD PTR [rax+0x8]
    7f49:	mov    QWORD PTR [rsp+0x80],rax
    7f51:	mov    eax,DWORD PTR [rbx+0x48]
    7f54:	mov    QWORD PTR [rsp+0x60],rsi
    7f59:	mov    esi,DWORD PTR [r10+0x11bf4]
    7f60:	lea    edx,[rax-0x9]
    7f63:	cmp    edx,0x1
    7f66:	mov    DWORD PTR [rsp+0x78],esi
    7f6a:	setbe  dl
    7f6d:	cmp    eax,0xd
    7f70:	sete   al
    7f73:	or     edx,eax
    7f75:	mov    eax,esi
    7f77:	shr    eax,0x1f
    7f7a:	mov    BYTE PTR [rsp+0x18],dl
    7f7e:	add    eax,esi
    7f80:	sar    eax,1
    7f82:	imul   eax,edi
    7f85:	mov    DWORD PTR [rsp+0xf0],eax
    7f8c:	mov    eax,0xffff0000
    7f91:	mov    QWORD PTR [rsp+0x158],rax
    7f99:	mov    eax,DWORD PTR [r10+0x11bfc]
    7fa0:	mov    edx,DWORD PTR [rbx+0xc]
    7fa3:	mov    DWORD PTR [rsp+0xe0],eax
    7faa:	mov    eax,edx
    7fac:	add    eax,DWORD PTR [r10+0x11bdc]
    7fb3:	jne    8588 <dct_chroma+0x6e8>
    7fb9:	mov    eax,DWORD PTR [r10+0x11c00]
    7fc0:	xor    ebx,ebx
    7fc2:	cmp    eax,0x1
    7fc5:	sete   bl
    7fc8:	setne  BYTE PTR [rsp+0xab]
    7fd0:	mov    DWORD PTR [rsp+0xa0],ebx
    7fd7:	mov    rax,QWORD PTR [rsp+0x40]
    7fdc:	mov    esi,DWORD PTR [r10+0x11be0]
    7fe3:	add    edx,DWORD PTR [r10+rax*4+0x11c0c]
    7feb:	mov    eax,esi
    7fed:	neg    eax
    7fef:	cmp    eax,edx
    7ff1:	jg     7ffe <dct_chroma+0x15e>
    7ff3:	cmp    edx,0x33
    7ff6:	mov    eax,0x33
    7ffb:	cmovle eax,edx
    7ffe:	test   eax,eax
    8000:	js     800f <dct_chroma+0x16f>
    8002:	cdqe   
    8004:	lea    rdx,[rip+0x62a35]        # 6aa40 <QP_SCALE_CR>
    800b:	movzx  eax,BYTE PTR [rdx+rax*1]
    800f:	lea    ebx,[rsi+rax*1]
    8012:	movsxd rdx,ebx
    8015:	mov    ecx,ebx
    8017:	mov    DWORD PTR [rsp+0xa4],ebx
    801e:	imul   rdx,rdx,0x2aaaaaab
    8025:	sar    ecx,0x1f
    8028:	shr    rdx,0x20
    802c:	mov    edi,edx
    802e:	sub    edi,ecx
    8030:	lea    edx,[rdi+rdi*2]
    8033:	mov    DWORD PTR [rsp+0x20],edi
    8037:	add    edx,edx
    8039:	sub    ebx,edx
    803b:	cmp    DWORD PTR [rsp+0xe0],0x2
    8043:	mov    DWORD PTR [rsp+0x48],ebx
    8047:	lea    ebx,[rdi+0xf]
    804a:	mov    DWORD PTR [rsp+0x58],ebx
    804e:	mov    ebx,DWORD PTR [r10+0x11c08]
    8055:	mov    DWORD PTR [rsp+0x50],ebx
    8059:	je     90c9 <dct_chroma+0x1229>
    805f:	mov    r15d,DWORD PTR [rsp+0x50]
    8064:	test   r15d,r15d
    8067:	jle    9dfe <dct_chroma+0x1f5e>
    806d:	mov    DWORD PTR [rsp+0x88],0x0
    8078:	mov    DWORD PTR [rsp+0x90],0x0
    8083:	mov    DWORD PTR [rsp+0x70],0x0
    808b:	mov    eax,DWORD PTR [r10+0x11c04]
    8092:	lea    rbx,[r10+0xc]
    8096:	mov    QWORD PTR [rsp+0x38],0x0
    809f:	xor    edx,edx
    80a1:	mov    QWORD PTR [rsp+0x10],rbx
    80a6:	mov    r8d,DWORD PTR [rsp+0x120]
    80ae:	mov    QWORD PTR [rsp+0x98],r10
    80b6:	mov    r15d,DWORD PTR [rsp+0x12c]
    80be:	mov    DWORD PTR [rsp+0x8],eax
    80c2:	mov    r13d,DWORD PTR [rsp+0x124]
    80ca:	mov    eax,DWORD PTR [rsp+0x128]
    80d1:	mov    r14d,DWORD PTR [rsp+0x8]
    80d6:	test   r14d,r14d
    80d9:	jle    8264 <dct_chroma+0x3c4>
    80df:	mov    rdi,QWORD PTR [rsp+0x10]
    80e4:	mov    r11d,0x80
    80ea:	xor    ebx,ebx
    80ec:	xor    r12d,r12d
    80ef:	mov    r10d,0x40
    80f5:	mov    r9d,0xc0
    80fb:	lea    rsi,[rdi-0x8]
    80ff:	lea    rbp,[rdi+0xf4]
    8106:	mov    QWORD PTR [rsp+0x28],rsi
    810b:	lea    rsi,[rdi-0x4]
    810f:	mov    QWORD PTR [rsp+0x30],rsi
    8114:	cmp    BYTE PTR [rsp+0xab],0x0
    811c:	je     8232 <dct_chroma+0x392>
    8122:	lea    rdi,[rbp-0x100]
    8129:	lea    r14,[rbp-0xf0]
    8130:	mov    rsi,rdi
    8133:	lea    rcx,[rsi+rbx*1]
    8137:	mov    eax,DWORD PTR [rsi+0x3338]
    813d:	add    rsi,0x4
    8141:	mov    edx,DWORD PTR [rcx+r9*1+0x3338]
    8149:	mov    r15d,DWORD PTR [rcx+r11*1+0x3338]
    8151:	lea    r8d,[rax+rdx*1]
    8155:	sub    eax,edx
    8157:	mov    edx,DWORD PTR [rcx+r10*1+0x3338]
    815f:	lea    r13d,[rdx+r15*1]
    8163:	sub    edx,r15d
    8166:	lea    r15d,[r8+r13*1]
    816a:	sub    r8d,r13d
    816d:	mov    DWORD PTR [rsi+0x3334],r15d
    8174:	mov    DWORD PTR [rcx+r11*1+0x3338],r8d
    817c:	lea    r8d,[rdx+rax*2]
    8180:	add    edx,edx
    8182:	sub    eax,edx
    8184:	mov    DWORD PTR [rcx+r10*1+0x3338],r8d
    818c:	mov    DWORD PTR [rcx+r9*1+0x3338],eax
    8194:	cmp    rsi,r14
    8197:	jne    8133 <dct_chroma+0x293>
    8199:	mov    rsi,QWORD PTR [rsp+0x10]
    819e:	mov    rcx,QWORD PTR [rsp+0x28]
    81a3:	mov    QWORD PTR [rsp],r9
    81a7:	mov    rdx,QWORD PTR [rsp+0x30]
    81ac:	sub    rsi,rbx
    81af:	sub    rcx,rbx
    81b2:	sub    rdx,rbx
    81b5:	add    rdi,0x40
    81b9:	add    rsi,0x40
    81bd:	add    rcx,0x40
    81c1:	add    rdx,0x40
    81c5:	mov    eax,DWORD PTR [rsi+0x32f8]
    81cb:	mov    r15d,DWORD PTR [rdi+0x32f8]
    81d2:	mov    r14d,DWORD PTR [rdx+0x32f8]
    81d9:	lea    r8d,[r15+rax*1]
    81dd:	sub    r15d,eax
    81e0:	mov    eax,DWORD PTR [rcx+0x32f8]
    81e6:	mov    r9d,r15d
    81e9:	lea    r13d,[rax+r14*1]
    81ed:	sub    eax,r14d
    81f0:	lea    r14d,[r8+r13*1]
    81f4:	mov    DWORD PTR [rdi+0x32f8],r14d
    81fb:	mov    r14d,r8d
    81fe:	sub    r14d,r13d
    8201:	mov    DWORD PTR [rdx+0x32f8],r14d
    8208:	lea    r14d,[rax+r15*2]
    820c:	mov    DWORD PTR [rcx+0x32f8],r14d
    8213:	lea    r14d,[rax+rax*1]
    8217:	sub    r9d,r14d
    821a:	mov    DWORD PTR [rsi+0x32f8],r9d
    8221:	cmp    rdi,rbp
    8224:	jne    81b5 <dct_chroma+0x315>
    8226:	mov    r9,QWORD PTR [rsp]
    822a:	movzx  edx,BYTE PTR [rsp+0xab]
    8232:	add    r12d,0x4
    8236:	add    rbp,0x100
    823d:	sub    rbx,0x100
    8244:	add    r9,0x100
    824b:	add    r10,0x100
    8252:	add    r11,0x100
    8259:	cmp    DWORD PTR [rsp+0x8],r12d
    825e:	jg     8114 <dct_chroma+0x274>
    8264:	add    QWORD PTR [rsp+0x38],0x4
    826a:	mov    rbx,QWORD PTR [rsp+0x38]
    826f:	add    QWORD PTR [rsp+0x10],0x10
    8275:	cmp    DWORD PTR [rsp+0x50],ebx
    8279:	jg     80d1 <dct_chroma+0x231>
    827f:	mov    r10,QWORD PTR [rsp+0x98]
    8287:	test   dl,dl
    8289:	je     82aa <dct_chroma+0x40a>
    828b:	mov    DWORD PTR [rsp+0x120],r8d
    8293:	mov    DWORD PTR [rsp+0x128],eax
    829a:	mov    DWORD PTR [rsp+0x124],r13d
    82a2:	mov    DWORD PTR [rsp+0x12c],r15d
    82aa:	cmp    DWORD PTR [rsp+0xe0],0x1
    82b2:	je     8e9e <dct_chroma+0xffe>
    82b8:	cmp    DWORD PTR [rsp+0xe0],0x2
    82c0:	je     9801 <dct_chroma+0x1961>
    82c6:	cmp    DWORD PTR [rsp+0xe0],0x3
    82ce:	je     9866 <dct_chroma+0x19c6>
    82d4:	mov    DWORD PTR [rsp+0xcc],0x0
    82df:	mov    eax,DWORD PTR [rsp+0x68]
    82e3:	mov    DWORD PTR [rsp+0xe4],eax
    82ea:	cmp    DWORD PTR [rsp+0x78],0x1
    82ef:	jle    9534 <dct_chroma+0x1694>
    82f5:	mov    ecx,0x3
    82fa:	mov    eax,0x1
    82ff:	sub    ecx,DWORD PTR [rsp+0x20]
    8303:	movsxd rsi,DWORD PTR [rsp+0xf0]
    830b:	shl    eax,cl
    830d:	lea    rdx,[rip+0x6236c]        # 6a680 <hor_offset>
    8314:	xor    r11d,r11d
    8317:	mov    DWORD PTR [rsp+0xc8],0x0
    8322:	mov    DWORD PTR [rsp+0xac],eax
    8329:	movsxd rax,DWORD PTR [rsp+0xe0]
    8331:	lea    rdi,[rsi*8+0x20]
    8339:	mov    QWORD PTR [rsp+0x108],rsi
    8341:	mov    QWORD PTR [rsp+0xe8],rax
    8349:	shl    rax,0x4
    834d:	lea    rbx,[rax+rdx*1]
    8351:	lea    rdx,[rip+0x622e8]        # 6a640 <ver_offset>
    8358:	mov    QWORD PTR [rsp+0xc0],rdi
    8360:	add    rax,rdx
    8363:	mov    QWORD PTR [rsp+0xd0],rbx
    836b:	mov    QWORD PTR [rsp+0x100],rax
    8373:	mov    QWORD PTR [rsp+0xb0],rax
    837b:	mov    rax,QWORD PTR [rsp+0x40]
    8380:	mov    QWORD PTR [rsp+0xb8],rbx
    8388:	lea    rbx,[rax+rax*2]
    838c:	mov    DWORD PTR [rsp+0x50],0x0
    8394:	lea    rax,[rax+rbx*4]
    8398:	mov    QWORD PTR [rsp+0x28],rbx
    839d:	mov    QWORD PTR [rsp+0x60],rax
    83a2:	mov    rax,r10
    83a5:	mov    r10d,r11d
    83a8:	mov    r11,rax
    83ab:	mov    eax,DWORD PTR [rsp+0xf0]
    83b2:	add    eax,DWORD PTR [rsp+0xc8]
    83b9:	lea    rbx,[rip+0x62260]        # 6a620 <cbp_blk_chroma>
    83c0:	mov    QWORD PTR [rsp+0x98],0x0
    83cc:	cdqe   
    83ce:	lea    rax,[rbx+rax*4]
    83d2:	mov    QWORD PTR [rsp+0x38],rax
    83d7:	mov    rax,r11
    83da:	mov    r11,QWORD PTR [rsp+0xd8]
    83e2:	mov    rbx,QWORD PTR [rsp+0x98]
    83ea:	mov    rsi,QWORD PTR [rsp+0xb8]
    83f2:	mov    DWORD PTR [rsp],0x0
    83f9:	lea    r13,[rip+0x62603]        # 6aa03 <FIELD_SCAN+0x3>
    8400:	mov    rdx,QWORD PTR [rax+0x3738]
    8407:	mov    rdi,QWORD PTR [rsp+0xc0]
    840f:	lea    r8,[rip+0x6260d]        # 6aa23 <SNGL_SCAN+0x3>
    8416:	movzx  esi,BYTE PTR [rsi+rbx*1]
    841a:	mov    rdx,QWORD PTR [rdx+rdi*1]
    841e:	mov    DWORD PTR [rsp+0x8],esi
    8422:	mov    rsi,QWORD PTR [rsp+0xb0]
    842a:	mov    rdx,QWORD PTR [rdx+rbx*8]
    842e:	movzx  esi,BYTE PTR [rsi+rbx*1]
    8432:	mov    rbx,QWORD PTR [rdx]
    8435:	mov    DWORD PTR [rsp+0x10],esi
    8439:	mov    QWORD PTR [rsp+0x30],rbx
    843e:	mov    rbx,QWORD PTR [rdx+0x8]
    8442:	mov    edx,0xffffffff
    8447:	mov    QWORD PTR [rsp+0x40],rbx
    844c:	jmp    856b <dct_chroma+0x6cb>
    8451:	nop    DWORD PTR [rax+0x0]
    8458:	mov    ebx,DWORD PTR [rax+0x11ad0]
    845e:	test   ebx,ebx
    8460:	je     8472 <dct_chroma+0x5d2>
    8462:	mov    r9d,DWORD PTR [r11+0x214]
    8469:	test   r9d,r9d
    846c:	jne    8579 <dct_chroma+0x6d9>
    8472:	movzx  ecx,BYTE PTR [r8-0x1]
    8477:	movzx  r15d,BYTE PTR [r8]
    847b:	mov    ebx,DWORD PTR [rsp+0x8]
    847f:	mov    edi,DWORD PTR [rsp+0x10]
    8483:	add    edx,0x1
    8486:	add    ebx,ecx
    8488:	lea    r12d,[r15+rdi*1]
    848c:	movsxd rbx,ebx
    848f:	movsxd r12,r12d
    8492:	mov    rsi,rbx
    8495:	shl    rsi,0x4
    8499:	lea    r14,[rsi+r12*1+0xccc]
    84a1:	mov    esi,DWORD PTR [rax+r14*4+0x8]
    84a6:	mov    edi,esi
    84a8:	sar    edi,0x1f
    84ab:	mov    ebp,edi
    84ad:	xor    ebp,esi
    84af:	sub    ebp,edi
    84b1:	mov    edi,DWORD PTR [rsp+0xa0]
    84b8:	test   edi,edi
    84ba:	je     85a0 <dct_chroma+0x700>
    84c0:	test   esi,esi
    84c2:	je     8553 <dct_chroma+0x6b3>
    84c8:	mov    rax,QWORD PTR [rsp+0x38]
    84cd:	movsxd rbx,DWORD PTR [rsp]
    84d1:	mov    edi,ebp
    84d3:	mov    QWORD PTR [rsp+0x70],r8
    84d8:	mov    QWORD PTR [rsp+0x68],r11
    84dd:	movzx  ecx,BYTE PTR [rax]
    84e0:	mov    eax,0x1
    84e5:	mov    DWORD PTR [rsp+0x78],edx
    84e9:	mov    r15,rbx
    84ec:	add    DWORD PTR [rsp+0x50],0xf423f
    84f4:	add    r15d,0x1
    84f8:	shl    rax,cl
    84fb:	or     QWORD PTR [r11+0x1d0],rax
    8502:	mov    rax,QWORD PTR [rsp+0x30]
    8507:	lea    r12,[rax+rbx*4]
    850b:	call   465a0 <sign>
    8510:	mov    edx,DWORD PTR [rsp+0x78]
    8514:	mov    edi,ebp
    8516:	mov    DWORD PTR [rsp],r15d
    851a:	mov    DWORD PTR [r12],eax
    851e:	mov    rax,QWORD PTR [rsp+0x40]
    8523:	mov    DWORD PTR [rax+rbx*4],edx
    8526:	mov    rax,QWORD PTR [rip+0x80083]        # 885b0 <img>
    852d:	mov    esi,DWORD PTR [rax+r14*4+0x8]
    8532:	call   465a0 <sign>
    8537:	mov    r11,QWORD PTR [rsp+0x68]
    853c:	mov    r8,QWORD PTR [rsp+0x70]
    8541:	mov    r10d,0x2
    8547:	mov    rax,QWORD PTR [rip+0x80062]        # 885b0 <img>
    854e:	mov    edx,0xffffffff
    8553:	add    r13,0x2
    8557:	lea    rbx,[rip+0x624c3]        # 6aa21 <SNGL_SCAN+0x1>
    855e:	add    r8,0x2
    8562:	cmp    rbx,r13
    8565:	je     87c0 <dct_chroma+0x920>
    856b:	mov    ebp,DWORD PTR [rax+0x11afc]
    8571:	test   ebp,ebp
    8573:	je     8458 <dct_chroma+0x5b8>
    8579:	movzx  ecx,BYTE PTR [r13-0x1]
    857e:	movzx  r15d,BYTE PTR [r13+0x0]
    8583:	jmp    847b <dct_chroma+0x5db>
    8588:	mov    BYTE PTR [rsp+0xab],0x1
    8590:	mov    DWORD PTR [rsp+0xa0],0x0
    859b:	jmp    7fd7 <dct_chroma+0x137>
    85a0:	movsxd r9,DWORD PTR [rsp+0x48]
    85a5:	mov    rdi,QWORD PTR [rsp+0x28]
    85aa:	movsxd r14,ecx
    85ad:	cmp    BYTE PTR [rsp+0x18],0x0
    85b2:	lea    rdi,[r9+rdi*2]
    85b6:	lea    rcx,[r14+rdi*4]
    85ba:	lea    rdi,[r15+rcx*4]
    85be:	je     8748 <dct_chroma+0x8a8>
    85c4:	lea    rcx,[rip+0xcfef5]        # d84c0 <LevelScale4x4Chroma_Intra>
    85cb:	imul   ebp,DWORD PTR [rcx+rdi*4]
    85cf:	movsxd rcx,DWORD PTR [rsp+0x20]
    85d4:	add    rcx,QWORD PTR [rsp+0x60]
    85d9:	lea    rcx,[r14+rcx*4]
    85dd:	lea    rdi,[r15+rcx*4]
    85e1:	lea    rcx,[rip+0xd4358]        # dc940 <LevelOffset4x4Chroma_Intra>
    85e8:	add    ebp,DWORD PTR [rcx+rdi*4]
    85eb:	movzx  ecx,BYTE PTR [rsp+0x58]
    85f0:	sar    ebp,cl
    85f2:	test   ebp,ebp
    85f4:	je     872f <dct_chroma+0x88f>
    85fa:	mov    rax,QWORD PTR [rsp+0x38]
    85ff:	mov    QWORD PTR [rsp+0x90],r9
    8607:	movzx  ecx,BYTE PTR [rax]
    860a:	mov    eax,0x1
    860f:	shl    rax,cl
    8612:	or     QWORD PTR [r11+0x1d0],rax
    8619:	cmp    ebp,0x1
    861c:	jg     9e59 <dct_chroma+0x1fb9>
    8622:	mov    rax,QWORD PTR [rip+0x7ff8f]        # 885b8 <input>
    8629:	movsxd rdi,edx
    862c:	mov    DWORD PTR [rsp+0x78],edx
    8630:	mov    QWORD PTR [rsp+0x88],r8
    8638:	movsxd rcx,DWORD PTR [rax+0x9a4]
    863f:	lea    rax,[rip+0x6239a]        # 6a9e0 <COEFF_COST>
    8646:	mov    QWORD PTR [rsp+0x80],r11
    864e:	shl    rcx,0x4
    8652:	add    rax,rcx
    8655:	movsxd rcx,DWORD PTR [rsp]
    8659:	movzx  eax,BYTE PTR [rax+rdi*1]
    865d:	mov    rdi,QWORD PTR [rsp+0x30]
    8662:	mov    QWORD PTR [rsp+0x70],rcx
    8667:	lea    r10,[rdi+rcx*4]
    866b:	mov    edi,ebp
    866d:	add    DWORD PTR [rsp+0x50],eax
    8671:	mov    QWORD PTR [rsp+0x68],r10
    8676:	call   465a0 <sign>
    867b:	mov    r10,QWORD PTR [rsp+0x68]
    8680:	mov    edx,DWORD PTR [rsp+0x78]
    8684:	mov    edi,ebp
    8686:	mov    rsi,QWORD PTR [rsp+0x40]
    868b:	mov    rcx,QWORD PTR [rsp+0x70]
    8690:	mov    DWORD PTR [r10],eax
    8693:	mov    rax,rbx
    8696:	shl    rax,0x4
    869a:	mov    DWORD PTR [rsi+rcx*4],edx
    869d:	lea    rdx,[rax+r12*1+0xccc]
    86a5:	mov    rax,QWORD PTR [rip+0x7ff04]        # 885b0 <img>
    86ac:	add    DWORD PTR [rsp],0x1
    86b0:	mov    esi,DWORD PTR [rax+rdx*4+0x8]
    86b4:	call   465a0 <sign>
    86b9:	mov    r9,QWORD PTR [rsp+0x90]
    86c1:	mov    r8,QWORD PTR [rsp+0x88]
    86c9:	mov    r11,QWORD PTR [rsp+0x80]
    86d1:	mov    ebp,eax
    86d3:	cmp    DWORD PTR [rsp+0xa4],0x17
    86db:	mov    rax,QWORD PTR [rip+0x7fece]        # 885b0 <img>
    86e2:	jg     8780 <dct_chroma+0x8e0>
    86e8:	mov    rsi,QWORD PTR [rsp+0x28]
    86ed:	mov    ecx,0x4
    86f2:	sub    ecx,DWORD PTR [rsp+0x20]
    86f6:	cmp    BYTE PTR [rsp+0x18],0x0
    86fb:	lea    rdx,[r9+rsi*2]
    86ff:	lea    rdx,[r14+rdx*4]
    8703:	lea    rsi,[r15+rdx*4]
    8707:	lea    rdx,[rip+0xd0232]        # d8940 <InvLevelScale4x4Chroma_Intra>
    870e:	jne    8717 <dct_chroma+0x877>
    8710:	lea    rdx,[rip+0xd12e9]        # d9a00 <InvLevelScale4x4Chroma_Inter>
    8717:	imul   ebp,DWORD PTR [rdx+rsi*4]
    871b:	add    ebp,DWORD PTR [rsp+0xac]
    8722:	mov    r10d,0x2
    8728:	mov    edx,0xffffffff
    872d:	sar    ebp,cl
    872f:	shl    rbx,0x4
    8733:	lea    rcx,[rbx+r12*1+0xccc]
    873b:	mov    DWORD PTR [rax+rcx*4+0x8],ebp
    873f:	jmp    8553 <dct_chroma+0x6b3>
    8744:	nop    DWORD PTR [rax+0x0]
    8748:	lea    rcx,[rip+0xd0fb1]        # d9700 <LevelScale4x4Chroma_Inter>
    874f:	imul   ebp,DWORD PTR [rcx+rdi*4]
    8753:	movsxd rcx,DWORD PTR [rsp+0x20]
    8758:	add    rcx,QWORD PTR [rsp+0x60]
    875d:	lea    rcx,[r14+rcx*4]
    8761:	lea    rdi,[r15+rcx*4]
    8765:	lea    rcx,[rip+0xd29f4]        # db160 <LevelOffset4x4Chroma_Inter>
    876c:	add    ebp,DWORD PTR [rcx+rdi*4]
    876f:	movzx  ecx,BYTE PTR [rsp+0x58]
    8774:	sar    ebp,cl
    8776:	jmp    85f2 <dct_chroma+0x752>
    877b:	nop    DWORD PTR [rax+rax*1+0x0]
    8780:	mov    esi,DWORD PTR [rsp+0x20]
    8784:	cmp    BYTE PTR [rsp+0x18],0x0
    8789:	lea    ecx,[rsi-0x4]
    878c:	je     89a0 <dct_chroma+0xb00>
    8792:	mov    rsi,QWORD PTR [rsp+0x28]
    8797:	mov    r10d,0x2
    879d:	lea    rdx,[r9+rsi*2]
    87a1:	lea    rdx,[r14+rdx*4]
    87a5:	lea    rsi,[r15+rdx*4]
    87a9:	lea    rdx,[rip+0xd0190]        # d8940 <InvLevelScale4x4Chroma_Intra>
    87b0:	imul   ebp,DWORD PTR [rdx+rsi*4]
    87b4:	mov    edx,0xffffffff
    87b9:	shl    ebp,cl
    87bb:	jmp    872f <dct_chroma+0x88f>
    87c0:	mov    rbx,QWORD PTR [rsp+0x30]
    87c5:	movsxd rdx,DWORD PTR [rsp]
    87c9:	add    QWORD PTR [rsp+0x98],0x1
    87d2:	mov    DWORD PTR [rbx+rdx*4],0x0
    87d9:	mov    rbx,QWORD PTR [rsp+0x98]
    87e1:	add    QWORD PTR [rsp+0x38],0x1
    87e7:	cmp    rbx,0x4
    87eb:	jne    83e2 <dct_chroma+0x542>
    87f1:	mov    edx,DWORD PTR [rax+0x11bf4]
    87f7:	mov    r11,rax
    87fa:	add    DWORD PTR [rsp+0xc8],0x1
    8802:	add    QWORD PTR [rsp+0xb8],0x4
    880b:	mov    ebx,DWORD PTR [rsp+0xc8]
    8812:	add    QWORD PTR [rsp+0xb0],0x4
    881b:	mov    eax,edx
    881d:	add    QWORD PTR [rsp+0xc0],0x8
    8826:	shr    eax,0x1f
    8829:	add    eax,edx
    882b:	sar    eax,1
    882d:	cmp    eax,ebx
    882f:	jg     83ab <dct_chroma+0x50b>
    8835:	mov    rax,r11
    8838:	cmp    DWORD PTR [rsp+0x50],0x3
    883d:	mov    r11d,r10d
    8840:	mov    r10,rax
    8843:	setle  al
    8846:	and    al,BYTE PTR [rsp+0xab]
    884d:	mov    BYTE PTR [rsp+0x50],al
    8851:	je     8e75 <dct_chroma+0xfd5>
    8857:	cmp    edx,0x1
    885a:	jle    8a0c <dct_chroma+0xb6c>
    8860:	mov    ecx,DWORD PTR [rsp+0xe0]
    8867:	mov    rbx,QWORD PTR [rsp+0x108]
    886f:	xor    r13d,r13d
    8872:	lea    r15,[rip+0x62187]        # 6aa00 <FIELD_SCAN>
    8879:	mov    r14d,DWORD PTR [rsp+0xf4]
    8881:	mov    QWORD PTR [rsp],r13
    8885:	lea    rbp,[rip+0x62194]        # 6aa20 <SNGL_SCAN>
    888c:	lea    r9,[r15+0x1]
    8890:	mov    rax,QWORD PTR [r10+0x3738]
    8897:	add    ecx,0x1
    889a:	mov    r12,QWORD PTR [rsp+0xd8]
    88a2:	shl    r14d,cl
    88a5:	mov    r13,QWORD PTR [rsp+0x100]
    88ad:	lea    rax,[rax+rbx*8]
    88b1:	mov    DWORD PTR [rsp+0x10],r14d
    88b6:	lea    rbx,[rbp+0x1]
    88ba:	mov    QWORD PTR [rsp+0x18],rax
    88bf:	mov    rax,QWORD PTR [rsp+0x18]
    88c4:	mov    rdi,QWORD PTR [rsp]
    88c8:	xor    r11d,r11d
    88cb:	mov    r14,QWORD PTR [rax+rdi*8+0x20]
    88d0:	mov    rax,QWORD PTR [rsp+0xd0]
    88d8:	movzx  r8d,BYTE PTR [r13+r11*1+0x0]
    88de:	movzx  edi,BYTE PTR [rax+r11*1]
    88e3:	mov    rax,QWORD PTR [r14+r11*8]
    88e7:	mov    rsi,QWORD PTR [rax]
    88ea:	mov    eax,DWORD PTR [rsp+0xcc]
    88f1:	test   eax,eax
    88f3:	jne    891d <dct_chroma+0xa7d>
    88f5:	mov    rax,QWORD PTR [rsp+0xe8]
    88fd:	movzx  ecx,BYTE PTR [rsp+0x10]
    8902:	mov    rax,QWORD PTR [rsp+rax*8+0x140]
    890a:	mov    QWORD PTR [rsp+0x8],rax
    890f:	shl    rax,cl
    8912:	not    rax
    8915:	and    QWORD PTR [r12+0x1d0],rax
    891d:	mov    DWORD PTR [rsi],0x0
    8923:	mov    edx,0x2
    8928:	jmp    8980 <dct_chroma+0xae0>
    892a:	nop    WORD PTR [rax+rax*1+0x0]
    8930:	mov    eax,DWORD PTR [r10+0x11ad0]
    8937:	test   eax,eax
    8939:	je     8947 <dct_chroma+0xaa7>
    893b:	mov    eax,DWORD PTR [r12+0x214]
    8943:	test   eax,eax
    8945:	jne    898b <dct_chroma+0xaeb>
    8947:	movzx  eax,BYTE PTR [rbp+rdx*1+0x0]
    894c:	movzx  ecx,BYTE PTR [rdx+rbx*1]
    8950:	add    eax,edi
    8952:	add    ecx,r8d
    8955:	cdqe   
    8957:	movsxd rcx,ecx
    895a:	shl    rax,0x4
    895e:	lea    rax,[rcx+rax*1+0xccc]
    8966:	mov    DWORD PTR [r10+rax*4+0x8],0x0
    896f:	mov    DWORD PTR [rsi+rdx*2],0x0
    8976:	add    rdx,0x2
    897a:	cmp    rdx,0x20
    897e:	je     89d0 <dct_chroma+0xb30>
    8980:	mov    eax,DWORD PTR [r10+0x11afc]
    8987:	test   eax,eax
    8989:	je     8930 <dct_chroma+0xa90>
    898b:	movzx  eax,BYTE PTR [r15+rdx*1]
    8990:	movzx  ecx,BYTE PTR [rdx+r9*1]
    8995:	jmp    8950 <dct_chroma+0xab0>
    8997:	nop    WORD PTR [rax+rax*1+0x0]
    89a0:	mov    rdi,QWORD PTR [rsp+0x28]
    89a5:	mov    r10d,0x2
    89ab:	lea    rdx,[r9+rdi*2]
    89af:	lea    rdx,[r14+rdx*4]
    89b3:	lea    rsi,[r15+rdx*4]
    89b7:	lea    rdx,[rip+0xd1042]        # d9a00 <InvLevelScale4x4Chroma_Inter>
    89be:	imul   ebp,DWORD PTR [rdx+rsi*4]
    89c2:	mov    edx,0xffffffff
    89c7:	shl    ebp,cl
    89c9:	jmp    872f <dct_chroma+0x88f>
    89ce:	xchg   ax,ax
    89d0:	add    r11,0x1
    89d4:	cmp    r11,0x4
    89d8:	jne    88d0 <dct_chroma+0xa30>
    89de:	mov    edx,DWORD PTR [r10+0x11bf4]
    89e5:	add    QWORD PTR [rsp],0x1
    89ea:	add    r13,0x4
    89ee:	add    QWORD PTR [rsp+0xd0],0x4
    89f7:	mov    rsi,QWORD PTR [rsp]
    89fb:	mov    eax,edx
    89fd:	shr    eax,0x1f
    8a00:	add    eax,edx
    8a02:	sar    eax,1
    8a04:	cmp    eax,esi
    8a06:	jg     88bf <dct_chroma+0xa1f>
    8a0c:	mov    eax,DWORD PTR [r10+0x11c08]
    8a13:	mov    ebx,DWORD PTR [r10+0x11c14]
    8a1a:	mov    DWORD PTR [rsp+0x60],eax
    8a1e:	mov    DWORD PTR [rsp+0x68],ebx
    8a22:	test   eax,eax
    8a24:	jle    9e1f <dct_chroma+0x1f7f>
    8a2a:	cmp    BYTE PTR [rsp+0xab],0x0
    8a32:	je     9e1f <dct_chroma+0x1f7f>
    8a38:	mov    eax,DWORD PTR [r10+0x11c04]
    8a3f:	mov    QWORD PTR [rsp+0x48],r10
    8a44:	mov    r14,r10
    8a47:	mov    QWORD PTR [rsp+0x58],0x0
    8a50:	neg    r14
    8a53:	mov    DWORD PTR [rsp+0x40],eax
    8a57:	lea    rax,[rsp+0x13c]
    8a5f:	mov    QWORD PTR [rsp+0x28],rax
    8a64:	mov    QWORD PTR [rsp+0x20],r10
    8a69:	nop    DWORD PTR [rax+0x0]
    8a70:	mov    esi,DWORD PTR [rsp+0x40]
    8a74:	test   esi,esi
    8a76:	jle    8d57 <dct_chroma+0xeb7>
    8a7c:	mov    rax,QWORD PTR [rsp+0x20]
    8a81:	mov    rdi,QWORD PTR [rsp+0x58]
    8a86:	mov    QWORD PTR [rsp+0x38],0x0
    8a8f:	lea    r10,[rsp+0x120]
    8a97:	mov    DWORD PTR [rsp+0x30],0x0
    8a9f:	lea    r9,[rsp+0x130]
    8aa7:	lea    rax,[rax+rdi*4+0x100]
    8aaf:	mov    QWORD PTR [rsp+0x18],0xc0
    8ab8:	mov    QWORD PTR [rsp+0x10],rax
    8abd:	mov    QWORD PTR [rsp+0x8],0x0
    8ac6:	nop    WORD PTR cs:[rax+rax*1+0x0]
    8ad0:	mov    rax,QWORD PTR [rsp+0x10]
    8ad5:	mov    r13d,0x40
    8adb:	mov    r12d,0x80
    8ae1:	lea    rdi,[rax-0x100]
    8ae8:	lea    r15,[rax-0xf0]
    8aef:	mov    rax,QWORD PTR [rsp+0x8]
    8af4:	mov    QWORD PTR [rsp],rdi
    8af8:	mov    rdx,rdi
    8afb:	sub    r13,rax
    8afe:	sub    r12,rax
    8b01:	mov    rdi,QWORD PTR [rsp]
    8b05:	mov    rax,r10
    8b08:	mov    rcx,rdx
    8b0b:	mov    esi,DWORD PTR [rcx+0x3338]
    8b11:	add    rax,0x4
    8b15:	add    rcx,0x40
    8b19:	mov    DWORD PTR [rax-0x4],esi
    8b1c:	cmp    r9,rax
    8b1f:	jne    8b0b <dct_chroma+0xc6b>
    8b21:	mov    eax,DWORD PTR [rsp+0x128]
    8b28:	mov    r8d,DWORD PTR [rsp+0x124]
    8b30:	mov    QWORD PTR [rsp],rdi
    8b34:	mov    ecx,DWORD PTR [rsp+0x120]
    8b3b:	mov    rdi,QWORD PTR [rsp+0x18]
    8b40:	mov    esi,r8d
    8b43:	lea    r11d,[rcx+rax*1]
    8b47:	sub    ecx,eax
    8b49:	mov    eax,DWORD PTR [rsp+0x12c]
    8b50:	sar    esi,1
    8b52:	mov    ebp,r11d
    8b55:	sub    esi,eax
    8b57:	sar    eax,1
    8b59:	add    eax,r8d
    8b5c:	lea    r8d,[r11+rax*1]
    8b60:	sub    ebp,eax
    8b62:	mov    DWORD PTR [rdx+0x3338],r8d
    8b69:	mov    r8,QWORD PTR [rsp+0x8]
    8b6e:	add    r8,rdx
    8b71:	add    rdx,0x4
    8b75:	mov    DWORD PTR [r8+rdi*1+0x3338],ebp
    8b7d:	lea    ebp,[rcx+rsi*1]
    8b80:	mov    DWORD PTR [r8+r13*1+0x3338],ebp
    8b88:	mov    ebp,ecx
    8b8a:	sub    ebp,esi
    8b8c:	mov    DWORD PTR [r8+r12*1+0x3338],ebp
    8b94:	cmp    r15,rdx
    8b97:	jne    8b01 <dct_chroma+0xc61>
    8b9d:	mov    DWORD PTR [rsp+0x138],esi
    8ba4:	mov    rsi,QWORD PTR [rsp+0x38]
    8ba9:	xor    r15d,r15d
    8bac:	cmp    BYTE PTR [rsp+0x50],0x0
    8bb1:	mov    DWORD PTR [rsp+0x13c],eax
    8bb8:	mov    rax,QWORD PTR [rsp+0x48]
    8bbd:	mov    rdi,QWORD PTR [rsp]
    8bc1:	mov    DWORD PTR [rsp+0x130],r11d
    8bc9:	mov    DWORD PTR [rsp+0x134],ecx
    8bd0:	lea    rbp,[rax+rsi*2]
    8bd4:	je     8d23 <dct_chroma+0xe83>
    8bda:	xor    eax,eax
    8bdc:	mov    edx,DWORD PTR [rdi+rax*1+0x3338]
    8be3:	mov    DWORD PTR [r10+rax*1],edx
    8be7:	add    rax,0x4
    8beb:	cmp    rax,0x10
    8bef:	jne    8bdc <dct_chroma+0xd3c>
    8bf1:	mov    edx,DWORD PTR [rsp+0x128]
    8bf8:	mov    eax,DWORD PTR [rsp+0x120]
    8bff:	mov    rsi,rbp
    8c02:	lea    ecx,[rax+rdx*1]
    8c05:	sub    eax,edx
    8c07:	mov    DWORD PTR [rsp+0x130],ecx
    8c0e:	mov    ecx,DWORD PTR [rsp+0x124]
    8c15:	mov    DWORD PTR [rsp+0x134],eax
    8c1c:	mov    eax,DWORD PTR [rsp+0x12c]
    8c23:	mov    edx,ecx
    8c25:	sar    edx,1
    8c27:	sub    edx,eax
    8c29:	sar    eax,1
    8c2b:	add    eax,ecx
    8c2d:	mov    DWORD PTR [rsp+0x138],edx
    8c34:	mov    rcx,rbp
    8c37:	xor    edx,edx
    8c39:	mov    DWORD PTR [rsp+0x13c],eax
    8c40:	test   ebx,ebx
    8c42:	jne    8ce4 <dct_chroma+0xe44>
    8c48:	mov    r12d,DWORD PTR [r9+rdx*1]
    8c4c:	movzx  r13d,WORD PTR [rcx+0x3138]
    8c54:	mov    r11,QWORD PTR [rsp+0x20]
    8c59:	lea    r8d,[r12+rax*1]
    8c5d:	shl    r13,0x6
    8c61:	movsxd r8,r8d
    8c64:	movsxd r11,DWORD PTR [r11+0x11bf0]
    8c6b:	lea    r8,[r13+r8*1+0x20]
    8c70:	sar    r8,0x6
    8c74:	cmovs  r8,r15
    8c78:	cmp    r8,r11
    8c7b:	cmovg  r8,r11
    8c7f:	sub    r12d,eax
    8c82:	movsxd r12,r12d
    8c85:	mov    DWORD PTR [r14+rcx*2+0x3338],r8d
    8c8d:	movzx  r8d,WORD PTR [rsi+0x313e]
    8c95:	shl    r8,0x6
    8c99:	lea    rax,[r8+r12*1+0x20]
    8c9e:	sar    rax,0x6
    8ca2:	cmovs  rax,r15
    8ca6:	cmp    rax,r11
    8ca9:	cmovg  rax,r11
    8cad:	mov    DWORD PTR [r14+rsi*2+0x3344],eax
    8cb5:	add    rcx,0x2
    8cb9:	sub    rsi,0x2
    8cbd:	lea    r8,[rdx+0x4]
    8cc1:	cmp    rdx,0x4
    8cc5:	je     8d10 <dct_chroma+0xe70>
    8cc7:	mov    rax,0xfffffffffffffffc
    8cce:	sub    rax,rdx
    8cd1:	mov    rdx,QWORD PTR [rsp+0x28]
    8cd6:	mov    eax,DWORD PTR [rdx+rax*1]
    8cd9:	mov    rdx,r8
    8cdc:	test   ebx,ebx
    8cde:	je     8c48 <dct_chroma+0xda8>
    8ce4:	mov    r8d,DWORD PTR [r9+rdx*1]
    8ce8:	lea    r11d,[r8+rax*1+0x20]
    8ced:	sub    r8d,eax
    8cf0:	add    r8d,0x20
    8cf4:	sar    r11d,0x6
    8cf8:	sar    r8d,0x6
    8cfc:	mov    DWORD PTR [r14+rcx*2+0x3338],r11d
    8d04:	mov    DWORD PTR [r14+rsi*2+0x3344],r8d
    8d0c:	jmp    8cb5 <dct_chroma+0xe15>
    8d0e:	xchg   ax,ax
    8d10:	add    rbp,0x20
    8d14:	add    rdi,0x40
    8d18:	cmp    QWORD PTR [rsp+0x10],rdi
    8d1d:	jne    8bda <dct_chroma+0xd3a>
    8d23:	add    DWORD PTR [rsp+0x30],0x4
    8d28:	mov    eax,DWORD PTR [rsp+0x30]
    8d2c:	add    QWORD PTR [rsp+0x10],0x100
    8d35:	sub    QWORD PTR [rsp+0x8],0x100
    8d3e:	add    QWORD PTR [rsp+0x18],0x100
    8d47:	add    QWORD PTR [rsp+0x38],0x40
    8d4d:	cmp    DWORD PTR [rsp+0x40],eax
    8d51:	jg     8ad0 <dct_chroma+0xc30>
    8d57:	add    QWORD PTR [rsp+0x58],0x4
    8d5d:	mov    rax,QWORD PTR [rsp+0x58]
    8d62:	add    QWORD PTR [rsp+0x48],0x8
    8d68:	cmp    DWORD PTR [rsp+0x60],eax
    8d6c:	jg     8a70 <dct_chroma+0xbd0>
    8d72:	mov    eax,DWORD PTR [rsp+0x68]
    8d76:	mov    r10,QWORD PTR [rsp+0x20]
    8d7b:	test   eax,eax
    8d7d:	jne    8e45 <dct_chroma+0xfa5>
    8d83:	mov    r13d,DWORD PTR [rsp+0x40]
    8d88:	mov    r14d,DWORD PTR [rsp+0x60]
    8d8d:	mov    r9,r10
    8d90:	mov    r11,r10
    8d93:	mov    rbx,QWORD PTR [rsp+0xf8]
    8d9b:	mov    rbp,QWORD PTR [rip+0x81c06]        # 8a9a8 <enc_picture>
    8da2:	xor    r12d,r12d
    8da5:	mov    r8d,DWORD PTR [rsp+0xa0]
    8dad:	lea    edi,[r13-0x1]
    8db1:	sub    rbx,0x8
    8db5:	test   r13d,r13d
    8db8:	jle    8e30 <dct_chroma+0xf90>
    8dba:	mov    rdx,QWORD PTR [rbp+0x1940]
    8dc1:	mov    eax,DWORD PTR [r10+0xa4]
    8dc8:	mov    rcx,QWORD PTR [rdx+rbx*1]
    8dcc:	add    eax,r12d
    8dcf:	movsxd rdx,DWORD PTR [r10+0xa0]
    8dd6:	cdqe   
    8dd8:	mov    rax,QWORD PTR [rcx+rax*8]
    8ddc:	lea    rsi,[rax+rdx*2]
    8de0:	mov    rdx,r11
    8de3:	xor    eax,eax
    8de5:	jmp    8e14 <dct_chroma+0xf74>
    8de7:	nop    WORD PTR [rax+rax*1+0x0]
    8df0:	mov    r15,rax
    8df3:	add    rdx,0x40
    8df7:	shl    r15,0x5
    8dfb:	add    cx,WORD PTR [r9+r15*1+0x3138]
    8e04:	mov    WORD PTR [rsi+rax*2],cx
    8e08:	lea    rcx,[rax+0x1]
    8e0c:	cmp    rdi,rax
    8e0f:	je     8e30 <dct_chroma+0xf90>
    8e11:	mov    rax,rcx
    8e14:	mov    ecx,DWORD PTR [rdx+0x3338]
    8e1a:	test   r8d,r8d
    8e1d:	jne    8df0 <dct_chroma+0xf50>
    8e1f:	mov    WORD PTR [rsi+rax*2],cx
    8e23:	add    rdx,0x40
    8e27:	lea    rcx,[rax+0x1]
    8e2b:	cmp    rdi,rax
    8e2e:	jne    8e11 <dct_chroma+0xf71>
    8e30:	add    r12d,0x1
    8e34:	add    r9,0x2
    8e38:	add    r11,0x4
    8e3c:	cmp    r12d,r14d
    8e3f:	jl     8db5 <dct_chroma+0xf15>
    8e45:	mov    rax,QWORD PTR [rsp+0x1e8]
    8e4d:	xor    rax,QWORD PTR fs:0x28
    8e56:	jne    9ef0 <dct_chroma+0x2050>
    8e5c:	mov    eax,DWORD PTR [rsp+0xe4]
    8e63:	add    rsp,0x1f8
    8e6a:	pop    rbx
    8e6b:	pop    rbp
    8e6c:	pop    r12
    8e6e:	pop    r13
    8e70:	pop    r14
    8e72:	pop    r15
    8e74:	ret    
    8e75:	movzx  eax,BYTE PTR [rsp+0xab]
    8e7d:	cmp    r11d,0x2
    8e81:	mov    BYTE PTR [rsp+0x50],al
    8e85:	mov    eax,0x2
    8e8a:	cmovne eax,DWORD PTR [rsp+0xe4]
    8e92:	mov    DWORD PTR [rsp+0xe4],eax
    8e99:	jmp    8a0c <dct_chroma+0xb6c>
    8e9e:	mov    ecx,DWORD PTR [r10+0x3438]
    8ea5:	mov    eax,DWORD PTR [r10+0x3338]
    8eac:	xor    ebp,ebp
    8eae:	mov    DWORD PTR [rsp+0xcc],0x0
    8eb9:	mov    edx,DWORD PTR [r10+0x3348]
    8ec0:	mov    esi,DWORD PTR [r10+0x3448]
    8ec7:	lea    r11,[rsp+0x120]
    8ecf:	mov    r15d,0xffffffff
    8ed5:	lea    edi,[rax+rcx*1]
    8ed8:	sub    eax,ecx
    8eda:	movsxd r8,DWORD PTR [rsp+0x48]
    8edf:	lea    ecx,[rdx+rax*1]
    8ee2:	lea    r13d,[rdi+rdx*1]
    8ee6:	sub    edi,edx
    8ee8:	sub    eax,edx
    8eea:	sub    ecx,esi
    8eec:	add    r13d,esi
    8eef:	lea    rdx,[rsp+0x110]
    8ef7:	mov    DWORD PTR [rsp+0x114],ecx
    8efe:	mov    ecx,edi
    8f00:	mov    r14,rdx
    8f03:	sub    ecx,esi
    8f05:	add    esi,eax
    8f07:	mov    eax,DWORD PTR [rsp+0xf4]
    8f0e:	mov    DWORD PTR [rsp+0x110],r13d
    8f16:	mov    DWORD PTR [rsp+0x118],ecx
    8f1d:	lea    ecx,[rax*4+0x0]
    8f24:	mov    eax,0xf0000
    8f29:	mov    DWORD PTR [rsp+0x11c],esi
    8f30:	mov    esi,r13d
    8f33:	shl    eax,cl
    8f35:	mov    r13,r11
    8f38:	cdqe   
    8f3a:	mov    QWORD PTR [rsp+0x10],rax
    8f3f:	movsxd rax,DWORD PTR [rsp+0x20]
    8f44:	lea    ebx,[rax+0x10]
    8f47:	mov    QWORD PTR [rsp+0x8],rax
    8f4c:	mov    rax,QWORD PTR [rsp+0x40]
    8f51:	mov    DWORD PTR [rsp],ebx
    8f54:	mov    rbx,rdx
    8f57:	lea    r10,[rax+rax*2]
    8f5b:	lea    r9,[r8+r10*2]
    8f5f:	mov    ecx,esi
    8f61:	add    r15d,0x1
    8f65:	sar    ecx,0x1f
    8f68:	mov    eax,ecx
    8f6a:	xor    eax,esi
    8f6c:	sub    eax,ecx
    8f6e:	mov    rcx,r9
    8f71:	shl    rcx,0x6
    8f75:	cmp    BYTE PTR [rsp+0x18],0x0
    8f7a:	je     9094 <dct_chroma+0x11f4>
    8f80:	lea    rdi,[rip+0xcf539]        # d84c0 <LevelScale4x4Chroma_Intra>
    8f87:	imul   eax,DWORD PTR [rdi+rcx*1]
    8f8b:	mov    rdi,QWORD PTR [rsp+0x40]
    8f90:	lea    rcx,[rdi+r10*4]
    8f94:	add    rcx,QWORD PTR [rsp+0x8]
    8f99:	lea    rdi,[rip+0xd39a0]        # dc940 <LevelOffset4x4Chroma_Intra>
    8fa0:	shl    rcx,0x6
    8fa4:	mov    ecx,DWORD PTR [rdi+rcx*1]
    8fa7:	lea    edi,[rax+rcx*2]
    8faa:	movzx  ecx,BYTE PTR [rsp]
    8fae:	sar    edi,cl
    8fb0:	mov    rax,QWORD PTR [rip+0x7f601]        # 885b8 <input>
    8fb7:	mov    r12d,DWORD PTR [rax+0x934]
    8fbe:	test   r12d,r12d
    8fc1:	jne    8fdc <dct_chroma+0x113c>
    8fc3:	mov    rax,QWORD PTR [rip+0x7f5e6]        # 885b0 <img>
    8fca:	cmp    DWORD PTR [rax+0x28],0x3
    8fce:	jg     8fdc <dct_chroma+0x113c>
    8fd0:	cmp    edi,0x80f
    8fd6:	jg     985c <dct_chroma+0x19bc>
    8fdc:	test   edi,edi
    8fde:	je     907c <dct_chroma+0x11dc>
    8fe4:	mov    rax,QWORD PTR [rsp+0xd8]
    8fec:	mov    rdx,QWORD PTR [rsp+0x10]
    8ff1:	movsxd r12,ebp
    8ff4:	mov    QWORD PTR [rsp+0x78],r9
    8ff9:	mov    QWORD PTR [rsp+0x70],r10
    8ffe:	or     QWORD PTR [rax+0x1d0],rdx
    9005:	mov    edx,DWORD PTR [rsp+0x68]
    9009:	mov    eax,0x1
    900e:	mov    QWORD PTR [rsp+0x50],r8
    9013:	test   edx,edx
    9015:	mov    DWORD PTR [rsp+0x30],esi
    9019:	cmovg  eax,edx
    901c:	mov    DWORD PTR [rsp+0x28],edi
    9020:	add    ebp,0x1
    9023:	mov    DWORD PTR [rsp+0x68],eax
    9027:	mov    rax,QWORD PTR [rsp+0x60]
    902c:	lea    rcx,[rax+r12*4]
    9030:	mov    QWORD PTR [rsp+0x38],rcx
    9035:	call   465a0 <sign>
    903a:	mov    rcx,QWORD PTR [rsp+0x38]
    903f:	mov    edi,DWORD PTR [rsp+0x28]
    9043:	mov    esi,DWORD PTR [rsp+0x30]
    9047:	mov    DWORD PTR [rcx],eax
    9049:	mov    rax,QWORD PTR [rsp+0x80]
    9051:	mov    DWORD PTR [rax+r12*4],r15d
    9055:	mov    r15d,0xffffffff
    905b:	call   465a0 <sign>
    9060:	mov    r9,QWORD PTR [rsp+0x78]
    9065:	mov    r10,QWORD PTR [rsp+0x70]
    906a:	mov    DWORD PTR [rsp+0xcc],0x1
    9075:	mov    r8,QWORD PTR [rsp+0x50]
    907a:	mov    edi,eax
    907c:	mov    DWORD PTR [r14],edi
    907f:	add    r14,0x4
    9083:	cmp    r13,r14
    9086:	je     93d4 <dct_chroma+0x1534>
    908c:	mov    esi,DWORD PTR [r14]
    908f:	jmp    8f5f <dct_chroma+0x10bf>
    9094:	lea    rdi,[rip+0xd0665]        # d9700 <LevelScale4x4Chroma_Inter>
    909b:	imul   eax,DWORD PTR [rdi+rcx*1]
    909f:	mov    rdi,QWORD PTR [rsp+0x40]
    90a4:	lea    rcx,[rdi+r10*4]
    90a8:	add    rcx,QWORD PTR [rsp+0x8]
    90ad:	lea    rdi,[rip+0xd20ac]        # db160 <LevelOffset4x4Chroma_Inter>
    90b4:	shl    rcx,0x6
    90b8:	mov    ecx,DWORD PTR [rdi+rcx*1]
    90bb:	lea    edi,[rax+rcx*2]
    90be:	movzx  ecx,BYTE PTR [rsp]
    90c2:	sar    edi,cl
    90c4:	jmp    8fb0 <dct_chroma+0x1110>
    90c9:	lea    edx,[rsi+rax*1+0x3]
    90cd:	movsxd rax,edx
    90d0:	mov    ecx,edx
    90d2:	imul   rax,rax,0x2aaaaaab
    90d9:	sar    ecx,0x1f
    90dc:	shr    rax,0x20
    90e0:	mov    ebx,eax
    90e2:	sub    ebx,ecx
    90e4:	lea    eax,[rbx+rbx*2]
    90e7:	mov    DWORD PTR [rsp+0x70],ebx
    90eb:	add    eax,eax
    90ed:	sub    edx,eax
    90ef:	lea    eax,[rbx+0xf]
    90f2:	mov    DWORD PTR [rsp+0x88],eax
    90f9:	mov    eax,DWORD PTR [rsp+0x50]
    90fd:	mov    DWORD PTR [rsp+0x90],edx
    9104:	test   eax,eax
    9106:	jg     808b <dct_chroma+0x1eb>
    910c:	mov    edx,DWORD PTR [rsp+0x170]
    9113:	mov    r8d,DWORD PTR [rsp+0x174]
    911b:	mov    r13d,0xffffffff
    9121:	mov    DWORD PTR [rsp+0xcc],0x0
    912c:	mov    r10d,DWORD PTR [rsp+0x178]
    9134:	mov    ebp,DWORD PTR [rsp+0x16c]
    913b:	mov    DWORD PTR [rsp],0x0
    9142:	lea    r14,[rip+0x61579]        # 6a6c2 <SCAN_YUV422+0x2>
    9149:	mov    r9d,DWORD PTR [rsp+0x160]
    9151:	mov    r11d,DWORD PTR [rsp+0x164]
    9159:	mov    ebx,DWORD PTR [rsp+0x168]
    9160:	mov    r12d,DWORD PTR [rsp+0x17c]
    9168:	lea    eax,[r11+r8*1]
    916c:	lea    esi,[r9+rdx*1]
    9170:	sub    r9d,edx
    9173:	sub    r11d,r8d
    9176:	lea    edi,[rbx+r10*1]
    917a:	lea    ecx,[rbp+r12*1+0x0]
    917f:	sub    ebx,r10d
    9182:	mov    r10d,ebp
    9185:	lea    edx,[rsi+rcx*1]
    9188:	sub    esi,ecx
    918a:	lea    ecx,[rax+rdi*1]
    918d:	sub    eax,edi
    918f:	mov    r8d,esi
    9192:	lea    esi,[rcx+rdx*1]
    9195:	sub    edx,ecx
    9197:	sub    r10d,r12d
    919a:	mov    DWORD PTR [rsp+0x1a0],esi
    91a1:	mov    esi,r8d
    91a4:	lea    ecx,[r11+rbx*1]
    91a8:	xor    ebp,ebp
    91aa:	mov    DWORD PTR [rsp+0x1a8],edx
    91b1:	lea    edx,[rax+r8*1]
    91b5:	sub    esi,eax
    91b7:	mov    eax,r11d
    91ba:	mov    DWORD PTR [rsp+0x1a4],edx
    91c1:	lea    edx,[r9+r10*1]
    91c5:	sub    eax,ebx
    91c7:	sub    r9d,r10d
    91ca:	mov    DWORD PTR [rsp+0x1ac],esi
    91d1:	lea    esi,[rdx+rcx*1]
    91d4:	sub    edx,ecx
    91d6:	xor    ebx,ebx
    91d8:	mov    DWORD PTR [rsp+0x1b8],edx
    91df:	lea    edx,[r9+rax*1]
    91e3:	sub    r9d,eax
    91e6:	mov    eax,DWORD PTR [rsp+0xf4]
    91ed:	mov    DWORD PTR [rsp+0x1b0],esi
    91f4:	movsxd rsi,DWORD PTR [rsp+0x70]
    91f9:	lea    ecx,[rax*8+0x0]
    9200:	mov    eax,0xff0000
    9205:	mov    DWORD PTR [rsp+0x1b4],edx
    920c:	mov    edx,ebp
    920e:	shl    eax,cl
    9210:	mov    QWORD PTR [rsp+0x10],rsi
    9215:	mov    rsi,QWORD PTR [rsp+0x40]
    921a:	mov    ebp,r13d
    921d:	cdqe   
    921f:	mov    DWORD PTR [rsp+0x1bc],r9d
    9227:	mov    QWORD PTR [rsp+0x38],rax
    922c:	mov    eax,DWORD PTR [rsp+0x88]
    9233:	lea    rsi,[rsi+rsi*2]
    9237:	mov    QWORD PTR [rsp+0x28],rsi
    923c:	add    eax,0x1
    923f:	mov    DWORD PTR [rsp+0x8],eax
    9243:	movsxd rax,DWORD PTR [rsp+0x90]
    924b:	mov    QWORD PTR [rsp+0x50],rax
    9250:	lea    rax,[rax+rsi*2]
    9254:	mov    QWORD PTR [rsp+0x30],rax
    9259:	jmp    92e2 <dct_chroma+0x1442>
    925e:	lea    rdi,[rip+0xcf25b]        # d84c0 <LevelScale4x4Chroma_Intra>
    9265:	mov    rbx,QWORD PTR [rsp+0x40]
    926a:	imul   eax,DWORD PTR [rdi+rcx*1]
    926e:	mov    rdi,QWORD PTR [rsp+0x28]
    9273:	lea    rcx,[rbx+rdi*4]
    9277:	add    rcx,QWORD PTR [rsp+0x10]
    927c:	lea    rdi,[rip+0xd36bd]        # dc940 <LevelOffset4x4Chroma_Intra>
    9283:	shl    rcx,0x6
    9287:	mov    ecx,DWORD PTR [rdi+rcx*1]
    928a:	lea    edi,[rax+rcx*2]
    928d:	movzx  ecx,BYTE PTR [rsp+0x8]
    9292:	sar    edi,cl
    9294:	movsxd r9,DWORD PTR [rsp]
    9298:	mov    rax,QWORD PTR [rsp+0x60]
    929d:	lea    r12,[r9*4+0x0]
    92a5:	lea    rbx,[rax+r12*1]
    92a9:	test   edi,edi
    92ab:	jne    9352 <dct_chroma+0x14b2>
    92b1:	call   465a0 <sign>
    92b6:	mov    r9d,eax
    92b9:	lea    rax,[r15+r13*4]
    92bd:	mov    DWORD PTR [rsp+rax*4+0x160],r9d
    92c5:	lea    rax,[rip+0x61404]        # 6a6d0 <SCAN_YUV422+0x10>
    92cc:	cmp    rax,r14
    92cf:	je     9564 <dct_chroma+0x16c4>
    92d5:	movzx  ebx,BYTE PTR [r14]
    92d9:	movzx  edx,BYTE PTR [r14+0x1]
    92de:	add    r14,0x2
    92e2:	movzx  r15d,dl
    92e6:	movzx  r13d,bl
    92ea:	add    ebp,0x1
    92ed:	lea    rax,[r15+r13*4]
    92f1:	mov    esi,DWORD PTR [rsp+rax*4+0x1a0]
    92f8:	mov    ecx,esi
    92fa:	sar    ecx,0x1f
    92fd:	mov    eax,ecx
    92ff:	xor    eax,esi
    9301:	sub    eax,ecx
    9303:	mov    rcx,QWORD PTR [rsp+0x30]
    9308:	shl    rcx,0x6
    930c:	cmp    BYTE PTR [rsp+0x18],0x0
    9311:	jne    925e <dct_chroma+0x13be>
    9317:	lea    rdi,[rip+0xd03e2]        # d9700 <LevelScale4x4Chroma_Inter>
    931e:	mov    rbx,QWORD PTR [rsp+0x40]
    9323:	imul   eax,DWORD PTR [rdi+rcx*1]
    9327:	mov    rdi,QWORD PTR [rsp+0x28]
    932c:	lea    rcx,[rbx+rdi*4]
    9330:	add    rcx,QWORD PTR [rsp+0x10]
    9335:	lea    rdi,[rip+0xd1e24]        # db160 <LevelOffset4x4Chroma_Inter>
    933c:	shl    rcx,0x6
    9340:	mov    ecx,DWORD PTR [rdi+rcx*1]
    9343:	lea    edi,[rax+rcx*2]
    9346:	movzx  ecx,BYTE PTR [rsp+0x8]
    934b:	sar    edi,cl
    934d:	jmp    9294 <dct_chroma+0x13f4>
    9352:	mov    rax,QWORD PTR [rsp+0xd8]
    935a:	mov    rdx,QWORD PTR [rsp+0x38]
    935f:	mov    DWORD PTR [rsp+0x78],edi
    9363:	mov    QWORD PTR [rsp+0x90],r9
    936b:	or     QWORD PTR [rax+0x1d0],rdx
    9372:	mov    edx,DWORD PTR [rsp+0x68]
    9376:	mov    eax,0x1
    937b:	mov    DWORD PTR [rsp+0x88],esi
    9382:	test   edx,edx
    9384:	cmovg  eax,edx
    9387:	mov    DWORD PTR [rsp+0x68],eax
    938b:	call   465a0 <sign>
    9390:	add    DWORD PTR [rsp],0x1
    9394:	mov    esi,DWORD PTR [rsp+0x88]
    939b:	mov    r9,QWORD PTR [rsp+0x90]
    93a3:	mov    edi,DWORD PTR [rsp+0x78]
    93a7:	mov    DWORD PTR [rbx],eax
    93a9:	mov    rax,QWORD PTR [rsp+0x80]
    93b1:	mov    DWORD PTR [rsp+0xcc],0x1
    93bc:	mov    DWORD PTR [rax+r9*4],ebp
    93c0:	mov    rax,QWORD PTR [rsp+0x60]
    93c5:	mov    ebp,0xffffffff
    93ca:	lea    rbx,[rax+r12*1+0x4]
    93cf:	jmp    92b1 <dct_chroma+0x1411>
    93d4:	mov    rax,QWORD PTR [rsp+0x60]
    93d9:	movsxd r9,ebp
    93dc:	mov    rdx,rbx
    93df:	mov    ebx,DWORD PTR [rsp+0x20]
    93e3:	mov    edi,DWORD PTR [rsp+0x114]
    93ea:	mov    ecx,DWORD PTR [rsp+0x110]
    93f1:	mov    r11,r13
    93f4:	mov    DWORD PTR [rax+r9*4],0x0
    93fc:	mov    r9d,DWORD PTR [rsp+0x118]
    9404:	lea    esi,[rcx+rdi*1]
    9407:	sub    ecx,edi
    9409:	mov    r10d,DWORD PTR [rsp+0x11c]
    9411:	lea    eax,[rsi+r9*1]
    9415:	lea    edi,[r9+rcx*1]
    9419:	sub    esi,r9d
    941c:	sub    ecx,r9d
    941f:	lea    r9d,[rbx-0x5]
    9423:	mov    rbx,QWORD PTR [rsp+0x40]
    9428:	sub    edi,r10d
    942b:	sub    esi,r10d
    942e:	add    eax,r10d
    9431:	add    r10d,ecx
    9434:	mov    DWORD PTR [rsp+0x124],edi
    943b:	lea    rdi,[rip+0xd05be]        # d9a00 <InvLevelScale4x4Chroma_Inter>
    9442:	lea    rcx,[rbx+rbx*2]
    9446:	mov    DWORD PTR [rsp+0x128],esi
    944d:	xor    esi,esi
    944f:	lea    rcx,[r8+rcx*2]
    9453:	mov    DWORD PTR [rsp+0x12c],r10d
    945b:	movzx  r10d,BYTE PTR [rsp+0x18]
    9461:	shl    rcx,0x6
    9465:	mov    DWORD PTR [rsp+0x120],eax
    946c:	lea    r8,[rdi+rcx*1]
    9470:	lea    rdi,[rip+0xcf4c9]        # d8940 <InvLevelScale4x4Chroma_Intra>
    9477:	add    rdi,rcx
    947a:	cmp    DWORD PTR [rsp+0xa4],0x1d
    9482:	jg     94b6 <dct_chroma+0x1616>
    9484:	mov    ecx,0x5
    9489:	sub    ecx,DWORD PTR [rsp+0x20]
    948d:	test   r10b,r10b
    9490:	je     9545 <dct_chroma+0x16a5>
    9496:	imul   eax,DWORD PTR [rdi]
    9499:	sar    eax,cl
    949b:	mov    DWORD PTR [rdx+rsi*1],eax
    949e:	add    rsi,0x4
    94a2:	cmp    rsi,0x10
    94a6:	je     94d4 <dct_chroma+0x1634>
    94a8:	cmp    DWORD PTR [rsp+0xa4],0x1d
    94b0:	mov    eax,DWORD PTR [r11+rsi*1]
    94b4:	jle    9484 <dct_chroma+0x15e4>
    94b6:	test   r10b,r10b
    94b9:	je     9553 <dct_chroma+0x16b3>
    94bf:	imul   eax,DWORD PTR [rdi]
    94c2:	mov    ecx,r9d
    94c5:	shl    eax,cl
    94c7:	mov    DWORD PTR [rdx+rsi*1],eax
    94ca:	add    rsi,0x4
    94ce:	cmp    rsi,0x10
    94d2:	jne    94a8 <dct_chroma+0x1608>
    94d4:	mov    r10,QWORD PTR [rip+0x7f0d5]        # 885b0 <img>
    94db:	mov    eax,DWORD PTR [rsp+0x110]
    94e2:	mov    DWORD PTR [r10+0x3338],eax
    94e9:	mov    eax,DWORD PTR [rsp+0x114]
    94f0:	mov    DWORD PTR [r10+0x3438],eax
    94f7:	mov    eax,DWORD PTR [rsp+0x118]
    94fe:	mov    DWORD PTR [r10+0x3348],eax
    9505:	mov    eax,DWORD PTR [rsp+0x11c]
    950c:	mov    DWORD PTR [r10+0x3448],eax
    9513:	mov    eax,DWORD PTR [r10+0x11bf4]
    951a:	mov    DWORD PTR [rsp+0x78],eax
    951e:	mov    eax,DWORD PTR [rsp+0x68]
    9522:	cmp    DWORD PTR [rsp+0x78],0x1
    9527:	mov    DWORD PTR [rsp+0xe4],eax
    952e:	jg     82f5 <dct_chroma+0x455>
    9534:	movzx  eax,BYTE PTR [rsp+0xab]
    953c:	mov    BYTE PTR [rsp+0x50],al
    9540:	jmp    8a0c <dct_chroma+0xb6c>
    9545:	imul   eax,DWORD PTR [r8]
    9549:	sar    eax,cl
    954b:	mov    DWORD PTR [rdx+rsi*1],eax
    954e:	jmp    949e <dct_chroma+0x15fe>
    9553:	imul   eax,DWORD PTR [r8]
    9557:	mov    ecx,r9d
    955a:	shl    eax,cl
    955c:	mov    DWORD PTR [rdx+rsi*1],eax
    955f:	jmp    949e <dct_chroma+0x15fe>
    9564:	mov    edx,DWORD PTR [rsp+0x170]
    956b:	mov    esi,DWORD PTR [rsp+0x174]
    9572:	mov    DWORD PTR [rbx],0x0
    9578:	lea    rbp,[rsp+0x130]
    9580:	mov    eax,DWORD PTR [rsp+0x160]
    9587:	mov    ecx,DWORD PTR [rsp+0x164]
    958e:	lea    rbx,[rsp+0x1a0]
    9596:	mov    r10d,DWORD PTR [rsp+0x17c]
    959e:	mov    r9d,DWORD PTR [rsp+0x16c]
    95a6:	lea    r12d,[rax+rdx*1]
    95aa:	lea    r14d,[rcx+rsi*1]
    95ae:	sub    eax,edx
    95b0:	sub    ecx,esi
    95b2:	mov    DWORD PTR [rsp+0x1b0],eax
    95b9:	mov    eax,0x1
    95be:	mov    rsi,QWORD PTR [rsp+0x50]
    95c3:	lea    rdx,[rip+0xd0436]        # d9a00 <InvLevelScale4x4Chroma_Inter>
    95ca:	mov    DWORD PTR [rsp+0x1b4],ecx
    95d1:	mov    ecx,0x3
    95d6:	sub    ecx,DWORD PTR [rsp+0x70]
    95da:	lea    r15d,[r9+r10*1]
    95de:	shl    eax,cl
    95e0:	mov    edi,DWORD PTR [rsp+0x168]
    95e7:	mov    r8d,DWORD PTR [rsp+0x178]
    95ef:	sub    r9d,r10d
    95f2:	mov    DWORD PTR [rsp],eax
    95f5:	lea    rax,[rsp+0x1c0]
    95fd:	mov    r10,QWORD PTR [rip+0x7efac]        # 885b0 <img>
    9604:	mov    QWORD PTR [rsp+0x30],rax
    9609:	lea    rax,[rsp+0x138]
    9611:	lea    r13d,[rdi+r8*1]
    9615:	sub    edi,r8d
    9618:	mov    QWORD PTR [rsp+0x38],rax
    961d:	mov    rax,QWORD PTR [rsp+0x40]
    9622:	mov    DWORD PTR [rsp+0x1b8],edi
    9629:	lea    rax,[rax+rax*2]
    962d:	mov    QWORD PTR [rsp+0x50],r10
    9632:	lea    rax,[rsi+rax*2]
    9636:	mov    DWORD PTR [rsp+0x1bc],r9d
    963e:	mov    r9,r10
    9641:	shl    rax,0x6
    9645:	lea    rsi,[rdx+rax*1]
    9649:	lea    rdx,[rip+0xcf2f0]        # d8940 <InvLevelScale4x4Chroma_Intra>
    9650:	add    rax,rdx
    9653:	mov    QWORD PTR [rsp+0x10],rsi
    9658:	mov    QWORD PTR [rsp+0x28],rax
    965d:	lea    eax,[r12+r13*1]
    9661:	lea    edx,[r14+r15*1]
    9665:	mov    r8,r9
    9668:	mov    rdi,r9
    966b:	mov    DWORD PTR [rsp+0x130],eax
    9672:	mov    eax,r12d
    9675:	mov    rsi,rbp
    9678:	sub    eax,r13d
    967b:	mov    DWORD PTR [rsp+0x13c],edx
    9682:	mov    DWORD PTR [rsp+0x134],eax
    9689:	mov    eax,r14d
    968c:	sub    eax,r15d
    968f:	mov    DWORD PTR [rsp+0x138],eax
    9696:	mov    eax,DWORD PTR [rsp+0x70]
    969a:	sub    eax,0x4
    969d:	mov    DWORD PTR [rsp+0x8],eax
    96a1:	mov    eax,DWORD PTR [rsp+0x70]
    96a5:	cmp    eax,0x3
    96a8:	jg     9741 <dct_chroma+0x18a1>
    96ae:	mov    ecx,0x4
    96b3:	sub    ecx,eax
    96b5:	cmp    BYTE PTR [rsp+0x18],0x0
    96ba:	mov    eax,DWORD PTR [rsi]
    96bc:	je     97ed <dct_chroma+0x194d>
    96c2:	mov    r11,QWORD PTR [rsp+0x28]
    96c7:	mov    r11d,DWORD PTR [r11]
    96ca:	lea    r10d,[rax+rdx*1]
    96ce:	sub    eax,edx
    96d0:	imul   r10d,r11d
    96d4:	add    r10d,DWORD PTR [rsp]
    96d8:	imul   eax,r11d
    96dc:	add    eax,DWORD PTR [rsp]
    96df:	sar    r10d,cl
    96e2:	sar    eax,cl
    96e4:	add    r10d,0x2
    96e8:	add    eax,0x2
    96eb:	sar    r10d,0x2
    96ef:	sar    eax,0x2
    96f2:	mov    DWORD PTR [rdi+0x3338],r10d
    96f9:	mov    DWORD PTR [r8+0x3368],eax
    9700:	lea    rax,[rsi+0x4]
    9704:	add    rdi,0x10
    9708:	sub    r8,0x10
    970c:	cmp    QWORD PTR [rsp+0x38],rax
    9711:	jne    9797 <dct_chroma+0x18f7>
    9717:	add    rbx,0x10
    971b:	add    r9,0x100
    9722:	cmp    QWORD PTR [rsp+0x30],rbx
    9727:	je     97ad <dct_chroma+0x190d>
    972d:	mov    r12d,DWORD PTR [rbx]
    9730:	mov    r14d,DWORD PTR [rbx+0x4]
    9734:	mov    r13d,DWORD PTR [rbx+0x8]
    9738:	mov    r15d,DWORD PTR [rbx+0xc]
    973c:	jmp    965d <dct_chroma+0x17bd>
    9741:	cmp    BYTE PTR [rsp+0x18],0x0
    9746:	mov    eax,DWORD PTR [rsi]
    9748:	je     97f7 <dct_chroma+0x1957>
    974e:	mov    rcx,QWORD PTR [rsp+0x28]
    9753:	mov    r11d,DWORD PTR [rcx]
    9756:	lea    r10d,[rax+rdx*1]
    975a:	movzx  ecx,BYTE PTR [rsp+0x8]
    975f:	sub    eax,edx
    9761:	imul   r10d,r11d
    9765:	imul   r11d,eax
    9769:	shl    r10d,cl
    976c:	mov    ecx,r10d
    976f:	mov    eax,r11d
    9772:	add    ecx,0x2
    9775:	sar    ecx,0x2
    9778:	mov    DWORD PTR [rdi+0x3338],ecx
    977e:	movzx  ecx,BYTE PTR [rsp+0x8]
    9783:	shl    eax,cl
    9785:	add    eax,0x2
    9788:	sar    eax,0x2
    978b:	mov    DWORD PTR [r8+0x3368],eax
    9792:	jmp    9700 <dct_chroma+0x1860>
    9797:	mov    rdx,0xfffffffffffffffc
    979e:	sub    rdx,rsi
    97a1:	mov    rsi,rax
    97a4:	mov    edx,DWORD PTR [rdx+rbp*2+0xc]
    97a8:	jmp    96a1 <dct_chroma+0x1801>
    97ad:	mov    r10,QWORD PTR [rsp+0x50]
    97b2:	mov    DWORD PTR [rsp+0x120],r12d
    97ba:	mov    DWORD PTR [rsp+0x128],r13d
    97c2:	mov    DWORD PTR [rsp+0x124],r14d
    97ca:	mov    DWORD PTR [rsp+0x12c],r15d
    97d2:	mov    eax,DWORD PTR [r10+0x11bf4]
    97d9:	mov    DWORD PTR [rsp+0x78],eax
    97dd:	mov    eax,DWORD PTR [rsp+0x68]
    97e1:	mov    DWORD PTR [rsp+0xe4],eax
    97e8:	jmp    82ea <dct_chroma+0x44a>
    97ed:	mov    r11,QWORD PTR [rsp+0x10]
    97f2:	jmp    96c7 <dct_chroma+0x1827>
    97f7:	mov    rcx,QWORD PTR [rsp+0x10]
    97fc:	jmp    9753 <dct_chroma+0x18b3>
    9801:	mov    edi,DWORD PTR [r10+0x11c04]
    9808:	mov    r9,r10
    980b:	xor    r8d,r8d
    980e:	test   edi,edi
    9810:	jle    9848 <dct_chroma+0x19a8>
    9812:	mov    r10d,r8d
    9815:	mov    rcx,r9
    9818:	xor    eax,eax
    981a:	sar    r10d,0x2
    981e:	movsxd r10,r10d
    9821:	mov    edx,eax
    9823:	mov    esi,DWORD PTR [rcx+0x3338]
    9829:	add    eax,0x4
    982c:	add    rcx,0x100
    9833:	sar    edx,0x2
    9836:	movsxd rdx,edx
    9839:	lea    rdx,[r10+rdx*4]
    983d:	mov    DWORD PTR [rsp+rdx*4+0x160],esi
    9844:	cmp    eax,edi
    9846:	jl     9821 <dct_chroma+0x1981>
    9848:	add    r8d,0x4
    984c:	add    r9,0x10
    9850:	cmp    r8d,DWORD PTR [rsp+0x50]
    9855:	jl     980e <dct_chroma+0x196e>
    9857:	jmp    910c <dct_chroma+0x126c>
    985c:	mov    edi,0x80f
    9861:	jmp    8fe4 <dct_chroma+0x1144>
    9866:	mov    edi,DWORD PTR [r10+0x11c04]
    986d:	mov    r9,r10
    9870:	xor    r8d,r8d
    9873:	test   edi,edi
    9875:	jle    98ae <dct_chroma+0x1a0e>
    9877:	mov    esi,r8d
    987a:	mov    rcx,r9
    987d:	xor    eax,eax
    987f:	sar    esi,0x2
    9882:	movsxd rsi,esi
    9885:	mov    edx,eax
    9887:	mov    r10d,DWORD PTR [rcx+0x3338]
    988e:	add    eax,0x4
    9891:	add    rcx,0x100
    9898:	sar    edx,0x2
    989b:	movsxd rdx,edx
    989e:	lea    rdx,[rsi+rdx*4]
    98a2:	mov    DWORD PTR [rsp+rdx*4+0x1a0],r10d
    98aa:	cmp    eax,edi
    98ac:	jl     9885 <dct_chroma+0x19e5>
    98ae:	add    r8d,0x4
    98b2:	add    r9,0x10
    98b6:	cmp    r8d,DWORD PTR [rsp+0x50]
    98bb:	jl     9873 <dct_chroma+0x19d3>
    98bd:	cmp    BYTE PTR [rsp+0xab],0x0
    98c5:	je     9e50 <dct_chroma+0x1fb0>
    98cb:	lea    rax,[rsp+0x1a0]
    98d3:	lea    r10,[rsp+0x1b0]
    98db:	mov    rdx,rax
    98de:	mov    esi,DWORD PTR [rdx+0x30]
    98e1:	mov    ecx,DWORD PTR [rdx]
    98e3:	add    rdx,0x4
    98e7:	mov    r9d,DWORD PTR [rdx+0x1c]
    98eb:	lea    edi,[rcx+rsi*1]
    98ee:	sub    ecx,esi
    98f0:	mov    esi,DWORD PTR [rdx+0xc]
    98f3:	lea    r8d,[rsi+r9*1]
    98f7:	sub    esi,r9d
    98fa:	lea    r9d,[rdi+r8*1]
    98fe:	sub    edi,r8d
    9901:	mov    DWORD PTR [rdx+0x1c],edi
    9904:	lea    edi,[rcx+rsi*1]
    9907:	sub    ecx,esi
    9909:	mov    DWORD PTR [rdx-0x4],r9d
    990d:	mov    DWORD PTR [rdx+0xc],edi
    9910:	mov    DWORD PTR [rdx+0x2c],ecx
    9913:	cmp    rdx,r10
    9916:	jne    98de <dct_chroma+0x1a3e>
    9918:	lea    r9,[rax+0x40]
    991c:	mov    edx,DWORD PTR [rax+0xc]
    991f:	mov    r8d,DWORD PTR [rax]
    9922:	add    rax,0x10
    9926:	mov    edi,DWORD PTR [rax-0x8]
    9929:	lea    esi,[r8+rdx*1]
    992d:	sub    r8d,edx
    9930:	mov    edx,DWORD PTR [rax-0xc]
    9933:	lea    ecx,[rdx+rdi*1]
    9936:	sub    edx,edi
    9938:	lea    edi,[rsi+rcx*1]
    993b:	sar    edi,1
    993d:	mov    DWORD PTR [rax-0x10],edi
    9940:	mov    edi,esi
    9942:	sub    edi,ecx
    9944:	sar    edi,1
    9946:	mov    DWORD PTR [rax-0x8],edi
    9949:	lea    edi,[r8+rdx*1]
    994d:	sar    edi,1
    994f:	mov    DWORD PTR [rax-0xc],edi
    9952:	mov    edi,r8d
    9955:	sub    edi,edx
    9957:	sar    edi,1
    9959:	mov    DWORD PTR [rax-0x4],edi
    995c:	cmp    r9,rax
    995f:	jne    991c <dct_chroma+0x1a7c>
    9961:	movzx  eax,BYTE PTR [rsp+0xab]
    9969:	mov    DWORD PTR [rsp+0x120],esi
    9970:	mov    DWORD PTR [rsp+0x128],edx
    9977:	mov    DWORD PTR [rsp+0x124],ecx
    997e:	mov    DWORD PTR [rsp+0x12c],r8d
    9986:	mov    BYTE PTR [rsp],al
    9989:	mov    ecx,DWORD PTR [rsp+0xf4]
    9990:	mov    eax,0xffff0000
    9995:	xor    ebp,ebp
    9997:	xor    ebx,ebx
    9999:	lea    r8,[rip+0x61082]        # 6aa22 <SNGL_SCAN+0x2>
    99a0:	xor    r10d,r10d
    99a3:	mov    r9d,0xffffffff
    99a9:	mov    DWORD PTR [rsp+0xcc],0x0
    99b4:	shl    ecx,0x4
    99b7:	mov    r12,r8
    99ba:	mov    r14d,r10d
    99bd:	mov    r13d,r9d
    99c0:	shl    rax,cl
    99c3:	mov    r15d,DWORD PTR [rsp+0xa0]
    99cb:	mov    QWORD PTR [rsp+0x10],rax
    99d0:	mov    eax,DWORD PTR [rsp+0x68]
    99d4:	mov    DWORD PTR [rsp+0xe4],eax
    99db:	mov    rax,QWORD PTR [rsp+0x40]
    99e0:	lea    r11,[rax+rax*2]
    99e4:	lea    rax,[rax+r11*4]
    99e8:	mov    QWORD PTR [rsp+0x8],rax
    99ed:	jmp    9a18 <dct_chroma+0x1b78>
    99ef:	nop
    99f0:	test   r15d,r15d
    99f3:	je     9b3a <dct_chroma+0x1c9a>
    99f9:	lea    rax,[rip+0x61040]        # 6aa40 <QP_SCALE_CR>
    9a00:	cmp    r12,rax
    9a03:	je     9b73 <dct_chroma+0x1cd3>
    9a09:	movzx  ebx,BYTE PTR [r12]
    9a0e:	movzx  ebp,BYTE PTR [r12+0x1]
    9a14:	add    r12,0x2
    9a18:	lea    rax,[rbp+rbx*4+0x0]
    9a1d:	add    r13d,0x1
    9a21:	mov    esi,DWORD PTR [rsp+rax*4+0x1a0]
    9a28:	mov    eax,esi
    9a2a:	sar    eax,0x1f
    9a2d:	mov    edi,eax
    9a2f:	xor    edi,esi
    9a31:	sub    edi,eax
    9a33:	test   r15d,r15d
    9a36:	jne    9a7f <dct_chroma+0x1bdf>
    9a38:	movsxd rax,DWORD PTR [rsp+0x48]
    9a3d:	mov    r9d,DWORD PTR [rsp+0x20]
    9a42:	lea    rax,[rax+r11*2]
    9a46:	lea    ecx,[r9+0x10]
    9a4a:	shl    rax,0x6
    9a4e:	cmp    BYTE PTR [rsp+0x18],0x0
    9a53:	je     9d53 <dct_chroma+0x1eb3>
    9a59:	lea    rdx,[rip+0xcea60]        # d84c0 <LevelScale4x4Chroma_Intra>
    9a60:	imul   edi,DWORD PTR [rdx+rax*1]
    9a64:	movsxd rax,r9d
    9a67:	add    rax,QWORD PTR [rsp+0x8]
    9a6c:	shl    rax,0x6
    9a70:	lea    rdx,[rip+0xd2ec9]        # dc940 <LevelOffset4x4Chroma_Intra>
    9a77:	mov    eax,DWORD PTR [rdx+rax*1]
    9a7a:	lea    edi,[rdi+rax*2]
    9a7d:	sar    edi,cl
    9a7f:	mov    rax,QWORD PTR [rsp+0x60]
    9a84:	movsxd r8,r14d
    9a87:	lea    rcx,[r8*4+0x0]
    9a8f:	lea    rdx,[rax+rcx*1]
    9a93:	test   edi,edi
    9a95:	je     99f0 <dct_chroma+0x1b50>
    9a9b:	mov    rax,QWORD PTR [rsp+0xd8]
    9aa3:	mov    QWORD PTR [rsp+0x70],rdx
    9aa8:	mov    rdx,QWORD PTR [rsp+0x10]
    9aad:	mov    QWORD PTR [rsp+0x68],r11
    9ab2:	or     QWORD PTR [rax+0x1d0],rdx
    9ab9:	mov    edx,DWORD PTR [rsp+0xe4]
    9ac0:	mov    eax,0x1
    9ac5:	mov    QWORD PTR [rsp+0x50],r8
    9aca:	test   edx,edx
    9acc:	mov    QWORD PTR [rsp+0x38],rcx
    9ad1:	cmovg  eax,edx
    9ad4:	mov    DWORD PTR [rsp+0x30],esi
    9ad8:	add    r14d,0x1
    9adc:	mov    DWORD PTR [rsp+0x28],edi
    9ae0:	mov    DWORD PTR [rsp+0xe4],eax
    9ae7:	call   465a0 <sign>
    9aec:	mov    rdx,QWORD PTR [rsp+0x70]
    9af1:	mov    r8,QWORD PTR [rsp+0x50]
    9af6:	mov    DWORD PTR [rsp+0xcc],0x1
    9b01:	mov    rcx,QWORD PTR [rsp+0x38]
    9b06:	mov    r11,QWORD PTR [rsp+0x68]
    9b0b:	mov    esi,DWORD PTR [rsp+0x30]
    9b0f:	mov    edi,DWORD PTR [rsp+0x28]
    9b13:	mov    DWORD PTR [rdx],eax
    9b15:	mov    rax,QWORD PTR [rsp+0x80]
    9b1d:	mov    DWORD PTR [rax+r8*4],r13d
    9b21:	mov    rax,QWORD PTR [rsp+0x60]
    9b26:	mov    r13d,0xffffffff
    9b2c:	lea    rdx,[rax+rcx*1+0x4]
    9b31:	test   r15d,r15d
    9b34:	jne    99f9 <dct_chroma+0x1b59>
    9b3a:	mov    QWORD PTR [rsp+0x30],rdx
    9b3f:	mov    QWORD PTR [rsp+0x28],r11
    9b44:	call   465a0 <sign>
    9b49:	mov    rdx,QWORD PTR [rsp+0x30]
    9b4e:	mov    r11,QWORD PTR [rsp+0x28]
    9b53:	mov    r8d,eax
    9b56:	lea    rax,[rbp+rbx*4+0x0]
    9b5b:	mov    DWORD PTR [rsp+rax*4+0x1a0],r8d
    9b63:	lea    rax,[rip+0x60ed6]        # 6aa40 <QP_SCALE_CR>
    9b6a:	cmp    r12,rax
    9b6d:	jne    9a09 <dct_chroma+0x1b69>
    9b73:	cmp    BYTE PTR [rsp],0x0
    9b77:	mov    DWORD PTR [rdx],0x0
    9b7d:	mov    r10,QWORD PTR [rip+0x7ea2c]        # 885b0 <img>
    9b84:	je     9d43 <dct_chroma+0x1ea3>
    9b8a:	lea    rbx,[rsp+0x1a0]
    9b92:	lea    r9,[rsp+0x1b0]
    9b9a:	mov    rax,rbx
    9b9d:	mov    edi,DWORD PTR [rax+0x20]
    9ba0:	mov    edx,DWORD PTR [rax]
    9ba2:	add    rax,0x4
    9ba6:	mov    ecx,DWORD PTR [rax+0xc]
    9ba9:	mov    r8d,DWORD PTR [rax+0x2c]
    9bad:	lea    esi,[rdx+rdi*1]
    9bb0:	sub    edx,edi
    9bb2:	mov    edi,ecx
    9bb4:	add    ecx,r8d
    9bb7:	sub    edi,r8d
    9bba:	lea    r8d,[rsi+rcx*1]
    9bbe:	sub    esi,ecx
    9bc0:	lea    ecx,[rdx+rdi*1]
    9bc3:	sub    edx,edi
    9bc5:	mov    DWORD PTR [rax-0x4],r8d
    9bc9:	mov    DWORD PTR [rax+0x2c],esi
    9bcc:	mov    DWORD PTR [rax+0xc],ecx
    9bcf:	mov    DWORD PTR [rax+0x1c],edx
    9bd2:	cmp    r9,rax
    9bd5:	jne    9b9d <dct_chroma+0x1cfd>
    9bd7:	lea    rax,[rbx+0x40]
    9bdb:	movsxd r8,DWORD PTR [rsp+0x48]
    9be0:	mov    QWORD PTR [rsp+0x38],r10
    9be5:	mov    r12,r10
    9be8:	mov    QWORD PTR [rsp+0x28],rax
    9bed:	mov    rax,QWORD PTR [rsp+0x40]
    9bf2:	lea    rdx,[rip+0xcfe07]        # d9a00 <InvLevelScale4x4Chroma_Inter>
    9bf9:	mov    ecx,0x3
    9bfe:	mov    r13d,0x1
    9c04:	sub    ecx,DWORD PTR [rsp+0x20]
    9c08:	lea    rbp,[rsp+0x130]
    9c10:	lea    rax,[rax+rax*2]
    9c14:	shl    r13d,cl
    9c17:	lea    rax,[r8+rax*2]
    9c1b:	shl    rax,0x6
    9c1f:	lea    rdi,[rdx+rax*1]
    9c23:	lea    rdx,[rip+0xced16]        # d8940 <InvLevelScale4x4Chroma_Intra>
    9c2a:	add    rax,rdx
    9c2d:	mov    QWORD PTR [rsp+0x8],rdi
    9c32:	mov    QWORD PTR [rsp+0x10],rax
    9c37:	mov    r14d,DWORD PTR [rbx]
    9c3a:	mov    r15d,DWORD PTR [rbx+0x8]
    9c3e:	mov    r8,r12
    9c41:	mov    rdi,r12
    9c44:	mov    esi,DWORD PTR [rbx+0x4]
    9c47:	mov    r9d,DWORD PTR [rbx+0xc]
    9c4b:	lea    eax,[r14+r15*1]
    9c4f:	mov    DWORD PTR [rsp+0x130],eax
    9c56:	mov    eax,r14d
    9c59:	lea    edx,[rsi+r9*1]
    9c5d:	sub    eax,r15d
    9c60:	mov    DWORD PTR [rsp+0x30],esi
    9c64:	mov    DWORD PTR [rsp+0x134],eax
    9c6b:	mov    eax,esi
    9c6d:	xor    esi,esi
    9c6f:	sub    eax,r9d
    9c72:	mov    DWORD PTR [rsp+0x13c],edx
    9c79:	mov    DWORD PTR [rsp+0x138],eax
    9c80:	mov    eax,DWORD PTR [rsp+0x20]
    9c84:	sub    eax,0x4
    9c87:	cmp    DWORD PTR [rsp+0xa4],0x17
    9c8f:	mov    DWORD PTR [rsp],eax
    9c92:	jg     9d95 <dct_chroma+0x1ef5>
    9c98:	mov    rax,rsi
    9c9b:	mov    ecx,0x4
    9ca0:	sub    ecx,DWORD PTR [rsp+0x20]
    9ca4:	neg    rax
    9ca7:	cmp    BYTE PTR [rsp+0x18],0x0
    9cac:	mov    eax,DWORD PTR [rbp+rax*1+0x0]
    9cb0:	je     9ded <dct_chroma+0x1f4d>
    9cb6:	mov    r11,QWORD PTR [rsp+0x10]
    9cbb:	mov    r11d,DWORD PTR [r11]
    9cbe:	lea    r10d,[rax+rdx*1]
    9cc2:	sub    eax,edx
    9cc4:	imul   r10d,r11d
    9cc8:	imul   eax,r11d
    9ccc:	add    r10d,r13d
    9ccf:	add    eax,r13d
    9cd2:	sar    r10d,cl
    9cd5:	sar    eax,cl
    9cd7:	add    r10d,0x2
    9cdb:	add    eax,0x2
    9cde:	sar    r10d,0x2
    9ce2:	sar    eax,0x2
    9ce5:	mov    DWORD PTR [rdi+0x3338],r10d
    9cec:	mov    DWORD PTR [r8+0x3368],eax
    9cf3:	sub    rsi,0x4
    9cf7:	add    rdi,0x10
    9cfb:	sub    r8,0x10
    9cff:	cmp    rsi,0xfffffffffffffff8
    9d03:	jne    9d80 <dct_chroma+0x1ee0>
    9d05:	add    rbx,0x10
    9d09:	add    r12,0x100
    9d10:	cmp    rbx,QWORD PTR [rsp+0x28]
    9d15:	jne    9c37 <dct_chroma+0x1d97>
    9d1b:	mov    eax,DWORD PTR [rsp+0x30]
    9d1f:	mov    DWORD PTR [rsp+0x120],r14d
    9d27:	mov    DWORD PTR [rsp+0x128],r15d
    9d2f:	mov    r10,QWORD PTR [rsp+0x38]
    9d34:	mov    DWORD PTR [rsp+0x124],eax
    9d3b:	mov    DWORD PTR [rsp+0x12c],r9d
    9d43:	mov    eax,DWORD PTR [r10+0x11bf4]
    9d4a:	mov    DWORD PTR [rsp+0x78],eax
    9d4e:	jmp    82ea <dct_chroma+0x44a>
    9d53:	lea    rdx,[rip+0xcf9a6]        # d9700 <LevelScale4x4Chroma_Inter>
    9d5a:	imul   edi,DWORD PTR [rdx+rax*1]
    9d5e:	movsxd rax,DWORD PTR [rsp+0x20]
    9d63:	lea    rdx,[rip+0xd13f6]        # db160 <LevelOffset4x4Chroma_Inter>
    9d6a:	add    rax,QWORD PTR [rsp+0x8]
    9d6f:	shl    rax,0x6
    9d73:	mov    eax,DWORD PTR [rdx+rax*1]
    9d76:	lea    edi,[rdi+rax*2]
    9d79:	sar    edi,cl
    9d7b:	jmp    9a7f <dct_chroma+0x1bdf>
    9d80:	cmp    DWORD PTR [rsp+0xa4],0x17
    9d88:	mov    edx,DWORD PTR [rsp+rsi*1+0x13c]
    9d8f:	jle    9c98 <dct_chroma+0x1df8>
    9d95:	mov    rax,rsi
    9d98:	neg    rax
    9d9b:	cmp    BYTE PTR [rsp+0x18],0x0
    9da0:	mov    eax,DWORD PTR [rbp+rax*1+0x0]
    9da4:	je     9df7 <dct_chroma+0x1f57>
    9da6:	mov    rcx,QWORD PTR [rsp+0x10]
    9dab:	mov    r11d,DWORD PTR [rcx]
    9dae:	lea    r10d,[rax+rdx*1]
    9db2:	movzx  ecx,BYTE PTR [rsp]
    9db6:	sub    eax,edx
    9db8:	imul   r10d,r11d
    9dbc:	imul   r11d,eax
    9dc0:	shl    r10d,cl
    9dc3:	mov    ecx,r10d
    9dc6:	mov    eax,r11d
    9dc9:	add    ecx,0x2
    9dcc:	sar    ecx,0x2
    9dcf:	mov    DWORD PTR [rdi+0x3338],ecx
    9dd5:	movzx  ecx,BYTE PTR [rsp]
    9dd9:	shl    eax,cl
    9ddb:	add    eax,0x2
    9dde:	sar    eax,0x2
    9de1:	mov    DWORD PTR [r8+0x3368],eax
    9de8:	jmp    9cf3 <dct_chroma+0x1e53>
    9ded:	mov    r11,QWORD PTR [rsp+0x8]
    9df2:	jmp    9cbb <dct_chroma+0x1e1b>
    9df7:	mov    rcx,QWORD PTR [rsp+0x8]
    9dfc:	jmp    9dab <dct_chroma+0x1f0b>
    9dfe:	cmp    DWORD PTR [rsp+0xe0],0x1
    9e06:	je     8e9e <dct_chroma+0xffe>
    9e0c:	cmp    DWORD PTR [rsp+0xe0],0x3
    9e14:	jne    82d4 <dct_chroma+0x434>
    9e1a:	jmp    98bd <dct_chroma+0x1a1d>
    9e1f:	mov    ecx,DWORD PTR [rsp+0x68]
    9e23:	test   ecx,ecx
    9e25:	jne    8e45 <dct_chroma+0xfa5>
    9e2b:	mov    edx,DWORD PTR [rsp+0x60]
    9e2f:	test   edx,edx
    9e31:	jle    8e45 <dct_chroma+0xfa5>
    9e37:	mov    eax,DWORD PTR [r10+0x11c04]
    9e3e:	mov    DWORD PTR [rsp+0x40],eax
    9e42:	jmp    8d83 <dct_chroma+0xee3>
    9e47:	nop    WORD PTR [rax+rax*1+0x0]
    9e50:	mov    BYTE PTR [rsp],0x0
    9e54:	jmp    9989 <dct_chroma+0x1ae9>
    9e59:	movsxd rcx,DWORD PTR [rsp]
    9e5d:	mov    rdi,QWORD PTR [rsp+0x30]
    9e62:	mov    QWORD PTR [rsp+0x80],r8
    9e6a:	mov    QWORD PTR [rsp+0x78],r11
    9e6f:	lea    r10,[rdi+rcx*4]
    9e73:	mov    edi,ebp
    9e75:	mov    DWORD PTR [rsp+0x88],edx
    9e7c:	mov    QWORD PTR [rsp+0x70],rcx
    9e81:	mov    QWORD PTR [rsp+0x68],r10
    9e86:	add    DWORD PTR [rsp+0x50],0xf423f
    9e8e:	call   465a0 <sign>
    9e93:	mov    r10,QWORD PTR [rsp+0x68]
    9e98:	mov    edi,ebp
    9e9a:	add    DWORD PTR [rsp],0x1
    9e9e:	mov    rsi,QWORD PTR [rsp+0x40]
    9ea3:	mov    edx,DWORD PTR [rsp+0x88]
    9eaa:	mov    DWORD PTR [r10],eax
    9ead:	mov    rcx,QWORD PTR [rsp+0x70]
    9eb2:	mov    rax,rbx
    9eb5:	shl    rax,0x4
    9eb9:	mov    DWORD PTR [rsi+rcx*4],edx
    9ebc:	lea    rdx,[rax+r12*1+0xccc]
    9ec4:	mov    rax,QWORD PTR [rip+0x7e6e5]        # 885b0 <img>
    9ecb:	mov    esi,DWORD PTR [rax+rdx*4+0x8]
    9ecf:	call   465a0 <sign>
    9ed4:	mov    r11,QWORD PTR [rsp+0x78]
    9ed9:	mov    r8,QWORD PTR [rsp+0x80]
    9ee1:	mov    r9,QWORD PTR [rsp+0x90]
    9ee9:	mov    ebp,eax
    9eeb:	jmp    86d3 <dct_chroma+0x833>
    9ef0:	call   4390 <__stack_chk_fail@plt>
    9ef5:	data16 nop WORD PTR cs:[rax+rax*1+0x0]

0000000000009f00 <dct_chroma4x4>:
    9f00:	endbr64 
    9f04:	push   r15
    9f06:	movsxd r9,esi
    9f09:	push   r14
    9f0b:	push   r13
    9f0d:	push   r12
    9f0f:	push   rbp
    9f10:	push   rbx
    9f11:	sub    rsp,0x68
    9f15:	mov    r10,QWORD PTR [rip+0x7e694]        # 885b0 <img>
    9f1c:	movsxd rax,DWORD PTR [r10+0xc]
    9f20:	imul   rax,rax,0x278
    9f27:	add    rax,QWORD PTR [r10+0x3758]
    9f2e:	mov    ecx,DWORD PTR [rax+0x48]
    9f31:	lea    r8d,[rcx-0x9]
    9f35:	cmp    r8d,0x1
    9f39:	setbe  r8b
    9f3d:	cmp    ecx,0xd
    9f40:	sete   cl
    9f43:	or     r8d,ecx
    9f46:	mov    rcx,QWORD PTR [r10+0x3738]
    9f4d:	mov    BYTE PTR [rsp+0x7],r8b
    9f52:	movsxd r8,edx
    9f55:	mov    rcx,QWORD PTR [rcx+r9*8]
    9f59:	mov    r9d,DWORD PTR [r10+0x11be0]
    9f60:	mov    rcx,QWORD PTR [rcx+r8*8]
    9f64:	mov    rbx,QWORD PTR [rcx]
    9f67:	mov    QWORD PTR [rsp+0x10],rbx
    9f6c:	mov    rbx,QWORD PTR [rcx+0x8]
    9f70:	mov    QWORD PTR [rsp+0x28],rbx
    9f75:	movsxd rbx,edi
    9f78:	mov    ecx,DWORD PTR [r10+rbx*4+0x11c0c]
    9f80:	add    ecx,DWORD PTR [rax+0xc]
    9f83:	movsxd rax,ecx
    9f86:	mov    ecx,DWORD PTR [r10+0x11bdc]
    9f8d:	add    ecx,DWORD PTR [r10+0x28]
    9f91:	jne    9fa4 <dct_chroma4x4+0xa4>
    9f93:	mov    r8d,DWORD PTR [r10+0x11c00]
    9f9a:	cmp    r8d,0x1
    9f9e:	je     a240 <dct_chroma4x4+0x340>
    9fa4:	test   eax,eax
    9fa6:	js     9fb3 <dct_chroma4x4+0xb3>
    9fa8:	lea    rcx,[rip+0x60a91]        # 6aa40 <QP_SCALE_CR>
    9faf:	movzx  eax,BYTE PTR [rcx+rax*1]
    9fb3:	lea    ecx,[rax+r9*1]
    9fb7:	lea    r12,[r10+0x3348]
    9fbe:	movsxd r14,ecx
    9fc1:	mov    eax,ecx
    9fc3:	mov    DWORD PTR [rsp+0x3c],ecx
    9fc7:	imul   r14,r14,0x2aaaaaab
    9fce:	sar    eax,0x1f
    9fd1:	shr    r14,0x20
    9fd5:	sub    r14d,eax
    9fd8:	lea    eax,[r14+r14*2]
    9fdc:	add    eax,eax
    9fde:	sub    ecx,eax
    9fe0:	lea    eax,[r14+0xf]
    9fe4:	mov    DWORD PTR [rsp+0x1c],eax
    9fe8:	lea    rax,[r10+0x3338]
    9fef:	mov    DWORD PTR [rsp+0x38],ecx
    9ff3:	mov    rcx,rax
    9ff6:	mov    r9d,DWORD PTR [rcx+0xc0]
    9ffd:	mov    r8d,DWORD PTR [rcx]
    a000:	add    rcx,0x4
    a004:	mov    ebp,DWORD PTR [rcx+0x7c]
    a007:	lea    r11d,[r8+r9*1]
    a00b:	sub    r8d,r9d
    a00e:	mov    r9d,DWORD PTR [rcx+0x3c]
    a012:	lea    r13d,[r9+rbp*1]
    a016:	sub    r9d,ebp
    a019:	lea    ebp,[r11+r13*1]
    a01d:	sub    r11d,r13d
    a020:	mov    DWORD PTR [rcx+0x7c],r11d
    a024:	lea    r11d,[r9+r8*2]
    a028:	add    r9d,r9d
    a02b:	sub    r8d,r9d
    a02e:	mov    DWORD PTR [rcx-0x4],ebp
    a031:	mov    DWORD PTR [rcx+0x3c],r11d
    a035:	mov    DWORD PTR [rcx+0xbc],r8d
    a03c:	cmp    r12,rcx
    a03f:	jne    9ff6 <dct_chroma4x4+0xf6>
    a041:	lea    rbp,[r10+0x3438]
    a048:	mov    r8d,DWORD PTR [rax+0xc]
    a04c:	mov    ecx,DWORD PTR [rax]
    a04e:	add    rax,0x40
    a052:	mov    r12d,DWORD PTR [rax-0x38]
    a056:	lea    r9d,[rcx+r8*1]
    a05a:	sub    ecx,r8d
    a05d:	mov    r8d,DWORD PTR [rax-0x3c]
    a061:	lea    r11d,[r8+r12*1]
    a065:	sub    r8d,r12d
    a068:	lea    r12d,[r9+r11*1]
    a06c:	sub    r9d,r11d
    a06f:	mov    DWORD PTR [rax-0x38],r9d
    a073:	lea    r9d,[r8+rcx*2]
    a077:	add    r8d,r8d
    a07a:	sub    ecx,r8d
    a07d:	mov    DWORD PTR [rax-0x40],r12d
    a081:	mov    DWORD PTR [rax-0x3c],r9d
    a085:	mov    DWORD PTR [rax-0x34],ecx
    a088:	cmp    rbp,rax
    a08b:	jne    a048 <dct_chroma4x4+0x148>
    a08d:	lea    eax,[rdi*4+0x4]
    a094:	mov    r9d,edx
    a097:	sub    esi,eax
    a099:	shr    r9d,0x1f
    a09d:	mov    edi,esi
    a09f:	mov    esi,DWORD PTR [r10+0x3338]
    a0a6:	mov    r12d,edi
    a0a9:	mov    ecx,esi
    a0ab:	shr    r12d,0x1f
    a0af:	sar    ecx,0x1f
    a0b2:	add    r12d,edi
    a0b5:	mov    eax,ecx
    a0b7:	and    r12d,0xfffffffe
    a0bb:	xor    eax,esi
    a0bd:	sub    eax,ecx
    a0bf:	mov    ecx,edi
    a0c1:	shr    ecx,0x1f
    a0c4:	lea    r8d,[rdi+rcx*1]
    a0c8:	and    r8d,0x1
    a0cc:	sub    r8d,ecx
    a0cf:	lea    ecx,[rdx+r9*1]
    a0d3:	add    edx,r9d
    a0d6:	and    ecx,0x1
    a0d9:	sar    edx,1
    a0db:	sub    ecx,r9d
    a0de:	add    r12d,edx
    a0e1:	cmp    BYTE PTR [rsp+0x7],0x0
    a0e6:	lea    ebp,[rcx+r8*2]
    a0ea:	je     a1b0 <dct_chroma4x4+0x2b0>
    a0f0:	movsxd rdx,DWORD PTR [rsp+0x38]
    a0f5:	lea    rcx,[rbx+rbx*2]
    a0f9:	movsxd rbp,ebp
    a0fc:	movsxd r12,r12d
    a0ff:	lea    r15,[rdx+rcx*2]
    a103:	lea    rdx,[rip+0xce3b6]        # d84c0 <LevelScale4x4Chroma_Intra>
    a10a:	shl    r15,0x6
    a10e:	lea    rcx,[rbx+rcx*4]
    a112:	imul   eax,DWORD PTR [rdx+r15*1]
    a117:	movsxd rdx,r14d
    a11a:	add    rdx,rcx
    a11d:	lea    rcx,[rip+0xd281c]        # dc940 <LevelOffset4x4Chroma_Intra>
    a124:	shl    rdx,0x6
    a128:	add    eax,DWORD PTR [rcx+rdx*1]
    a12b:	movzx  ecx,BYTE PTR [rsp+0x1c]
    a130:	mov    r13d,eax
    a133:	sar    r13d,cl
    a136:	mov    edi,r13d
    a139:	call   465a0 <sign>
    a13e:	cmp    DWORD PTR [rsp+0x3c],0x17
    a143:	mov    r8d,eax
    a146:	lea    rax,[rbp+rbx*4+0x0]
    a14b:	lea    rdx,[r12+rax*4]
    a14f:	lea    rax,[rip+0x96c2a]        # a0d80 <dc_level_temp>
    a156:	mov    DWORD PTR [rax+rdx*4],r8d
    a15a:	jg     a651 <dct_chroma4x4+0x751>
    a160:	mov    rbp,QWORD PTR [rip+0x7e449]        # 885b0 <img>
    a167:	lea    rax,[rip+0xce7d2]        # d8940 <InvLevelScale4x4Chroma_Intra>
    a16e:	mov    esi,DWORD PTR [rbp+0x3338]
    a174:	imul   r13d,DWORD PTR [rax+r15*1]
    a179:	mov    ecx,0x3
    a17e:	mov    edi,0x1
    a183:	sub    ecx,r14d
    a186:	shl    edi,cl
    a188:	mov    ecx,0x4
    a18d:	sub    ecx,r14d
    a190:	add    edi,r13d
    a193:	sar    edi,cl
    a195:	call   465a0 <sign>
    a19a:	xor    r8d,r8d
    a19d:	mov    DWORD PTR [rbp+0x3338],eax
    a1a3:	jmp    a31f <dct_chroma4x4+0x41f>
    a1a8:	nop    DWORD PTR [rax+rax*1+0x0]
    a1b0:	movsxd rdx,DWORD PTR [rsp+0x38]
    a1b5:	lea    rcx,[rbx+rbx*2]
    a1b9:	movsxd rbp,ebp
    a1bc:	movsxd r12,r12d
    a1bf:	lea    r15,[rdx+rcx*2]
    a1c3:	lea    rdx,[rip+0xcf536]        # d9700 <LevelScale4x4Chroma_Inter>
    a1ca:	shl    r15,0x6
    a1ce:	lea    rcx,[rbx+rcx*4]
    a1d2:	imul   eax,DWORD PTR [rdx+r15*1]
    a1d7:	movsxd rdx,r14d
    a1da:	add    rdx,rcx
    a1dd:	lea    rcx,[rip+0xd0f7c]        # db160 <LevelOffset4x4Chroma_Inter>
    a1e4:	shl    rdx,0x6
    a1e8:	add    eax,DWORD PTR [rcx+rdx*1]
    a1eb:	movzx  ecx,BYTE PTR [rsp+0x1c]
    a1f0:	mov    r13d,eax
    a1f3:	sar    r13d,cl
    a1f6:	mov    edi,r13d
    a1f9:	call   465a0 <sign>
    a1fe:	cmp    DWORD PTR [rsp+0x3c],0x17
    a203:	mov    r8d,eax
    a206:	lea    rax,[rbp+rbx*4+0x0]
    a20b:	lea    rdx,[r12+rax*4]
    a20f:	lea    rax,[rip+0x96b6a]        # a0d80 <dc_level_temp>
    a216:	mov    DWORD PTR [rax+rdx*4],r8d
    a21a:	jg     a686 <dct_chroma4x4+0x786>
    a220:	mov    rbp,QWORD PTR [rip+0x7e389]        # 885b0 <img>
    a227:	lea    rax,[rip+0xcf7d2]        # d9a00 <InvLevelScale4x4Chroma_Inter>
    a22e:	mov    esi,DWORD PTR [rbp+0x3338]
    a234:	jmp    a174 <dct_chroma4x4+0x274>
    a239:	nop    DWORD PTR [rax+0x0]
    a240:	test   eax,eax
    a242:	js     a24f <dct_chroma4x4+0x34f>
    a244:	lea    rcx,[rip+0x607f5]        # 6aa40 <QP_SCALE_CR>
    a24b:	movzx  eax,BYTE PTR [rcx+rax*1]
    a24f:	lea    ecx,[rax+r9*1]
    a253:	mov    r9d,DWORD PTR [r10+0x3338]
    a25a:	mov    DWORD PTR [rsp+0x18],r8d
    a25f:	movsxd r14,ecx
    a262:	mov    eax,ecx
    a264:	mov    DWORD PTR [rsp+0x3c],ecx
    a268:	imul   r14,r14,0x2aaaaaab
    a26f:	sar    eax,0x1f
    a272:	shr    r14,0x20
    a276:	sub    r14d,eax
    a279:	lea    eax,[r14+r14*2]
    a27d:	add    eax,eax
    a27f:	sub    ecx,eax
    a281:	lea    eax,[r14+0xf]
    a285:	mov    DWORD PTR [rsp+0x1c],eax
    a289:	mov    eax,r9d
    a28c:	sar    eax,0x1f
    a28f:	mov    DWORD PTR [rsp+0x38],ecx
    a293:	mov    r13d,eax
    a296:	xor    r13d,r9d
    a299:	sub    r13d,eax
    a29c:	lea    eax,[rdi*4+0x4]
    a2a3:	mov    edi,edx
    a2a5:	sub    esi,eax
    a2a7:	shr    edi,0x1f
    a2aa:	mov    eax,esi
    a2ac:	mov    r12d,esi
    a2af:	shr    eax,0x1f
    a2b2:	shr    r12d,0x1f
    a2b6:	lea    ecx,[rsi+rax*1]
    a2b9:	add    r12d,esi
    a2bc:	mov    esi,r9d
    a2bf:	and    ecx,0x1
    a2c2:	and    r12d,0xfffffffe
    a2c6:	sub    ecx,eax
    a2c8:	lea    eax,[rdx+rdi*1]
    a2cb:	add    edx,edi
    a2cd:	and    eax,0x1
    a2d0:	sar    edx,1
    a2d2:	sub    eax,edi
    a2d4:	mov    edi,r13d
    a2d7:	add    r12d,edx
    a2da:	lea    ebp,[rax+rcx*2]
    a2dd:	movsxd r12,r12d
    a2e0:	call   465a0 <sign>
    a2e5:	movsxd rbp,ebp
    a2e8:	mov    edi,r13d
    a2eb:	mov    r9d,eax
    a2ee:	lea    rax,[rbp+rbx*4+0x0]
    a2f3:	mov    rbp,QWORD PTR [rip+0x7e2b6]        # 885b0 <img>
    a2fa:	lea    rdx,[r12+rax*4]
    a2fe:	lea    rax,[rip+0x96a7b]        # a0d80 <dc_level_temp>
    a305:	mov    esi,DWORD PTR [rbp+0x3338]
    a30b:	mov    DWORD PTR [rax+rdx*4],r9d
    a30f:	call   465a0 <sign>
    a314:	mov    r8d,DWORD PTR [rsp+0x18]
    a319:	mov    DWORD PTR [rbp+0x3338],eax
    a31f:	mov    ecx,0x3
    a324:	mov    eax,0x1
    a329:	xor    r10d,r10d
    a32c:	xor    r13d,r13d
    a32f:	sub    ecx,r14d
    a332:	mov    edi,0x1
    a337:	mov    DWORD PTR [rsp+0x18],r14d
    a33c:	lea    r12,[rip+0x606e1]        # 6aa24 <SNGL_SCAN+0x4>
    a343:	shl    eax,cl
    a345:	mov    DWORD PTR [rsp+0x30],0x0
    a34d:	mov    edx,0xffffffff
    a352:	mov    r14d,r8d
    a355:	mov    DWORD PTR [rsp+0x5c],eax
    a359:	lea    rax,[rbx+rbx*2]
    a35d:	mov    QWORD PTR [rsp+0x8],rax
    a362:	lea    rax,[rbx+rax*4]
    a366:	mov    QWORD PTR [rsp+0x20],rax
    a36b:	mov    eax,edi
    a36d:	jmp    a3ec <dct_chroma4x4+0x4ec>
    a36f:	nop
    a370:	test   esi,esi
    a372:	je     a3cd <dct_chroma4x4+0x4cd>
    a374:	or     al,r10b
    a377:	je     a6d8 <dct_chroma4x4+0x7d8>
    a37d:	mov    rax,QWORD PTR [rsp+0x10]
    a382:	movsxd rbx,r13d
    a385:	mov    edi,ebp
    a387:	mov    DWORD PTR [rsp+0x40],edx
    a38b:	mov    QWORD PTR [rsp+0x30],rcx
    a390:	add    r13d,0x1
    a394:	lea    r15,[rax+rbx*4]
    a398:	call   465a0 <sign>
    a39d:	mov    edx,DWORD PTR [rsp+0x40]
    a3a1:	mov    rcx,QWORD PTR [rsp+0x30]
    a3a6:	mov    edi,ebp
    a3a8:	mov    DWORD PTR [r15],eax
    a3ab:	mov    rax,QWORD PTR [rsp+0x28]
    a3b0:	mov    DWORD PTR [rax+rbx*4],edx
    a3b3:	mov    rax,QWORD PTR [rip+0x7e1f6]        # 885b0 <img>
    a3ba:	mov    esi,DWORD PTR [rax+rcx*4+0x8]
    a3be:	call   465a0 <sign>
    a3c3:	mov    DWORD PTR [rsp+0x30],r14d
    a3c8:	mov    edx,0xffffffff
    a3cd:	lea    rax,[rip+0x6066c]        # 6aa40 <QP_SCALE_CR>
    a3d4:	cmp    rax,r12
    a3d7:	je     a567 <dct_chroma4x4+0x667>
    a3dd:	movzx  eax,BYTE PTR [r12]
    a3e2:	movzx  r10d,BYTE PTR [r12+0x1]
    a3e8:	add    r12,0x2
    a3ec:	movzx  ebx,al
    a3ef:	mov    r9,QWORD PTR [rip+0x7e1ba]        # 885b0 <img>
    a3f6:	movzx  r15d,r10b
    a3fa:	add    edx,0x1
    a3fd:	mov    rcx,rbx
    a400:	shl    rcx,0x4
    a404:	lea    rcx,[rcx+r15*1+0xccc]
    a40c:	mov    esi,DWORD PTR [r9+rcx*4+0x8]
    a411:	mov    edi,esi
    a413:	sar    edi,0x1f
    a416:	mov    ebp,edi
    a418:	xor    ebp,esi
    a41a:	sub    ebp,edi
    a41c:	test   r14d,r14d
    a41f:	jne    a370 <dct_chroma4x4+0x470>
    a425:	mov    rdi,QWORD PTR [rsp+0x8]
    a42a:	movsxd r11,DWORD PTR [rsp+0x38]
    a42f:	cmp    BYTE PTR [rsp+0x7],0x0
    a434:	lea    rcx,[r11+rdi*2]
    a438:	lea    rcx,[rbx+rcx*4]
    a43c:	lea    rdi,[r15+rcx*4]
    a440:	je     a6a0 <dct_chroma4x4+0x7a0>
    a446:	lea    rcx,[rip+0xce073]        # d84c0 <LevelScale4x4Chroma_Intra>
    a44d:	imul   ebp,DWORD PTR [rcx+rdi*4]
    a451:	movsxd rcx,DWORD PTR [rsp+0x18]
    a456:	add    rcx,QWORD PTR [rsp+0x20]
    a45b:	lea    rcx,[rbx+rcx*4]
    a45f:	lea    rdi,[r15+rcx*4]
    a463:	lea    rcx,[rip+0xd24d6]        # dc940 <LevelOffset4x4Chroma_Intra>
    a46a:	add    ebp,DWORD PTR [rcx+rdi*4]
    a46d:	movzx  ecx,BYTE PTR [rsp+0x1c]
    a472:	sar    ebp,cl
    a474:	test   ebp,ebp
    a476:	je     a546 <dct_chroma4x4+0x646>
    a47c:	or     al,r10b
    a47f:	je     a768 <dct_chroma4x4+0x868>
    a485:	mov    rax,QWORD PTR [rsp+0x10]
    a48a:	movsxd rcx,r13d
    a48d:	mov    edi,ebp
    a48f:	mov    QWORD PTR [rsp+0x48],r11
    a494:	mov    DWORD PTR [rsp+0x50],edx
    a498:	add    r13d,0x1
    a49c:	lea    r9,[rax+rcx*4]
    a4a0:	mov    QWORD PTR [rsp+0x40],rcx
    a4a5:	mov    QWORD PTR [rsp+0x30],r9
    a4aa:	call   465a0 <sign>
    a4af:	mov    r9,QWORD PTR [rsp+0x30]
    a4b4:	mov    edx,DWORD PTR [rsp+0x50]
    a4b8:	mov    edi,ebp
    a4ba:	mov    rcx,QWORD PTR [rsp+0x40]
    a4bf:	mov    DWORD PTR [r9],eax
    a4c2:	mov    rax,QWORD PTR [rsp+0x28]
    a4c7:	mov    DWORD PTR [rax+rcx*4],edx
    a4ca:	mov    rax,rbx
    a4cd:	shl    rax,0x4
    a4d1:	lea    rdx,[rax+r15*1+0xccc]
    a4d9:	mov    rax,QWORD PTR [rip+0x7e0d0]        # 885b0 <img>
    a4e0:	mov    esi,DWORD PTR [rax+rdx*4+0x8]
    a4e4:	call   465a0 <sign>
    a4e9:	mov    DWORD PTR [rsp+0x30],0x1
    a4f1:	mov    r11,QWORD PTR [rsp+0x48]
    a4f6:	cmp    DWORD PTR [rsp+0x3c],0x17
    a4fb:	mov    r9,QWORD PTR [rip+0x7e0ae]        # 885b0 <img>
    a502:	jg     a728 <dct_chroma4x4+0x828>
    a508:	mov    ecx,0x4
    a50d:	sub    ecx,DWORD PTR [rsp+0x18]
    a511:	cmp    BYTE PTR [rsp+0x7],0x0
    a516:	je     a810 <dct_chroma4x4+0x910>
    a51c:	mov    rdx,QWORD PTR [rsp+0x8]
    a521:	lea    rdx,[r11+rdx*2]
    a525:	lea    rdx,[rbx+rdx*4]
    a529:	lea    rsi,[r15+rdx*4]
    a52d:	lea    rdx,[rip+0xce40c]        # d8940 <InvLevelScale4x4Chroma_Intra>
    a534:	imul   eax,DWORD PTR [rdx+rsi*4]
    a538:	mov    edx,DWORD PTR [rsp+0x5c]
    a53c:	lea    ebp,[rax+rdx*1]
    a53f:	mov    edx,0xffffffff
    a544:	sar    ebp,cl
    a546:	shl    rbx,0x4
    a54a:	lea    rax,[rbx+r15*1+0xccc]
    a552:	mov    DWORD PTR [r9+rax*4+0x8],ebp
    a557:	lea    rax,[rip+0x604e2]        # 6aa40 <QP_SCALE_CR>
    a55e:	cmp    rax,r12
    a561:	jne    a3dd <dct_chroma4x4+0x4dd>
    a567:	mov    rax,QWORD PTR [rsp+0x10]
    a56c:	movsxd r13,r13d
    a56f:	mov    DWORD PTR [rax+r13*4],0x0
    a577:	test   r14d,r14d
    a57a:	jne    a63e <dct_chroma4x4+0x73e>
    a580:	mov    r8,QWORD PTR [rip+0x7e029]        # 885b0 <img>
    a587:	lea    rdx,[r8+0x3338]
    a58e:	lea    r10,[r8+0x3348]
    a595:	mov    rax,rdx
    a598:	mov    r11d,DWORD PTR [rax+0x40]
    a59c:	mov    edi,DWORD PTR [rax+0x80]
    a5a2:	add    rax,0x4
    a5a6:	mov    ecx,DWORD PTR [rax-0x4]
    a5a9:	mov    esi,DWORD PTR [rax+0xbc]
    a5af:	lea    r9d,[rdi+rcx*1]
    a5b3:	sub    ecx,edi
    a5b5:	mov    edi,r11d
    a5b8:	sar    edi,1
    a5ba:	sub    edi,esi
    a5bc:	sar    esi,1
    a5be:	add    esi,r11d
    a5c1:	lea    r11d,[r9+rsi*1]
    a5c5:	sub    r9d,esi
    a5c8:	lea    esi,[rcx+rdi*1]
    a5cb:	sub    ecx,edi
    a5cd:	mov    DWORD PTR [rax-0x4],r11d
    a5d1:	mov    DWORD PTR [rax+0xbc],r9d
    a5d8:	mov    DWORD PTR [rax+0x3c],esi
    a5db:	mov    DWORD PTR [rax+0x7c],ecx
    a5de:	cmp    r10,rax
    a5e1:	jne    a598 <dct_chroma4x4+0x698>
    a5e3:	add    r8,0x3438
    a5ea:	mov    r9d,DWORD PTR [rdx+0x4]
    a5ee:	mov    edi,DWORD PTR [rdx+0x8]
    a5f1:	add    rdx,0x40
    a5f5:	mov    eax,DWORD PTR [rdx-0x40]
    a5f8:	mov    esi,DWORD PTR [rdx-0x34]
    a5fb:	lea    ecx,[rdi+rax*1]
    a5fe:	sub    eax,edi
    a600:	mov    edi,r9d
    a603:	sar    edi,1
    a605:	sub    edi,esi
    a607:	sar    esi,1
    a609:	add    esi,r9d
    a60c:	lea    r9d,[rcx+rsi*1+0x20]
    a611:	sub    ecx,esi
    a613:	add    ecx,0x20
    a616:	sar    r9d,0x6
    a61a:	sar    ecx,0x6
    a61d:	mov    DWORD PTR [rdx-0x40],r9d
    a621:	mov    DWORD PTR [rdx-0x34],ecx
    a624:	lea    ecx,[rax+rdi*1+0x20]
    a628:	sub    eax,edi
    a62a:	add    eax,0x20
    a62d:	sar    ecx,0x6
    a630:	sar    eax,0x6
    a633:	mov    DWORD PTR [rdx-0x3c],ecx
    a636:	mov    DWORD PTR [rdx-0x38],eax
    a639:	cmp    rdx,r8
    a63c:	jne    a5ea <dct_chroma4x4+0x6ea>
    a63e:	mov    eax,DWORD PTR [rsp+0x30]
    a642:	add    rsp,0x68
    a646:	pop    rbx
    a647:	pop    rbp
    a648:	pop    r12
    a64a:	pop    r13
    a64c:	pop    r14
    a64e:	pop    r15
    a650:	ret    
    a651:	mov    rbp,QWORD PTR [rip+0x7df58]        # 885b0 <img>
    a658:	lea    rax,[rip+0xce2e1]        # d8940 <InvLevelScale4x4Chroma_Intra>
    a65f:	mov    esi,DWORD PTR [rbp+0x3338]
    a665:	imul   r13d,DWORD PTR [rax+r15*1]
    a66a:	lea    ecx,[r14-0x4]
    a66e:	mov    edi,r13d
    a671:	shl    edi,cl
    a673:	call   465a0 <sign>
    a678:	xor    r8d,r8d
    a67b:	mov    DWORD PTR [rbp+0x3338],eax
    a681:	jmp    a31f <dct_chroma4x4+0x41f>
    a686:	mov    rbp,QWORD PTR [rip+0x7df23]        # 885b0 <img>
    a68d:	lea    rax,[rip+0xcf36c]        # d9a00 <InvLevelScale4x4Chroma_Inter>
    a694:	mov    esi,DWORD PTR [rbp+0x3338]
    a69a:	jmp    a665 <dct_chroma4x4+0x765>
    a69c:	nop    DWORD PTR [rax+0x0]
    a6a0:	lea    rcx,[rip+0xcf059]        # d9700 <LevelScale4x4Chroma_Inter>
    a6a7:	imul   ebp,DWORD PTR [rcx+rdi*4]
    a6ab:	movsxd rcx,DWORD PTR [rsp+0x18]
    a6b0:	add    rcx,QWORD PTR [rsp+0x20]
    a6b5:	lea    rcx,[rbx+rcx*4]
    a6b9:	lea    rdi,[r15+rcx*4]
    a6bd:	lea    rcx,[rip+0xd0a9c]        # db160 <LevelOffset4x4Chroma_Inter>
    a6c4:	add    ebp,DWORD PTR [rcx+rdi*4]
    a6c7:	movzx  ecx,BYTE PTR [rsp+0x1c]
    a6cc:	sar    ebp,cl
    a6ce:	jmp    a474 <dct_chroma4x4+0x574>
    a6d3:	nop    DWORD PTR [rax+rax*1+0x0]
    a6d8:	mov    rax,QWORD PTR [rsp+0x10]
    a6dd:	movsxd rbx,r13d
    a6e0:	mov    edi,ebp
    a6e2:	mov    DWORD PTR [rsp+0x48],edx
    a6e6:	mov    QWORD PTR [rsp+0x40],rcx
    a6eb:	add    r13d,0x1
    a6ef:	lea    r15,[rax+rbx*4]
    a6f3:	call   465a0 <sign>
    a6f8:	mov    edx,DWORD PTR [rsp+0x48]
    a6fc:	mov    rcx,QWORD PTR [rsp+0x40]
    a701:	mov    edi,ebp
    a703:	mov    DWORD PTR [r15],eax
    a706:	mov    rax,QWORD PTR [rsp+0x28]
    a70b:	mov    DWORD PTR [rax+rbx*4],edx
    a70e:	mov    rax,QWORD PTR [rip+0x7de9b]        # 885b0 <img>
    a715:	mov    esi,DWORD PTR [rax+rcx*4+0x8]
    a719:	call   465a0 <sign>
    a71e:	jmp    a3c8 <dct_chroma4x4+0x4c8>
    a723:	nop    DWORD PTR [rax+rax*1+0x0]
    a728:	mov    edx,DWORD PTR [rsp+0x18]
    a72c:	cmp    BYTE PTR [rsp+0x7],0x0
    a731:	lea    ecx,[rdx-0x4]
    a734:	je     a7e0 <dct_chroma4x4+0x8e0>
    a73a:	mov    rsi,QWORD PTR [rsp+0x8]
    a73f:	lea    rdx,[r11+rsi*2]
    a743:	lea    rdx,[rbx+rdx*4]
    a747:	lea    rsi,[r15+rdx*4]
    a74b:	lea    rdx,[rip+0xce1ee]        # d8940 <InvLevelScale4x4Chroma_Intra>
    a752:	imul   eax,DWORD PTR [rdx+rsi*4]
    a756:	mov    edx,0xffffffff
    a75b:	mov    ebp,eax
    a75d:	shl    ebp,cl
    a75f:	jmp    a546 <dct_chroma4x4+0x646>
    a764:	nop    DWORD PTR [rax+0x0]
    a768:	mov    rax,QWORD PTR [rsp+0x10]
    a76d:	movsxd rcx,r13d
    a770:	mov    edi,ebp
    a772:	mov    QWORD PTR [rsp+0x50],r11
    a777:	mov    DWORD PTR [rsp+0x58],edx
    a77b:	add    r13d,0x1
    a77f:	lea    r9,[rax+rcx*4]
    a783:	mov    QWORD PTR [rsp+0x48],rcx
    a788:	mov    QWORD PTR [rsp+0x40],r9
    a78d:	call   465a0 <sign>
    a792:	mov    r9,QWORD PTR [rsp+0x40]
    a797:	mov    edx,DWORD PTR [rsp+0x58]
    a79b:	mov    edi,ebp
    a79d:	mov    rcx,QWORD PTR [rsp+0x48]
    a7a2:	mov    DWORD PTR [r9],eax
    a7a5:	mov    rax,QWORD PTR [rsp+0x28]
    a7aa:	mov    DWORD PTR [rax+rcx*4],edx
    a7ad:	mov    rax,rbx
    a7b0:	shl    rax,0x4
    a7b4:	lea    rdx,[rax+r15*1+0xccc]
    a7bc:	mov    rax,QWORD PTR [rip+0x7dded]        # 885b0 <img>
    a7c3:	mov    esi,DWORD PTR [rax+rdx*4+0x8]
    a7c7:	call   465a0 <sign>
    a7cc:	mov    r11,QWORD PTR [rsp+0x50]
    a7d1:	jmp    a4f6 <dct_chroma4x4+0x5f6>
    a7d6:	nop    WORD PTR cs:[rax+rax*1+0x0]
    a7e0:	mov    rdx,QWORD PTR [rsp+0x8]
    a7e5:	lea    rdx,[r11+rdx*2]
    a7e9:	lea    rdx,[rbx+rdx*4]
    a7ed:	lea    rsi,[r15+rdx*4]
    a7f1:	lea    rdx,[rip+0xcf208]        # d9a00 <InvLevelScale4x4Chroma_Inter>
    a7f8:	imul   eax,DWORD PTR [rdx+rsi*4]
    a7fc:	mov    edx,0xffffffff
    a801:	mov    ebp,eax
    a803:	shl    ebp,cl
    a805:	jmp    a546 <dct_chroma4x4+0x646>
    a80a:	nop    WORD PTR [rax+rax*1+0x0]
    a810:	mov    rsi,QWORD PTR [rsp+0x8]
    a815:	lea    rdx,[r11+rsi*2]
    a819:	lea    rdx,[rbx+rdx*4]
    a81d:	lea    rsi,[r15+rdx*4]
    a821:	lea    rdx,[rip+0xcf1d8]        # d9a00 <InvLevelScale4x4Chroma_Inter>
    a828:	jmp    a534 <dct_chroma4x4+0x634>
    a82d:	nop    DWORD PTR [rax]

000000000000a830 <dct_chroma_DC>:
    a830:	endbr64 
    a834:	push   r15
    a836:	movsxd r15,edi
    a839:	lea    rdx,[rip+0xa9980]        # b41c0 <dc_level>
    a840:	push   r14
    a842:	push   r13
    a844:	xor    r13d,r13d
    a847:	push   r12
    a849:	mov    r12d,esi
    a84c:	xor    esi,esi
    a84e:	push   rbp
    a84f:	mov    ebp,0xffffffff
    a854:	push   rbx
    a855:	lea    rbx,[rip+0x601c6]        # 6aa22 <SNGL_SCAN+0x2>
    a85c:	lea    rcx,[rbx+0x1e]
    a860:	sub    rsp,0x28
    a864:	mov    rax,QWORD PTR [rip+0x7dd45]        # 885b0 <img>
    a86b:	mov    rax,QWORD PTR [rax+0x3740]
    a872:	mov    rax,QWORD PTR [rax+r15*8+0x8]
    a877:	shl    r15,0x2
    a87b:	mov    r14,QWORD PTR [rax]
    a87e:	mov    rax,QWORD PTR [rax+0x8]
    a882:	mov    QWORD PTR [rsp+0x18],rax
    a887:	xor    eax,eax
    a889:	jmp    a8a4 <dct_chroma_DC+0x74>
    a88b:	nop    DWORD PTR [rax+rax*1+0x0]
    a890:	cmp    rcx,rbx
    a893:	je     a92d <dct_chroma_DC+0xfd>
    a899:	movzx  eax,BYTE PTR [rbx]
    a89c:	movzx  esi,BYTE PTR [rbx+0x1]
    a8a0:	add    rbx,0x2
    a8a4:	add    rax,r15
    a8a7:	movsxd r10,r13d
    a8aa:	add    ebp,0x1
    a8ad:	lea    rax,[rsi+rax*4]
    a8b1:	lea    r9,[r10*4+0x0]
    a8b9:	mov    esi,DWORD PTR [rdx+rax*4]
    a8bc:	lea    r11,[r14+r9*1]
    a8c0:	test   esi,esi
    a8c2:	je     a890 <dct_chroma_DC+0x60>
    a8c4:	test   r12d,r12d
    a8c7:	mov    eax,0x1
    a8cc:	mov    QWORD PTR [rsp+0x10],r10
    a8d1:	cmovle r12d,eax
    a8d5:	mov    eax,esi
    a8d7:	mov    QWORD PTR [rsp+0x8],r11
    a8dc:	add    r13d,0x1
    a8e0:	sar    eax,0x1f
    a8e3:	mov    QWORD PTR [rsp],r9
    a8e7:	mov    edi,eax
    a8e9:	xor    edi,esi
    a8eb:	sub    edi,eax
    a8ed:	call   465a0 <sign>
    a8f2:	mov    r11,QWORD PTR [rsp+0x8]
    a8f7:	mov    r9,QWORD PTR [rsp]
    a8fb:	lea    rcx,[rip+0x6013e]        # 6aa40 <QP_SCALE_CR>
    a902:	mov    r10,QWORD PTR [rsp+0x10]
    a907:	lea    rdx,[rip+0xa98b2]        # b41c0 <dc_level>
    a90e:	mov    DWORD PTR [r11],eax
    a911:	mov    rax,QWORD PTR [rsp+0x18]
    a916:	lea    r11,[r14+r9*1+0x4]
    a91b:	mov    DWORD PTR [rax+r10*4],ebp
    a91f:	mov    ebp,0xffffffff
    a924:	cmp    rcx,rbx
    a927:	jne    a899 <dct_chroma_DC+0x69>
    a92d:	mov    DWORD PTR [r11],0x0
    a934:	add    rsp,0x28
    a938:	mov    eax,r12d
    a93b:	pop    rbx
    a93c:	pop    rbp
    a93d:	pop    r12
    a93f:	pop    r13
    a941:	pop    r14
    a943:	pop    r15
    a945:	ret    
    a946:	nop    WORD PTR cs:[rax+rax*1+0x0]

000000000000a950 <dct_luma_sp>:
    a950:	endbr64 
    a954:	push   r15
    a956:	mov    r15d,edi
    a959:	lea    r9d,[rsi+0x3]
    a95d:	pxor   xmm1,xmm1
    a961:	push   r14
    a963:	mov    r14d,esi
    a966:	push   r13
    a968:	push   r12
    a96a:	push   rbp
    a96b:	push   rbx
    a96c:	sub    rsp,0x108
    a973:	movsd  xmm0,QWORD PTR [rip+0x60105]        # 6aa80 <QP_SCALE_CR+0x40>
    a97b:	mov    DWORD PTR [rsp+0x98],edi
    a982:	add    edi,0x3
    a985:	mov    DWORD PTR [rsp+0x9c],esi
    a98c:	mov    QWORD PTR [rsp+0x50],rdx
    a991:	mov    rax,QWORD PTR fs:0x28
    a99a:	mov    QWORD PTR [rsp+0xf8],rax
    a9a2:	xor    eax,eax
    a9a4:	test   r15d,r15d
    a9a7:	cmovns edi,r15d
    a9ab:	mov    edx,edi
    a9ad:	sar    edx,0x2
    a9b0:	test   esi,esi
    a9b2:	cmovns r9d,esi
    a9b6:	mov    rsi,QWORD PTR [rip+0x7dbf3]        # 885b0 <img>
    a9bd:	mov    ecx,r9d
    a9c0:	mov    eax,r9d
    a9c3:	shr    r9d,0x1f
    a9c7:	sar    ecx,0x2
    a9ca:	shr    eax,0x1f
    a9cd:	add    eax,ecx
    a9cf:	add    ecx,r9d
    a9d2:	and    eax,0xfffffffe
    a9d5:	and    ecx,0x1
    a9d8:	mov    r8d,eax
    a9db:	mov    eax,edi
    a9dd:	shr    edi,0x1f
    a9e0:	sub    ecx,r9d
    a9e3:	shr    eax,0x1f
    a9e6:	add    eax,edx
    a9e8:	add    edx,edi
    a9ea:	sar    eax,1
    a9ec:	and    edx,0x1
    a9ef:	add    eax,r8d
    a9f2:	mov    r8,QWORD PTR [rsi+0x3738]
    a9f9:	sub    edx,edi
    a9fb:	cdqe   
    a9fd:	lea    edx,[rdx+rcx*2]
    aa00:	mov    rax,QWORD PTR [r8+rax*8]
    aa04:	movsxd rdx,edx
    aa07:	mov    rax,QWORD PTR [rax+rdx*8]
    aa0b:	mov    rbx,QWORD PTR [rax]
    aa0e:	mov    rax,QWORD PTR [rax+0x8]
    aa12:	mov    QWORD PTR [rsp+0x58],rbx
    aa17:	movsxd rbx,DWORD PTR [rsi+0xc]
    aa1b:	mov    QWORD PTR [rsp+0x68],rax
    aa20:	imul   rbx,rbx,0x278
    aa27:	add    rbx,QWORD PTR [rsi+0x3758]
    aa2e:	mov    eax,DWORD PTR [rbx+0xc]
    aa31:	sub    eax,0xc
    aa34:	cvtsi2sd xmm1,eax
    aa38:	divsd  xmm1,QWORD PTR [rip+0x60038]        # 6aa78 <QP_SCALE_CR+0x38>
    aa40:	call   4360 <pow@plt>
    aa45:	movsxd rax,DWORD PTR [rbx+0xc]
    aa49:	mulsd  xmm0,QWORD PTR [rip+0x60037]        # 6aa88 <QP_SCALE_CR+0x48>
    aa51:	lea    r11,[rsp+0xc0]
    aa59:	mulsd  xmm0,QWORD PTR [rip+0x6002f]        # 6aa90 <QP_SCALE_CR+0x50>
    aa61:	mov    r13,rax
    aa64:	imul   rax,rax,0x2aaaaaab
    aa6b:	mov    edx,r13d
    aa6e:	sar    edx,0x1f
    aa71:	shr    rax,0x20
    aa75:	mov    esi,eax
    aa77:	movsd  QWORD PTR [rsp+0x70],xmm0
    aa7d:	sub    esi,edx
    aa7f:	lea    eax,[rsi+rsi*2]
    aa82:	mov    DWORD PTR [rsp+0x60],esi
    aa86:	add    esi,0xf
    aa89:	add    eax,eax
    aa8b:	mov    ecx,esi
    aa8d:	mov    DWORD PTR [rsp+0x44],esi
    aa91:	sub    r13d,eax
    aa94:	movsxd rax,DWORD PTR [rbx+0x10]
    aa98:	mov    r12,rax
    aa9b:	imul   rax,rax,0x2aaaaaab
    aaa2:	mov    edx,r12d
    aaa5:	sar    edx,0x1f
    aaa8:	shr    rax,0x20
    aaac:	mov    ebx,eax
    aaae:	sub    ebx,edx
    aab0:	lea    eax,[rbx+rbx*2]
    aab3:	mov    DWORD PTR [rsp+0x48],ebx
    aab7:	add    eax,eax
    aab9:	sub    r12d,eax
    aabc:	mov    eax,0x1
    aac1:	add    ebx,0xf
    aac4:	mov    edi,eax
    aac6:	mov    DWORD PTR [rsp+0x1c],ebx
    aaca:	shl    edi,cl
    aacc:	movsxd rdx,edi
    aacf:	mov    rcx,rdx
    aad2:	imul   rdx,rdx,0x2aaaaaab
    aad9:	sar    ecx,0x1f
    aadc:	shr    rdx,0x20
    aae0:	mov    esi,edx
    aae2:	sub    esi,ecx
    aae4:	mov    ecx,ebx
    aae6:	shl    eax,cl
    aae8:	mov    DWORD PTR [rsp+0x4c],esi
    aaec:	mov    rsi,QWORD PTR [rip+0x7dabd]        # 885b0 <img>
    aaf3:	mov    edx,eax
    aaf5:	shr    edx,0x1f
    aaf8:	lea    r9,[rsi+0x100]
    aaff:	add    eax,edx
    ab01:	movsxd rdx,r14d
    ab04:	sar    eax,1
    ab06:	mov    DWORD PTR [rsp+0x28],eax
    ab0a:	movsxd rax,r15d
    ab0d:	shl    rax,0x4
    ab11:	add    rax,rdx
    ab14:	lea    rbx,[rsi+rax*2]
    ab18:	lea    rax,[rsp+0xb0]
    ab20:	mov    r10,rax
    ab23:	lea    rdx,[r9-0x100]
    ab2a:	mov    rdi,r10
    ab2d:	mov    rcx,rbx
    ab30:	movzx  r8d,WORD PTR [rcx+0x3138]
    ab38:	add    rdi,0x10
    ab3c:	add    rcx,0x20
    ab40:	add    DWORD PTR [rdx+0x3338],r8d
    ab47:	add    rdx,0x40
    ab4b:	mov    DWORD PTR [rdi-0x10],r8d
    ab4f:	cmp    rdx,r9
    ab52:	jne    ab30 <dct_luma_sp+0x1e0>
    ab54:	add    r10,0x4
    ab58:	add    rbx,0x2
    ab5c:	lea    r9,[rdx+0x4]
    ab60:	cmp    r10,r11
    ab63:	jne    ab23 <dct_luma_sp+0x1d3>
    ab65:	lea    rdx,[rsi+0x3338]
    ab6c:	lea    rbx,[rsi+0x3348]
    ab73:	mov    rcx,rdx
    ab76:	mov    r8d,DWORD PTR [rcx+0xc0]
    ab7d:	mov    edi,DWORD PTR [rcx]
    ab7f:	add    rcx,0x4
    ab83:	mov    ebp,DWORD PTR [rcx+0x7c]
    ab86:	lea    r9d,[rdi+r8*1]
    ab8a:	sub    edi,r8d
    ab8d:	mov    r8d,DWORD PTR [rcx+0x3c]
    ab91:	lea    r10d,[r8+rbp*1]
    ab95:	sub    r8d,ebp
    ab98:	lea    ebp,[r9+r10*1]
    ab9c:	sub    r9d,r10d
    ab9f:	mov    DWORD PTR [rcx+0x7c],r9d
    aba3:	lea    r9d,[r8+rdi*2]
    aba7:	add    r8d,r8d
    abaa:	sub    edi,r8d
    abad:	mov    DWORD PTR [rcx-0x4],ebp
    abb0:	mov    DWORD PTR [rcx+0x3c],r9d
    abb4:	mov    DWORD PTR [rcx+0xbc],edi
    abba:	cmp    rbx,rcx
    abbd:	jne    ab76 <dct_luma_sp+0x226>
    abbf:	lea    r10,[rsi+0x3438]
    abc6:	mov    edi,DWORD PTR [rdx+0xc]
    abc9:	mov    ecx,DWORD PTR [rdx]
    abcb:	add    rdx,0x40
    abcf:	mov    ebx,DWORD PTR [rdx-0x38]
    abd2:	lea    r8d,[rcx+rdi*1]
    abd6:	sub    ecx,edi
    abd8:	mov    edi,DWORD PTR [rdx-0x3c]
    abdb:	lea    r9d,[rdi+rbx*1]
    abdf:	sub    edi,ebx
    abe1:	lea    ebx,[r8+r9*1]
    abe5:	sub    r8d,r9d
    abe8:	mov    DWORD PTR [rdx-0x38],r8d
    abec:	lea    r8d,[rdi+rcx*2]
    abf0:	add    edi,edi
    abf2:	sub    ecx,edi
    abf4:	mov    DWORD PTR [rdx-0x40],ebx
    abf7:	mov    DWORD PTR [rdx-0x3c],r8d
    abfb:	mov    DWORD PTR [rdx-0x34],ecx
    abfe:	cmp    rdx,r10
    ac01:	jne    abc6 <dct_luma_sp+0x276>
    ac03:	mov    rdx,rax
    ac06:	mov    edi,DWORD PTR [rdx+0x30]
    ac09:	mov    ecx,DWORD PTR [rdx]
    ac0b:	add    rdx,0x4
    ac0f:	mov    r10d,DWORD PTR [rdx+0x1c]
    ac13:	lea    r8d,[rcx+rdi*1]
    ac17:	sub    ecx,edi
    ac19:	mov    edi,DWORD PTR [rdx+0xc]
    ac1c:	lea    r9d,[rdi+r10*1]
    ac20:	sub    edi,r10d
    ac23:	lea    r10d,[r8+r9*1]
    ac27:	sub    r8d,r9d
    ac2a:	mov    DWORD PTR [rdx+0x1c],r8d
    ac2e:	lea    r8d,[rdi+rcx*2]
    ac32:	add    edi,edi
    ac34:	sub    ecx,edi
    ac36:	mov    DWORD PTR [rdx-0x4],r10d
    ac3a:	mov    DWORD PTR [rdx+0xc],r8d
    ac3e:	mov    DWORD PTR [rdx+0x2c],ecx
    ac41:	cmp    rdx,r11
    ac44:	jne    ac06 <dct_luma_sp+0x2b6>
    ac46:	lea    r9,[rax+0x40]
    ac4a:	mov    ecx,DWORD PTR [rax+0xc]
    ac4d:	mov    edx,DWORD PTR [rax]
    ac4f:	add    rax,0x10
    ac53:	mov    r10d,DWORD PTR [rax-0x8]
    ac57:	lea    edi,[rdx+rcx*1]
    ac5a:	sub    edx,ecx
    ac5c:	mov    ecx,DWORD PTR [rax-0xc]
    ac5f:	lea    r8d,[rcx+r10*1]
    ac63:	sub    ecx,r10d
    ac66:	lea    r10d,[rdi+r8*1]
    ac6a:	sub    edi,r8d
    ac6d:	mov    DWORD PTR [rax-0x8],edi
    ac70:	lea    edi,[rcx+rdx*2]
    ac73:	add    ecx,ecx
    ac75:	sub    edx,ecx
    ac77:	mov    DWORD PTR [rax-0x10],r10d
    ac7b:	mov    DWORD PTR [rax-0xc],edi
    ac7e:	mov    DWORD PTR [rax-0x4],edx
    ac81:	cmp    r9,rax
    ac84:	jne    ac4a <dct_luma_sp+0x2fa>
    ac86:	lea    rax,[rip+0x5fd74]        # 6aa01 <FIELD_SCAN+0x1>
    ac8d:	movsxd r12,r12d
    ac90:	movsxd r13,r13d
    ac93:	mov    r15d,0xffffffff
    ac99:	mov    QWORD PTR [rsp],rax
    ac9d:	lea    rax,[rip+0x5fd7d]        # 6aa21 <SNGL_SCAN+0x1>
    aca4:	mov    QWORD PTR [rsp+0x30],rax
    aca9:	lea    rax,[r12*4+0x0]
    acb1:	mov    QWORD PTR [rsp+0x8],rax
    acb6:	lea    rax,[r13*4+0x0]
    acbe:	mov    DWORD PTR [rsp+0x64],0x0
    acc6:	mov    DWORD PTR [rsp+0x40],0x0
    acce:	mov    QWORD PTR [rsp+0x20],rax
    acd3:	mov    DWORD PTR [rsp+0x18],r15d
    acd8:	jmp    ae62 <dct_luma_sp+0x512>
    acdd:	nop    DWORD PTR [rax]
    ace0:	mov    edx,DWORD PTR [rip+0x9612a]        # a0e10 <mb_adaptive>
    ace6:	test   edx,edx
    ace8:	je     acf8 <dct_luma_sp+0x3a8>
    acea:	mov    eax,DWORD PTR [rsi+0x11948]
    acf0:	test   eax,eax
    acf2:	jne    ae70 <dct_luma_sp+0x520>
    acf8:	mov    rax,QWORD PTR [rsp+0x30]
    acfd:	movzx  ebx,BYTE PTR [rax-0x1]
    ad01:	movzx  r14d,BYTE PTR [rax]
    ad05:	lea    rax,[r14+rbx*4]
    ad09:	lea    r13,[rip+0x5f790]        # 6a4a0 <quant_coef>
    ad10:	mov    edx,DWORD PTR [rsp+0x1c]
    ad14:	add    DWORD PTR [rsp+0x18],0x1
    ad19:	mov    r15d,DWORD PTR [rsp+rax*4+0xb0]
    ad21:	mov    QWORD PTR [rsp+0x38],rax
    ad26:	mov    rax,QWORD PTR [rsp+0x8]
    ad2b:	mov    ecx,edx
    ad2d:	mov    rdx,rbx
    ad30:	shl    rdx,0x4
    ad34:	add    rax,rbx
    ad37:	lea    r10,[rdx+r14*1+0xccc]
    ad3f:	lea    rax,[r14+rax*4]
    ad43:	mov    r12d,DWORD PTR [rsi+r10*4+0x8]
    ad48:	mov    esi,r15d
    ad4b:	mov    QWORD PTR [rsp+0x10],r10
    ad50:	mov    edi,DWORD PTR [r13+rax*4+0x0]
    ad55:	mov    eax,r15d
    ad58:	sar    eax,0x1f
    ad5b:	mov    ebp,eax
    ad5d:	mov    DWORD PTR [rsp+0x2c],edi
    ad61:	xor    ebp,r15d
    ad64:	sub    ebp,eax
    ad66:	imul   ebp,edi
    ad69:	add    ebp,DWORD PTR [rsp+0x28]
    ad6d:	sar    ebp,cl
    ad6f:	mov    eax,ebp
    ad71:	shl    eax,cl
    ad73:	cdq    
    ad74:	idiv   edi
    ad76:	mov    edi,eax
    ad78:	call   465a0 <sign>
    ad7d:	mov    r9d,r12d
    ad80:	mov    esi,DWORD PTR [rsp+0x4c]
    ad84:	mov    edi,DWORD PTR [rsp+0x44]
    ad88:	sub    r9d,eax
    ad8b:	mov    rax,QWORD PTR [rsp+0x20]
    ad90:	mov    r10,QWORD PTR [rsp+0x10]
    ad95:	mov    edx,r9d
    ad98:	mov    ecx,edi
    ad9a:	add    rax,rbx
    ad9d:	sar    edx,0x1f
    ada0:	lea    r11,[r14+rax*4]
    ada4:	mov    eax,DWORD PTR [r13+r11*4+0x0]
    ada9:	mov    r13d,edx
    adac:	xor    r13d,r9d
    adaf:	sub    r13d,edx
    adb2:	mov    rdx,QWORD PTR [rip+0x7d7f7]        # 885b0 <img>
    adb9:	imul   r13d,eax
    adbd:	mov    edx,DWORD PTR [rdx+r10*4+0x8]
    adc2:	mov    r8d,edx
    adc5:	add    r13d,esi
    adc8:	sub    r8d,r15d
    adcb:	sar    r13d,cl
    adce:	mov    ecx,r8d
    add1:	sar    ecx,0x1f
    add4:	mov    r12d,ecx
    add7:	xor    r12d,r8d
    adda:	sub    r12d,ecx
    addd:	mov    ecx,edi
    addf:	imul   r12d,eax
    ade3:	add    r12d,esi
    ade6:	sar    r12d,cl
    ade9:	cmp    r13d,r12d
    adec:	je     aea0 <dct_luma_sp+0x550>
    adf2:	test   r13d,r13d
    adf5:	je     ae88 <dct_luma_sp+0x538>
    adfb:	test   r12d,r12d
    adfe:	jne    afa0 <dct_luma_sp+0x650>
    ae04:	mov    esi,r15d
    ae07:	mov    edi,ebp
    ae09:	call   465a0 <sign>
    ae0e:	mov    rdx,rbx
    ae11:	add    rbx,QWORD PTR [rsp+0x8]
    ae16:	mov    rsi,QWORD PTR [rip+0x7d793]        # 885b0 <img>
    ae1d:	lea    rcx,[r14+rbx*4]
    ae21:	shl    rdx,0x4
    ae25:	lea    rbx,[rip+0x5f4f4]        # 6a320 <dequant_coef>
    ae2c:	add    QWORD PTR [rsp],0x2
    ae31:	imul   eax,DWORD PTR [rbx+rcx*4]
    ae35:	movzx  ecx,BYTE PTR [rsp+0x48]
    ae3a:	lea    rdx,[rdx+r14*1+0xccc]
    ae42:	lea    rbx,[rip+0x5fbd8]        # 6aa21 <SNGL_SCAN+0x1>
    ae49:	add    QWORD PTR [rsp+0x30],0x2
    ae4f:	shl    eax,cl
    ae51:	mov    DWORD PTR [rsi+rdx*4+0x8],eax
    ae55:	mov    rax,QWORD PTR [rsp]
    ae59:	cmp    rbx,rax
    ae5c:	je     b160 <dct_luma_sp+0x810>
    ae62:	mov    ecx,DWORD PTR [rsi+0x11afc]
    ae68:	test   ecx,ecx
    ae6a:	je     ace0 <dct_luma_sp+0x390>
    ae70:	mov    rax,QWORD PTR [rsp]
    ae74:	movzx  ebx,BYTE PTR [rax-0x1]
    ae78:	movzx  r14d,BYTE PTR [rax]
    ae7c:	jmp    ad05 <dct_luma_sp+0x3b5>
    ae81:	nop    DWORD PTR [rax+0x0]
    ae88:	cmp    r13d,r12d
    ae8b:	je     aea0 <dct_luma_sp+0x550>
    ae8d:	test   r13d,r13d
    ae90:	je     ae04 <dct_luma_sp+0x4b4>
    ae96:	mov    r9d,r8d
    ae99:	nop    DWORD PTR [rax+0x0]
    aea0:	test   r12d,r12d
    aea3:	je     ae04 <dct_luma_sp+0x4b4>
    aea9:	mov    rax,QWORD PTR [rsp+0x50]
    aeae:	mov    eax,DWORD PTR [rax]
    aeb0:	cmp    r12d,0x1
    aeb4:	jle    af70 <dct_luma_sp+0x620>
    aeba:	add    eax,0xf423f
    aebf:	mov    rsi,QWORD PTR [rsp+0x50]
    aec4:	movsxd rbp,DWORD PTR [rsp+0x40]
    aec9:	mov    edi,r12d
    aecc:	mov    DWORD PTR [rsp+0x10],r9d
    aed1:	mov    DWORD PTR [rsi],eax
    aed3:	mov    rsi,QWORD PTR [rsp+0x58]
    aed8:	lea    r13,[rsi+rbp*4]
    aedc:	mov    esi,r9d
    aedf:	call   465a0 <sign>
    aee4:	mov    rsi,QWORD PTR [rsp+0x68]
    aee9:	mov    ecx,DWORD PTR [rsp+0x18]
    aeed:	mov    edi,r12d
    aef0:	mov    DWORD PTR [r13+0x0],eax
    aef4:	mov    r9d,DWORD PTR [rsp+0x10]
    aef9:	mov    DWORD PTR [rsi+rbp*4],ecx
    aefc:	mov    esi,r9d
    aeff:	add    DWORD PTR [rsp+0x40],0x1
    af04:	call   465a0 <sign>
    af09:	mov    rsi,QWORD PTR [rsp+0x20]
    af0e:	movzx  ecx,BYTE PTR [rsp+0x60]
    af13:	mov    DWORD PTR [rsp+0x64],0x1
    af1b:	mov    DWORD PTR [rsp+0x18],0xffffffff
    af23:	lea    rdx,[rsi+rbx*1]
    af27:	lea    rsi,[rip+0x5f3f2]        # 6a320 <dequant_coef>
    af2e:	lea    rdx,[r14+rdx*4]
    af32:	imul   eax,DWORD PTR [rsi+rdx*4]
    af36:	lea    rdx,[r14+rbx*4]
    af3a:	lea    rsi,[rip+0x5f39f]        # 6a2e0 <A>
    af41:	imul   eax,DWORD PTR [rsi+rdx*4]
    af45:	shl    eax,cl
    af47:	movzx  ecx,BYTE PTR [rsp+0x1c]
    af4c:	sar    eax,0x6
    af4f:	add    r15d,eax
    af52:	mov    eax,r15d
    af55:	sar    eax,0x1f
    af58:	mov    ebp,eax
    af5a:	xor    ebp,r15d
    af5d:	sub    ebp,eax
    af5f:	imul   ebp,DWORD PTR [rsp+0x2c]
    af64:	add    ebp,DWORD PTR [rsp+0x28]
    af68:	sar    ebp,cl
    af6a:	jmp    ae04 <dct_luma_sp+0x4b4>
    af6f:	nop
    af70:	mov    rdx,QWORD PTR [rip+0x7d641]        # 885b8 <input>
    af77:	movsxd rcx,DWORD PTR [rsp+0x18]
    af7c:	lea    rsi,[rip+0x5fa5d]        # 6a9e0 <COEFF_COST>
    af83:	movsxd rdx,DWORD PTR [rdx+0x9a4]
    af8a:	shl    rdx,0x4
    af8e:	add    rdx,rsi
    af91:	movzx  edx,BYTE PTR [rdx+rcx*1]
    af95:	add    eax,edx
    af97:	jmp    aebf <dct_luma_sp+0x56f>
    af9c:	nop    DWORD PTR [rax+0x0]
    afa0:	mov    esi,r9d
    afa3:	mov    edi,r13d
    afa6:	mov    DWORD PTR [rsp+0x8c],r9d
    afae:	mov    QWORD PTR [rsp+0x90],r10
    afb6:	mov    DWORD PTR [rsp+0x64],r8d
    afbb:	mov    QWORD PTR [rsp+0x78],r11
    afc0:	mov    DWORD PTR [rsp+0x10],edx
    afc4:	call   465a0 <sign>
    afc9:	mov    edx,DWORD PTR [rsp+0x10]
    afcd:	pxor   xmm0,xmm0
    afd1:	mov    edi,r13d
    afd4:	mov    r11,QWORD PTR [rsp+0x78]
    afd9:	lea    rsi,[rip+0x5f340]        # 6a320 <dequant_coef>
    afe0:	mov    rcx,QWORD PTR [rsp+0x38]
    afe5:	mov    r11d,DWORD PTR [rsi+r11*4]
    afe9:	lea    rsi,[rip+0x5f2f0]        # 6a2e0 <A>
    aff0:	mov    ebp,DWORD PTR [rsi+rcx*4]
    aff3:	movzx  ecx,BYTE PTR [rsp+0x60]
    aff8:	imul   eax,r11d
    affc:	mov    esi,DWORD PTR [rsp+0x18]
    b000:	mov    DWORD PTR [rsp+0x88],r11d
    b008:	imul   eax,ebp
    b00b:	shl    eax,cl
    b00d:	sar    eax,0x6
    b010:	sub    edx,eax
    b012:	lea    rax,[rsp+0xac]
    b01a:	sub    edx,r15d
    b01d:	mov    rcx,rax
    b020:	mov    QWORD PTR [rsp+0x38],rax
    b025:	cvtsi2sd xmm0,edx
    b029:	lea    rdx,[rsp+0xa8]
    b031:	mov    QWORD PTR [rsp+0x80],rdx
    b039:	movsd  QWORD PTR [rsp+0x10],xmm0
    b03f:	call   66560 <levrun_linfo_inter>
    b044:	movsd  xmm0,QWORD PTR [rsp+0x10]
    b04a:	pxor   xmm1,xmm1
    b04e:	mov    r10,QWORD PTR [rsp+0x90]
    b056:	cvtsi2sd xmm1,DWORD PTR [rsp+0xa8]
    b05f:	mulsd  xmm1,QWORD PTR [rsp+0x70]
    b065:	mov    r8d,DWORD PTR [rsp+0x64]
    b06a:	mulsd  xmm0,xmm0
    b06e:	mov    rax,QWORD PTR [rip+0x7d53b]        # 885b0 <img>
    b075:	mov    esi,r8d
    b078:	mov    edi,DWORD PTR [rax+r10*4+0x8]
    b07d:	mov    DWORD PTR [rsp+0x10],edi
    b081:	mov    edi,r12d
    b084:	addsd  xmm0,xmm1
    b088:	movsd  QWORD PTR [rsp+0x78],xmm0
    b08e:	call   465a0 <sign>
    b093:	pxor   xmm1,xmm1
    b097:	mov    esi,DWORD PTR [rsp+0x18]
    b09b:	mov    edi,r12d
    b09e:	mov    r11d,DWORD PTR [rsp+0x88]
    b0a6:	movzx  ecx,BYTE PTR [rsp+0x60]
    b0ab:	mov    rdx,QWORD PTR [rsp+0x80]
    b0b3:	imul   r11d,eax
    b0b7:	imul   r11d,ebp
    b0bb:	mov    ebp,DWORD PTR [rsp+0x10]
    b0bf:	shl    r11d,cl
    b0c2:	mov    rcx,QWORD PTR [rsp+0x38]
    b0c7:	sar    r11d,0x6
    b0cb:	sub    ebp,r11d
    b0ce:	sub    ebp,r15d
    b0d1:	cvtsi2sd xmm1,ebp
    b0d5:	movsd  QWORD PTR [rsp+0x10],xmm1
    b0db:	call   66560 <levrun_linfo_inter>
    b0e0:	movsd  xmm1,QWORD PTR [rsp+0x10]
    b0e6:	pxor   xmm2,xmm2
    b0ea:	movsd  xmm0,QWORD PTR [rsp+0x78]
    b0f0:	cvtsi2sd xmm2,DWORD PTR [rsp+0xa8]
    b0f9:	mulsd  xmm2,QWORD PTR [rsp+0x70]
    b0ff:	mov    r8d,DWORD PTR [rsp+0x64]
    b104:	mulsd  xmm1,xmm1
    b108:	mov    r9d,DWORD PTR [rsp+0x8c]
    b110:	addsd  xmm1,xmm2
    b114:	ucomisd xmm0,xmm1
    b118:	jp     b148 <dct_luma_sp+0x7f8>
    b11a:	jne    b148 <dct_luma_sp+0x7f8>
    b11c:	mov    eax,r13d
    b11f:	mov    ecx,r12d
    b122:	sar    eax,0x1f
    b125:	sar    ecx,0x1f
    b128:	mov    edx,eax
    b12a:	xor    edx,r13d
    b12d:	sub    edx,eax
    b12f:	mov    eax,ecx
    b131:	xor    eax,r12d
    b134:	sub    eax,ecx
    b136:	cmp    edx,eax
    b138:	cmovl  r12d,r13d
    b13c:	cmovge r9d,r8d
    b140:	jmp    aea9 <dct_luma_sp+0x559>
    b145:	nop    DWORD PTR [rax]
    b148:	comisd xmm1,xmm0
    b14c:	cmovbe r9d,r8d
    b150:	cmova  r12d,r13d
    b154:	jmp    aea9 <dct_luma_sp+0x559>
    b159:	nop    DWORD PTR [rax+0x0]
    b160:	movsxd rax,DWORD PTR [rsp+0x40]
    b165:	mov    rbx,QWORD PTR [rsp+0x58]
    b16a:	lea    rcx,[rsi+0x3338]
    b171:	lea    r10,[rsi+0x3348]
    b178:	mov    DWORD PTR [rbx+rax*4],0x0
    b17f:	mov    rax,rcx
    b182:	mov    r11d,DWORD PTR [rax+0x40]
    b186:	mov    edx,DWORD PTR [rax]
    b188:	add    rax,0x4
    b18c:	mov    r8d,DWORD PTR [rax+0x7c]
    b190:	mov    edi,DWORD PTR [rax+0xbc]
    b196:	lea    r9d,[r8+rdx*1]
    b19a:	sub    edx,r8d
    b19d:	mov    r8d,r11d
    b1a0:	sar    r8d,1
    b1a3:	sub    r8d,edi
    b1a6:	sar    edi,1
    b1a8:	add    edi,r11d
    b1ab:	lea    r11d,[r9+rdi*1]
    b1af:	sub    r9d,edi
    b1b2:	lea    edi,[rdx+r8*1]
    b1b6:	sub    edx,r8d
    b1b9:	mov    DWORD PTR [rax-0x4],r11d
    b1bd:	mov    DWORD PTR [rax+0xbc],r9d
    b1c4:	mov    DWORD PTR [rax+0x3c],edi
    b1c7:	mov    DWORD PTR [rax+0x7c],edx
    b1ca:	cmp    r10,rax
    b1cd:	jne    b182 <dct_luma_sp+0x832>
    b1cf:	mov    edi,DWORD PTR [rsi+0x11bec]
    b1d5:	lea    r9,[rsi+0x3438]
    b1dc:	xor    r8d,r8d
    b1df:	mov    r11d,DWORD PTR [rcx+0x4]
    b1e3:	mov    r10d,DWORD PTR [rcx+0x8]
    b1e7:	mov    eax,DWORD PTR [rcx]
    b1e9:	mov    ebx,DWORD PTR [rcx+0xc]
    b1ec:	lea    edx,[r10+rax*1]
    b1f0:	sub    eax,r10d
    b1f3:	mov    r10d,r11d
    b1f6:	sar    r10d,1
    b1f9:	sub    r10d,ebx
    b1fc:	sar    ebx,1
    b1fe:	add    ebx,r11d
    b201:	lea    r11d,[rdx+rbx*1+0x20]
    b206:	sar    r11d,0x6
    b20a:	cmovs  r11d,r8d
    b20e:	cmp    r11d,edi
    b211:	cmovg  r11d,edi
    b215:	sub    edx,ebx
    b217:	add    edx,0x20
    b21a:	sar    edx,0x6
    b21d:	mov    DWORD PTR [rcx],r11d
    b220:	cmovs  edx,r8d
    b224:	cmp    edx,edi
    b226:	cmovg  edx,edi
    b229:	mov    DWORD PTR [rcx+0xc],edx
    b22c:	lea    edx,[rax+r10*1+0x20]
    b231:	sar    edx,0x6
    b234:	cmovs  edx,r8d
    b238:	cmp    edx,edi
    b23a:	cmovg  edx,edi
    b23d:	sub    eax,r10d
    b240:	add    eax,0x20
    b243:	sar    eax,0x6
    b246:	mov    DWORD PTR [rcx+0x4],edx
    b249:	cmovs  eax,r8d
    b24d:	cmp    eax,edi
    b24f:	cmovg  eax,edi
    b252:	add    rcx,0x40
    b256:	mov    DWORD PTR [rcx-0x38],eax
    b259:	cmp    r9,rcx
    b25c:	jne    b1df <dct_luma_sp+0x88f>
    b25e:	mov    rdx,QWORD PTR [rip+0x7f743]        # 8a9a8 <enc_picture>
    b265:	mov    eax,DWORD PTR [rsp+0x9c]
    b26c:	lea    rdi,[rsi+0x100]
    b273:	lea    r9,[rsi+0x110]
    b27a:	add    eax,DWORD PTR [rsi+0x9c]
    b280:	mov    rdx,QWORD PTR [rdx+0x1918]
    b287:	cdqe   
    b289:	lea    r8,[rdx+rax*8]
    b28d:	mov    eax,DWORD PTR [rsp+0x98]
    b294:	add    eax,DWORD PTR [rsi+0x98]
    b29a:	movsxd rsi,eax
    b29d:	add    rsi,rsi
    b2a0:	mov    rdx,QWORD PTR [r8]
    b2a3:	lea    rax,[rdi-0x100]
    b2aa:	add    rdx,rsi
    b2ad:	mov    ecx,DWORD PTR [rax+0x3338]
    b2b3:	add    rax,0x40
    b2b7:	add    rdx,0x2
    b2bb:	mov    WORD PTR [rdx-0x2],cx
    b2bf:	cmp    rax,rdi
    b2c2:	jne    b2ad <dct_luma_sp+0x95d>
    b2c4:	lea    rdi,[rax+0x4]
    b2c8:	add    r8,0x8
    b2cc:	cmp    r9,rdi
    b2cf:	jne    b2a0 <dct_luma_sp+0x950>
    b2d1:	mov    rax,QWORD PTR [rsp+0xf8]
    b2d9:	xor    rax,QWORD PTR fs:0x28
    b2e2:	jne    b2fa <dct_luma_sp+0x9aa>
    b2e4:	mov    eax,DWORD PTR [rsp+0x64]
    b2e8:	add    rsp,0x108
    b2ef:	pop    rbx
    b2f0:	pop    rbp
    b2f1:	pop    r12
    b2f3:	pop    r13
    b2f5:	pop    r14
    b2f7:	pop    r15
    b2f9:	ret    
    b2fa:	call   4390 <__stack_chk_fail@plt>
    b2ff:	nop

000000000000b300 <dct_chroma_sp>:
    b300:	endbr64 
    b304:	push   r15
    b306:	pxor   xmm1,xmm1
    b30a:	push   r14
    b30c:	push   r13
    b30e:	push   r12
    b310:	push   rbp
    b311:	push   rbx
    b312:	sub    rsp,0x268
    b319:	mov    rdx,QWORD PTR [rip+0x7d290]        # 885b0 <img>
    b320:	movsd  xmm0,QWORD PTR [rip+0x5f758]        # 6aa80 <QP_SCALE_CR+0x40>
    b328:	mov    DWORD PTR [rsp+0x48],edi
    b32c:	mov    DWORD PTR [rsp+0xd8],esi
    b333:	mov    rbx,QWORD PTR [rdx+0x3758]
    b33a:	mov    rax,QWORD PTR fs:0x28
    b343:	mov    QWORD PTR [rsp+0x258],rax
    b34b:	xor    eax,eax
    b34d:	movsxd rax,DWORD PTR [rdx+0xc]
    b351:	mov    rdx,QWORD PTR [rdx+0x3740]
    b358:	imul   rax,rax,0x278
    b35f:	add    rbx,rax
    b362:	movsxd rax,edi
    b365:	add    rax,0x1
    b369:	mov    QWORD PTR [rsp+0x90],rbx
    b371:	lea    rsi,[rax*8+0x0]
    b379:	mov    rax,QWORD PTR [rdx+rax*8]
    b37d:	mov    QWORD PTR [rsp+0x108],rsi
    b385:	mov    rsi,QWORD PTR [rax]
    b388:	mov    rax,QWORD PTR [rax+0x8]
    b38c:	mov    QWORD PTR [rsp+0x80],rax
    b394:	mov    eax,DWORD PTR [rbx+0xc]
    b397:	mov    QWORD PTR [rsp+0x58],rsi
    b39c:	mov    DWORD PTR [rsp],eax
    b39f:	sub    eax,0xc
    b3a2:	cvtsi2sd xmm1,eax
    b3a6:	divsd  xmm1,QWORD PTR [rip+0x5f6ca]        # 6aa78 <QP_SCALE_CR+0x38>
    b3ae:	call   4360 <pow@plt>
    b3b3:	mov    rax,QWORD PTR [rip+0x95a46]        # a0e00 <active_pps>
    b3ba:	mov    edx,DWORD PTR [rbx+0xc]
    b3bd:	mov    r9d,0x33
    b3c3:	lea    rdi,[rip+0x5f676]        # 6aa40 <QP_SCALE_CR>
    b3ca:	mov    esi,0xaaaaaaab
    b3cf:	mov    eax,DWORD PTR [rax+0xd0]
    b3d5:	mulsd  xmm0,QWORD PTR [rip+0x5f6ab]        # 6aa88 <QP_SCALE_CR+0x48>
    b3dd:	mulsd  xmm0,QWORD PTR [rip+0x5f6ab]        # 6aa90 <QP_SCALE_CR+0x50>
    b3e5:	add    edx,eax
    b3e7:	cmp    edx,0x33
    b3ea:	cmovg  edx,r9d
    b3ee:	xor    r8d,r8d
    b3f1:	movsd  QWORD PTR [rsp+0x98],xmm0
    b3fa:	test   edx,edx
    b3fc:	cmovs  edx,r8d
    b400:	add    eax,DWORD PTR [rbx+0x10]
    b403:	movsxd rdx,edx
    b406:	movzx  edx,BYTE PTR [rdi+rdx*1]
    b40a:	mov    rcx,rdx
    b40d:	imul   rdx,rsi
    b411:	shr    rdx,0x22
    b415:	mov    r14,rdx
    b418:	mov    DWORD PTR [rsp+0xc8],edx
    b41f:	lea    edx,[rdx+rdx*2]
    b422:	add    edx,edx
    b424:	sub    ecx,edx
    b426:	mov    edx,0x1
    b42b:	mov    r10d,edx
    b42e:	mov    DWORD PTR [rsp+0x38],ecx
    b432:	lea    ecx,[r14+0xf]
    b436:	shl    r10d,cl
    b439:	mov    DWORD PTR [rsp+0x6c],ecx
    b43d:	movsxd rcx,r10d
    b440:	sar    r10d,0x1f
    b444:	imul   rcx,rcx,0x2aaaaaab
    b44b:	shr    rcx,0x20
    b44f:	sub    ecx,r10d
    b452:	cmp    eax,0x33
    b455:	cmovg  eax,r9d
    b459:	mov    DWORD PTR [rsp+0x68],ecx
    b45d:	test   eax,eax
    b45f:	cmovs  eax,r8d
    b463:	lea    r8,[rsp+0x170]
    b46b:	cdqe   
    b46d:	movzx  eax,BYTE PTR [rdi+rax*1]
    b471:	imul   rsi,rax
    b475:	mov    rcx,rax
    b478:	shr    rsi,0x22
    b47c:	lea    eax,[rsi+rsi*2]
    b47f:	mov    DWORD PTR [rsp+0x64],esi
    b483:	add    eax,eax
    b485:	sub    ecx,eax
    b487:	lea    eax,[rsi+0xf]
    b48a:	lea    rsi,[rsp+0x150]
    b492:	mov    DWORD PTR [rsp+0x30],ecx
    b496:	mov    ecx,eax
    b498:	shl    edx,cl
    b49a:	mov    DWORD PTR [rsp+0x60],eax
    b49e:	mov    eax,edx
    b4a0:	mov    QWORD PTR [rsp+0x10],rsi
    b4a5:	shr    eax,0x1f
    b4a8:	add    edx,eax
    b4aa:	mov    rax,QWORD PTR [rip+0x7d0ff]        # 885b0 <img>
    b4b1:	sar    edx,1
    b4b3:	mov    DWORD PTR [rsp+0x44],edx
    b4b7:	mov    rcx,rax
    b4ba:	mov    rdi,rax
    b4bd:	mov    QWORD PTR [rsp+0x20],rax
    b4c2:	nop    WORD PTR [rax+rax*1+0x0]
    b4c8:	xor    eax,eax
    b4ca:	nop    WORD PTR [rax+rax*1+0x0]
    b4d0:	movzx  edx,WORD PTR [rdi+rax*1+0x3138]
    b4d8:	add    DWORD PTR [rcx+rax*2+0x3338],edx
    b4df:	mov    DWORD PTR [rsi+rax*1],edx
    b4e2:	add    rax,0x20
    b4e6:	cmp    rax,0x100
    b4ec:	jne    b4d0 <dct_chroma_sp+0x1d0>
    b4ee:	add    rsi,0x4
    b4f2:	add    rcx,0x4
    b4f6:	add    rdi,0x2
    b4fa:	cmp    rsi,r8
